(dp1
S'output'
p2
S"<type 'exceptions.SyntaxError'> Field: unknown field type: list for img"
p3
sS'layer'
p4
S'/var/www/web2py_hosts/applications/projeto/models/models.py'
p5
sS'code'
p6
S'\n\nBlog = db.define_table("blog",\n      Field("title", notnull=True, unique=True),\n      Field("description", "text"),\n\t)\n\nCategory = db.define_table("category",\n       Field("name"),\n\t)\n\nPost = db.define_table("post",\n      Field("blog", "reference blog"), # FK\n      Field("title", notnull=True),\n      Field("slug"),\n      Field("post_body", "text"),\n      Field("post_date", "datetime"),\n      Field("is_draft", "boolean"),\n      Field("tags", "list:string"),\n      Field("category", "list:reference category"),\n\t)\n\n\n\nCliente = db.define_table("cliente",\n      Field("nome", notnull=True, unique=True),\n      Field("email", unique=True),\n      #auth.signature\n      format="%(nome)s")\n\nServidor = db.define_table("servidor",\n      Field("nome"),\n      format="%(nome)s")\n\nDistro = db.define_table("distro",\n      Field("nome"),\n      Field("img", "list"),\n      format="%(nome)s")\n\nHosts = db.define_table("hosts",\n      Field("id_cliente", db.cliente),\n      Field("id_servidor", db.servidor),\n      Field("id_distro", db.distro),\n      Field("nome"),\n      Field("servicos")\n      )\n'
p7
sS'snapshot'
p8
(dp9
S'exception'
p10
(dp11
S'__getslice__'
p12
S"<method-wrapper '__getslice__' of exceptions.SyntaxError object>"
p13
sS'text'
p14
S'None'
p15
sS'__str__'
p16
S"<method-wrapper '__str__' of exceptions.SyntaxError object>"
p17
sS'__reduce__'
p18
S'<built-in method __reduce__ of exceptions.SyntaxError object>'
p19
sS'__dict__'
p20
S'{}'
p21
sS'__sizeof__'
p22
S'<built-in method __sizeof__ of exceptions.SyntaxError object>'
p23
sS'__init__'
p24
S"<method-wrapper '__init__' of exceptions.SyntaxError object>"
p25
sS'__setattr__'
p26
S"<method-wrapper '__setattr__' of exceptions.SyntaxError object>"
p27
sS'__reduce_ex__'
p28
S'<built-in method __reduce_ex__ of exceptions.SyntaxError object>'
p29
sS'__new__'
p30
S'<built-in method __new__ of type object>'
p31
sS'__format__'
p32
S'<built-in method __format__ of exceptions.SyntaxError object>'
p33
sS'__class__'
p34
S"<type 'exceptions.SyntaxError'>"
p35
sS'filename'
p36
S'None'
p37
sS'lineno'
p38
S'None'
p39
sS'msg'
p40
S"'Field: unknown field type: list for img'"
p41
sS'__doc__'
p42
S"'Invalid syntax.'"
p43
sS'__getitem__'
p44
S"<method-wrapper '__getitem__' of exceptions.SyntaxError object>"
p45
sS'__setstate__'
p46
S'<built-in method __setstate__ of exceptions.SyntaxError object>'
p47
sS'__getattribute__'
p48
S"<method-wrapper '__getattribute__' of exceptions.SyntaxError object>"
p49
sS'print_file_and_line'
p50
S'None'
p51
sS'args'
p52
S"('Field: unknown field type: list for img',)"
p53
sS'__subclasshook__'
p54
S'<built-in method __subclasshook__ of type object>'
p55
sS'offset'
p56
S'None'
p57
sS'__unicode__'
p58
S'<built-in method __unicode__ of exceptions.SyntaxError object>'
p59
sS'__delattr__'
p60
S"<method-wrapper '__delattr__' of exceptions.SyntaxError object>"
p61
sS'__repr__'
p62
S"<method-wrapper '__repr__' of exceptions.SyntaxError object>"
p63
sS'__hash__'
p64
S"<method-wrapper '__hash__' of exceptions.SyntaxError object>"
p65
ssS'evalue'
p66
S'Field: unknown field type: list for img'
p67
sS'request'
p68
ccopy_reg
_reconstructor
p69
(cgluon.html
BEAUTIFY
p70
c__builtin__
object
p71
NtRp72
(dp73
S'attributes'
p74
(dp75
sS'components'
p76
(lp77
g69
(cgluon.html
TABLE
p78
g71
NtRp79
(dp80
g74
(dp81
S'level'
p82
I5
ssS'parent'
p83
Nsg76
(lp84
g69
(cgluon.html
TR
p85
g71
NtRp86
(dp87
g74
(dp88
sg83
g79
sg76
(lp89
g69
(cgluon.html
TD
p90
g71
NtRp91
(dp92
g74
(dp93
S'_style'
p94
S'font-weight:bold;vertical-align:top'
p95
ssg83
g86
sg76
(lp96
S'ajax'
p97
asbag69
(g90
g71
NtRp98
(dp99
g74
(dp100
S'_valign'
p101
S'top'
p102
ssg83
g86
sg76
(lp103
S':'
asbag69
(g90
g71
NtRp104
(dp105
g74
(dp106
sg83
g86
sg76
(lp107
g69
(g70
g71
NtRp108
(dp109
g74
(dp110
g82
I5
ssg83
g104
sg76
(lp111
S'False'
p112
asbasbasbag69
(g85
g71
NtRp113
(dp114
g74
(dp115
sg83
g79
sg76
(lp116
g69
(g90
g71
NtRp117
(dp118
g74
(dp119
g94
g95
ssg83
g113
sg76
(lp120
S'application'
p121
asbag69
(g90
g71
NtRp122
(dp123
g74
(dp124
g101
g102
ssg83
g113
sg76
(lp125
S':'
asbag69
(g90
g71
NtRp126
(dp127
g74
(dp128
sg83
g113
sg76
(lp129
g69
(g70
g71
NtRp130
(dp131
g74
(dp132
g82
I5
ssg83
g126
sg76
(lp133
S'projeto'
p134
asbasbasbag69
(g85
g71
NtRp135
(dp136
g74
(dp137
sg83
g79
sg76
(lp138
g69
(g90
g71
NtRp139
(dp140
g74
(dp141
g94
g95
ssg83
g135
sg76
(lp142
g52
asbag69
(g90
g71
NtRp143
(dp144
g74
(dp145
g101
g102
ssg83
g135
sg76
(lp146
S':'
asbag69
(g90
g71
NtRp147
(dp148
g74
(dp149
sg83
g135
sg76
(lp150
g69
(g70
g71
NtRp151
(dp152
g74
(dp153
g82
I5
ssg83
g147
sg76
(lp154
g69
(g78
g71
NtRp155
(dp156
g74
(dp157
g82
I4
ssg83
Nsg76
(lp158
sbasbasbasbag69
(g85
g71
NtRp159
(dp160
g74
(dp161
sg83
g79
sg76
(lp162
g69
(g90
g71
NtRp163
(dp164
g74
(dp165
g94
g95
ssg83
g159
sg76
(lp166
S'body'
p167
asbag69
(g90
g71
NtRp168
(dp169
g74
(dp170
g101
g102
ssg83
g159
sg76
(lp171
S':'
asbag69
(g90
g71
NtRp172
(dp173
g74
(dp174
sg83
g159
sg76
(lp175
g69
(g70
g71
NtRp176
(dp177
g74
(dp178
g82
I5
ssg83
g172
sg76
(lp179
S'<cStringIO.StringO object at 0x7f6b90117110>'
p180
asbasbasbag69
(g85
g71
NtRp181
(dp182
g74
(dp183
sg83
g79
sg76
(lp184
g69
(g90
g71
NtRp185
(dp186
g74
(dp187
g94
g95
ssg83
g181
sg76
(lp188
S'cid'
p189
asbag69
(g90
g71
NtRp190
(dp191
g74
(dp192
g101
g102
ssg83
g181
sg76
(lp193
S':'
asbag69
(g90
g71
NtRp194
(dp195
g74
(dp196
sg83
g181
sg76
(lp197
g69
(g70
g71
NtRp198
(dp199
g74
(dp200
g82
I5
ssg83
g194
sg76
(lp201
S'None'
p202
asbasbasbag69
(g85
g71
NtRp203
(dp204
g74
(dp205
sg83
g79
sg76
(lp206
g69
(g90
g71
NtRp207
(dp208
g74
(dp209
g94
g95
ssg83
g203
sg76
(lp210
S'client'
p211
asbag69
(g90
g71
NtRp212
(dp213
g74
(dp214
g101
g102
ssg83
g203
sg76
(lp215
S':'
asbag69
(g90
g71
NtRp216
(dp217
g74
(dp218
sg83
g203
sg76
(lp219
g69
(g70
g71
NtRp220
(dp221
g74
(dp222
g82
I5
ssg83
g216
sg76
(lp223
S'127.0.0.1'
p224
asbasbasbag69
(g85
g71
NtRp225
(dp226
g74
(dp227
sg83
g79
sg76
(lp228
g69
(g90
g71
NtRp229
(dp230
g74
(dp231
g94
g95
ssg83
g225
sg76
(lp232
S'controller'
p233
asbag69
(g90
g71
NtRp234
(dp235
g74
(dp236
g101
g102
ssg83
g225
sg76
(lp237
S':'
asbag69
(g90
g71
NtRp238
(dp239
g74
(dp240
sg83
g225
sg76
(lp241
g69
(g70
g71
NtRp242
(dp243
g74
(dp244
g82
I5
ssg83
g238
sg76
(lp245
S'initial'
p246
asbasbasbag69
(g85
g71
NtRp247
(dp248
g74
(dp249
sg83
g79
sg76
(lp250
g69
(g90
g71
NtRp251
(dp252
g74
(dp253
g94
g95
ssg83
g247
sg76
(lp254
S'cookies'
p255
asbag69
(g90
g71
NtRp256
(dp257
g74
(dp258
g101
g102
ssg83
g247
sg76
(lp259
S':'
asbag69
(g90
g71
NtRp260
(dp261
g74
(dp262
sg83
g247
sg76
(lp263
g69
(g70
g71
NtRp264
(dp265
g74
(dp266
g82
I5
ssg83
g260
sg76
(lp267
g69
(g78
g71
NtRp268
(dp269
g74
(dp270
g82
I4
ssg83
Nsg76
(lp271
g69
(g85
g71
NtRp272
(dp273
g74
(dp274
sg83
g268
sg76
(lp275
g69
(g90
g71
NtRp276
(dp277
g74
(dp278
g94
g95
ssg83
g272
sg76
(lp279
S'session_id_admin'
p280
asbag69
(g90
g71
NtRp281
(dp282
g74
(dp283
g101
g102
ssg83
g272
sg76
(lp284
S':'
asbag69
(g90
g71
NtRp285
(dp286
g74
(dp287
sg83
g272
sg76
(lp288
g69
(g70
g71
NtRp289
(dp290
g74
(dp291
g82
I4
ssg83
g285
sg76
(lp292
S'127.0.0.1-842caec8-2ecd-4ca2-8849-14bb6ea5e193'
p293
ag69
(g78
g71
NtRp294
(dp295
g74
(dp296
g82
I3
ssg83
Nsg76
(lp297
g69
(g85
g71
NtRp298
(dp299
g74
(dp300
sg83
g294
sg76
(lp301
g69
(g90
g71
NtRp302
(dp303
g74
(dp304
g94
g95
ssg83
g298
sg76
(lp305
S'comment'
p306
asbag69
(g90
g71
NtRp307
(dp308
g74
(dp309
g101
g102
ssg83
g298
sg76
(lp310
S':'
asbag69
(g90
g71
NtRp311
(dp312
g74
(dp313
sg83
g298
sg76
(lp314
g69
(g70
g71
NtRp315
(dp316
g74
(dp317
g82
I3
ssg83
g311
sg76
(lp318
S''
asbasbasbag69
(g85
g71
NtRp319
(dp320
g74
(dp321
sg83
g294
sg76
(lp322
g69
(g90
g71
NtRp323
(dp324
g74
(dp325
g94
g95
ssg83
g319
sg76
(lp326
S'domain'
p327
asbag69
(g90
g71
NtRp328
(dp329
g74
(dp330
g101
g102
ssg83
g319
sg76
(lp331
S':'
asbag69
(g90
g71
NtRp332
(dp333
g74
(dp334
sg83
g319
sg76
(lp335
g69
(g70
g71
NtRp336
(dp337
g74
(dp338
g82
I3
ssg83
g332
sg76
(lp339
S''
asbasbasbag69
(g85
g71
NtRp340
(dp341
g74
(dp342
sg83
g294
sg76
(lp343
g69
(g90
g71
NtRp344
(dp345
g74
(dp346
g94
g95
ssg83
g340
sg76
(lp347
S'expires'
p348
asbag69
(g90
g71
NtRp349
(dp350
g74
(dp351
g101
g102
ssg83
g340
sg76
(lp352
S':'
asbag69
(g90
g71
NtRp353
(dp354
g74
(dp355
sg83
g340
sg76
(lp356
g69
(g70
g71
NtRp357
(dp358
g74
(dp359
g82
I3
ssg83
g353
sg76
(lp360
S''
asbasbasbag69
(g85
g71
NtRp361
(dp362
g74
(dp363
sg83
g294
sg76
(lp364
g69
(g90
g71
NtRp365
(dp366
g74
(dp367
g94
g95
ssg83
g361
sg76
(lp368
S'httponly'
p369
asbag69
(g90
g71
NtRp370
(dp371
g74
(dp372
g101
g102
ssg83
g361
sg76
(lp373
S':'
asbag69
(g90
g71
NtRp374
(dp375
g74
(dp376
sg83
g361
sg76
(lp377
g69
(g70
g71
NtRp378
(dp379
g74
(dp380
g82
I3
ssg83
g374
sg76
(lp381
S''
asbasbasbag69
(g85
g71
NtRp382
(dp383
g74
(dp384
sg83
g294
sg76
(lp385
g69
(g90
g71
NtRp386
(dp387
g74
(dp388
g94
g95
ssg83
g382
sg76
(lp389
S'max-age'
p390
asbag69
(g90
g71
NtRp391
(dp392
g74
(dp393
g101
g102
ssg83
g382
sg76
(lp394
S':'
asbag69
(g90
g71
NtRp395
(dp396
g74
(dp397
sg83
g382
sg76
(lp398
g69
(g70
g71
NtRp399
(dp400
g74
(dp401
g82
I3
ssg83
g395
sg76
(lp402
S''
asbasbasbag69
(g85
g71
NtRp403
(dp404
g74
(dp405
sg83
g294
sg76
(lp406
g69
(g90
g71
NtRp407
(dp408
g74
(dp409
g94
g95
ssg83
g403
sg76
(lp410
S'path'
p411
asbag69
(g90
g71
NtRp412
(dp413
g74
(dp414
g101
g102
ssg83
g403
sg76
(lp415
S':'
asbag69
(g90
g71
NtRp416
(dp417
g74
(dp418
sg83
g403
sg76
(lp419
g69
(g70
g71
NtRp420
(dp421
g74
(dp422
g82
I3
ssg83
g416
sg76
(lp423
S''
asbasbasbag69
(g85
g71
NtRp424
(dp425
g74
(dp426
sg83
g294
sg76
(lp427
g69
(g90
g71
NtRp428
(dp429
g74
(dp430
g94
g95
ssg83
g424
sg76
(lp431
S'secure'
p432
asbag69
(g90
g71
NtRp433
(dp434
g74
(dp435
g101
g102
ssg83
g424
sg76
(lp436
S':'
asbag69
(g90
g71
NtRp437
(dp438
g74
(dp439
sg83
g424
sg76
(lp440
g69
(g70
g71
NtRp441
(dp442
g74
(dp443
g82
I3
ssg83
g437
sg76
(lp444
S''
asbasbasbag69
(g85
g71
NtRp445
(dp446
g74
(dp447
sg83
g294
sg76
(lp448
g69
(g90
g71
NtRp449
(dp450
g74
(dp451
g94
g95
ssg83
g445
sg76
(lp452
S'version'
p453
asbag69
(g90
g71
NtRp454
(dp455
g74
(dp456
g101
g102
ssg83
g445
sg76
(lp457
S':'
asbag69
(g90
g71
NtRp458
(dp459
g74
(dp460
sg83
g445
sg76
(lp461
g69
(g70
g71
NtRp462
(dp463
g74
(dp464
g82
I3
ssg83
g458
sg76
(lp465
S''
asbasbasbasbasbasbasbag69
(g85
g71
NtRp466
(dp467
g74
(dp468
sg83
g268
sg76
(lp469
g69
(g90
g71
NtRp470
(dp471
g74
(dp472
g94
g95
ssg83
g466
sg76
(lp473
S'session_id_projeto'
p474
asbag69
(g90
g71
NtRp475
(dp476
g74
(dp477
g101
g102
ssg83
g466
sg76
(lp478
S':'
asbag69
(g90
g71
NtRp479
(dp480
g74
(dp481
sg83
g466
sg76
(lp482
g69
(g70
g71
NtRp483
(dp484
g74
(dp485
g82
I4
ssg83
g479
sg76
(lp486
S'127.0.0.1-a19e1b84-17da-4fb8-af88-72b2db39528f'
p487
ag69
(g78
g71
NtRp488
(dp489
g74
(dp490
g82
I3
ssg83
Nsg76
(lp491
g69
(g85
g71
NtRp492
(dp493
g74
(dp494
sg83
g488
sg76
(lp495
g69
(g90
g71
NtRp496
(dp497
g74
(dp498
g94
g95
ssg83
g492
sg76
(lp499
g306
asbag69
(g90
g71
NtRp500
(dp501
g74
(dp502
g101
g102
ssg83
g492
sg76
(lp503
S':'
asbag69
(g90
g71
NtRp504
(dp505
g74
(dp506
sg83
g492
sg76
(lp507
g69
(g70
g71
NtRp508
(dp509
g74
(dp510
g82
I3
ssg83
g504
sg76
(lp511
S''
asbasbasbag69
(g85
g71
NtRp512
(dp513
g74
(dp514
sg83
g488
sg76
(lp515
g69
(g90
g71
NtRp516
(dp517
g74
(dp518
g94
g95
ssg83
g512
sg76
(lp519
g327
asbag69
(g90
g71
NtRp520
(dp521
g74
(dp522
g101
g102
ssg83
g512
sg76
(lp523
S':'
asbag69
(g90
g71
NtRp524
(dp525
g74
(dp526
sg83
g512
sg76
(lp527
g69
(g70
g71
NtRp528
(dp529
g74
(dp530
g82
I3
ssg83
g524
sg76
(lp531
S''
asbasbasbag69
(g85
g71
NtRp532
(dp533
g74
(dp534
sg83
g488
sg76
(lp535
g69
(g90
g71
NtRp536
(dp537
g74
(dp538
g94
g95
ssg83
g532
sg76
(lp539
g348
asbag69
(g90
g71
NtRp540
(dp541
g74
(dp542
g101
g102
ssg83
g532
sg76
(lp543
S':'
asbag69
(g90
g71
NtRp544
(dp545
g74
(dp546
sg83
g532
sg76
(lp547
g69
(g70
g71
NtRp548
(dp549
g74
(dp550
g82
I3
ssg83
g544
sg76
(lp551
S''
asbasbasbag69
(g85
g71
NtRp552
(dp553
g74
(dp554
sg83
g488
sg76
(lp555
g69
(g90
g71
NtRp556
(dp557
g74
(dp558
g94
g95
ssg83
g552
sg76
(lp559
g369
asbag69
(g90
g71
NtRp560
(dp561
g74
(dp562
g101
g102
ssg83
g552
sg76
(lp563
S':'
asbag69
(g90
g71
NtRp564
(dp565
g74
(dp566
sg83
g552
sg76
(lp567
g69
(g70
g71
NtRp568
(dp569
g74
(dp570
g82
I3
ssg83
g564
sg76
(lp571
S''
asbasbasbag69
(g85
g71
NtRp572
(dp573
g74
(dp574
sg83
g488
sg76
(lp575
g69
(g90
g71
NtRp576
(dp577
g74
(dp578
g94
g95
ssg83
g572
sg76
(lp579
g390
asbag69
(g90
g71
NtRp580
(dp581
g74
(dp582
g101
g102
ssg83
g572
sg76
(lp583
S':'
asbag69
(g90
g71
NtRp584
(dp585
g74
(dp586
sg83
g572
sg76
(lp587
g69
(g70
g71
NtRp588
(dp589
g74
(dp590
g82
I3
ssg83
g584
sg76
(lp591
S''
asbasbasbag69
(g85
g71
NtRp592
(dp593
g74
(dp594
sg83
g488
sg76
(lp595
g69
(g90
g71
NtRp596
(dp597
g74
(dp598
g94
g95
ssg83
g592
sg76
(lp599
g411
asbag69
(g90
g71
NtRp600
(dp601
g74
(dp602
g101
g102
ssg83
g592
sg76
(lp603
S':'
asbag69
(g90
g71
NtRp604
(dp605
g74
(dp606
sg83
g592
sg76
(lp607
g69
(g70
g71
NtRp608
(dp609
g74
(dp610
g82
I3
ssg83
g604
sg76
(lp611
S''
asbasbasbag69
(g85
g71
NtRp612
(dp613
g74
(dp614
sg83
g488
sg76
(lp615
g69
(g90
g71
NtRp616
(dp617
g74
(dp618
g94
g95
ssg83
g612
sg76
(lp619
g432
asbag69
(g90
g71
NtRp620
(dp621
g74
(dp622
g101
g102
ssg83
g612
sg76
(lp623
S':'
asbag69
(g90
g71
NtRp624
(dp625
g74
(dp626
sg83
g612
sg76
(lp627
g69
(g70
g71
NtRp628
(dp629
g74
(dp630
g82
I3
ssg83
g624
sg76
(lp631
S''
asbasbasbag69
(g85
g71
NtRp632
(dp633
g74
(dp634
sg83
g488
sg76
(lp635
g69
(g90
g71
NtRp636
(dp637
g74
(dp638
g94
g95
ssg83
g632
sg76
(lp639
g453
asbag69
(g90
g71
NtRp640
(dp641
g74
(dp642
g101
g102
ssg83
g632
sg76
(lp643
S':'
asbag69
(g90
g71
NtRp644
(dp645
g74
(dp646
sg83
g632
sg76
(lp647
g69
(g70
g71
NtRp648
(dp649
g74
(dp650
g82
I3
ssg83
g644
sg76
(lp651
S''
asbasbasbasbasbasbasbasbasbasbasbag69
(g85
g71
NtRp652
(dp653
g74
(dp654
sg83
g79
sg76
(lp655
g69
(g90
g71
NtRp656
(dp657
g74
(dp658
g94
g95
ssg83
g652
sg76
(lp659
S'env'
p660
asbag69
(g90
g71
NtRp661
(dp662
g74
(dp663
g101
g102
ssg83
g652
sg76
(lp664
S':'
asbag69
(g90
g71
NtRp665
(dp666
g74
(dp667
sg83
g652
sg76
(lp668
g69
(g70
g71
NtRp669
(dp670
g74
(dp671
g82
I5
ssg83
g665
sg76
(lp672
g69
(g78
g71
NtRp673
(dp674
g74
(dp675
g82
I4
ssg83
Nsg76
(lp676
g69
(g85
g71
NtRp677
(dp678
g74
(dp679
sg83
g673
sg76
(lp680
g69
(g90
g71
NtRp681
(dp682
g74
(dp683
g94
g95
ssg83
g677
sg76
(lp684
S'app_folders'
p685
asbag69
(g90
g71
NtRp686
(dp687
g74
(dp688
g101
g102
ssg83
g677
sg76
(lp689
S':'
asbag69
(g90
g71
NtRp690
(dp691
g74
(dp692
sg83
g677
sg76
(lp693
g69
(g70
g71
NtRp694
(dp695
g74
(dp696
g82
I4
ssg83
g690
sg76
(lp697
S"set(['/var/www/web2py_hosts/applications/admin/', '/var/www/web2py_hosts/applications/projeto/'])"
p698
asbasbasbag69
(g85
g71
NtRp699
(dp700
g74
(dp701
sg83
g673
sg76
(lp702
g69
(g90
g71
NtRp703
(dp704
g74
(dp705
g94
g95
ssg83
g699
sg76
(lp706
S'applications_parent'
p707
asbag69
(g90
g71
NtRp708
(dp709
g74
(dp710
g101
g102
ssg83
g699
sg76
(lp711
S':'
asbag69
(g90
g71
NtRp712
(dp713
g74
(dp714
sg83
g699
sg76
(lp715
g69
(g70
g71
NtRp716
(dp717
g74
(dp718
g82
I4
ssg83
g712
sg76
(lp719
S'/var/www/web2py_hosts'
p720
asbasbasbag69
(g85
g71
NtRp721
(dp722
g74
(dp723
sg83
g673
sg76
(lp724
g69
(g90
g71
NtRp725
(dp726
g74
(dp727
g94
g95
ssg83
g721
sg76
(lp728
S'cmd_args'
p729
asbag69
(g90
g71
NtRp730
(dp731
g74
(dp732
g101
g102
ssg83
g721
sg76
(lp733
S':'
asbag69
(g90
g71
NtRp734
(dp735
g74
(dp736
sg83
g721
sg76
(lp737
g69
(g70
g71
NtRp738
(dp739
g74
(dp740
g82
I4
ssg83
g734
sg76
(lp741
g69
(g78
g71
NtRp742
(dp743
g74
(dp744
g82
I3
ssg83
Nsg76
(lp745
sbasbasbasbag69
(g85
g71
NtRp746
(dp747
g74
(dp748
sg83
g673
sg76
(lp749
g69
(g90
g71
NtRp750
(dp751
g74
(dp752
g94
g95
ssg83
g746
sg76
(lp753
S'cmd_options'
p754
asbag69
(g90
g71
NtRp755
(dp756
g74
(dp757
g101
g102
ssg83
g746
sg76
(lp758
S':'
asbag69
(g90
g71
NtRp759
(dp760
g74
(dp761
sg83
g746
sg76
(lp762
g69
(g70
g71
NtRp763
(dp764
g74
(dp765
g82
I4
ssg83
g759
sg76
(lp766
S"<Values at 0x17a0638: {'verbose': False, 'ip': '127.0.0.1', 'with_scheduler': False, 'ips': [], 'shutdown_timeout': 5, 'taskbar': False, 'port': 8000, 'maxthreads': None, 'softcron': False, 'server_name': 'fernando-pc', 'bpython': False, 'nogui': False, 'pid_filename': 'httpserver.pid', 'extcron': False, 'runcron': False, 'run_system_tests': False, 'test': None, 'folder': '/var/www/web2py_hosts', 'config': '', 'minthreads': None, 'winservice': '', 'shell': None, 'run': '', 'log_filename': 'httpserver.log', 'debuglevel': 30, 'args': [''], 'socket_timeout': 5, 'ssl_ca_certificate': None, 'scheduler': None, 'profiler_filename': None, 'ssl_private_key': '', 'scheduler_groups': None, 'password': '123456', 'request_queue_size': 5, 'ssl_certificate': '', 'cronjob': False, 'numthreads': None, 'quiet': False, 'interfaces': None, 'import_models': False, 'timeout': 10, 'plain': False, 'nobanner': False}>"
p767
asbasbasbag69
(g85
g71
NtRp768
(dp769
g74
(dp770
sg83
g673
sg76
(lp771
g69
(g90
g71
NtRp772
(dp773
g74
(dp774
g94
g95
ssg83
g768
sg76
(lp775
S'db_sessions'
p776
asbag69
(g90
g71
NtRp777
(dp778
g74
(dp779
g101
g102
ssg83
g768
sg76
(lp780
S':'
asbag69
(g90
g71
NtRp781
(dp782
g74
(dp783
sg83
g768
sg76
(lp784
g69
(g70
g71
NtRp785
(dp786
g74
(dp787
g82
I4
ssg83
g781
sg76
(lp788
S'set([])'
p789
asbasbasbag69
(g85
g71
NtRp790
(dp791
g74
(dp792
sg83
g673
sg76
(lp793
g69
(g90
g71
NtRp794
(dp795
g74
(dp796
g94
g95
ssg83
g790
sg76
(lp797
S'debugging'
p798
asbag69
(g90
g71
NtRp799
(dp800
g74
(dp801
g101
g102
ssg83
g790
sg76
(lp802
S':'
asbag69
(g90
g71
NtRp803
(dp804
g74
(dp805
sg83
g790
sg76
(lp806
g69
(g70
g71
NtRp807
(dp808
g74
(dp809
g82
I4
ssg83
g803
sg76
(lp810
g112
asbasbasbag69
(g85
g71
NtRp811
(dp812
g74
(dp813
sg83
g673
sg76
(lp814
g69
(g90
g71
NtRp815
(dp816
g74
(dp817
g94
g95
ssg83
g811
sg76
(lp818
S'gluon_parent'
p819
asbag69
(g90
g71
NtRp820
(dp821
g74
(dp822
g101
g102
ssg83
g811
sg76
(lp823
S':'
asbag69
(g90
g71
NtRp824
(dp825
g74
(dp826
sg83
g811
sg76
(lp827
g69
(g70
g71
NtRp828
(dp829
g74
(dp830
g82
I4
ssg83
g824
sg76
(lp831
S'/var/www/web2py_hosts'
p832
asbasbasbag69
(g85
g71
NtRp833
(dp834
g74
(dp835
sg83
g673
sg76
(lp836
g69
(g90
g71
NtRp837
(dp838
g74
(dp839
g94
g95
ssg83
g833
sg76
(lp840
S'http_accept'
p841
asbag69
(g90
g71
NtRp842
(dp843
g74
(dp844
g101
g102
ssg83
g833
sg76
(lp845
S':'
asbag69
(g90
g71
NtRp846
(dp847
g74
(dp848
sg83
g833
sg76
(lp849
g69
(g70
g71
NtRp850
(dp851
g74
(dp852
g82
I4
ssg83
g846
sg76
(lp853
S'text/html,application/xhtml+xml,application/xml;q=0.9,*/*;q=0.8'
p854
asbasbasbag69
(g85
g71
NtRp855
(dp856
g74
(dp857
sg83
g673
sg76
(lp858
g69
(g90
g71
NtRp859
(dp860
g74
(dp861
g94
g95
ssg83
g855
sg76
(lp862
S'http_accept_charset'
p863
asbag69
(g90
g71
NtRp864
(dp865
g74
(dp866
g101
g102
ssg83
g855
sg76
(lp867
S':'
asbag69
(g90
g71
NtRp868
(dp869
g74
(dp870
sg83
g855
sg76
(lp871
g69
(g70
g71
NtRp872
(dp873
g74
(dp874
g82
I4
ssg83
g868
sg76
(lp875
S'ISO-8859-1,utf-8;q=0.7,*;q=0.3'
p876
asbasbasbag69
(g85
g71
NtRp877
(dp878
g74
(dp879
sg83
g673
sg76
(lp880
g69
(g90
g71
NtRp881
(dp882
g74
(dp883
g94
g95
ssg83
g877
sg76
(lp884
S'http_accept_encoding'
p885
asbag69
(g90
g71
NtRp886
(dp887
g74
(dp888
g101
g102
ssg83
g877
sg76
(lp889
S':'
asbag69
(g90
g71
NtRp890
(dp891
g74
(dp892
sg83
g877
sg76
(lp893
g69
(g70
g71
NtRp894
(dp895
g74
(dp896
g82
I4
ssg83
g890
sg76
(lp897
S'gzip,deflate,sdch'
p898
asbasbasbag69
(g85
g71
NtRp899
(dp900
g74
(dp901
sg83
g673
sg76
(lp902
g69
(g90
g71
NtRp903
(dp904
g74
(dp905
g94
g95
ssg83
g899
sg76
(lp906
S'http_accept_language'
p907
asbag69
(g90
g71
NtRp908
(dp909
g74
(dp910
g101
g102
ssg83
g899
sg76
(lp911
S':'
asbag69
(g90
g71
NtRp912
(dp913
g74
(dp914
sg83
g899
sg76
(lp915
g69
(g70
g71
NtRp916
(dp917
g74
(dp918
g82
I4
ssg83
g912
sg76
(lp919
S'pt-BR,pt;q=0.8,en-US;q=0.6,en;q=0.4'
p920
asbasbasbag69
(g85
g71
NtRp921
(dp922
g74
(dp923
sg83
g673
sg76
(lp924
g69
(g90
g71
NtRp925
(dp926
g74
(dp927
g94
g95
ssg83
g921
sg76
(lp928
S'http_connection'
p929
asbag69
(g90
g71
NtRp930
(dp931
g74
(dp932
g101
g102
ssg83
g921
sg76
(lp933
S':'
asbag69
(g90
g71
NtRp934
(dp935
g74
(dp936
sg83
g921
sg76
(lp937
g69
(g70
g71
NtRp938
(dp939
g74
(dp940
g82
I4
ssg83
g934
sg76
(lp941
S'keep-alive'
p942
asbasbasbag69
(g85
g71
NtRp943
(dp944
g74
(dp945
sg83
g673
sg76
(lp946
g69
(g90
g71
NtRp947
(dp948
g74
(dp949
g94
g95
ssg83
g943
sg76
(lp950
S'http_cookie'
p951
asbag69
(g90
g71
NtRp952
(dp953
g74
(dp954
g101
g102
ssg83
g943
sg76
(lp955
S':'
asbag69
(g90
g71
NtRp956
(dp957
g74
(dp958
sg83
g943
sg76
(lp959
g69
(g70
g71
NtRp960
(dp961
g74
(dp962
g82
I4
ssg83
g956
sg76
(lp963
S'session_id_admin=127.0.0.1-842caec8-2ecd-4ca2-8849-14bb6ea5e193; session_id_projeto=127.0.0.1-a19e1b84-17da-4fb8-af88-72b2db39528f'
p964
asbasbasbag69
(g85
g71
NtRp965
(dp966
g74
(dp967
sg83
g673
sg76
(lp968
g69
(g90
g71
NtRp969
(dp970
g74
(dp971
g94
g95
ssg83
g965
sg76
(lp972
S'http_host'
p973
asbag69
(g90
g71
NtRp974
(dp975
g74
(dp976
g101
g102
ssg83
g965
sg76
(lp977
S':'
asbag69
(g90
g71
NtRp978
(dp979
g74
(dp980
sg83
g965
sg76
(lp981
g69
(g70
g71
NtRp982
(dp983
g74
(dp984
g82
I4
ssg83
g978
sg76
(lp985
S'127.0.0.1:8000'
p986
asbasbasbag69
(g85
g71
NtRp987
(dp988
g74
(dp989
sg83
g673
sg76
(lp990
g69
(g90
g71
NtRp991
(dp992
g74
(dp993
g94
g95
ssg83
g987
sg76
(lp994
S'http_referer'
p995
asbag69
(g90
g71
NtRp996
(dp997
g74
(dp998
g101
g102
ssg83
g987
sg76
(lp999
S':'
asbag69
(g90
g71
NtRp1000
(dp1001
g74
(dp1002
sg83
g987
sg76
(lp1003
g69
(g70
g71
NtRp1004
(dp1005
g74
(dp1006
g82
I4
ssg83
g1000
sg76
(lp1007
S'http://127.0.0.1:8000/show_distro?_signature=efb0ab1b0302b73a5040e45702bada8828603739'
p1008
asbasbasbag69
(g85
g71
NtRp1009
(dp1010
g74
(dp1011
sg83
g673
sg76
(lp1012
g69
(g90
g71
NtRp1013
(dp1014
g74
(dp1015
g94
g95
ssg83
g1009
sg76
(lp1016
S'http_user_agent'
p1017
asbag69
(g90
g71
NtRp1018
(dp1019
g74
(dp1020
g101
g102
ssg83
g1009
sg76
(lp1021
S':'
asbag69
(g90
g71
NtRp1022
(dp1023
g74
(dp1024
sg83
g1009
sg76
(lp1025
g69
(g70
g71
NtRp1026
(dp1027
g74
(dp1028
g82
I4
ssg83
g1022
sg76
(lp1029
S'Mozilla/5.0 (X11; Linux x86_64) AppleWebKit/536.11 (KHTML, like Gecko) Ubuntu/12.04 Chromium/20.0.1132.47 Chrome/20.0.1132.47 Safari/536.11'
p1030
asbasbasbag69
(g85
g71
NtRp1031
(dp1032
g74
(dp1033
sg83
g673
sg76
(lp1034
g69
(g90
g71
NtRp1035
(dp1036
g74
(dp1037
g94
g95
ssg83
g1031
sg76
(lp1038
S'is_jython'
p1039
asbag69
(g90
g71
NtRp1040
(dp1041
g74
(dp1042
g101
g102
ssg83
g1031
sg76
(lp1043
S':'
asbag69
(g90
g71
NtRp1044
(dp1045
g74
(dp1046
sg83
g1031
sg76
(lp1047
g69
(g70
g71
NtRp1048
(dp1049
g74
(dp1050
g82
I4
ssg83
g1044
sg76
(lp1051
g112
asbasbasbag69
(g85
g71
NtRp1052
(dp1053
g74
(dp1054
sg83
g673
sg76
(lp1055
g69
(g90
g71
NtRp1056
(dp1057
g74
(dp1058
g94
g95
ssg83
g1052
sg76
(lp1059
S'is_pypy'
p1060
asbag69
(g90
g71
NtRp1061
(dp1062
g74
(dp1063
g101
g102
ssg83
g1052
sg76
(lp1064
S':'
asbag69
(g90
g71
NtRp1065
(dp1066
g74
(dp1067
sg83
g1052
sg76
(lp1068
g69
(g70
g71
NtRp1069
(dp1070
g74
(dp1071
g82
I4
ssg83
g1065
sg76
(lp1072
g112
asbasbasbag69
(g85
g71
NtRp1073
(dp1074
g74
(dp1075
sg83
g673
sg76
(lp1076
g69
(g90
g71
NtRp1077
(dp1078
g74
(dp1079
g94
g95
ssg83
g1073
sg76
(lp1080
S'local_hosts'
p1081
asbag69
(g90
g71
NtRp1082
(dp1083
g74
(dp1084
g101
g102
ssg83
g1073
sg76
(lp1085
S':'
asbag69
(g90
g71
NtRp1086
(dp1087
g74
(dp1088
sg83
g1073
sg76
(lp1089
g69
(g70
g71
NtRp1090
(dp1091
g74
(dp1092
g82
I4
ssg83
g1086
sg76
(lp1093
g69
(g78
g71
NtRp1094
(dp1095
g74
(dp1096
g82
I3
ssg83
Nsg76
(lp1097
g69
(g85
g71
NtRp1098
(dp1099
g74
(dp1100
sg83
g1094
sg76
(lp1101
g69
(g90
g71
NtRp1102
(dp1103
g74
(dp1104
sg83
g1098
sg76
(lp1105
g69
(g70
g71
NtRp1106
(dp1107
g74
(dp1108
g82
I3
ssg83
g1102
sg76
(lp1109
S'::1'
p1110
asbasbasbag69
(g85
g71
NtRp1111
(dp1112
g74
(dp1113
sg83
g1094
sg76
(lp1114
g69
(g90
g71
NtRp1115
(dp1116
g74
(dp1117
sg83
g1111
sg76
(lp1118
g69
(g70
g71
NtRp1119
(dp1120
g74
(dp1121
g82
I3
ssg83
g1115
sg76
(lp1122
S'127.0.1.1'
p1123
asbasbasbag69
(g85
g71
NtRp1124
(dp1125
g74
(dp1126
sg83
g1094
sg76
(lp1127
g69
(g90
g71
NtRp1128
(dp1129
g74
(dp1130
sg83
g1124
sg76
(lp1131
g69
(g70
g71
NtRp1132
(dp1133
g74
(dp1134
g82
I3
ssg83
g1128
sg76
(lp1135
S'fernando-pc'
p1136
asbasbasbag69
(g85
g71
NtRp1137
(dp1138
g74
(dp1139
sg83
g1094
sg76
(lp1140
g69
(g90
g71
NtRp1141
(dp1142
g74
(dp1143
sg83
g1137
sg76
(lp1144
g69
(g70
g71
NtRp1145
(dp1146
g74
(dp1147
g82
I3
ssg83
g1141
sg76
(lp1148
S'::ffff:127.0.0.1'
p1149
asbasbasbag69
(g85
g71
NtRp1150
(dp1151
g74
(dp1152
sg83
g1094
sg76
(lp1153
g69
(g90
g71
NtRp1154
(dp1155
g74
(dp1156
sg83
g1150
sg76
(lp1157
g69
(g70
g71
NtRp1158
(dp1159
g74
(dp1160
g82
I3
ssg83
g1154
sg76
(lp1161
S'127.0.0.1'
p1162
asbasbasbasbasbasbasbag69
(g85
g71
NtRp1163
(dp1164
g74
(dp1165
sg83
g673
sg76
(lp1166
g69
(g90
g71
NtRp1167
(dp1168
g74
(dp1169
g94
g95
ssg83
g1163
sg76
(lp1170
S'path_info'
p1171
asbag69
(g90
g71
NtRp1172
(dp1173
g74
(dp1174
g101
g102
ssg83
g1163
sg76
(lp1175
S':'
asbag69
(g90
g71
NtRp1176
(dp1177
g74
(dp1178
sg83
g1163
sg76
(lp1179
g69
(g70
g71
NtRp1180
(dp1181
g74
(dp1182
g82
I4
ssg83
g1176
sg76
(lp1183
S'/show_distro'
p1184
asbasbasbag69
(g85
g71
NtRp1185
(dp1186
g74
(dp1187
sg83
g673
sg76
(lp1188
g69
(g90
g71
NtRp1189
(dp1190
g74
(dp1191
g94
g95
ssg83
g1185
sg76
(lp1192
S'query_string'
p1193
asbag69
(g90
g71
NtRp1194
(dp1195
g74
(dp1196
g101
g102
ssg83
g1185
sg76
(lp1197
S':'
asbag69
(g90
g71
NtRp1198
(dp1199
g74
(dp1200
sg83
g1185
sg76
(lp1201
g69
(g70
g71
NtRp1202
(dp1203
g74
(dp1204
g82
I4
ssg83
g1198
sg76
(lp1205
S''
asbasbasbag69
(g85
g71
NtRp1206
(dp1207
g74
(dp1208
sg83
g673
sg76
(lp1209
g69
(g90
g71
NtRp1210
(dp1211
g74
(dp1212
g94
g95
ssg83
g1206
sg76
(lp1213
S'remote_addr'
p1214
asbag69
(g90
g71
NtRp1215
(dp1216
g74
(dp1217
g101
g102
ssg83
g1206
sg76
(lp1218
S':'
asbag69
(g90
g71
NtRp1219
(dp1220
g74
(dp1221
sg83
g1206
sg76
(lp1222
g69
(g70
g71
NtRp1223
(dp1224
g74
(dp1225
g82
I4
ssg83
g1219
sg76
(lp1226
g224
asbasbasbag69
(g85
g71
NtRp1227
(dp1228
g74
(dp1229
sg83
g673
sg76
(lp1230
g69
(g90
g71
NtRp1231
(dp1232
g74
(dp1233
g94
g95
ssg83
g1227
sg76
(lp1234
S'remote_port'
p1235
asbag69
(g90
g71
NtRp1236
(dp1237
g74
(dp1238
g101
g102
ssg83
g1227
sg76
(lp1239
S':'
asbag69
(g90
g71
NtRp1240
(dp1241
g74
(dp1242
sg83
g1227
sg76
(lp1243
g69
(g70
g71
NtRp1244
(dp1245
g74
(dp1246
g82
I4
ssg83
g1240
sg76
(lp1247
S'45775'
p1248
asbasbasbag69
(g85
g71
NtRp1249
(dp1250
g74
(dp1251
sg83
g673
sg76
(lp1252
g69
(g90
g71
NtRp1253
(dp1254
g74
(dp1255
g94
g95
ssg83
g1249
sg76
(lp1256
S'request_method'
p1257
asbag69
(g90
g71
NtRp1258
(dp1259
g74
(dp1260
g101
g102
ssg83
g1249
sg76
(lp1261
S':'
asbag69
(g90
g71
NtRp1262
(dp1263
g74
(dp1264
sg83
g1249
sg76
(lp1265
g69
(g70
g71
NtRp1266
(dp1267
g74
(dp1268
g82
I4
ssg83
g1262
sg76
(lp1269
S'GET'
p1270
asbasbasbag69
(g85
g71
NtRp1271
(dp1272
g74
(dp1273
sg83
g673
sg76
(lp1274
g69
(g90
g71
NtRp1275
(dp1276
g74
(dp1277
g94
g95
ssg83
g1271
sg76
(lp1278
S'request_uri'
p1279
asbag69
(g90
g71
NtRp1280
(dp1281
g74
(dp1282
g101
g102
ssg83
g1271
sg76
(lp1283
S':'
asbag69
(g90
g71
NtRp1284
(dp1285
g74
(dp1286
sg83
g1271
sg76
(lp1287
g69
(g70
g71
NtRp1288
(dp1289
g74
(dp1290
g82
I4
ssg83
g1284
sg76
(lp1291
S'/projeto/initial/show_distro'
p1292
asbasbasbag69
(g85
g71
NtRp1293
(dp1294
g74
(dp1295
sg83
g673
sg76
(lp1296
g69
(g90
g71
NtRp1297
(dp1298
g74
(dp1299
g94
g95
ssg83
g1293
sg76
(lp1300
S'script_name'
p1301
asbag69
(g90
g71
NtRp1302
(dp1303
g74
(dp1304
g101
g102
ssg83
g1293
sg76
(lp1305
S':'
asbag69
(g90
g71
NtRp1306
(dp1307
g74
(dp1308
sg83
g1293
sg76
(lp1309
g69
(g70
g71
NtRp1310
(dp1311
g74
(dp1312
g82
I4
ssg83
g1306
sg76
(lp1313
S''
asbasbasbag69
(g85
g71
NtRp1314
(dp1315
g74
(dp1316
sg83
g673
sg76
(lp1317
g69
(g90
g71
NtRp1318
(dp1319
g74
(dp1320
g94
g95
ssg83
g1314
sg76
(lp1321
S'server_name'
p1322
asbag69
(g90
g71
NtRp1323
(dp1324
g74
(dp1325
g101
g102
ssg83
g1314
sg76
(lp1326
S':'
asbag69
(g90
g71
NtRp1327
(dp1328
g74
(dp1329
sg83
g1314
sg76
(lp1330
g69
(g70
g71
NtRp1331
(dp1332
g74
(dp1333
g82
I4
ssg83
g1327
sg76
(lp1334
S'fernando-pc'
p1335
asbasbasbag69
(g85
g71
NtRp1336
(dp1337
g74
(dp1338
sg83
g673
sg76
(lp1339
g69
(g90
g71
NtRp1340
(dp1341
g74
(dp1342
g94
g95
ssg83
g1336
sg76
(lp1343
S'server_port'
p1344
asbag69
(g90
g71
NtRp1345
(dp1346
g74
(dp1347
g101
g102
ssg83
g1336
sg76
(lp1348
S':'
asbag69
(g90
g71
NtRp1349
(dp1350
g74
(dp1351
sg83
g1336
sg76
(lp1352
g69
(g70
g71
NtRp1353
(dp1354
g74
(dp1355
g82
I4
ssg83
g1349
sg76
(lp1356
S'8000'
p1357
asbasbasbag69
(g85
g71
NtRp1358
(dp1359
g74
(dp1360
sg83
g673
sg76
(lp1361
g69
(g90
g71
NtRp1362
(dp1363
g74
(dp1364
g94
g95
ssg83
g1358
sg76
(lp1365
S'server_protocol'
p1366
asbag69
(g90
g71
NtRp1367
(dp1368
g74
(dp1369
g101
g102
ssg83
g1358
sg76
(lp1370
S':'
asbag69
(g90
g71
NtRp1371
(dp1372
g74
(dp1373
sg83
g1358
sg76
(lp1374
g69
(g70
g71
NtRp1375
(dp1376
g74
(dp1377
g82
I4
ssg83
g1371
sg76
(lp1378
S'HTTP/1.1'
p1379
asbasbasbag69
(g85
g71
NtRp1380
(dp1381
g74
(dp1382
sg83
g673
sg76
(lp1383
g69
(g90
g71
NtRp1384
(dp1385
g74
(dp1386
g94
g95
ssg83
g1380
sg76
(lp1387
S'server_software'
p1388
asbag69
(g90
g71
NtRp1389
(dp1390
g74
(dp1391
g101
g102
ssg83
g1380
sg76
(lp1392
S':'
asbag69
(g90
g71
NtRp1393
(dp1394
g74
(dp1395
sg83
g1380
sg76
(lp1396
g69
(g70
g71
NtRp1397
(dp1398
g74
(dp1399
g82
I4
ssg83
g1393
sg76
(lp1400
S'Rocket 1.2.6'
p1401
asbasbasbag69
(g85
g71
NtRp1402
(dp1403
g74
(dp1404
sg83
g673
sg76
(lp1405
g69
(g90
g71
NtRp1406
(dp1407
g74
(dp1408
g94
g95
ssg83
g1402
sg76
(lp1409
S'web2py_original_uri'
p1410
asbag69
(g90
g71
NtRp1411
(dp1412
g74
(dp1413
g101
g102
ssg83
g1402
sg76
(lp1414
S':'
asbag69
(g90
g71
NtRp1415
(dp1416
g74
(dp1417
sg83
g1402
sg76
(lp1418
g69
(g70
g71
NtRp1419
(dp1420
g74
(dp1421
g82
I4
ssg83
g1415
sg76
(lp1422
g1184
asbasbasbag69
(g85
g71
NtRp1423
(dp1424
g74
(dp1425
sg83
g673
sg76
(lp1426
g69
(g90
g71
NtRp1427
(dp1428
g74
(dp1429
g94
g95
ssg83
g1423
sg76
(lp1430
S'web2py_path'
p1431
asbag69
(g90
g71
NtRp1432
(dp1433
g74
(dp1434
g101
g102
ssg83
g1423
sg76
(lp1435
S':'
asbag69
(g90
g71
NtRp1436
(dp1437
g74
(dp1438
sg83
g1423
sg76
(lp1439
g69
(g70
g71
NtRp1440
(dp1441
g74
(dp1442
g82
I4
ssg83
g1436
sg76
(lp1443
g720
asbasbasbag69
(g85
g71
NtRp1444
(dp1445
g74
(dp1446
sg83
g673
sg76
(lp1447
g69
(g90
g71
NtRp1448
(dp1449
g74
(dp1450
g94
g95
ssg83
g1444
sg76
(lp1451
S'web2py_version'
p1452
asbag69
(g90
g71
NtRp1453
(dp1454
g74
(dp1455
g101
g102
ssg83
g1444
sg76
(lp1456
S':'
asbag69
(g90
g71
NtRp1457
(dp1458
g74
(dp1459
sg83
g1444
sg76
(lp1460
g69
(g70
g71
NtRp1461
(dp1462
g74
(dp1463
g82
I4
ssg83
g1457
sg76
(lp1464
g69
(g78
g71
NtRp1465
(dp1466
g74
(dp1467
g82
I3
ssg83
Nsg76
(lp1468
g69
(g85
g71
NtRp1469
(dp1470
g74
(dp1471
sg83
g1465
sg76
(lp1472
g69
(g90
g71
NtRp1473
(dp1474
g74
(dp1475
sg83
g1469
sg76
(lp1476
g69
(g70
g71
NtRp1477
(dp1478
g74
(dp1479
g82
I3
ssg83
g1473
sg76
(lp1480
S'2'
asbasbasbag69
(g85
g71
NtRp1481
(dp1482
g74
(dp1483
sg83
g1465
sg76
(lp1484
g69
(g90
g71
NtRp1485
(dp1486
g74
(dp1487
sg83
g1481
sg76
(lp1488
g69
(g70
g71
NtRp1489
(dp1490
g74
(dp1491
g82
I3
ssg83
g1485
sg76
(lp1492
S'3'
asbasbasbag69
(g85
g71
NtRp1493
(dp1494
g74
(dp1495
sg83
g1465
sg76
(lp1496
g69
(g90
g71
NtRp1497
(dp1498
g74
(dp1499
sg83
g1493
sg76
(lp1500
g69
(g70
g71
NtRp1501
(dp1502
g74
(dp1503
g82
I3
ssg83
g1497
sg76
(lp1504
S'2'
asbasbasbag69
(g85
g71
NtRp1505
(dp1506
g74
(dp1507
sg83
g1465
sg76
(lp1508
g69
(g90
g71
NtRp1509
(dp1510
g74
(dp1511
sg83
g1505
sg76
(lp1512
g69
(g70
g71
NtRp1513
(dp1514
g74
(dp1515
g82
I3
ssg83
g1509
sg76
(lp1516
S'datetime.datetime(2012, 12, 17, 15, 3, 30)'
p1517
asbasbasbag69
(g85
g71
NtRp1518
(dp1519
g74
(dp1520
sg83
g1465
sg76
(lp1521
g69
(g90
g71
NtRp1522
(dp1523
g74
(dp1524
sg83
g1518
sg76
(lp1525
g69
(g70
g71
NtRp1526
(dp1527
g74
(dp1528
g82
I3
ssg83
g1522
sg76
(lp1529
S'stable'
p1530
asbasbasbasbasbasbasbag69
(g85
g71
NtRp1531
(dp1532
g74
(dp1533
sg83
g673
sg76
(lp1534
g69
(g90
g71
NtRp1535
(dp1536
g74
(dp1537
g94
g95
ssg83
g1531
sg76
(lp1538
S'wsgi_errors'
p1539
asbag69
(g90
g71
NtRp1540
(dp1541
g74
(dp1542
g101
g102
ssg83
g1531
sg76
(lp1543
S':'
asbag69
(g90
g71
NtRp1544
(dp1545
g74
(dp1546
sg83
g1531
sg76
(lp1547
g69
(g70
g71
NtRp1548
(dp1549
g74
(dp1550
g82
I4
ssg83
g1544
sg76
(lp1551
S"<open file '<stderr>', mode 'w' at 0x7f6bc0e2c270>"
p1552
asbasbasbag69
(g85
g71
NtRp1553
(dp1554
g74
(dp1555
sg83
g673
sg76
(lp1556
g69
(g90
g71
NtRp1557
(dp1558
g74
(dp1559
g94
g95
ssg83
g1553
sg76
(lp1560
S'wsgi_file_wrapper'
p1561
asbag69
(g90
g71
NtRp1562
(dp1563
g74
(dp1564
g101
g102
ssg83
g1553
sg76
(lp1565
S':'
asbag69
(g90
g71
NtRp1566
(dp1567
g74
(dp1568
sg83
g1553
sg76
(lp1569
g69
(g70
g71
NtRp1570
(dp1571
g74
(dp1572
g82
I4
ssg83
g1566
sg76
(lp1573
S'<class wsgiref.util.FileWrapper at 0x1715808>'
p1574
asbasbasbag69
(g85
g71
NtRp1575
(dp1576
g74
(dp1577
sg83
g673
sg76
(lp1578
g69
(g90
g71
NtRp1579
(dp1580
g74
(dp1581
g94
g95
ssg83
g1575
sg76
(lp1582
S'wsgi_input'
p1583
asbag69
(g90
g71
NtRp1584
(dp1585
g74
(dp1586
g101
g102
ssg83
g1575
sg76
(lp1587
S':'
asbag69
(g90
g71
NtRp1588
(dp1589
g74
(dp1590
sg83
g1575
sg76
(lp1591
g69
(g70
g71
NtRp1592
(dp1593
g74
(dp1594
g82
I4
ssg83
g1588
sg76
(lp1595
S'<socket._fileobject object at 0x7f6bb412c8d0>'
p1596
asbasbasbag69
(g85
g71
NtRp1597
(dp1598
g74
(dp1599
sg83
g673
sg76
(lp1600
g69
(g90
g71
NtRp1601
(dp1602
g74
(dp1603
g94
g95
ssg83
g1597
sg76
(lp1604
S'wsgi_multiprocess'
p1605
asbag69
(g90
g71
NtRp1606
(dp1607
g74
(dp1608
g101
g102
ssg83
g1597
sg76
(lp1609
S':'
asbag69
(g90
g71
NtRp1610
(dp1611
g74
(dp1612
sg83
g1597
sg76
(lp1613
g69
(g70
g71
NtRp1614
(dp1615
g74
(dp1616
g82
I4
ssg83
g1610
sg76
(lp1617
g112
asbasbasbag69
(g85
g71
NtRp1618
(dp1619
g74
(dp1620
sg83
g673
sg76
(lp1621
g69
(g90
g71
NtRp1622
(dp1623
g74
(dp1624
g94
g95
ssg83
g1618
sg76
(lp1625
S'wsgi_multithread'
p1626
asbag69
(g90
g71
NtRp1627
(dp1628
g74
(dp1629
g101
g102
ssg83
g1618
sg76
(lp1630
S':'
asbag69
(g90
g71
NtRp1631
(dp1632
g74
(dp1633
sg83
g1618
sg76
(lp1634
g69
(g70
g71
NtRp1635
(dp1636
g74
(dp1637
g82
I4
ssg83
g1631
sg76
(lp1638
S'True'
p1639
asbasbasbag69
(g85
g71
NtRp1640
(dp1641
g74
(dp1642
sg83
g673
sg76
(lp1643
g69
(g90
g71
NtRp1644
(dp1645
g74
(dp1646
g94
g95
ssg83
g1640
sg76
(lp1647
S'wsgi_run_once'
p1648
asbag69
(g90
g71
NtRp1649
(dp1650
g74
(dp1651
g101
g102
ssg83
g1640
sg76
(lp1652
S':'
asbag69
(g90
g71
NtRp1653
(dp1654
g74
(dp1655
sg83
g1640
sg76
(lp1656
g69
(g70
g71
NtRp1657
(dp1658
g74
(dp1659
g82
I4
ssg83
g1653
sg76
(lp1660
g112
asbasbasbag69
(g85
g71
NtRp1661
(dp1662
g74
(dp1663
sg83
g673
sg76
(lp1664
g69
(g90
g71
NtRp1665
(dp1666
g74
(dp1667
g94
g95
ssg83
g1661
sg76
(lp1668
S'wsgi_url_scheme'
p1669
asbag69
(g90
g71
NtRp1670
(dp1671
g74
(dp1672
g101
g102
ssg83
g1661
sg76
(lp1673
S':'
asbag69
(g90
g71
NtRp1674
(dp1675
g74
(dp1676
sg83
g1661
sg76
(lp1677
g69
(g70
g71
NtRp1678
(dp1679
g74
(dp1680
g82
I4
ssg83
g1674
sg76
(lp1681
S'http'
p1682
asbasbasbag69
(g85
g71
NtRp1683
(dp1684
g74
(dp1685
sg83
g673
sg76
(lp1686
g69
(g90
g71
NtRp1687
(dp1688
g74
(dp1689
g94
g95
ssg83
g1683
sg76
(lp1690
S'wsgi_version'
p1691
asbag69
(g90
g71
NtRp1692
(dp1693
g74
(dp1694
g101
g102
ssg83
g1683
sg76
(lp1695
S':'
asbag69
(g90
g71
NtRp1696
(dp1697
g74
(dp1698
sg83
g1683
sg76
(lp1699
g69
(g70
g71
NtRp1700
(dp1701
g74
(dp1702
g82
I4
ssg83
g1696
sg76
(lp1703
g69
(g78
g71
NtRp1704
(dp1705
g74
(dp1706
g82
I3
ssg83
Nsg76
(lp1707
g69
(g85
g71
NtRp1708
(dp1709
g74
(dp1710
sg83
g1704
sg76
(lp1711
g69
(g90
g71
NtRp1712
(dp1713
g74
(dp1714
sg83
g1708
sg76
(lp1715
g69
(g70
g71
NtRp1716
(dp1717
g74
(dp1718
g82
I3
ssg83
g1712
sg76
(lp1719
S'1'
asbasbasbag69
(g85
g71
NtRp1720
(dp1721
g74
(dp1722
sg83
g1704
sg76
(lp1723
g69
(g90
g71
NtRp1724
(dp1725
g74
(dp1726
sg83
g1720
sg76
(lp1727
g69
(g70
g71
NtRp1728
(dp1729
g74
(dp1730
g82
I3
ssg83
g1724
sg76
(lp1731
S'0'
asbasbasbasbasbasbasbasbasbasbasbag69
(g85
g71
NtRp1732
(dp1733
g74
(dp1734
sg83
g79
sg76
(lp1735
g69
(g90
g71
NtRp1736
(dp1737
g74
(dp1738
g94
g95
ssg83
g1732
sg76
(lp1739
S'extension'
p1740
asbag69
(g90
g71
NtRp1741
(dp1742
g74
(dp1743
g101
g102
ssg83
g1732
sg76
(lp1744
S':'
asbag69
(g90
g71
NtRp1745
(dp1746
g74
(dp1747
sg83
g1732
sg76
(lp1748
g69
(g70
g71
NtRp1749
(dp1750
g74
(dp1751
g82
I5
ssg83
g1745
sg76
(lp1752
S'html'
p1753
asbasbasbag69
(g85
g71
NtRp1754
(dp1755
g74
(dp1756
sg83
g79
sg76
(lp1757
g69
(g90
g71
NtRp1758
(dp1759
g74
(dp1760
g94
g95
ssg83
g1754
sg76
(lp1761
S'folder'
p1762
asbag69
(g90
g71
NtRp1763
(dp1764
g74
(dp1765
g101
g102
ssg83
g1754
sg76
(lp1766
S':'
asbag69
(g90
g71
NtRp1767
(dp1768
g74
(dp1769
sg83
g1754
sg76
(lp1770
g69
(g70
g71
NtRp1771
(dp1772
g74
(dp1773
g82
I5
ssg83
g1767
sg76
(lp1774
S'/var/www/web2py_hosts/applications/projeto/'
p1775
asbasbasbag69
(g85
g71
NtRp1776
(dp1777
g74
(dp1778
sg83
g79
sg76
(lp1779
g69
(g90
g71
NtRp1780
(dp1781
g74
(dp1782
g94
g95
ssg83
g1776
sg76
(lp1783
S'function'
p1784
asbag69
(g90
g71
NtRp1785
(dp1786
g74
(dp1787
g101
g102
ssg83
g1776
sg76
(lp1788
S':'
asbag69
(g90
g71
NtRp1789
(dp1790
g74
(dp1791
sg83
g1776
sg76
(lp1792
g69
(g70
g71
NtRp1793
(dp1794
g74
(dp1795
g82
I5
ssg83
g1789
sg76
(lp1796
S'show_distro'
p1797
asbasbasbag69
(g85
g71
NtRp1798
(dp1799
g74
(dp1800
sg83
g79
sg76
(lp1801
g69
(g90
g71
NtRp1802
(dp1803
g74
(dp1804
g94
g95
ssg83
g1798
sg76
(lp1805
S'get_vars'
p1806
asbag69
(g90
g71
NtRp1807
(dp1808
g74
(dp1809
g101
g102
ssg83
g1798
sg76
(lp1810
S':'
asbag69
(g90
g71
NtRp1811
(dp1812
g74
(dp1813
sg83
g1798
sg76
(lp1814
g69
(g70
g71
NtRp1815
(dp1816
g74
(dp1817
g82
I5
ssg83
g1811
sg76
(lp1818
g69
(g78
g71
NtRp1819
(dp1820
g74
(dp1821
g82
I4
ssg83
Nsg76
(lp1822
sbasbasbasbag69
(g85
g71
NtRp1823
(dp1824
g74
(dp1825
sg83
g79
sg76
(lp1826
g69
(g90
g71
NtRp1827
(dp1828
g74
(dp1829
g94
g95
ssg83
g1823
sg76
(lp1830
S'global_settings'
p1831
asbag69
(g90
g71
NtRp1832
(dp1833
g74
(dp1834
g101
g102
ssg83
g1823
sg76
(lp1835
S':'
asbag69
(g90
g71
NtRp1836
(dp1837
g74
(dp1838
sg83
g1823
sg76
(lp1839
g69
(g70
g71
NtRp1840
(dp1841
g74
(dp1842
g82
I5
ssg83
g1836
sg76
(lp1843
g69
(g78
g71
NtRp1844
(dp1845
g74
(dp1846
g82
I4
ssg83
Nsg76
(lp1847
g69
(g85
g71
NtRp1848
(dp1849
g74
(dp1850
sg83
g1844
sg76
(lp1851
g69
(g90
g71
NtRp1852
(dp1853
g74
(dp1854
g94
g95
ssg83
g1848
sg76
(lp1855
g685
asbag69
(g90
g71
NtRp1856
(dp1857
g74
(dp1858
g101
g102
ssg83
g1848
sg76
(lp1859
S':'
asbag69
(g90
g71
NtRp1860
(dp1861
g74
(dp1862
sg83
g1848
sg76
(lp1863
g69
(g70
g71
NtRp1864
(dp1865
g74
(dp1866
g82
I4
ssg83
g1860
sg76
(lp1867
S"set(['/var/www/web2py_hosts/applications/admin/', '/var/www/web2py_hosts/applications/projeto/'])"
p1868
asbasbasbag69
(g85
g71
NtRp1869
(dp1870
g74
(dp1871
sg83
g1844
sg76
(lp1872
g69
(g90
g71
NtRp1873
(dp1874
g74
(dp1875
g94
g95
ssg83
g1869
sg76
(lp1876
g707
asbag69
(g90
g71
NtRp1877
(dp1878
g74
(dp1879
g101
g102
ssg83
g1869
sg76
(lp1880
S':'
asbag69
(g90
g71
NtRp1881
(dp1882
g74
(dp1883
sg83
g1869
sg76
(lp1884
g69
(g70
g71
NtRp1885
(dp1886
g74
(dp1887
g82
I4
ssg83
g1881
sg76
(lp1888
g720
asbasbasbag69
(g85
g71
NtRp1889
(dp1890
g74
(dp1891
sg83
g1844
sg76
(lp1892
g69
(g90
g71
NtRp1893
(dp1894
g74
(dp1895
g94
g95
ssg83
g1889
sg76
(lp1896
g729
asbag69
(g90
g71
NtRp1897
(dp1898
g74
(dp1899
g101
g102
ssg83
g1889
sg76
(lp1900
S':'
asbag69
(g90
g71
NtRp1901
(dp1902
g74
(dp1903
sg83
g1889
sg76
(lp1904
g69
(g70
g71
NtRp1905
(dp1906
g74
(dp1907
g82
I4
ssg83
g1901
sg76
(lp1908
g69
(g78
g71
NtRp1909
(dp1910
g74
(dp1911
g82
I3
ssg83
Nsg76
(lp1912
sbasbasbasbag69
(g85
g71
NtRp1913
(dp1914
g74
(dp1915
sg83
g1844
sg76
(lp1916
g69
(g90
g71
NtRp1917
(dp1918
g74
(dp1919
g94
g95
ssg83
g1913
sg76
(lp1920
g754
asbag69
(g90
g71
NtRp1921
(dp1922
g74
(dp1923
g101
g102
ssg83
g1913
sg76
(lp1924
S':'
asbag69
(g90
g71
NtRp1925
(dp1926
g74
(dp1927
sg83
g1913
sg76
(lp1928
g69
(g70
g71
NtRp1929
(dp1930
g74
(dp1931
g82
I4
ssg83
g1925
sg76
(lp1932
S"<Values at 0x17a0638: {'verbose': False, 'ip': '127.0.0.1', 'with_scheduler': False, 'ips': [], 'shutdown_timeout': 5, 'taskbar': False, 'port': 8000, 'maxthreads': None, 'softcron': False, 'server_name': 'fernando-pc', 'bpython': False, 'nogui': False, 'pid_filename': 'httpserver.pid', 'extcron': False, 'runcron': False, 'run_system_tests': False, 'test': None, 'folder': '/var/www/web2py_hosts', 'config': '', 'minthreads': None, 'winservice': '', 'shell': None, 'run': '', 'log_filename': 'httpserver.log', 'debuglevel': 30, 'args': [''], 'socket_timeout': 5, 'ssl_ca_certificate': None, 'scheduler': None, 'profiler_filename': None, 'ssl_private_key': '', 'scheduler_groups': None, 'password': '123456', 'request_queue_size': 5, 'ssl_certificate': '', 'cronjob': False, 'numthreads': None, 'quiet': False, 'interfaces': None, 'import_models': False, 'timeout': 10, 'plain': False, 'nobanner': False}>"
p1933
asbasbasbag69
(g85
g71
NtRp1934
(dp1935
g74
(dp1936
sg83
g1844
sg76
(lp1937
g69
(g90
g71
NtRp1938
(dp1939
g74
(dp1940
g94
g95
ssg83
g1934
sg76
(lp1941
g776
asbag69
(g90
g71
NtRp1942
(dp1943
g74
(dp1944
g101
g102
ssg83
g1934
sg76
(lp1945
S':'
asbag69
(g90
g71
NtRp1946
(dp1947
g74
(dp1948
sg83
g1934
sg76
(lp1949
g69
(g70
g71
NtRp1950
(dp1951
g74
(dp1952
g82
I4
ssg83
g1946
sg76
(lp1953
S'set([])'
p1954
asbasbasbag69
(g85
g71
NtRp1955
(dp1956
g74
(dp1957
sg83
g1844
sg76
(lp1958
g69
(g90
g71
NtRp1959
(dp1960
g74
(dp1961
g94
g95
ssg83
g1955
sg76
(lp1962
g798
asbag69
(g90
g71
NtRp1963
(dp1964
g74
(dp1965
g101
g102
ssg83
g1955
sg76
(lp1966
S':'
asbag69
(g90
g71
NtRp1967
(dp1968
g74
(dp1969
sg83
g1955
sg76
(lp1970
g69
(g70
g71
NtRp1971
(dp1972
g74
(dp1973
g82
I4
ssg83
g1967
sg76
(lp1974
g112
asbasbasbag69
(g85
g71
NtRp1975
(dp1976
g74
(dp1977
sg83
g1844
sg76
(lp1978
g69
(g90
g71
NtRp1979
(dp1980
g74
(dp1981
g94
g95
ssg83
g1975
sg76
(lp1982
g819
asbag69
(g90
g71
NtRp1983
(dp1984
g74
(dp1985
g101
g102
ssg83
g1975
sg76
(lp1986
S':'
asbag69
(g90
g71
NtRp1987
(dp1988
g74
(dp1989
sg83
g1975
sg76
(lp1990
g69
(g70
g71
NtRp1991
(dp1992
g74
(dp1993
g82
I4
ssg83
g1987
sg76
(lp1994
g832
asbasbasbag69
(g85
g71
NtRp1995
(dp1996
g74
(dp1997
sg83
g1844
sg76
(lp1998
g69
(g90
g71
NtRp1999
(dp2000
g74
(dp2001
g94
g95
ssg83
g1995
sg76
(lp2002
g1039
asbag69
(g90
g71
NtRp2003
(dp2004
g74
(dp2005
g101
g102
ssg83
g1995
sg76
(lp2006
S':'
asbag69
(g90
g71
NtRp2007
(dp2008
g74
(dp2009
sg83
g1995
sg76
(lp2010
g69
(g70
g71
NtRp2011
(dp2012
g74
(dp2013
g82
I4
ssg83
g2007
sg76
(lp2014
g112
asbasbasbag69
(g85
g71
NtRp2015
(dp2016
g74
(dp2017
sg83
g1844
sg76
(lp2018
g69
(g90
g71
NtRp2019
(dp2020
g74
(dp2021
g94
g95
ssg83
g2015
sg76
(lp2022
g1060
asbag69
(g90
g71
NtRp2023
(dp2024
g74
(dp2025
g101
g102
ssg83
g2015
sg76
(lp2026
S':'
asbag69
(g90
g71
NtRp2027
(dp2028
g74
(dp2029
sg83
g2015
sg76
(lp2030
g69
(g70
g71
NtRp2031
(dp2032
g74
(dp2033
g82
I4
ssg83
g2027
sg76
(lp2034
g112
asbasbasbag69
(g85
g71
NtRp2035
(dp2036
g74
(dp2037
sg83
g1844
sg76
(lp2038
g69
(g90
g71
NtRp2039
(dp2040
g74
(dp2041
g94
g95
ssg83
g2035
sg76
(lp2042
g1081
asbag69
(g90
g71
NtRp2043
(dp2044
g74
(dp2045
g101
g102
ssg83
g2035
sg76
(lp2046
S':'
asbag69
(g90
g71
NtRp2047
(dp2048
g74
(dp2049
sg83
g2035
sg76
(lp2050
g69
(g70
g71
NtRp2051
(dp2052
g74
(dp2053
g82
I4
ssg83
g2047
sg76
(lp2054
g69
(g78
g71
NtRp2055
(dp2056
g74
(dp2057
g82
I3
ssg83
Nsg76
(lp2058
g69
(g85
g71
NtRp2059
(dp2060
g74
(dp2061
sg83
g2055
sg76
(lp2062
g69
(g90
g71
NtRp2063
(dp2064
g74
(dp2065
sg83
g2059
sg76
(lp2066
g69
(g70
g71
NtRp2067
(dp2068
g74
(dp2069
g82
I3
ssg83
g2063
sg76
(lp2070
g1110
asbasbasbag69
(g85
g71
NtRp2071
(dp2072
g74
(dp2073
sg83
g2055
sg76
(lp2074
g69
(g90
g71
NtRp2075
(dp2076
g74
(dp2077
sg83
g2071
sg76
(lp2078
g69
(g70
g71
NtRp2079
(dp2080
g74
(dp2081
g82
I3
ssg83
g2075
sg76
(lp2082
g1123
asbasbasbag69
(g85
g71
NtRp2083
(dp2084
g74
(dp2085
sg83
g2055
sg76
(lp2086
g69
(g90
g71
NtRp2087
(dp2088
g74
(dp2089
sg83
g2083
sg76
(lp2090
g69
(g70
g71
NtRp2091
(dp2092
g74
(dp2093
g82
I3
ssg83
g2087
sg76
(lp2094
g1136
asbasbasbag69
(g85
g71
NtRp2095
(dp2096
g74
(dp2097
sg83
g2055
sg76
(lp2098
g69
(g90
g71
NtRp2099
(dp2100
g74
(dp2101
sg83
g2095
sg76
(lp2102
g69
(g70
g71
NtRp2103
(dp2104
g74
(dp2105
g82
I3
ssg83
g2099
sg76
(lp2106
g1149
asbasbasbag69
(g85
g71
NtRp2107
(dp2108
g74
(dp2109
sg83
g2055
sg76
(lp2110
g69
(g90
g71
NtRp2111
(dp2112
g74
(dp2113
sg83
g2107
sg76
(lp2114
g69
(g70
g71
NtRp2115
(dp2116
g74
(dp2117
g82
I3
ssg83
g2111
sg76
(lp2118
g1162
asbasbasbasbasbasbasbag69
(g85
g71
NtRp2119
(dp2120
g74
(dp2121
sg83
g1844
sg76
(lp2122
g69
(g90
g71
NtRp2123
(dp2124
g74
(dp2125
g94
g95
ssg83
g2119
sg76
(lp2126
g1452
asbag69
(g90
g71
NtRp2127
(dp2128
g74
(dp2129
g101
g102
ssg83
g2119
sg76
(lp2130
S':'
asbag69
(g90
g71
NtRp2131
(dp2132
g74
(dp2133
sg83
g2119
sg76
(lp2134
g69
(g70
g71
NtRp2135
(dp2136
g74
(dp2137
g82
I4
ssg83
g2131
sg76
(lp2138
g69
(g78
g71
NtRp2139
(dp2140
g74
(dp2141
g82
I3
ssg83
Nsg76
(lp2142
g69
(g85
g71
NtRp2143
(dp2144
g74
(dp2145
sg83
g2139
sg76
(lp2146
g69
(g90
g71
NtRp2147
(dp2148
g74
(dp2149
sg83
g2143
sg76
(lp2150
g69
(g70
g71
NtRp2151
(dp2152
g74
(dp2153
g82
I3
ssg83
g2147
sg76
(lp2154
S'2'
asbasbasbag69
(g85
g71
NtRp2155
(dp2156
g74
(dp2157
sg83
g2139
sg76
(lp2158
g69
(g90
g71
NtRp2159
(dp2160
g74
(dp2161
sg83
g2155
sg76
(lp2162
g69
(g70
g71
NtRp2163
(dp2164
g74
(dp2165
g82
I3
ssg83
g2159
sg76
(lp2166
S'3'
asbasbasbag69
(g85
g71
NtRp2167
(dp2168
g74
(dp2169
sg83
g2139
sg76
(lp2170
g69
(g90
g71
NtRp2171
(dp2172
g74
(dp2173
sg83
g2167
sg76
(lp2174
g69
(g70
g71
NtRp2175
(dp2176
g74
(dp2177
g82
I3
ssg83
g2171
sg76
(lp2178
S'2'
asbasbasbag69
(g85
g71
NtRp2179
(dp2180
g74
(dp2181
sg83
g2139
sg76
(lp2182
g69
(g90
g71
NtRp2183
(dp2184
g74
(dp2185
sg83
g2179
sg76
(lp2186
g69
(g70
g71
NtRp2187
(dp2188
g74
(dp2189
g82
I3
ssg83
g2183
sg76
(lp2190
S'datetime.datetime(2012, 12, 17, 15, 3, 30)'
p2191
asbasbasbag69
(g85
g71
NtRp2192
(dp2193
g74
(dp2194
sg83
g2139
sg76
(lp2195
g69
(g90
g71
NtRp2196
(dp2197
g74
(dp2198
sg83
g2192
sg76
(lp2199
g69
(g70
g71
NtRp2200
(dp2201
g74
(dp2202
g82
I3
ssg83
g2196
sg76
(lp2203
g1530
asbasbasbasbasbasbasbasbasbasbasbag69
(g85
g71
NtRp2204
(dp2205
g74
(dp2206
sg83
g79
sg76
(lp2207
g69
(g90
g71
NtRp2208
(dp2209
g74
(dp2210
g94
g95
ssg83
g2204
sg76
(lp2211
S'is_https'
p2212
asbag69
(g90
g71
NtRp2213
(dp2214
g74
(dp2215
g101
g102
ssg83
g2204
sg76
(lp2216
S':'
asbag69
(g90
g71
NtRp2217
(dp2218
g74
(dp2219
sg83
g2204
sg76
(lp2220
g69
(g70
g71
NtRp2221
(dp2222
g74
(dp2223
g82
I5
ssg83
g2217
sg76
(lp2224
g112
asbasbasbag69
(g85
g71
NtRp2225
(dp2226
g74
(dp2227
sg83
g79
sg76
(lp2228
g69
(g90
g71
NtRp2229
(dp2230
g74
(dp2231
g94
g95
ssg83
g2225
sg76
(lp2232
S'is_local'
p2233
asbag69
(g90
g71
NtRp2234
(dp2235
g74
(dp2236
g101
g102
ssg83
g2225
sg76
(lp2237
S':'
asbag69
(g90
g71
NtRp2238
(dp2239
g74
(dp2240
sg83
g2225
sg76
(lp2241
g69
(g70
g71
NtRp2242
(dp2243
g74
(dp2244
g82
I5
ssg83
g2238
sg76
(lp2245
g1639
asbasbasbag69
(g85
g71
NtRp2246
(dp2247
g74
(dp2248
sg83
g79
sg76
(lp2249
g69
(g90
g71
NtRp2250
(dp2251
g74
(dp2252
g94
g95
ssg83
g2246
sg76
(lp2253
S'is_restful'
p2254
asbag69
(g90
g71
NtRp2255
(dp2256
g74
(dp2257
g101
g102
ssg83
g2246
sg76
(lp2258
S':'
asbag69
(g90
g71
NtRp2259
(dp2260
g74
(dp2261
sg83
g2246
sg76
(lp2262
g69
(g70
g71
NtRp2263
(dp2264
g74
(dp2265
g82
I5
ssg83
g2259
sg76
(lp2266
g112
asbasbasbag69
(g85
g71
NtRp2267
(dp2268
g74
(dp2269
sg83
g79
sg76
(lp2270
g69
(g90
g71
NtRp2271
(dp2272
g74
(dp2273
g94
g95
ssg83
g2267
sg76
(lp2274
S'now'
p2275
asbag69
(g90
g71
NtRp2276
(dp2277
g74
(dp2278
g101
g102
ssg83
g2267
sg76
(lp2279
S':'
asbag69
(g90
g71
NtRp2280
(dp2281
g74
(dp2282
sg83
g2267
sg76
(lp2283
g69
(g70
g71
NtRp2284
(dp2285
g74
(dp2286
g82
I5
ssg83
g2280
sg76
(lp2287
S'datetime.datetime(2013, 2, 5, 21, 49, 16, 165959)'
p2288
asbasbasbag69
(g85
g71
NtRp2289
(dp2290
g74
(dp2291
sg83
g79
sg76
(lp2292
g69
(g90
g71
NtRp2293
(dp2294
g74
(dp2295
g94
g95
ssg83
g2289
sg76
(lp2296
S'post_vars'
p2297
asbag69
(g90
g71
NtRp2298
(dp2299
g74
(dp2300
g101
g102
ssg83
g2289
sg76
(lp2301
S':'
asbag69
(g90
g71
NtRp2302
(dp2303
g74
(dp2304
sg83
g2289
sg76
(lp2305
g69
(g70
g71
NtRp2306
(dp2307
g74
(dp2308
g82
I5
ssg83
g2302
sg76
(lp2309
g69
(g78
g71
NtRp2310
(dp2311
g74
(dp2312
g82
I4
ssg83
Nsg76
(lp2313
sbasbasbasbag69
(g85
g71
NtRp2314
(dp2315
g74
(dp2316
sg83
g79
sg76
(lp2317
g69
(g90
g71
NtRp2318
(dp2319
g74
(dp2320
g94
g95
ssg83
g2314
sg76
(lp2321
S'url'
p2322
asbag69
(g90
g71
NtRp2323
(dp2324
g74
(dp2325
g101
g102
ssg83
g2314
sg76
(lp2326
S':'
asbag69
(g90
g71
NtRp2327
(dp2328
g74
(dp2329
sg83
g2314
sg76
(lp2330
g69
(g70
g71
NtRp2331
(dp2332
g74
(dp2333
g82
I5
ssg83
g2327
sg76
(lp2334
g1184
asbasbasbag69
(g85
g71
NtRp2335
(dp2336
g74
(dp2337
sg83
g79
sg76
(lp2338
g69
(g90
g71
NtRp2339
(dp2340
g74
(dp2341
g94
g95
ssg83
g2335
sg76
(lp2342
S'utcnow'
p2343
asbag69
(g90
g71
NtRp2344
(dp2345
g74
(dp2346
g101
g102
ssg83
g2335
sg76
(lp2347
S':'
asbag69
(g90
g71
NtRp2348
(dp2349
g74
(dp2350
sg83
g2335
sg76
(lp2351
g69
(g70
g71
NtRp2352
(dp2353
g74
(dp2354
g82
I5
ssg83
g2348
sg76
(lp2355
S'datetime.datetime(2013, 2, 5, 23, 49, 16, 165979)'
p2356
asbasbasbag69
(g85
g71
NtRp2357
(dp2358
g74
(dp2359
sg83
g79
sg76
(lp2360
g69
(g90
g71
NtRp2361
(dp2362
g74
(dp2363
g94
g95
ssg83
g2357
sg76
(lp2364
S'uuid'
p2365
asbag69
(g90
g71
NtRp2366
(dp2367
g74
(dp2368
g101
g102
ssg83
g2357
sg76
(lp2369
S':'
asbag69
(g90
g71
NtRp2370
(dp2371
g74
(dp2372
sg83
g2357
sg76
(lp2373
g69
(g70
g71
NtRp2374
(dp2375
g74
(dp2376
g82
I5
ssg83
g2370
sg76
(lp2377
S'projeto/127.0.0.1.2013-02-05.21-49-16.e8831067-cf1f-4451-bc63-2f77208bc410'
p2378
asbasbasbag69
(g85
g71
NtRp2379
(dp2380
g74
(dp2381
sg83
g79
sg76
(lp2382
g69
(g90
g71
NtRp2383
(dp2384
g74
(dp2385
g94
g95
ssg83
g2379
sg76
(lp2386
S'vars'
p2387
asbag69
(g90
g71
NtRp2388
(dp2389
g74
(dp2390
g101
g102
ssg83
g2379
sg76
(lp2391
S':'
asbag69
(g90
g71
NtRp2392
(dp2393
g74
(dp2394
sg83
g2379
sg76
(lp2395
g69
(g70
g71
NtRp2396
(dp2397
g74
(dp2398
g82
I5
ssg83
g2392
sg76
(lp2399
g69
(g78
g71
NtRp2400
(dp2401
g74
(dp2402
g82
I4
ssg83
Nsg76
(lp2403
sbasbasbasbag69
(g85
g71
NtRp2404
(dp2405
g74
(dp2406
sg83
g79
sg76
(lp2407
g69
(g90
g71
NtRp2408
(dp2409
g74
(dp2410
g94
g95
ssg83
g2404
sg76
(lp2411
S'wsgi'
p2412
asbag69
(g90
g71
NtRp2413
(dp2414
g74
(dp2415
g101
g102
ssg83
g2404
sg76
(lp2416
S':'
asbag69
(g90
g71
NtRp2417
(dp2418
g74
(dp2419
sg83
g2404
sg76
(lp2420
g69
(g70
g71
NtRp2421
(dp2422
g74
(dp2423
g82
I5
ssg83
g2417
sg76
(lp2424
g69
(g78
g71
NtRp2425
(dp2426
g74
(dp2427
g82
I4
ssg83
Nsg76
(lp2428
g69
(g85
g71
NtRp2429
(dp2430
g74
(dp2431
sg83
g2425
sg76
(lp2432
g69
(g90
g71
NtRp2433
(dp2434
g74
(dp2435
g94
g95
ssg83
g2429
sg76
(lp2436
S'environ'
p2437
asbag69
(g90
g71
NtRp2438
(dp2439
g74
(dp2440
g101
g102
ssg83
g2429
sg76
(lp2441
S':'
asbag69
(g90
g71
NtRp2442
(dp2443
g74
(dp2444
sg83
g2429
sg76
(lp2445
g69
(g70
g71
NtRp2446
(dp2447
g74
(dp2448
g82
I4
ssg83
g2442
sg76
(lp2449
g69
(g78
g71
NtRp2450
(dp2451
g74
(dp2452
g82
I3
ssg83
Nsg76
(lp2453
g69
(g85
g71
NtRp2454
(dp2455
g74
(dp2456
sg83
g2450
sg76
(lp2457
g69
(g90
g71
NtRp2458
(dp2459
g74
(dp2460
g94
g95
ssg83
g2454
sg76
(lp2461
S'HTTP_ACCEPT'
p2462
asbag69
(g90
g71
NtRp2463
(dp2464
g74
(dp2465
g101
g102
ssg83
g2454
sg76
(lp2466
S':'
asbag69
(g90
g71
NtRp2467
(dp2468
g74
(dp2469
sg83
g2454
sg76
(lp2470
g69
(g70
g71
NtRp2471
(dp2472
g74
(dp2473
g82
I3
ssg83
g2467
sg76
(lp2474
g854
asbasbasbag69
(g85
g71
NtRp2475
(dp2476
g74
(dp2477
sg83
g2450
sg76
(lp2478
g69
(g90
g71
NtRp2479
(dp2480
g74
(dp2481
g94
g95
ssg83
g2475
sg76
(lp2482
S'HTTP_ACCEPT_CHARSET'
p2483
asbag69
(g90
g71
NtRp2484
(dp2485
g74
(dp2486
g101
g102
ssg83
g2475
sg76
(lp2487
S':'
asbag69
(g90
g71
NtRp2488
(dp2489
g74
(dp2490
sg83
g2475
sg76
(lp2491
g69
(g70
g71
NtRp2492
(dp2493
g74
(dp2494
g82
I3
ssg83
g2488
sg76
(lp2495
g876
asbasbasbag69
(g85
g71
NtRp2496
(dp2497
g74
(dp2498
sg83
g2450
sg76
(lp2499
g69
(g90
g71
NtRp2500
(dp2501
g74
(dp2502
g94
g95
ssg83
g2496
sg76
(lp2503
S'HTTP_ACCEPT_ENCODING'
p2504
asbag69
(g90
g71
NtRp2505
(dp2506
g74
(dp2507
g101
g102
ssg83
g2496
sg76
(lp2508
S':'
asbag69
(g90
g71
NtRp2509
(dp2510
g74
(dp2511
sg83
g2496
sg76
(lp2512
g69
(g70
g71
NtRp2513
(dp2514
g74
(dp2515
g82
I3
ssg83
g2509
sg76
(lp2516
g898
asbasbasbag69
(g85
g71
NtRp2517
(dp2518
g74
(dp2519
sg83
g2450
sg76
(lp2520
g69
(g90
g71
NtRp2521
(dp2522
g74
(dp2523
g94
g95
ssg83
g2517
sg76
(lp2524
S'HTTP_ACCEPT_LANGUAGE'
p2525
asbag69
(g90
g71
NtRp2526
(dp2527
g74
(dp2528
g101
g102
ssg83
g2517
sg76
(lp2529
S':'
asbag69
(g90
g71
NtRp2530
(dp2531
g74
(dp2532
sg83
g2517
sg76
(lp2533
g69
(g70
g71
NtRp2534
(dp2535
g74
(dp2536
g82
I3
ssg83
g2530
sg76
(lp2537
g920
asbasbasbag69
(g85
g71
NtRp2538
(dp2539
g74
(dp2540
sg83
g2450
sg76
(lp2541
g69
(g90
g71
NtRp2542
(dp2543
g74
(dp2544
g94
g95
ssg83
g2538
sg76
(lp2545
S'HTTP_CONNECTION'
p2546
asbag69
(g90
g71
NtRp2547
(dp2548
g74
(dp2549
g101
g102
ssg83
g2538
sg76
(lp2550
S':'
asbag69
(g90
g71
NtRp2551
(dp2552
g74
(dp2553
sg83
g2538
sg76
(lp2554
g69
(g70
g71
NtRp2555
(dp2556
g74
(dp2557
g82
I3
ssg83
g2551
sg76
(lp2558
g942
asbasbasbag69
(g85
g71
NtRp2559
(dp2560
g74
(dp2561
sg83
g2450
sg76
(lp2562
g69
(g90
g71
NtRp2563
(dp2564
g74
(dp2565
g94
g95
ssg83
g2559
sg76
(lp2566
S'HTTP_COOKIE'
p2567
asbag69
(g90
g71
NtRp2568
(dp2569
g74
(dp2570
g101
g102
ssg83
g2559
sg76
(lp2571
S':'
asbag69
(g90
g71
NtRp2572
(dp2573
g74
(dp2574
sg83
g2559
sg76
(lp2575
g69
(g70
g71
NtRp2576
(dp2577
g74
(dp2578
g82
I3
ssg83
g2572
sg76
(lp2579
g964
asbasbasbag69
(g85
g71
NtRp2580
(dp2581
g74
(dp2582
sg83
g2450
sg76
(lp2583
g69
(g90
g71
NtRp2584
(dp2585
g74
(dp2586
g94
g95
ssg83
g2580
sg76
(lp2587
S'HTTP_HOST'
p2588
asbag69
(g90
g71
NtRp2589
(dp2590
g74
(dp2591
g101
g102
ssg83
g2580
sg76
(lp2592
S':'
asbag69
(g90
g71
NtRp2593
(dp2594
g74
(dp2595
sg83
g2580
sg76
(lp2596
g69
(g70
g71
NtRp2597
(dp2598
g74
(dp2599
g82
I3
ssg83
g2593
sg76
(lp2600
g986
asbasbasbag69
(g85
g71
NtRp2601
(dp2602
g74
(dp2603
sg83
g2450
sg76
(lp2604
g69
(g90
g71
NtRp2605
(dp2606
g74
(dp2607
g94
g95
ssg83
g2601
sg76
(lp2608
S'HTTP_REFERER'
p2609
asbag69
(g90
g71
NtRp2610
(dp2611
g74
(dp2612
g101
g102
ssg83
g2601
sg76
(lp2613
S':'
asbag69
(g90
g71
NtRp2614
(dp2615
g74
(dp2616
sg83
g2601
sg76
(lp2617
g69
(g70
g71
NtRp2618
(dp2619
g74
(dp2620
g82
I3
ssg83
g2614
sg76
(lp2621
g1008
asbasbasbag69
(g85
g71
NtRp2622
(dp2623
g74
(dp2624
sg83
g2450
sg76
(lp2625
g69
(g90
g71
NtRp2626
(dp2627
g74
(dp2628
g94
g95
ssg83
g2622
sg76
(lp2629
S'HTTP_USER_AGENT'
p2630
asbag69
(g90
g71
NtRp2631
(dp2632
g74
(dp2633
g101
g102
ssg83
g2622
sg76
(lp2634
S':'
asbag69
(g90
g71
NtRp2635
(dp2636
g74
(dp2637
sg83
g2622
sg76
(lp2638
g69
(g70
g71
NtRp2639
(dp2640
g74
(dp2641
g82
I3
ssg83
g2635
sg76
(lp2642
g1030
asbasbasbag69
(g85
g71
NtRp2643
(dp2644
g74
(dp2645
sg83
g2450
sg76
(lp2646
g69
(g90
g71
NtRp2647
(dp2648
g74
(dp2649
g94
g95
ssg83
g2643
sg76
(lp2650
S'PATH_INFO'
p2651
asbag69
(g90
g71
NtRp2652
(dp2653
g74
(dp2654
g101
g102
ssg83
g2643
sg76
(lp2655
S':'
asbag69
(g90
g71
NtRp2656
(dp2657
g74
(dp2658
sg83
g2643
sg76
(lp2659
g69
(g70
g71
NtRp2660
(dp2661
g74
(dp2662
g82
I3
ssg83
g2656
sg76
(lp2663
g1184
asbasbasbag69
(g85
g71
NtRp2664
(dp2665
g74
(dp2666
sg83
g2450
sg76
(lp2667
g69
(g90
g71
NtRp2668
(dp2669
g74
(dp2670
g94
g95
ssg83
g2664
sg76
(lp2671
S'QUERY_STRING'
p2672
asbag69
(g90
g71
NtRp2673
(dp2674
g74
(dp2675
g101
g102
ssg83
g2664
sg76
(lp2676
S':'
asbag69
(g90
g71
NtRp2677
(dp2678
g74
(dp2679
sg83
g2664
sg76
(lp2680
g69
(g70
g71
NtRp2681
(dp2682
g74
(dp2683
g82
I3
ssg83
g2677
sg76
(lp2684
S''
asbasbasbag69
(g85
g71
NtRp2685
(dp2686
g74
(dp2687
sg83
g2450
sg76
(lp2688
g69
(g90
g71
NtRp2689
(dp2690
g74
(dp2691
g94
g95
ssg83
g2685
sg76
(lp2692
S'REMOTE_ADDR'
p2693
asbag69
(g90
g71
NtRp2694
(dp2695
g74
(dp2696
g101
g102
ssg83
g2685
sg76
(lp2697
S':'
asbag69
(g90
g71
NtRp2698
(dp2699
g74
(dp2700
sg83
g2685
sg76
(lp2701
g69
(g70
g71
NtRp2702
(dp2703
g74
(dp2704
g82
I3
ssg83
g2698
sg76
(lp2705
g224
asbasbasbag69
(g85
g71
NtRp2706
(dp2707
g74
(dp2708
sg83
g2450
sg76
(lp2709
g69
(g90
g71
NtRp2710
(dp2711
g74
(dp2712
g94
g95
ssg83
g2706
sg76
(lp2713
S'REMOTE_PORT'
p2714
asbag69
(g90
g71
NtRp2715
(dp2716
g74
(dp2717
g101
g102
ssg83
g2706
sg76
(lp2718
S':'
asbag69
(g90
g71
NtRp2719
(dp2720
g74
(dp2721
sg83
g2706
sg76
(lp2722
g69
(g70
g71
NtRp2723
(dp2724
g74
(dp2725
g82
I3
ssg83
g2719
sg76
(lp2726
g1248
asbasbasbag69
(g85
g71
NtRp2727
(dp2728
g74
(dp2729
sg83
g2450
sg76
(lp2730
g69
(g90
g71
NtRp2731
(dp2732
g74
(dp2733
g94
g95
ssg83
g2727
sg76
(lp2734
S'REQUEST_METHOD'
p2735
asbag69
(g90
g71
NtRp2736
(dp2737
g74
(dp2738
g101
g102
ssg83
g2727
sg76
(lp2739
S':'
asbag69
(g90
g71
NtRp2740
(dp2741
g74
(dp2742
sg83
g2727
sg76
(lp2743
g69
(g70
g71
NtRp2744
(dp2745
g74
(dp2746
g82
I3
ssg83
g2740
sg76
(lp2747
g1270
asbasbasbag69
(g85
g71
NtRp2748
(dp2749
g74
(dp2750
sg83
g2450
sg76
(lp2751
g69
(g90
g71
NtRp2752
(dp2753
g74
(dp2754
g94
g95
ssg83
g2748
sg76
(lp2755
S'REQUEST_URI'
p2756
asbag69
(g90
g71
NtRp2757
(dp2758
g74
(dp2759
g101
g102
ssg83
g2748
sg76
(lp2760
S':'
asbag69
(g90
g71
NtRp2761
(dp2762
g74
(dp2763
sg83
g2748
sg76
(lp2764
g69
(g70
g71
NtRp2765
(dp2766
g74
(dp2767
g82
I3
ssg83
g2761
sg76
(lp2768
g1292
asbasbasbag69
(g85
g71
NtRp2769
(dp2770
g74
(dp2771
sg83
g2450
sg76
(lp2772
g69
(g90
g71
NtRp2773
(dp2774
g74
(dp2775
g94
g95
ssg83
g2769
sg76
(lp2776
S'SCRIPT_NAME'
p2777
asbag69
(g90
g71
NtRp2778
(dp2779
g74
(dp2780
g101
g102
ssg83
g2769
sg76
(lp2781
S':'
asbag69
(g90
g71
NtRp2782
(dp2783
g74
(dp2784
sg83
g2769
sg76
(lp2785
g69
(g70
g71
NtRp2786
(dp2787
g74
(dp2788
g82
I3
ssg83
g2782
sg76
(lp2789
S''
asbasbasbag69
(g85
g71
NtRp2790
(dp2791
g74
(dp2792
sg83
g2450
sg76
(lp2793
g69
(g90
g71
NtRp2794
(dp2795
g74
(dp2796
g94
g95
ssg83
g2790
sg76
(lp2797
S'SERVER_NAME'
p2798
asbag69
(g90
g71
NtRp2799
(dp2800
g74
(dp2801
g101
g102
ssg83
g2790
sg76
(lp2802
S':'
asbag69
(g90
g71
NtRp2803
(dp2804
g74
(dp2805
sg83
g2790
sg76
(lp2806
g69
(g70
g71
NtRp2807
(dp2808
g74
(dp2809
g82
I3
ssg83
g2803
sg76
(lp2810
g1335
asbasbasbag69
(g85
g71
NtRp2811
(dp2812
g74
(dp2813
sg83
g2450
sg76
(lp2814
g69
(g90
g71
NtRp2815
(dp2816
g74
(dp2817
g94
g95
ssg83
g2811
sg76
(lp2818
S'SERVER_PORT'
p2819
asbag69
(g90
g71
NtRp2820
(dp2821
g74
(dp2822
g101
g102
ssg83
g2811
sg76
(lp2823
S':'
asbag69
(g90
g71
NtRp2824
(dp2825
g74
(dp2826
sg83
g2811
sg76
(lp2827
g69
(g70
g71
NtRp2828
(dp2829
g74
(dp2830
g82
I3
ssg83
g2824
sg76
(lp2831
g1357
asbasbasbag69
(g85
g71
NtRp2832
(dp2833
g74
(dp2834
sg83
g2450
sg76
(lp2835
g69
(g90
g71
NtRp2836
(dp2837
g74
(dp2838
g94
g95
ssg83
g2832
sg76
(lp2839
S'SERVER_PROTOCOL'
p2840
asbag69
(g90
g71
NtRp2841
(dp2842
g74
(dp2843
g101
g102
ssg83
g2832
sg76
(lp2844
S':'
asbag69
(g90
g71
NtRp2845
(dp2846
g74
(dp2847
sg83
g2832
sg76
(lp2848
g69
(g70
g71
NtRp2849
(dp2850
g74
(dp2851
g82
I3
ssg83
g2845
sg76
(lp2852
g1379
asbasbasbag69
(g85
g71
NtRp2853
(dp2854
g74
(dp2855
sg83
g2450
sg76
(lp2856
g69
(g90
g71
NtRp2857
(dp2858
g74
(dp2859
g94
g95
ssg83
g2853
sg76
(lp2860
S'SERVER_SOFTWARE'
p2861
asbag69
(g90
g71
NtRp2862
(dp2863
g74
(dp2864
g101
g102
ssg83
g2853
sg76
(lp2865
S':'
asbag69
(g90
g71
NtRp2866
(dp2867
g74
(dp2868
sg83
g2853
sg76
(lp2869
g69
(g70
g71
NtRp2870
(dp2871
g74
(dp2872
g82
I3
ssg83
g2866
sg76
(lp2873
g1401
asbasbasbag69
(g85
g71
NtRp2874
(dp2875
g74
(dp2876
sg83
g2450
sg76
(lp2877
g69
(g90
g71
NtRp2878
(dp2879
g74
(dp2880
g94
g95
ssg83
g2874
sg76
(lp2881
S'WEB2PY_ORIGINAL_URI'
p2882
asbag69
(g90
g71
NtRp2883
(dp2884
g74
(dp2885
g101
g102
ssg83
g2874
sg76
(lp2886
S':'
asbag69
(g90
g71
NtRp2887
(dp2888
g74
(dp2889
sg83
g2874
sg76
(lp2890
g69
(g70
g71
NtRp2891
(dp2892
g74
(dp2893
g82
I3
ssg83
g2887
sg76
(lp2894
g1184
asbasbasbag69
(g85
g71
NtRp2895
(dp2896
g74
(dp2897
sg83
g2450
sg76
(lp2898
g69
(g90
g71
NtRp2899
(dp2900
g74
(dp2901
g94
g95
ssg83
g2895
sg76
(lp2902
S'wsgi.errors'
p2903
asbag69
(g90
g71
NtRp2904
(dp2905
g74
(dp2906
g101
g102
ssg83
g2895
sg76
(lp2907
S':'
asbag69
(g90
g71
NtRp2908
(dp2909
g74
(dp2910
sg83
g2895
sg76
(lp2911
g69
(g70
g71
NtRp2912
(dp2913
g74
(dp2914
g82
I3
ssg83
g2908
sg76
(lp2915
S"<open file '<stderr>', mode 'w' at 0x7f6bc0e2c270>"
p2916
asbasbasbag69
(g85
g71
NtRp2917
(dp2918
g74
(dp2919
sg83
g2450
sg76
(lp2920
g69
(g90
g71
NtRp2921
(dp2922
g74
(dp2923
g94
g95
ssg83
g2917
sg76
(lp2924
S'wsgi.file_wrapper'
p2925
asbag69
(g90
g71
NtRp2926
(dp2927
g74
(dp2928
g101
g102
ssg83
g2917
sg76
(lp2929
S':'
asbag69
(g90
g71
NtRp2930
(dp2931
g74
(dp2932
sg83
g2917
sg76
(lp2933
g69
(g70
g71
NtRp2934
(dp2935
g74
(dp2936
g82
I3
ssg83
g2930
sg76
(lp2937
S'<class wsgiref.util.FileWrapper at 0x1715808>'
p2938
asbasbasbag69
(g85
g71
NtRp2939
(dp2940
g74
(dp2941
sg83
g2450
sg76
(lp2942
g69
(g90
g71
NtRp2943
(dp2944
g74
(dp2945
g94
g95
ssg83
g2939
sg76
(lp2946
S'wsgi.input'
p2947
asbag69
(g90
g71
NtRp2948
(dp2949
g74
(dp2950
g101
g102
ssg83
g2939
sg76
(lp2951
S':'
asbag69
(g90
g71
NtRp2952
(dp2953
g74
(dp2954
sg83
g2939
sg76
(lp2955
g69
(g70
g71
NtRp2956
(dp2957
g74
(dp2958
g82
I3
ssg83
g2952
sg76
(lp2959
S'<cStringIO.StringO object at 0x7f6b90117110>'
p2960
asbasbasbag69
(g85
g71
NtRp2961
(dp2962
g74
(dp2963
sg83
g2450
sg76
(lp2964
g69
(g90
g71
NtRp2965
(dp2966
g74
(dp2967
g94
g95
ssg83
g2961
sg76
(lp2968
S'wsgi.multiprocess'
p2969
asbag69
(g90
g71
NtRp2970
(dp2971
g74
(dp2972
g101
g102
ssg83
g2961
sg76
(lp2973
S':'
asbag69
(g90
g71
NtRp2974
(dp2975
g74
(dp2976
sg83
g2961
sg76
(lp2977
g69
(g70
g71
NtRp2978
(dp2979
g74
(dp2980
g82
I3
ssg83
g2974
sg76
(lp2981
g112
asbasbasbag69
(g85
g71
NtRp2982
(dp2983
g74
(dp2984
sg83
g2450
sg76
(lp2985
g69
(g90
g71
NtRp2986
(dp2987
g74
(dp2988
g94
g95
ssg83
g2982
sg76
(lp2989
S'wsgi.multithread'
p2990
asbag69
(g90
g71
NtRp2991
(dp2992
g74
(dp2993
g101
g102
ssg83
g2982
sg76
(lp2994
S':'
asbag69
(g90
g71
NtRp2995
(dp2996
g74
(dp2997
sg83
g2982
sg76
(lp2998
g69
(g70
g71
NtRp2999
(dp3000
g74
(dp3001
g82
I3
ssg83
g2995
sg76
(lp3002
g1639
asbasbasbag69
(g85
g71
NtRp3003
(dp3004
g74
(dp3005
sg83
g2450
sg76
(lp3006
g69
(g90
g71
NtRp3007
(dp3008
g74
(dp3009
g94
g95
ssg83
g3003
sg76
(lp3010
S'wsgi.run_once'
p3011
asbag69
(g90
g71
NtRp3012
(dp3013
g74
(dp3014
g101
g102
ssg83
g3003
sg76
(lp3015
S':'
asbag69
(g90
g71
NtRp3016
(dp3017
g74
(dp3018
sg83
g3003
sg76
(lp3019
g69
(g70
g71
NtRp3020
(dp3021
g74
(dp3022
g82
I3
ssg83
g3016
sg76
(lp3023
g112
asbasbasbag69
(g85
g71
NtRp3024
(dp3025
g74
(dp3026
sg83
g2450
sg76
(lp3027
g69
(g90
g71
NtRp3028
(dp3029
g74
(dp3030
g94
g95
ssg83
g3024
sg76
(lp3031
S'wsgi.url_scheme'
p3032
asbag69
(g90
g71
NtRp3033
(dp3034
g74
(dp3035
g101
g102
ssg83
g3024
sg76
(lp3036
S':'
asbag69
(g90
g71
NtRp3037
(dp3038
g74
(dp3039
sg83
g3024
sg76
(lp3040
g69
(g70
g71
NtRp3041
(dp3042
g74
(dp3043
g82
I3
ssg83
g3037
sg76
(lp3044
g1682
asbasbasbag69
(g85
g71
NtRp3045
(dp3046
g74
(dp3047
sg83
g2450
sg76
(lp3048
g69
(g90
g71
NtRp3049
(dp3050
g74
(dp3051
g94
g95
ssg83
g3045
sg76
(lp3052
S'wsgi.version'
p3053
asbag69
(g90
g71
NtRp3054
(dp3055
g74
(dp3056
g101
g102
ssg83
g3045
sg76
(lp3057
S':'
asbag69
(g90
g71
NtRp3058
(dp3059
g74
(dp3060
sg83
g3045
sg76
(lp3061
g69
(g70
g71
NtRp3062
(dp3063
g74
(dp3064
g82
I3
ssg83
g3058
sg76
(lp3065
S'1'
asbasbasbasbasbasbasbasbasbasbasbasbasbsS'frames'
p3066
(lp3067
(dp3068
S'file'
p3069
S'/var/www/web2py_hosts/gluon/restricted.py'
p3070
sS'dump'
p3071
(dp3072
S'environment'
p3073
S"{'A': <class 'gluon.html.A'>, 'Auth': <class 'gluon.tools.Auth'>, 'B': <class 'gluon.html.B'>, 'BEAUTIFY': <class 'gluon.html.BEAUTIFY'>, 'BODY': <class 'gluon.html.BODY'>, 'BR': <class 'gluon.html.BR'>, 'BUTTON': <class 'gluon.html.BUTTON'>, 'Blog': <Table blog (id,title,description)>, 'CAT': <class 'gluon.html.CAT'>, 'CENTER': <class 'gluon.html.CENTER'>, ...}"
p3074
sS'ccode'
p3075
S'<code object <module> at 0x7f6bb41402b0, file "/...s/applications/projeto/models/models.py", line 3>'
p3076
ssS'lnum'
p3077
I212
sS'lines'
p3078
(dp3079
I207
S'    try:'
p3080
sI208
S'        if isinstance(code, types.CodeType):'
p3081
sI209
S'            ccode = code'
p3082
sI210
S'        else:'
p3083
sI211
S'            ccode = compile2(code, layer)'
p3084
sI212
S'        exec ccode in environment'
p3085
sI213
S'    except HTTP:'
p3086
sI214
S'        raise'
p3087
sI215
S'    except RestrictedError:'
p3088
sI216
S'        # do not encapsulate (obfuscate) the original RestrictedError'
p3089
ssS'call'
p3090
S'(code=\'\\n\\nBlog = db.define_table("blog",\\n      Field("ti...  Field("nome"),\\n      Field("servicos")\\n      )\\n\', environment={\'A\': <class \'gluon.html.A\'>, \'Auth\': <class \'gluon.tools.Auth\'>, \'B\': <class \'gluon.html.B\'>, \'BEAUTIFY\': <class \'gluon.html.BEAUTIFY\'>, \'BODY\': <class \'gluon.html.BODY\'>, \'BR\': <class \'gluon.html.BR\'>, \'BUTTON\': <class \'gluon.html.BUTTON\'>, \'Blog\': <Table blog (id,title,description)>, \'CAT\': <class \'gluon.html.CAT\'>, \'CENTER\': <class \'gluon.html.CENTER\'>, ...}, layer=\'/var/www/web2py_hosts/applications/projeto/models/models.py\')'
p3091
sS'func'
p3092
S'restricted'
p3093
sa(dp3094
g3069
S'/var/www/web2py_hosts/applications/projeto/models/models.py'
p3095
sg3071
(dp3096
S'builtinformat'
p3097
S'<built-in function format>'
p3098
ssg3077
I38
sg3078
(dp3099
I33
S'      format="%(nome)s")'
p3100
sI34
S''
sI35
S'Distro = db.define_table("distro",'
p3101
sI36
S'      Field("nome"),'
p3102
sI37
S'      Field("img", "list"),'
p3103
sI38
S'      format="%(nome)s")'
p3104
sI39
S''
sI40
S'Hosts = db.define_table("hosts",'
p3105
sI41
S'      Field("id_cliente", db.cliente),'
p3106
sI42
S'      Field("id_servidor", db.servidor),'
p3107
ssg3090
S'()'
p3108
sg3092
S'<module>'
p3109
sa(dp3110
g3069
S'/var/www/web2py_hosts/gluon/dal.py'
p3111
sg3071
(dp3112
S'fields'
p3113
S'(<gluon.dal.Field object>, <gluon.dal.Field object>)'
p3114
sS'self'
p3115
S'<DAL uri="sqlite://projeto.sqlite">'
p3116
sS'args'
p3117
S"{'format': '%(nome)s'}"
p3118
sS'tablename'
p3119
S"'distro'"
p3120
sS'table'
p3121
S'undefined'
p3122
sS'self.lazy_define_table'
p3123
S'<bound method DAL.lazy_define_table of <DAL uri="sqlite://projeto.sqlite">>'
p3124
ssg3077
I7186
sg3078
(dp3125
I7181
S'                    % (tablename,invalid_args))'
p3126
sI7182
S'        if self._lazy_tables and not tablename in self._LAZY_TABLES:'
p3127
sI7183
S'            self._LAZY_TABLES[tablename] = (tablename,fields,args)'
p3128
sI7184
S'            table = None'
p3129
sI7185
S'        else:'
p3130
sI7186
S'            table = self.lazy_define_table(tablename,*fields,**args)'
p3131
sI7187
S'        if not tablename in self.tables:'
p3132
sI7188
S'            self.tables.append(tablename)'
p3133
sI7189
S'        return table'
p3134
sI7190
S''
ssg3090
S'(self=<DAL uri="sqlite://projeto.sqlite">, tablename=\'distro\', *fields=(<gluon.dal.Field object>, <gluon.dal.Field object>), **args={\'format\': \'%(nome)s\'})'
p3135
sg3092
S'define_table'
p3136
sa(dp3137
g3069
S'/var/www/web2py_hosts/gluon/dal.py'
p3138
sg3071
(dp3139
S'polymodel'
p3140
S'None'
p3141
ssg3077
I7222
sg3078
(dp3142
I7217
S"            polymodel = args_get('polymodel',None)"
p3143
sI7218
S'            try:'
p3144
sI7219
S'                GLOBAL_LOCKER.acquire()'
p3145
sI7220
S'                self._adapter.create_table(table,migrate=migrate,'
p3146
sI7221
S'                                           fake_migrate=fake_migrate,'
p3147
sI7222
S'                                           polymodel=polymodel)'
p3148
sI7223
S'            finally:'
p3149
sI7224
S'                GLOBAL_LOCKER.release()'
p3150
sI7225
S'        else:'
p3151
sI7226
S'            table._dbt = None'
p3152
ssg3090
S'(self=<DAL uri="sqlite://projeto.sqlite">, tablename=\'distro\', *fields=(<gluon.dal.Field object>, <gluon.dal.Field object>), **args={\'format\': \'%(nome)s\'})'
p3153
sg3092
S'lazy_define_table'
p3154
sa(dp3155
g3069
S'/var/www/web2py_hosts/gluon/dal.py'
p3156
sg3071
(dp3157
S'field_type'
p3158
S"'list'"
p3159
sS'field_name'
p3160
S"'img'"
p3161
ssg3077
I836
sg3078
(dp3162
I832
S'                                         dimension=dimension)'
p3163
sI833
S'                    postcreation_fields.append(ftype)'
p3164
sI834
S'            elif not field_type in types:'
p3165
sI835
S"                raise SyntaxError('Field: unknown field type: %s for %s' % \\"
p3166
sI836
S'                    (field_type, field_name))'
p3167
sI837
S'            else:'
p3168
sI838
S'                ftype = types[field_type]\\'
p3169
sI839
S'                     % dict(length=field.length)'
p3170
sI840
S"            if not field_type.startswith('id') and \\"
p3171
sI831
S'                                         fieldname=field_name, srid=srid,'
p3172
ssg3090
S'(self=<gluon.dal.SQLiteAdapter object>, table=<Table distro (id,nome,img)>, migrate=True, fake_migrate=False, polymodel=None)'
p3173
sg3092
S'create_table'
p3174
sasS'pyver'
p3175
S'Python 2.7.3: /usr/bin/python'
p3176
sS'session'
p3177
g69
(g70
g71
NtRp3178
(dp3179
g74
(dp3180
sg76
(lp3181
g69
(g78
g71
NtRp3182
(dp3183
g74
(dp3184
g82
I5
ssg83
Nsg76
(lp3185
g69
(g85
g71
NtRp3186
(dp3187
g74
(dp3188
sg83
g3182
sg76
(lp3189
g69
(g90
g71
NtRp3190
(dp3191
g74
(dp3192
g94
g95
ssg83
g3186
sg76
(lp3193
S'auth'
p3194
asbag69
(g90
g71
NtRp3195
(dp3196
g74
(dp3197
g101
g102
ssg83
g3186
sg76
(lp3198
S':'
asbag69
(g90
g71
NtRp3199
(dp3200
g74
(dp3201
sg83
g3186
sg76
(lp3202
g69
(g70
g71
NtRp3203
(dp3204
g74
(dp3205
g82
I5
ssg83
g3199
sg76
(lp3206
g69
(g78
g71
NtRp3207
(dp3208
g74
(dp3209
g82
I4
ssg83
Nsg76
(lp3210
g69
(g85
g71
NtRp3211
(dp3212
g74
(dp3213
sg83
g3207
sg76
(lp3214
g69
(g90
g71
NtRp3215
(dp3216
g74
(dp3217
g94
g95
ssg83
g3211
sg76
(lp3218
S'expiration'
p3219
asbag69
(g90
g71
NtRp3220
(dp3221
g74
(dp3222
g101
g102
ssg83
g3211
sg76
(lp3223
S':'
asbag69
(g90
g71
NtRp3224
(dp3225
g74
(dp3226
sg83
g3211
sg76
(lp3227
g69
(g70
g71
NtRp3228
(dp3229
g74
(dp3230
g82
I4
ssg83
g3224
sg76
(lp3231
S'3600'
p3232
asbasbasbag69
(g85
g71
NtRp3233
(dp3234
g74
(dp3235
sg83
g3207
sg76
(lp3236
g69
(g90
g71
NtRp3237
(dp3238
g74
(dp3239
g94
g95
ssg83
g3233
sg76
(lp3240
S'hmac_key'
p3241
asbag69
(g90
g71
NtRp3242
(dp3243
g74
(dp3244
g101
g102
ssg83
g3233
sg76
(lp3245
S':'
asbag69
(g90
g71
NtRp3246
(dp3247
g74
(dp3248
sg83
g3233
sg76
(lp3249
g69
(g70
g71
NtRp3250
(dp3251
g74
(dp3252
g82
I4
ssg83
g3246
sg76
(lp3253
S'8e7d47ff-3dcb-482b-a2c8-6ade9b02db99'
p3254
asbasbasbag69
(g85
g71
NtRp3255
(dp3256
g74
(dp3257
sg83
g3207
sg76
(lp3258
g69
(g90
g71
NtRp3259
(dp3260
g74
(dp3261
g94
g95
ssg83
g3255
sg76
(lp3262
S'last_visit'
p3263
asbag69
(g90
g71
NtRp3264
(dp3265
g74
(dp3266
g101
g102
ssg83
g3255
sg76
(lp3267
S':'
asbag69
(g90
g71
NtRp3268
(dp3269
g74
(dp3270
sg83
g3255
sg76
(lp3271
g69
(g70
g71
NtRp3272
(dp3273
g74
(dp3274
g82
I4
ssg83
g3268
sg76
(lp3275
S'datetime.datetime(2013, 2, 5, 21, 45, 10, 934455)'
p3276
asbasbasbag69
(g85
g71
NtRp3277
(dp3278
g74
(dp3279
sg83
g3207
sg76
(lp3280
g69
(g90
g71
NtRp3281
(dp3282
g74
(dp3283
g94
g95
ssg83
g3277
sg76
(lp3284
S'remember'
p3285
asbag69
(g90
g71
NtRp3286
(dp3287
g74
(dp3288
g101
g102
ssg83
g3277
sg76
(lp3289
S':'
asbag69
(g90
g71
NtRp3290
(dp3291
g74
(dp3292
sg83
g3277
sg76
(lp3293
g69
(g70
g71
NtRp3294
(dp3295
g74
(dp3296
g82
I4
ssg83
g3290
sg76
(lp3297
g112
asbasbasbag69
(g85
g71
NtRp3298
(dp3299
g74
(dp3300
sg83
g3207
sg76
(lp3301
g69
(g90
g71
NtRp3302
(dp3303
g74
(dp3304
g94
g95
ssg83
g3298
sg76
(lp3305
S'user'
p3306
asbag69
(g90
g71
NtRp3307
(dp3308
g74
(dp3309
g101
g102
ssg83
g3298
sg76
(lp3310
S':'
asbag69
(g90
g71
NtRp3311
(dp3312
g74
(dp3313
sg83
g3298
sg76
(lp3314
g69
(g70
g71
NtRp3315
(dp3316
g74
(dp3317
g82
I4
ssg83
g3311
sg76
(lp3318
g69
(g78
g71
NtRp3319
(dp3320
g74
(dp3321
g82
I3
ssg83
Nsg76
(lp3322
g69
(g85
g71
NtRp3323
(dp3324
g74
(dp3325
sg83
g3319
sg76
(lp3326
g69
(g90
g71
NtRp3327
(dp3328
g74
(dp3329
g94
g95
ssg83
g3323
sg76
(lp3330
S'bio'
p3331
asbag69
(g90
g71
NtRp3332
(dp3333
g74
(dp3334
g101
g102
ssg83
g3323
sg76
(lp3335
S':'
asbag69
(g90
g71
NtRp3336
(dp3337
g74
(dp3338
sg83
g3323
sg76
(lp3339
g69
(g70
g71
NtRp3340
(dp3341
g74
(dp3342
g82
I3
ssg83
g3336
sg76
(lp3343
S'None'
p3344
asbasbasbag69
(g85
g71
NtRp3345
(dp3346
g74
(dp3347
sg83
g3319
sg76
(lp3348
g69
(g90
g71
NtRp3349
(dp3350
g74
(dp3351
g94
g95
ssg83
g3345
sg76
(lp3352
S'email'
p3353
asbag69
(g90
g71
NtRp3354
(dp3355
g74
(dp3356
g101
g102
ssg83
g3345
sg76
(lp3357
S':'
asbag69
(g90
g71
NtRp3358
(dp3359
g74
(dp3360
sg83
g3345
sg76
(lp3361
g69
(g70
g71
NtRp3362
(dp3363
g74
(dp3364
g82
I3
ssg83
g3358
sg76
(lp3365
S'fernando@ad2.com.br'
p3366
asbasbasbag69
(g85
g71
NtRp3367
(dp3368
g74
(dp3369
sg83
g3319
sg76
(lp3370
g69
(g90
g71
NtRp3371
(dp3372
g74
(dp3373
g94
g95
ssg83
g3367
sg76
(lp3374
S'first_name'
p3375
asbag69
(g90
g71
NtRp3376
(dp3377
g74
(dp3378
g101
g102
ssg83
g3367
sg76
(lp3379
S':'
asbag69
(g90
g71
NtRp3380
(dp3381
g74
(dp3382
sg83
g3367
sg76
(lp3383
g69
(g70
g71
NtRp3384
(dp3385
g74
(dp3386
g82
I3
ssg83
g3380
sg76
(lp3387
S'Dend'
p3388
asbasbasbag69
(g85
g71
NtRp3389
(dp3390
g74
(dp3391
sg83
g3319
sg76
(lp3392
g69
(g90
g71
NtRp3393
(dp3394
g74
(dp3395
g94
g95
ssg83
g3389
sg76
(lp3396
S'gender'
p3397
asbag69
(g90
g71
NtRp3398
(dp3399
g74
(dp3400
g101
g102
ssg83
g3389
sg76
(lp3401
S':'
asbag69
(g90
g71
NtRp3402
(dp3403
g74
(dp3404
sg83
g3389
sg76
(lp3405
g69
(g70
g71
NtRp3406
(dp3407
g74
(dp3408
g82
I3
ssg83
g3402
sg76
(lp3409
S'masculino'
p3410
asbasbasbag69
(g85
g71
NtRp3411
(dp3412
g74
(dp3413
sg83
g3319
sg76
(lp3414
g69
(g90
g71
NtRp3415
(dp3416
g74
(dp3417
g94
g95
ssg83
g3411
sg76
(lp3418
S'id'
p3419
asbag69
(g90
g71
NtRp3420
(dp3421
g74
(dp3422
g101
g102
ssg83
g3411
sg76
(lp3423
S':'
asbag69
(g90
g71
NtRp3424
(dp3425
g74
(dp3426
sg83
g3411
sg76
(lp3427
g69
(g70
g71
NtRp3428
(dp3429
g74
(dp3430
g82
I3
ssg83
g3424
sg76
(lp3431
S'5'
asbasbasbag69
(g85
g71
NtRp3432
(dp3433
g74
(dp3434
sg83
g3319
sg76
(lp3435
g69
(g90
g71
NtRp3436
(dp3437
g74
(dp3438
g94
g95
ssg83
g3432
sg76
(lp3439
S'last_name'
p3440
asbag69
(g90
g71
NtRp3441
(dp3442
g74
(dp3443
g101
g102
ssg83
g3432
sg76
(lp3444
S':'
asbag69
(g90
g71
NtRp3445
(dp3446
g74
(dp3447
sg83
g3432
sg76
(lp3448
g69
(g70
g71
NtRp3449
(dp3450
g74
(dp3451
g82
I3
ssg83
g3445
sg76
(lp3452
S'delkson'
p3453
asbasbasbag69
(g85
g71
NtRp3454
(dp3455
g74
(dp3456
sg83
g3319
sg76
(lp3457
g69
(g90
g71
NtRp3458
(dp3459
g74
(dp3460
g94
g95
ssg83
g3454
sg76
(lp3461
S'photo'
p3462
asbag69
(g90
g71
NtRp3463
(dp3464
g74
(dp3465
g101
g102
ssg83
g3454
sg76
(lp3466
S':'
asbag69
(g90
g71
NtRp3467
(dp3468
g74
(dp3469
sg83
g3454
sg76
(lp3470
g69
(g70
g71
NtRp3471
(dp3472
g74
(dp3473
g82
I3
ssg83
g3467
sg76
(lp3474
S'auth_user.photo.852c1e9d624a7670.746563686e6f6c6f676965735f7068702e706e67.png'
p3475
asbasbasbag69
(g85
g71
NtRp3476
(dp3477
g74
(dp3478
sg83
g3319
sg76
(lp3479
g69
(g90
g71
NtRp3480
(dp3481
g74
(dp3482
g94
g95
ssg83
g3476
sg76
(lp3483
S'registration_id'
p3484
asbag69
(g90
g71
NtRp3485
(dp3486
g74
(dp3487
g101
g102
ssg83
g3476
sg76
(lp3488
S':'
asbag69
(g90
g71
NtRp3489
(dp3490
g74
(dp3491
sg83
g3476
sg76
(lp3492
g69
(g70
g71
NtRp3493
(dp3494
g74
(dp3495
g82
I3
ssg83
g3489
sg76
(lp3496
S''
asbasbasbag69
(g85
g71
NtRp3497
(dp3498
g74
(dp3499
sg83
g3319
sg76
(lp3500
g69
(g90
g71
NtRp3501
(dp3502
g74
(dp3503
g94
g95
ssg83
g3497
sg76
(lp3504
S'registration_key'
p3505
asbag69
(g90
g71
NtRp3506
(dp3507
g74
(dp3508
g101
g102
ssg83
g3497
sg76
(lp3509
S':'
asbag69
(g90
g71
NtRp3510
(dp3511
g74
(dp3512
sg83
g3497
sg76
(lp3513
g69
(g70
g71
NtRp3514
(dp3515
g74
(dp3516
g82
I3
ssg83
g3510
sg76
(lp3517
S''
asbasbasbag69
(g85
g71
NtRp3518
(dp3519
g74
(dp3520
sg83
g3319
sg76
(lp3521
g69
(g90
g71
NtRp3522
(dp3523
g74
(dp3524
g94
g95
ssg83
g3518
sg76
(lp3525
S'reset_password_key'
p3526
asbag69
(g90
g71
NtRp3527
(dp3528
g74
(dp3529
g101
g102
ssg83
g3518
sg76
(lp3530
S':'
asbag69
(g90
g71
NtRp3531
(dp3532
g74
(dp3533
sg83
g3518
sg76
(lp3534
g69
(g70
g71
NtRp3535
(dp3536
g74
(dp3537
g82
I3
ssg83
g3531
sg76
(lp3538
S''
asbasbasbasbasbasbasbag69
(g85
g71
NtRp3539
(dp3540
g74
(dp3541
sg83
g3207
sg76
(lp3542
g69
(g90
g71
NtRp3543
(dp3544
g74
(dp3545
g94
g95
ssg83
g3539
sg76
(lp3546
S'user_groups'
p3547
asbag69
(g90
g71
NtRp3548
(dp3549
g74
(dp3550
g101
g102
ssg83
g3539
sg76
(lp3551
S':'
asbag69
(g90
g71
NtRp3552
(dp3553
g74
(dp3554
sg83
g3539
sg76
(lp3555
g69
(g70
g71
NtRp3556
(dp3557
g74
(dp3558
g82
I4
ssg83
g3552
sg76
(lp3559
g69
(g78
g71
NtRp3560
(dp3561
g74
(dp3562
g82
I3
ssg83
Nsg76
(lp3563
g69
(g85
g71
NtRp3564
(dp3565
g74
(dp3566
sg83
g3560
sg76
(lp3567
g69
(g90
g71
NtRp3568
(dp3569
g74
(dp3570
g94
g95
ssg83
g3564
sg76
(lp3571
S'5'
asbag69
(g90
g71
NtRp3572
(dp3573
g74
(dp3574
g101
g102
ssg83
g3564
sg76
(lp3575
S':'
asbag69
(g90
g71
NtRp3576
(dp3577
g74
(dp3578
sg83
g3564
sg76
(lp3579
g69
(g70
g71
NtRp3580
(dp3581
g74
(dp3582
g82
I3
ssg83
g3576
sg76
(lp3583
S'user_5'
p3584
asbasbasbasbasbasbasbasbasbasbasbag69
(g85
g71
NtRp3585
(dp3586
g74
(dp3587
sg83
g3182
sg76
(lp3588
g69
(g90
g71
NtRp3589
(dp3590
g74
(dp3591
g94
g95
ssg83
g3585
sg76
(lp3592
S'flash'
p3593
asbag69
(g90
g71
NtRp3594
(dp3595
g74
(dp3596
g101
g102
ssg83
g3585
sg76
(lp3597
S':'
asbag69
(g90
g71
NtRp3598
(dp3599
g74
(dp3600
sg83
g3585
sg76
(lp3601
g69
(g70
g71
NtRp3602
(dp3603
g74
(dp3604
g82
I5
ssg83
g3598
sg76
(lp3605
S'None'
p3606
asbasbasbasbasbsS'etype'
p3607
S"<type 'exceptions.SyntaxError'>"
p3608
sS'date'
p3609
S'Tue Feb  5 21:49:16 2013'
p3610
sS'response'
p3611
g69
(g70
g71
NtRp3612
(dp3613
g74
(dp3614
sg76
(lp3615
g69
(g78
g71
NtRp3616
(dp3617
g74
(dp3618
g82
I5
ssg83
Nsg76
(lp3619
g69
(g85
g71
NtRp3620
(dp3621
g74
(dp3622
sg83
g3616
sg76
(lp3623
g69
(g90
g71
NtRp3624
(dp3625
g74
(dp3626
g94
g95
ssg83
g3620
sg76
(lp3627
g167
asbag69
(g90
g71
NtRp3628
(dp3629
g74
(dp3630
g101
g102
ssg83
g3620
sg76
(lp3631
S':'
asbag69
(g90
g71
NtRp3632
(dp3633
g74
(dp3634
sg83
g3620
sg76
(lp3635
g69
(g70
g71
NtRp3636
(dp3637
g74
(dp3638
g82
I5
ssg83
g3632
sg76
(lp3639
S'<cStringIO.StringO object at 0x7f6b90109458>'
p3640
asbasbasbag69
(g85
g71
NtRp3641
(dp3642
g74
(dp3643
sg83
g3616
sg76
(lp3644
g69
(g90
g71
NtRp3645
(dp3646
g74
(dp3647
g94
g95
ssg83
g3641
sg76
(lp3648
g255
asbag69
(g90
g71
NtRp3649
(dp3650
g74
(dp3651
g101
g102
ssg83
g3641
sg76
(lp3652
S':'
asbag69
(g90
g71
NtRp3653
(dp3654
g74
(dp3655
sg83
g3641
sg76
(lp3656
g69
(g70
g71
NtRp3657
(dp3658
g74
(dp3659
g82
I5
ssg83
g3653
sg76
(lp3660
g69
(g78
g71
NtRp3661
(dp3662
g74
(dp3663
g82
I4
ssg83
Nsg76
(lp3664
g69
(g85
g71
NtRp3665
(dp3666
g74
(dp3667
sg83
g3661
sg76
(lp3668
g69
(g90
g71
NtRp3669
(dp3670
g74
(dp3671
g94
g95
ssg83
g3665
sg76
(lp3672
S'session_id_projeto'
p3673
asbag69
(g90
g71
NtRp3674
(dp3675
g74
(dp3676
g101
g102
ssg83
g3665
sg76
(lp3677
S':'
asbag69
(g90
g71
NtRp3678
(dp3679
g74
(dp3680
sg83
g3665
sg76
(lp3681
g69
(g70
g71
NtRp3682
(dp3683
g74
(dp3684
g82
I4
ssg83
g3678
sg76
(lp3685
g487
ag69
(g78
g71
NtRp3686
(dp3687
g74
(dp3688
g82
I3
ssg83
Nsg76
(lp3689
g69
(g85
g71
NtRp3690
(dp3691
g74
(dp3692
sg83
g3686
sg76
(lp3693
g69
(g90
g71
NtRp3694
(dp3695
g74
(dp3696
g94
g95
ssg83
g3690
sg76
(lp3697
g306
asbag69
(g90
g71
NtRp3698
(dp3699
g74
(dp3700
g101
g102
ssg83
g3690
sg76
(lp3701
S':'
asbag69
(g90
g71
NtRp3702
(dp3703
g74
(dp3704
sg83
g3690
sg76
(lp3705
g69
(g70
g71
NtRp3706
(dp3707
g74
(dp3708
g82
I3
ssg83
g3702
sg76
(lp3709
S''
asbasbasbag69
(g85
g71
NtRp3710
(dp3711
g74
(dp3712
sg83
g3686
sg76
(lp3713
g69
(g90
g71
NtRp3714
(dp3715
g74
(dp3716
g94
g95
ssg83
g3710
sg76
(lp3717
g327
asbag69
(g90
g71
NtRp3718
(dp3719
g74
(dp3720
g101
g102
ssg83
g3710
sg76
(lp3721
S':'
asbag69
(g90
g71
NtRp3722
(dp3723
g74
(dp3724
sg83
g3710
sg76
(lp3725
g69
(g70
g71
NtRp3726
(dp3727
g74
(dp3728
g82
I3
ssg83
g3722
sg76
(lp3729
S''
asbasbasbag69
(g85
g71
NtRp3730
(dp3731
g74
(dp3732
sg83
g3686
sg76
(lp3733
g69
(g90
g71
NtRp3734
(dp3735
g74
(dp3736
g94
g95
ssg83
g3730
sg76
(lp3737
g348
asbag69
(g90
g71
NtRp3738
(dp3739
g74
(dp3740
g101
g102
ssg83
g3730
sg76
(lp3741
S':'
asbag69
(g90
g71
NtRp3742
(dp3743
g74
(dp3744
sg83
g3730
sg76
(lp3745
g69
(g70
g71
NtRp3746
(dp3747
g74
(dp3748
g82
I3
ssg83
g3742
sg76
(lp3749
S''
asbasbasbag69
(g85
g71
NtRp3750
(dp3751
g74
(dp3752
sg83
g3686
sg76
(lp3753
g69
(g90
g71
NtRp3754
(dp3755
g74
(dp3756
g94
g95
ssg83
g3750
sg76
(lp3757
g369
asbag69
(g90
g71
NtRp3758
(dp3759
g74
(dp3760
g101
g102
ssg83
g3750
sg76
(lp3761
S':'
asbag69
(g90
g71
NtRp3762
(dp3763
g74
(dp3764
sg83
g3750
sg76
(lp3765
g69
(g70
g71
NtRp3766
(dp3767
g74
(dp3768
g82
I3
ssg83
g3762
sg76
(lp3769
S''
asbasbasbag69
(g85
g71
NtRp3770
(dp3771
g74
(dp3772
sg83
g3686
sg76
(lp3773
g69
(g90
g71
NtRp3774
(dp3775
g74
(dp3776
g94
g95
ssg83
g3770
sg76
(lp3777
g390
asbag69
(g90
g71
NtRp3778
(dp3779
g74
(dp3780
g101
g102
ssg83
g3770
sg76
(lp3781
S':'
asbag69
(g90
g71
NtRp3782
(dp3783
g74
(dp3784
sg83
g3770
sg76
(lp3785
g69
(g70
g71
NtRp3786
(dp3787
g74
(dp3788
g82
I3
ssg83
g3782
sg76
(lp3789
S''
asbasbasbag69
(g85
g71
NtRp3790
(dp3791
g74
(dp3792
sg83
g3686
sg76
(lp3793
g69
(g90
g71
NtRp3794
(dp3795
g74
(dp3796
g94
g95
ssg83
g3790
sg76
(lp3797
g411
asbag69
(g90
g71
NtRp3798
(dp3799
g74
(dp3800
g101
g102
ssg83
g3790
sg76
(lp3801
S':'
asbag69
(g90
g71
NtRp3802
(dp3803
g74
(dp3804
sg83
g3790
sg76
(lp3805
g69
(g70
g71
NtRp3806
(dp3807
g74
(dp3808
g82
I3
ssg83
g3802
sg76
(lp3809
S'/'
asbasbasbag69
(g85
g71
NtRp3810
(dp3811
g74
(dp3812
sg83
g3686
sg76
(lp3813
g69
(g90
g71
NtRp3814
(dp3815
g74
(dp3816
g94
g95
ssg83
g3810
sg76
(lp3817
g432
asbag69
(g90
g71
NtRp3818
(dp3819
g74
(dp3820
g101
g102
ssg83
g3810
sg76
(lp3821
S':'
asbag69
(g90
g71
NtRp3822
(dp3823
g74
(dp3824
sg83
g3810
sg76
(lp3825
g69
(g70
g71
NtRp3826
(dp3827
g74
(dp3828
g82
I3
ssg83
g3822
sg76
(lp3829
S''
asbasbasbag69
(g85
g71
NtRp3830
(dp3831
g74
(dp3832
sg83
g3686
sg76
(lp3833
g69
(g90
g71
NtRp3834
(dp3835
g74
(dp3836
g94
g95
ssg83
g3830
sg76
(lp3837
g453
asbag69
(g90
g71
NtRp3838
(dp3839
g74
(dp3840
g101
g102
ssg83
g3830
sg76
(lp3841
S':'
asbag69
(g90
g71
NtRp3842
(dp3843
g74
(dp3844
sg83
g3830
sg76
(lp3845
g69
(g70
g71
NtRp3846
(dp3847
g74
(dp3848
g82
I3
ssg83
g3842
sg76
(lp3849
S''
asbasbasbasbasbasbasbasbasbasbasbag69
(g85
g71
NtRp3850
(dp3851
g74
(dp3852
sg83
g3616
sg76
(lp3853
g69
(g90
g71
NtRp3854
(dp3855
g74
(dp3856
g94
g95
ssg83
g3850
sg76
(lp3857
S'delimiters'
p3858
asbag69
(g90
g71
NtRp3859
(dp3860
g74
(dp3861
g101
g102
ssg83
g3850
sg76
(lp3862
S':'
asbag69
(g90
g71
NtRp3863
(dp3864
g74
(dp3865
sg83
g3850
sg76
(lp3866
g69
(g70
g71
NtRp3867
(dp3868
g74
(dp3869
g82
I5
ssg83
g3863
sg76
(lp3870
g69
(g78
g71
NtRp3871
(dp3872
g74
(dp3873
g82
I4
ssg83
Nsg76
(lp3874
g69
(g85
g71
NtRp3875
(dp3876
g74
(dp3877
sg83
g3871
sg76
(lp3878
g69
(g90
g71
NtRp3879
(dp3880
g74
(dp3881
sg83
g3875
sg76
(lp3882
g69
(g70
g71
NtRp3883
(dp3884
g74
(dp3885
g82
I4
ssg83
g3879
sg76
(lp3886
S'{{'
p3887
asbasbasbag69
(g85
g71
NtRp3888
(dp3889
g74
(dp3890
sg83
g3871
sg76
(lp3891
g69
(g90
g71
NtRp3892
(dp3893
g74
(dp3894
sg83
g3888
sg76
(lp3895
g69
(g70
g71
NtRp3896
(dp3897
g74
(dp3898
g82
I4
ssg83
g3892
sg76
(lp3899
S'}}'
p3900
asbasbasbasbasbasbasbag69
(g85
g71
NtRp3901
(dp3902
g74
(dp3903
sg83
g3616
sg76
(lp3904
g69
(g90
g71
NtRp3905
(dp3906
g74
(dp3907
g94
g95
ssg83
g3901
sg76
(lp3908
S'files'
p3909
asbag69
(g90
g71
NtRp3910
(dp3911
g74
(dp3912
g101
g102
ssg83
g3901
sg76
(lp3913
S':'
asbag69
(g90
g71
NtRp3914
(dp3915
g74
(dp3916
sg83
g3901
sg76
(lp3917
g69
(g70
g71
NtRp3918
(dp3919
g74
(dp3920
g82
I5
ssg83
g3914
sg76
(lp3921
g69
(g78
g71
NtRp3922
(dp3923
g74
(dp3924
g82
I4
ssg83
Nsg76
(lp3925
sbasbasbasbag69
(g85
g71
NtRp3926
(dp3927
g74
(dp3928
sg83
g3616
sg76
(lp3929
g69
(g90
g71
NtRp3930
(dp3931
g74
(dp3932
g94
g95
ssg83
g3926
sg76
(lp3933
S'flash'
p3934
asbag69
(g90
g71
NtRp3935
(dp3936
g74
(dp3937
g101
g102
ssg83
g3926
sg76
(lp3938
S':'
asbag69
(g90
g71
NtRp3939
(dp3940
g74
(dp3941
sg83
g3926
sg76
(lp3942
g69
(g70
g71
NtRp3943
(dp3944
g74
(dp3945
g82
I5
ssg83
g3939
sg76
(lp3946
S''
asbasbasbag69
(g85
g71
NtRp3947
(dp3948
g74
(dp3949
sg83
g3616
sg76
(lp3950
g69
(g90
g71
NtRp3951
(dp3952
g74
(dp3953
g94
g95
ssg83
g3947
sg76
(lp3954
S'generic_patterns'
p3955
asbag69
(g90
g71
NtRp3956
(dp3957
g74
(dp3958
g101
g102
ssg83
g3947
sg76
(lp3959
S':'
asbag69
(g90
g71
NtRp3960
(dp3961
g74
(dp3962
sg83
g3947
sg76
(lp3963
g69
(g70
g71
NtRp3964
(dp3965
g74
(dp3966
g82
I5
ssg83
g3960
sg76
(lp3967
g69
(g78
g71
NtRp3968
(dp3969
g74
(dp3970
g82
I4
ssg83
Nsg76
(lp3971
g69
(g85
g71
NtRp3972
(dp3973
g74
(dp3974
sg83
g3968
sg76
(lp3975
g69
(g90
g71
NtRp3976
(dp3977
g74
(dp3978
sg83
g3972
sg76
(lp3979
g69
(g70
g71
NtRp3980
(dp3981
g74
(dp3982
g82
I4
ssg83
g3976
sg76
(lp3983
S'*'
asbasbasbasbasbasbasbag69
(g85
g71
NtRp3984
(dp3985
g74
(dp3986
sg83
g3616
sg76
(lp3987
g69
(g90
g71
NtRp3988
(dp3989
g74
(dp3990
g94
g95
ssg83
g3984
sg76
(lp3991
S'google_analytics_id'
p3992
asbag69
(g90
g71
NtRp3993
(dp3994
g74
(dp3995
g101
g102
ssg83
g3984
sg76
(lp3996
S':'
asbag69
(g90
g71
NtRp3997
(dp3998
g74
(dp3999
sg83
g3984
sg76
(lp4000
g69
(g70
g71
NtRp4001
(dp4002
g74
(dp4003
g82
I5
ssg83
g3997
sg76
(lp4004
S'None'
p4005
asbasbasbag69
(g85
g71
NtRp4006
(dp4007
g74
(dp4008
sg83
g3616
sg76
(lp4009
g69
(g90
g71
NtRp4010
(dp4011
g74
(dp4012
g94
g95
ssg83
g4006
sg76
(lp4013
S'headers'
p4014
asbag69
(g90
g71
NtRp4015
(dp4016
g74
(dp4017
g101
g102
ssg83
g4006
sg76
(lp4018
S':'
asbag69
(g90
g71
NtRp4019
(dp4020
g74
(dp4021
sg83
g4006
sg76
(lp4022
g69
(g70
g71
NtRp4023
(dp4024
g74
(dp4025
g82
I5
ssg83
g4019
sg76
(lp4026
g69
(g78
g71
NtRp4027
(dp4028
g74
(dp4029
g82
I4
ssg83
Nsg76
(lp4030
g69
(g85
g71
NtRp4031
(dp4032
g74
(dp4033
sg83
g4027
sg76
(lp4034
g69
(g90
g71
NtRp4035
(dp4036
g74
(dp4037
g94
g95
ssg83
g4031
sg76
(lp4038
S'X-Powered-By'
p4039
asbag69
(g90
g71
NtRp4040
(dp4041
g74
(dp4042
g101
g102
ssg83
g4031
sg76
(lp4043
S':'
asbag69
(g90
g71
NtRp4044
(dp4045
g74
(dp4046
sg83
g4031
sg76
(lp4047
g69
(g70
g71
NtRp4048
(dp4049
g74
(dp4050
g82
I4
ssg83
g4044
sg76
(lp4051
S'web2py'
p4052
asbasbasbasbasbasbasbag69
(g85
g71
NtRp4053
(dp4054
g74
(dp4055
sg83
g3616
sg76
(lp4056
g69
(g90
g71
NtRp4057
(dp4058
g74
(dp4059
g94
g95
ssg83
g4053
sg76
(lp4060
S'logo'
p4061
asbag69
(g90
g71
NtRp4062
(dp4063
g74
(dp4064
g101
g102
ssg83
g4053
sg76
(lp4065
S':'
asbag69
(g90
g71
NtRp4066
(dp4067
g74
(dp4068
sg83
g4053
sg76
(lp4069
g69
(g70
g71
NtRp4070
(dp4071
g74
(dp4072
g82
I5
ssg83
g4066
sg76
(lp4073
g69
(cgluon.html
A
p4074
g71
NtRp4075
(dp4076
g74
(dp4077
S'_class'
p4078
S'brand'
p4079
sS'_href'
p4080
S''
ssg83
Nsg76
(lp4081
g69
(cgluon.html
B
p4082
g71
NtRp4083
(dp4084
g74
(dp4085
sg83
g4075
sg76
(lp4086
S'hosts'
p4087
ag69
(cgluon.html
SPAN
p4088
g71
NtRp4089
(dp4090
g74
(dp4091
sg83
g4083
sg76
(lp4092
S'3'
asbaS''
asbacgluon.html
XML_unpickle
p4093
(S's\r\x00\x00\x00&trade;&nbsp;'
tRp4094
asbasbasbasbag69
(g85
g71
NtRp4095
(dp4096
g74
(dp4097
sg83
g3616
sg76
(lp4098
g69
(g90
g71
NtRp4099
(dp4100
g74
(dp4101
g94
g95
ssg83
g4095
sg76
(lp4102
S'menu'
p4103
asbag69
(g90
g71
NtRp4104
(dp4105
g74
(dp4106
g101
g102
ssg83
g4095
sg76
(lp4107
S':'
asbag69
(g90
g71
NtRp4108
(dp4109
g74
(dp4110
sg83
g4095
sg76
(lp4111
g69
(g70
g71
NtRp4112
(dp4113
g74
(dp4114
g82
I5
ssg83
g4108
sg76
(lp4115
g69
(g78
g71
NtRp4116
(dp4117
g74
(dp4118
g82
I4
ssg83
Nsg76
(lp4119
g69
(g85
g71
NtRp4120
(dp4121
g74
(dp4122
sg83
g4116
sg76
(lp4123
g69
(g90
g71
NtRp4124
(dp4125
g74
(dp4126
sg83
g4120
sg76
(lp4127
g69
(g70
g71
NtRp4128
(dp4129
g74
(dp4130
g82
I4
ssg83
g4124
sg76
(lp4131
g69
(g78
g71
NtRp4132
(dp4133
g74
(dp4134
g82
I3
ssg83
Nsg76
(lp4135
g69
(g85
g71
NtRp4136
(dp4137
g74
(dp4138
sg83
g4132
sg76
(lp4139
g69
(g90
g71
NtRp4140
(dp4141
g74
(dp4142
sg83
g4136
sg76
(lp4143
g69
(g70
g71
NtRp4144
(dp4145
g74
(dp4146
g82
I3
ssg83
g4140
sg76
(lp4147
cgluon.languages
lazyT_unpickle
p4148
(S't\x08\x00\x00\x00Clientes'
tRp4149
asbasbasbag69
(g85
g71
NtRp4150
(dp4151
g74
(dp4152
sg83
g4132
sg76
(lp4153
g69
(g90
g71
NtRp4154
(dp4155
g74
(dp4156
sg83
g4150
sg76
(lp4157
g69
(g70
g71
NtRp4158
(dp4159
g74
(dp4160
g82
I3
ssg83
g4154
sg76
(lp4161
g112
asbasbasbag69
(g85
g71
NtRp4162
(dp4163
g74
(dp4164
sg83
g4132
sg76
(lp4165
g69
(g90
g71
NtRp4166
(dp4167
g74
(dp4168
sg83
g4162
sg76
(lp4169
g69
(g70
g71
NtRp4170
(dp4171
g74
(dp4172
g82
I3
ssg83
g4166
sg76
(lp4173
S'/show_cliente'
p4174
asbasbasbag69
(g85
g71
NtRp4175
(dp4176
g74
(dp4177
sg83
g4132
sg76
(lp4178
g69
(g90
g71
NtRp4179
(dp4180
g74
(dp4181
sg83
g4175
sg76
(lp4182
g69
(g70
g71
NtRp4183
(dp4184
g74
(dp4185
g82
I3
ssg83
g4179
sg76
(lp4186
g69
(g78
g71
NtRp4187
(dp4188
g74
(dp4189
g82
I2
ssg83
Nsg76
(lp4190
sbasbasbasbasbasbasbasbag69
(g85
g71
NtRp4191
(dp4192
g74
(dp4193
sg83
g4116
sg76
(lp4194
g69
(g90
g71
NtRp4195
(dp4196
g74
(dp4197
sg83
g4191
sg76
(lp4198
g69
(g70
g71
NtRp4199
(dp4200
g74
(dp4201
g82
I4
ssg83
g4195
sg76
(lp4202
g69
(g78
g71
NtRp4203
(dp4204
g74
(dp4205
g82
I3
ssg83
Nsg76
(lp4206
g69
(g85
g71
NtRp4207
(dp4208
g74
(dp4209
sg83
g4203
sg76
(lp4210
g69
(g90
g71
NtRp4211
(dp4212
g74
(dp4213
sg83
g4207
sg76
(lp4214
g69
(g70
g71
NtRp4215
(dp4216
g74
(dp4217
g82
I3
ssg83
g4211
sg76
(lp4218
g4148
(S't\n\x00\x00\x00Servidores'
tRp4219
asbasbasbag69
(g85
g71
NtRp4220
(dp4221
g74
(dp4222
sg83
g4203
sg76
(lp4223
g69
(g90
g71
NtRp4224
(dp4225
g74
(dp4226
sg83
g4220
sg76
(lp4227
g69
(g70
g71
NtRp4228
(dp4229
g74
(dp4230
g82
I3
ssg83
g4224
sg76
(lp4231
g112
asbasbasbag69
(g85
g71
NtRp4232
(dp4233
g74
(dp4234
sg83
g4203
sg76
(lp4235
g69
(g90
g71
NtRp4236
(dp4237
g74
(dp4238
sg83
g4232
sg76
(lp4239
g69
(g70
g71
NtRp4240
(dp4241
g74
(dp4242
g82
I3
ssg83
g4236
sg76
(lp4243
S'/show_servidor'
p4244
asbasbasbag69
(g85
g71
NtRp4245
(dp4246
g74
(dp4247
sg83
g4203
sg76
(lp4248
g69
(g90
g71
NtRp4249
(dp4250
g74
(dp4251
sg83
g4245
sg76
(lp4252
g69
(g70
g71
NtRp4253
(dp4254
g74
(dp4255
g82
I3
ssg83
g4249
sg76
(lp4256
g69
(g78
g71
NtRp4257
(dp4258
g74
(dp4259
g82
I2
ssg83
Nsg76
(lp4260
sbasbasbasbasbasbasbasbag69
(g85
g71
NtRp4261
(dp4262
g74
(dp4263
sg83
g4116
sg76
(lp4264
g69
(g90
g71
NtRp4265
(dp4266
g74
(dp4267
sg83
g4261
sg76
(lp4268
g69
(g70
g71
NtRp4269
(dp4270
g74
(dp4271
g82
I4
ssg83
g4265
sg76
(lp4272
g69
(g78
g71
NtRp4273
(dp4274
g74
(dp4275
g82
I3
ssg83
Nsg76
(lp4276
g69
(g85
g71
NtRp4277
(dp4278
g74
(dp4279
sg83
g4273
sg76
(lp4280
g69
(g90
g71
NtRp4281
(dp4282
g74
(dp4283
sg83
g4277
sg76
(lp4284
g69
(g70
g71
NtRp4285
(dp4286
g74
(dp4287
g82
I3
ssg83
g4281
sg76
(lp4288
g4148
(S't\x07\x00\x00\x00Distros'
tRp4289
asbasbasbag69
(g85
g71
NtRp4290
(dp4291
g74
(dp4292
sg83
g4273
sg76
(lp4293
g69
(g90
g71
NtRp4294
(dp4295
g74
(dp4296
sg83
g4290
sg76
(lp4297
g69
(g70
g71
NtRp4298
(dp4299
g74
(dp4300
g82
I3
ssg83
g4294
sg76
(lp4301
g112
asbasbasbag69
(g85
g71
NtRp4302
(dp4303
g74
(dp4304
sg83
g4273
sg76
(lp4305
g69
(g90
g71
NtRp4306
(dp4307
g74
(dp4308
sg83
g4302
sg76
(lp4309
g69
(g70
g71
NtRp4310
(dp4311
g74
(dp4312
g82
I3
ssg83
g4306
sg76
(lp4313
S'/show_distro'
p4314
asbasbasbag69
(g85
g71
NtRp4315
(dp4316
g74
(dp4317
sg83
g4273
sg76
(lp4318
g69
(g90
g71
NtRp4319
(dp4320
g74
(dp4321
sg83
g4315
sg76
(lp4322
g69
(g70
g71
NtRp4323
(dp4324
g74
(dp4325
g82
I3
ssg83
g4319
sg76
(lp4326
g69
(g78
g71
NtRp4327
(dp4328
g74
(dp4329
g82
I2
ssg83
Nsg76
(lp4330
sbasbasbasbasbasbasbasbasbasbasbasbag69
(g85
g71
NtRp4331
(dp4332
g74
(dp4333
sg83
g3616
sg76
(lp4334
g69
(g90
g71
NtRp4335
(dp4336
g74
(dp4337
g94
g95
ssg83
g4331
sg76
(lp4338
S'meta'
p4339
asbag69
(g90
g71
NtRp4340
(dp4341
g74
(dp4342
g101
g102
ssg83
g4331
sg76
(lp4343
S':'
asbag69
(g90
g71
NtRp4344
(dp4345
g74
(dp4346
sg83
g4331
sg76
(lp4347
g69
(g70
g71
NtRp4348
(dp4349
g74
(dp4350
g82
I5
ssg83
g4344
sg76
(lp4351
g69
(g78
g71
NtRp4352
(dp4353
g74
(dp4354
g82
I4
ssg83
Nsg76
(lp4355
g69
(g85
g71
NtRp4356
(dp4357
g74
(dp4358
sg83
g4352
sg76
(lp4359
g69
(g90
g71
NtRp4360
(dp4361
g74
(dp4362
g94
g95
ssg83
g4356
sg76
(lp4363
S'author'
p4364
asbag69
(g90
g71
NtRp4365
(dp4366
g74
(dp4367
g101
g102
ssg83
g4356
sg76
(lp4368
S':'
asbag69
(g90
g71
NtRp4369
(dp4370
g74
(dp4371
sg83
g4356
sg76
(lp4372
g69
(g70
g71
NtRp4373
(dp4374
g74
(dp4375
g82
I4
ssg83
g4369
sg76
(lp4376
S'Your Name <you@example.com>'
p4377
asbasbasbag69
(g85
g71
NtRp4378
(dp4379
g74
(dp4380
sg83
g4352
sg76
(lp4381
g69
(g90
g71
NtRp4382
(dp4383
g74
(dp4384
g94
g95
ssg83
g4378
sg76
(lp4385
S'description'
p4386
asbag69
(g90
g71
NtRp4387
(dp4388
g74
(dp4389
g101
g102
ssg83
g4378
sg76
(lp4390
S':'
asbag69
(g90
g71
NtRp4391
(dp4392
g74
(dp4393
sg83
g4378
sg76
(lp4394
g69
(g70
g71
NtRp4395
(dp4396
g74
(dp4397
g82
I4
ssg83
g4391
sg76
(lp4398
S'a cool new app'
p4399
asbasbasbag69
(g85
g71
NtRp4400
(dp4401
g74
(dp4402
sg83
g4352
sg76
(lp4403
g69
(g90
g71
NtRp4404
(dp4405
g74
(dp4406
g94
g95
ssg83
g4400
sg76
(lp4407
S'generator'
p4408
asbag69
(g90
g71
NtRp4409
(dp4410
g74
(dp4411
g101
g102
ssg83
g4400
sg76
(lp4412
S':'
asbag69
(g90
g71
NtRp4413
(dp4414
g74
(dp4415
sg83
g4400
sg76
(lp4416
g69
(g70
g71
NtRp4417
(dp4418
g74
(dp4419
g82
I4
ssg83
g4413
sg76
(lp4420
S'Web2py Web Framework'
p4421
asbasbasbag69
(g85
g71
NtRp4422
(dp4423
g74
(dp4424
sg83
g4352
sg76
(lp4425
g69
(g90
g71
NtRp4426
(dp4427
g74
(dp4428
g94
g95
ssg83
g4422
sg76
(lp4429
S'keywords'
p4430
asbag69
(g90
g71
NtRp4431
(dp4432
g74
(dp4433
g101
g102
ssg83
g4422
sg76
(lp4434
S':'
asbag69
(g90
g71
NtRp4435
(dp4436
g74
(dp4437
sg83
g4422
sg76
(lp4438
g69
(g70
g71
NtRp4439
(dp4440
g74
(dp4441
g82
I4
ssg83
g4435
sg76
(lp4442
S'web2py, python, framework'
p4443
asbasbasbasbasbasbasbag69
(g85
g71
NtRp4444
(dp4445
g74
(dp4446
sg83
g3616
sg76
(lp4447
g69
(g90
g71
NtRp4448
(dp4449
g74
(dp4450
g94
g95
ssg83
g4444
sg76
(lp4451
S'models_to_run'
p4452
asbag69
(g90
g71
NtRp4453
(dp4454
g74
(dp4455
g101
g102
ssg83
g4444
sg76
(lp4456
S':'
asbag69
(g90
g71
NtRp4457
(dp4458
g74
(dp4459
sg83
g4444
sg76
(lp4460
g69
(g70
g71
NtRp4461
(dp4462
g74
(dp4463
g82
I5
ssg83
g4457
sg76
(lp4464
g69
(g78
g71
NtRp4465
(dp4466
g74
(dp4467
g82
I4
ssg83
Nsg76
(lp4468
g69
(g85
g71
NtRp4469
(dp4470
g74
(dp4471
sg83
g4465
sg76
(lp4472
g69
(g90
g71
NtRp4473
(dp4474
g74
(dp4475
sg83
g4469
sg76
(lp4476
g69
(g70
g71
NtRp4477
(dp4478
g74
(dp4479
g82
I4
ssg83
g4473
sg76
(lp4480
S'^\\w+\\.py$'
p4481
asbasbasbag69
(g85
g71
NtRp4482
(dp4483
g74
(dp4484
sg83
g4465
sg76
(lp4485
g69
(g90
g71
NtRp4486
(dp4487
g74
(dp4488
sg83
g4482
sg76
(lp4489
g69
(g70
g71
NtRp4490
(dp4491
g74
(dp4492
g82
I4
ssg83
g4486
sg76
(lp4493
S'^initial/\\w+\\.py$'
p4494
asbasbasbag69
(g85
g71
NtRp4495
(dp4496
g74
(dp4497
sg83
g4465
sg76
(lp4498
g69
(g90
g71
NtRp4499
(dp4500
g74
(dp4501
sg83
g4495
sg76
(lp4502
g69
(g70
g71
NtRp4503
(dp4504
g74
(dp4505
g82
I4
ssg83
g4499
sg76
(lp4506
S'^initial/show_distro/\\w+\\.py$'
p4507
asbasbasbasbasbasbasbag69
(g85
g71
NtRp4508
(dp4509
g74
(dp4510
sg83
g3616
sg76
(lp4511
g69
(g90
g71
NtRp4512
(dp4513
g74
(dp4514
g94
g95
ssg83
g4508
sg76
(lp4515
S'postprocessing'
p4516
asbag69
(g90
g71
NtRp4517
(dp4518
g74
(dp4519
g101
g102
ssg83
g4508
sg76
(lp4520
S':'
asbag69
(g90
g71
NtRp4521
(dp4522
g74
(dp4523
sg83
g4508
sg76
(lp4524
g69
(g70
g71
NtRp4525
(dp4526
g74
(dp4527
g82
I5
ssg83
g4521
sg76
(lp4528
g69
(g78
g71
NtRp4529
(dp4530
g74
(dp4531
g82
I4
ssg83
Nsg76
(lp4532
sbasbasbasbag69
(g85
g71
NtRp4533
(dp4534
g74
(dp4535
sg83
g3616
sg76
(lp4536
g69
(g90
g71
NtRp4537
(dp4538
g74
(dp4539
g94
g95
ssg83
g4533
sg76
(lp4540
S'session_cookie_expires'
p4541
asbag69
(g90
g71
NtRp4542
(dp4543
g74
(dp4544
g101
g102
ssg83
g4533
sg76
(lp4545
S':'
asbag69
(g90
g71
NtRp4546
(dp4547
g74
(dp4548
sg83
g4533
sg76
(lp4549
g69
(g70
g71
NtRp4550
(dp4551
g74
(dp4552
g82
I5
ssg83
g4546
sg76
(lp4553
S'None'
p4554
asbasbasbag69
(g85
g71
NtRp4555
(dp4556
g74
(dp4557
sg83
g3616
sg76
(lp4558
g69
(g90
g71
NtRp4559
(dp4560
g74
(dp4561
g94
g95
ssg83
g4555
sg76
(lp4562
S'session_data_name'
p4563
asbag69
(g90
g71
NtRp4564
(dp4565
g74
(dp4566
g101
g102
ssg83
g4555
sg76
(lp4567
S':'
asbag69
(g90
g71
NtRp4568
(dp4569
g74
(dp4570
sg83
g4555
sg76
(lp4571
g69
(g70
g71
NtRp4572
(dp4573
g74
(dp4574
g82
I5
ssg83
g4568
sg76
(lp4575
S'session_data_projeto'
p4576
asbasbasbag69
(g85
g71
NtRp4577
(dp4578
g74
(dp4579
sg83
g3616
sg76
(lp4580
g69
(g90
g71
NtRp4581
(dp4582
g74
(dp4583
g94
g95
ssg83
g4577
sg76
(lp4584
S'session_file'
p4585
asbag69
(g90
g71
NtRp4586
(dp4587
g74
(dp4588
g101
g102
ssg83
g4577
sg76
(lp4589
S':'
asbag69
(g90
g71
NtRp4590
(dp4591
g74
(dp4592
sg83
g4577
sg76
(lp4593
g69
(g70
g71
NtRp4594
(dp4595
g74
(dp4596
g82
I5
ssg83
g4590
sg76
(lp4597
S"<open file '/var/www/web2py_hosts/applications/projeto/sessions/127.0.0.1-a19e1b84-17da-4fb8-af88-72b2db39528f', mode 'rb+' at 0x7f6ba4236270>"
p4598
asbasbasbag69
(g85
g71
NtRp4599
(dp4600
g74
(dp4601
sg83
g3616
sg76
(lp4602
g69
(g90
g71
NtRp4603
(dp4604
g74
(dp4605
g94
g95
ssg83
g4599
sg76
(lp4606
S'session_filename'
p4607
asbag69
(g90
g71
NtRp4608
(dp4609
g74
(dp4610
g101
g102
ssg83
g4599
sg76
(lp4611
S':'
asbag69
(g90
g71
NtRp4612
(dp4613
g74
(dp4614
sg83
g4599
sg76
(lp4615
g69
(g70
g71
NtRp4616
(dp4617
g74
(dp4618
g82
I5
ssg83
g4612
sg76
(lp4619
S'/var/www/web2py_hosts/applications/projeto/sessions/127.0.0.1-a19e1b84-17da-4fb8-af88-72b2db39528f'
p4620
asbasbasbag69
(g85
g71
NtRp4621
(dp4622
g74
(dp4623
sg83
g3616
sg76
(lp4624
g69
(g90
g71
NtRp4625
(dp4626
g74
(dp4627
g94
g95
ssg83
g4621
sg76
(lp4628
S'session_id'
p4629
asbag69
(g90
g71
NtRp4630
(dp4631
g74
(dp4632
g101
g102
ssg83
g4621
sg76
(lp4633
S':'
asbag69
(g90
g71
NtRp4634
(dp4635
g74
(dp4636
sg83
g4621
sg76
(lp4637
g69
(g70
g71
NtRp4638
(dp4639
g74
(dp4640
g82
I5
ssg83
g4634
sg76
(lp4641
g487
asbasbasbag69
(g85
g71
NtRp4642
(dp4643
g74
(dp4644
sg83
g3616
sg76
(lp4645
g69
(g90
g71
NtRp4646
(dp4647
g74
(dp4648
g94
g95
ssg83
g4642
sg76
(lp4649
S'session_id_name'
p4650
asbag69
(g90
g71
NtRp4651
(dp4652
g74
(dp4653
g101
g102
ssg83
g4642
sg76
(lp4654
S':'
asbag69
(g90
g71
NtRp4655
(dp4656
g74
(dp4657
sg83
g4642
sg76
(lp4658
g69
(g70
g71
NtRp4659
(dp4660
g74
(dp4661
g82
I5
ssg83
g4655
sg76
(lp4662
g3673
asbasbasbag69
(g85
g71
NtRp4663
(dp4664
g74
(dp4665
sg83
g3616
sg76
(lp4666
g69
(g90
g71
NtRp4667
(dp4668
g74
(dp4669
g94
g95
ssg83
g4663
sg76
(lp4670
S'session_locked'
p4671
asbag69
(g90
g71
NtRp4672
(dp4673
g74
(dp4674
g101
g102
ssg83
g4663
sg76
(lp4675
S':'
asbag69
(g90
g71
NtRp4676
(dp4677
g74
(dp4678
sg83
g4663
sg76
(lp4679
g69
(g70
g71
NtRp4680
(dp4681
g74
(dp4682
g82
I5
ssg83
g4676
sg76
(lp4683
g1639
asbasbasbag69
(g85
g71
NtRp4684
(dp4685
g74
(dp4686
sg83
g3616
sg76
(lp4687
g69
(g90
g71
NtRp4688
(dp4689
g74
(dp4690
g94
g95
ssg83
g4684
sg76
(lp4691
S'session_new'
p4692
asbag69
(g90
g71
NtRp4693
(dp4694
g74
(dp4695
g101
g102
ssg83
g4684
sg76
(lp4696
S':'
asbag69
(g90
g71
NtRp4697
(dp4698
g74
(dp4699
sg83
g4684
sg76
(lp4700
g69
(g70
g71
NtRp4701
(dp4702
g74
(dp4703
g82
I5
ssg83
g4697
sg76
(lp4704
g112
asbasbasbag69
(g85
g71
NtRp4705
(dp4706
g74
(dp4707
sg83
g3616
sg76
(lp4708
g69
(g90
g71
NtRp4709
(dp4710
g74
(dp4711
g94
g95
ssg83
g4705
sg76
(lp4712
S'session_storage_type'
p4713
asbag69
(g90
g71
NtRp4714
(dp4715
g74
(dp4716
g101
g102
ssg83
g4705
sg76
(lp4717
S':'
asbag69
(g90
g71
NtRp4718
(dp4719
g74
(dp4720
sg83
g4705
sg76
(lp4721
g69
(g70
g71
NtRp4722
(dp4723
g74
(dp4724
g82
I5
ssg83
g4718
sg76
(lp4725
g3069
asbasbasbag69
(g85
g71
NtRp4726
(dp4727
g74
(dp4728
sg83
g3616
sg76
(lp4729
g69
(g90
g71
NtRp4730
(dp4731
g74
(dp4732
g94
g95
ssg83
g4726
sg76
(lp4733
S'status'
p4734
asbag69
(g90
g71
NtRp4735
(dp4736
g74
(dp4737
g101
g102
ssg83
g4726
sg76
(lp4738
S':'
asbag69
(g90
g71
NtRp4739
(dp4740
g74
(dp4741
sg83
g4726
sg76
(lp4742
g69
(g70
g71
NtRp4743
(dp4744
g74
(dp4745
g82
I5
ssg83
g4739
sg76
(lp4746
S'200'
p4747
asbasbasbag69
(g85
g71
NtRp4748
(dp4749
g74
(dp4750
sg83
g3616
sg76
(lp4751
g69
(g90
g71
NtRp4752
(dp4753
g74
(dp4754
g94
g95
ssg83
g4748
sg76
(lp4755
S'subtitle'
p4756
asbag69
(g90
g71
NtRp4757
(dp4758
g74
(dp4759
g101
g102
ssg83
g4748
sg76
(lp4760
S':'
asbag69
(g90
g71
NtRp4761
(dp4762
g74
(dp4763
sg83
g4748
sg76
(lp4764
g69
(g70
g71
NtRp4765
(dp4766
g74
(dp4767
g82
I5
ssg83
g4761
sg76
(lp4768
g4148
(S's\r\x00\x00\x00customize me!'
tRp4769
asbasbasbag69
(g85
g71
NtRp4770
(dp4771
g74
(dp4772
sg83
g3616
sg76
(lp4773
g69
(g90
g71
NtRp4774
(dp4775
g74
(dp4776
g94
g95
ssg83
g4770
sg76
(lp4777
S'title'
p4778
asbag69
(g90
g71
NtRp4779
(dp4780
g74
(dp4781
g101
g102
ssg83
g4770
sg76
(lp4782
S':'
asbag69
(g90
g71
NtRp4783
(dp4784
g74
(dp4785
sg83
g4770
sg76
(lp4786
g69
(g70
g71
NtRp4787
(dp4788
g74
(dp4789
g82
I5
ssg83
g4783
sg76
(lp4790
S'Projeto'
p4791
asbasbasbag69
(g85
g71
NtRp4792
(dp4793
g74
(dp4794
sg83
g3616
sg76
(lp4795
g69
(g90
g71
NtRp4796
(dp4797
g74
(dp4798
g94
g95
ssg83
g4792
sg76
(lp4799
S'view'
p4800
asbag69
(g90
g71
NtRp4801
(dp4802
g74
(dp4803
g101
g102
ssg83
g4792
sg76
(lp4804
S':'
asbag69
(g90
g71
NtRp4805
(dp4806
g74
(dp4807
sg83
g4792
sg76
(lp4808
g69
(g70
g71
NtRp4809
(dp4810
g74
(dp4811
g82
I5
ssg83
g4805
sg76
(lp4812
S'initial/show_distro.html'
p4813
asbasbasbasbasbsS'locals'
p4814
(dp4815
S'postcreation_fields'
p4816
S'[]'
p4817
sS'field_type'
p4818
S"'list'"
p4819
sS'sortable'
p4820
S'3'
sS'sql_fields_aux'
p4821
S"{'id': {'sql': 'INTEGER PRIMARY KEY AUTOINCREMENT'}, 'nome': {'sql': 'CHAR(512)'}}"
p4822
sS'TFK'
p4823
g21
sS'migrate'
p4824
g1639
sS'fields'
p4825
S"['id INTEGER PRIMARY KEY AUTOINCREMENT', 'nome CHAR(512)']"
p4826
sS'self'
p4827
S'<gluon.dal.SQLiteAdapter object>'
p4828
sS'tablename'
p4829
S"'distro'"
p4830
sS'fake_migrate'
p4831
g112
sS'db'
p4832
S'<DAL uri="sqlite://projeto.sqlite">'
p4833
sS'field'
p4834
S'<gluon.dal.Field object>'
p4835
sS'ftype'
p4836
S"'CHAR(512)'"
p4837
sS'polymodel'
p4838
S'None'
p4839
sS'table'
p4840
S'<Table distro (id,nome,img)>'
p4841
sS'sql_fields'
p4842
S"{'id': {'length': 512, 'notnull': False, 'sortable': 1, 'sql': 'INTEGER PRIMARY KEY AUTOINCREMENT', 'type': 'id', 'unique': False}, 'nome': {'length': 512, 'notnull': False, 'sortable': 2, 'sql': 'CHAR(512)', 'type': 'string', 'unique': False}}"
p4843
sS'field_name'
p4844
S"'img'"
p4845
sS'types'
p4846
S"{'big-id': 'BIGINT PRIMARY KEY AUTOINCREMENT', 'big-reference': 'BIGINT REFERENCES %(foreign_key)s ON DELETE %(on_delete_action)s', 'bigint': 'INTEGER', 'blob': 'BLOB', 'boolean': 'CHAR(1)', 'date': 'DATE', 'datetime': 'TIMESTAMP', 'decimal': 'DOUBLE', 'double': 'DOUBLE', 'float': 'DOUBLE', ...}"
p4847
sssS'traceback'
p4848
S'Traceback (most recent call last):\n  File "/var/www/web2py_hosts/gluon/restricted.py", line 212, in restricted\n    exec ccode in environment\n  File "/var/www/web2py_hosts/applications/projeto/models/models.py", line 38, in <module>\n    format="%(nome)s")\n  File "/var/www/web2py_hosts/gluon/dal.py", line 7186, in define_table\n    table = self.lazy_define_table(tablename,*fields,**args)\n  File "/var/www/web2py_hosts/gluon/dal.py", line 7222, in lazy_define_table\n    polymodel=polymodel)\n  File "/var/www/web2py_hosts/gluon/dal.py", line 836, in create_table\n    (field_type, field_name))\nSyntaxError: Field: unknown field type: list for img\n'
p4849
s.