(dp1
S'output'
p2
S"<type 'exceptions.IndentationError'> unexpected indent (initial.py, line 338)"
p3
sS'layer'
p4
S'/var/www/hosts3/applications/projeto/controllers/initial.py'
p5
sS'code'
p6
S'# coding: utf-8\n\n@auth.requires_login()\ndef show_cliente():\n\tresponse.title="Clientes"\n\n\tdb.args=Cliente.id.readable=False\n\tgrid = SQLFORM.grid(Cliente,\n\t\tuser_signature=True, searchable=True, csv=False, \n\t\tpaginate=50, details=False, \n\t\tignore_rw = True, maxtextlength=26,\n\t\tcreate=auth.has_membership("admin"),\n\t\teditable=auth.has_membership("admin"),\n\t\tdeletable=auth.has_membership("admin"),  \n    \tlinks = [lambda row: A(\'hosts\', _class=\'btn\', \n\t\t\t_title=\'ver servidores\', \n\t\t\t_href=URL("initial", "/cliente_host", \n\t\t\tvars=dict(f=row.id, n1=\'Clientes\', p1=\'show_cliente\')))]\n    \t)\n\treturn response.render("initial/show_grid.html", grid=grid)\n\n@auth.requires_login()\ndef show_servidor():\n\tresponse.title="Servidores"\n\n\tdb.args=Servidor.id.readable=False\n\tgrid = SQLFORM.grid(Servidor,\n\t\tuser_signature=True, searchable=True, csv=False,\n\t\tpaginate=50, details=False, \n\t\tignore_rw = True, maxtextlength=26,\n\t\tcreate=auth.has_membership("admin"),\n\t\teditable=auth.has_membership("admin"),\n\t\tdeletable=auth.has_membership("admin"),  \n    \tlinks = [lambda row: A(\'hosts\', _class=\'btn\', \n    \t\t_title=\'ver servidores\', \n    \t\t_href=URL("initial", "/servidor_host", \n    \t\tvars=dict(f=row.id, n1=\'Servidores\', p1=\'show_servidor\')))]\n\t\t)\n\treturn response.render("initial/show_grid.html", grid=grid)\n\n@auth.requires_login()\ndef show_distro():\n\tresponse.title="Distribui\xc3\xa7\xc3\xb5es"\n\n\tdb.args=Distro.id.readable=False\n\tdb.args=Distro.img.readable=False\n\tgrid = SQLFORM.grid(Distro,\n\t\tuser_signature=True, searchable=True, csv=False,\n\t\tpaginate=50, details=False, ignore_rw = True, \n\t\tmaxtextlength=26, links_placement=\'left\',\n\t\tcreate=auth.has_membership("admin"),\n\t\teditable=auth.has_membership("admin"),\n\t\tdeletable=auth.has_membership("admin"),  \n    \tlinks = [lambda row: A(\'hosts\', \n    \t\t_class=\'btn\', \n    \t\t_title=\'ver servidores\', \n    \t\t_href=URL("initial", "/distro_host", \n    \t\tvars=dict(f=row.id, n1=\'Distros\', p1=\'show_distro\'))), \n    \tdict(header=\'\',body=lambda row: A( IMG(_src=URL("static", "images", args=(row.img) ))))]\n\t\t)\n\treturn response.render("initial/show_grid.html", grid=grid)\n\n\n@auth.requires_login()\ndef cliente_host():\n\tfiltro = request.vars[\'f\']\n\tqueryset = db(db.cliente.id == filtro)\n\trows = queryset.select()\n\tcliente = rows[0]\n\tresponse.title = cliente.nome\n\tprint cliente\n\n\tnome_ant1 = request.vars[\'n1\']\n\tfuncao_ant1 = request.vars[\'p1\']\n\tnome_atual = cliente.nome\n\n\tquery = ((db.hosts.id_cliente == filtro) & (db.distro.id == db.hosts.id_distro))\n\tlinks = [dict(header=\'\',body=lambda row: A( IMG(_src=URL("static", "images", args=(row.distro.img)) ))), \n\t lambda row: A(\'Detalhes\', \n    \t\t      _class=\'btn\', \n    \t\t      _title=\'Detalhes\', \n    \t\t      _href=URL("initial", "/exemplo", \n    \t\t      vars=dict(f=row.hosts.id, c=filtro, n=cliente.nome, \n    \t\t      \t\t\tn1=\'Clientes\', p1=\'show_cliente\', p=\'cliente_host\'))),\n\t lambda row: A(\'Editar\', \n    \t\t      _class=\'btn\', \n    \t\t      _title=\'Editar\', \n    \t\t      _href=URL("initial", "/edit_host", \n    \t\t      vars=dict(f=row.hosts.id, c=filtro, n=cliente.nome, \n    \t\t      \t\tn1=\'Clientes\', p1=\'show_cliente\', p=\'cliente_host\')))]\n\tdb.hosts.id.readable=False\n\tdb.distro.img.readable=False\n\t\n\tfields = (db.hosts.id, db.hosts.id_servidor, db.hosts.id_distro, db.distro.img, \n\t\t\t  db.hosts.ip_chegada, db.hosts.porta_ssh, db.hosts.gateway)\n\theaders = {\'hosts.id\':   \'ID\',\n\t\t\t   \'hosts.id_cliente\': \'Cliente\',\n               \'hosts.id_servidor\': \'Servidor\',\n               \'hosts.id_distro\': \'Distro\',\n               \'hosts.nome\': \'Nome\',\n\t           \'hosts.servicos\': \'Servicos\'}\n\tgrid = SQLFORM.grid(query=query, fields=fields, headers=headers, csv=False,\n\t\t\t\t\t\tdetails=False, searchable=False, maxtextlength=23, links=links, \n\t\t\t\t\t\tlinks_placement=\'left\', editable=False, create=False)\n\n\treturn response.render("initial/show_grid2.html", grid=grid, nome_ant1=nome_ant1, \n\t\t\t\t\t\tfuncao_ant1=funcao_ant1, nome_atual=nome_atual)\n\n@auth.requires_login()\ndef servidor_host():\n\tfiltro = request.vars[\'f\']\n\tqueryset = db(db.servidor.id == filtro)\n\trows = queryset.select()\n\tservidor = rows[0]\n\tresponse.title = servidor.nome\n\n\tnome_ant1 = request.vars[\'n1\']\n\tfuncao_ant1 = request.vars[\'p1\']\n\tnome_atual = servidor.nome\t\n\n\tdb.distro.img.readable=False\n\tdb.hosts.id.readable=False\n\tquery = ((db.hosts.id_servidor == filtro) & (db.distro.id == db.hosts.id_distro))\n\n\tlinks = [dict(header=\'\',body=lambda row: A( IMG(_src=URL("static", "images", args=(row.distro.img)) ))), \n\t lambda row: A(\'Detalhes\', \n    \t\t      _class=\'btn\', \n    \t\t      _title=\'Detalhes\', \n    \t\t      _href=URL("initial", "/exemplo", \n    \t\t      vars=dict(f=row.hosts.id, c=filtro, n=servidor.nome, \n    \t\t      \t\tn1=\'Servidores\', p1=\'show_servidor\', p=\'servidor_host\'))),\n\t lambda row: A(\'Editar\', \n    \t\t      _class=\'btn\', \n    \t\t      _title=\'Editar\', \n    \t\t      _href=URL("initial", "/edit_host", \n    \t\t      vars=dict(f=row.hosts.id, c=filtro, n=servidor.nome, \n    \t\t      \t\tn1=\'Servidores\', p1=\'show_servidor\', p=\'servidor_host\')))]\n\n\tfields = (db.hosts.id, db.hosts.id_cliente, db.hosts.id_distro, db.distro.img, \n\t\t\t\tdb.hosts.ip_chegada, db.hosts.porta_ssh, db.hosts.gateway)\n\theaders = {\'hosts.id\':   \'ID\',\n\t\t\t   \'hosts.id_cliente\': \'Cliente\',\n               \'hosts.id_servidor\': \'Servidor\',\n               \'hosts.id_distro\': \'Distro\',\n               \'hosts.nome\': \'Nome\',\n\t           \'hosts.servicos\': \'Servicos\'}\n\tgrid = SQLFORM.grid(query=query, fields=fields, headers=headers, csv=False,\n\t\t\t\t\t\tdetails=False, searchable=False, maxtextlength=23, links=links, \n\t\t\t\t\t\tlinks_placement=\'left\', editable=False, create=False)\n\n\treturn response.render("initial/show_grid2.html", grid=grid, nome_ant1=nome_ant1, \n\t\t\t\t\t\tfuncao_ant1=funcao_ant1, nome_atual=nome_atual)\n\n@auth.requires_login()\ndef distro_host():\n\tfiltro = request.vars[\'f\']\n\tqueryset = db(db.distro.id == filtro)\n\trows = queryset.select()\n\tdistro = rows[0]\n\tresponse.title = distro.nome\n\n\tnome_ant1 = request.vars[\'n1\']\n\tfuncao_ant1 = request.vars[\'p1\']\n\tnome_atual = distro.nome\t\n\t\n\tdb.hosts.id.readable=False\n\tdb.distro.img.readable=False\n\tquery = ((db.hosts.id_distro == filtro) & (db.distro.id == db.hosts.id_distro))\n\tlinks = [dict(header=\'\',body=lambda row: A( IMG(_src=URL("static", "images", args=(row.distro.img)) ))), \n\t lambda row: A(\'Detalhes\', \n    \t\t      _class=\'btn\', \n    \t\t      _title=\'Detalhes\', \n    \t\t      _href=URL("initial", "/exemplo", \n    \t\t      vars=dict(f=row.hosts.id, c=filtro, n=distro.nome, \n    \t\t      \t\tn1=\'Distros\', p1=\'show_distro\', p=\'distro_host\'))),\n\t lambda row: A(\'Editar\', \n    \t\t      _class=\'btn\', \n    \t\t      _title=\'Editar\', \n    \t\t      _href=URL("initial", "/edit_host", \n    \t\t      vars=dict(f=row.hosts.id, c=filtro, n=distro.nome, \n    \t\t      \t\tn1=\'Distros\', p1=\'show_distro\', p=\'distro_host\')))]\n\n\tfields = (db.hosts.id, db.hosts.id_cliente, db.hosts.id_servidor, db.distro.img, \n\t\t\t  db.hosts.ip_chegada, db.hosts.porta_ssh, db.hosts.gateway)\n\theaders = {\'hosts.id\':   \'ID\',\n\t\t\t\t\'hosts.id_cliente\': \'Cliente\',\n               \'hosts.id_servidor\': \'Servidor\',\n               \'hosts.id_distro\': \'Distro\',\n               \'hosts.nome\': \'Nome\',\n\t           \'hosts.servicos\': \'Servicos\'}\n\tgrid = SQLFORM.grid(query=query, fields=fields, headers=headers, csv=False,\n\t\t\t\t\t\tdetails=False, searchable=False, maxtextlength=23, links=links, \n\t\t\t\t\t\tlinks_placement=\'left\', editable=False, create=False)\n\n\treturn response.render("initial/show_grid2.html", grid=grid, nome_ant1=nome_ant1, \n\t\t\t\t\t\tfuncao_ant1=funcao_ant1, nome_atual=nome_atual)\n\ndef exemplo():\n\tfiltro = request.vars[\'f\'] #id_host\n\tid_cliente = request.vars[\'c\'] #id_cliente\n\tnome_ant = request.vars[\'n\'] #nome (asterisk ou agronelli ou debian)\n\tnome_ant1 = request.vars[\'n1\'] #nome (servidores ou clientes ou distros)\n\tfuncao_ant = request.vars[\'p\'] #funcao(host_servidores)\n\tfuncao_ant1 = request.vars[\'p1\'] #funcao(show_servidores)\n\t\n\n\tquery = ((db.hosts.id == filtro) & (db.hosts.id_cliente == db.cliente.id)\n\t \t    & (db.hosts.id_servidor == db.servidor.id) \n\t \t    & (db.hosts.id_distro == db.distro.id)) \n\tdetalhes = db.hosts(query)\n\t\n\t\n\treturn response.render("initial/detalhes_host.html", detalhes=detalhes, \n\t\t\t\tid_cliente=id_cliente, funcao_ant=funcao_ant, funcao_ant1=funcao_ant1, \n\t\t\t\tnome_ant=nome_ant, nome_ant1=nome_ant1, filtro=filtro)\n\ndef edit_host():\n\tid_cliente = request.vars[\'c\']\n\tnome_ant = request.vars[\'n\']\n\tnome_ant1 = request.vars[\'n1\']\n\tfuncao_ant = request.vars[\'p\']\n\tfuncao_ant1 = request.vars[\'p1\']\n\n\tresponse.view = \'initial/show_form.html\'\n\tfields = [\'id_cliente\', \'id_servidor\', \'id_distro\', \'servicos\',\n\t\t\t\t\'if1\', \'ip1\', \'masc1\', \'obs1\', \'if2\', \'ip2\', \'masc2\', \'obs2\',\n\t\t\t\t\'if3\', \'ip3\', \'masc3\', \'obs3\', \'if4\', \'ip4\', \'masc4\', \'obs4\',\n\t\t\t\t\'nome\', \'ip_chegada\', \'porta_ssh\', \'gateway\', \'rotas\', \'obs_gerais\']\n\tlabels = {\'id_cliente\':\'Cliente\', \'id_servidor\':\'Servidor\', \'id_distro\':\'Distro\',\n\t\t\t\t\'if1\':\'Interface 1\', \'ip1\':\'IP\', \'masc1\':\'M\xc3\xa1scara\', \'obs1\':\'Obs\',\n\t\t\t\t\'if2\':\'Interface 2\', \'ip2\':\'IP\', \'masc2\':\'M\xc3\xa1scara\', \'obs2\':\'Obs\',\n\t\t\t\t\'if3\':\'Interface 3\', \'ip3\':\'IP\', \'masc3\':\'M\xc3\xa1scara\', \'obs3\':\'Obs\',\n\t\t\t\t\'if4\':\'Interface 4\', \'ip4\':\'IP\', \'masc4\':\'M\xc3\xa1scara\', \'obs4\':\'Obs\'}\n\treturn dict(form=SQLFORM(db.hosts, request.vars[\'f\'], fields=fields, labels=labels, \n\t\t\t\t\t\tsubmit_button=\'Editar\', showid=False).process(), \n\tid_cliente=id_cliente, funcao_ant=funcao_ant, funcao_ant1=funcao_ant1, nome_ant=nome_ant, nome_ant1=nome_ant1)\n\n\n@auth.requires_login()\ndef interface():\n\tresponse.view = \'initial/show_form2.html\'\n\tfields = [\'id_cliente\', \'id_servidor\', \'id_distro\', \'servicos\',\n\t\t\t\t\'if1\', \'ip1\', \'masc1\', \'obs1\', \'if2\', \'ip2\', \'masc2\', \'obs2\',\n\t\t\t\t\'if3\', \'ip3\', \'masc3\', \'obs3\', \'if4\', \'ip4\', \'masc4\', \'obs4\',\n\t\t\t\t\'nome\', \'ip_chegada\', \'porta_ssh\', \'gateway\', \'rotas\', \'obs_gerais\']\n\tlabels = {\'id_cliente\':\'Cliente\', \'id_servidor\':\'Servidor\', \'id_distro\':\'Distro\',\n\t\t\t\t\'if1\':\'Interface 1\', \'ip1\':\'IP\', \'masc1\':\'M\xc3\xa1scara\', \'obs1\':\'Obs\',\n\t\t\t\t\'if2\':\'Interface 2\', \'ip2\':\'IP\', \'masc2\':\'M\xc3\xa1scara\', \'obs2\':\'Obs\',\n\t\t\t\t\'if3\':\'Interface 3\', \'ip3\':\'IP\', \'masc3\':\'M\xc3\xa1scara\', \'obs3\':\'Obs\',\n\t\t\t\t\'if4\':\'Interface 4\', \'ip4\':\'IP\', \'masc4\':\'M\xc3\xa1scara\', \'obs4\':\'Obs\'}\n\t#form = SQLFORM(db.hosts)\n    #return dict(form=form)\t\t\t\n\treturn dict(form=SQLFORM(db.hosts, fields=fields, labels=labels, submit_button=\'Adicionar\').process())\n\n\ndef interfaceee():\n\tresponse.view = \'initial/show_form2.html\'\n\treturn dict(form=SQLFORM(db.hosts, request.vars[\'f\']).process())\n\n\ndef home():\n\tnome = "Fernando"\n\tresponse.title = "Titulo home"\n\treturn dict(nome=nome)\n\ndef contact():\n\treturn "form"\n\ndef about():\n\tfiltro = request.vars[\'f\']\n\tquery = ((db.hosts.id_servidor == filtro) & (db.distro.id == db.hosts.id_distro))\n\tfields = (db.hosts.id, db.hosts.id_cliente, db.hosts.id_distro, db.distro.img, \n\t\t\t\tdb.hosts.ip_chegada, db.hosts.porta_ssh, db.hosts.gateway)\n\theaders = {\'host.id\':   \'ID\',\n               \'host.id_servidor\': \'Servidor\',\n               \'host.id_distro\': \'Distro\',\n               \'host.nome\': \'Nome\',\n\t           \'host.servicos\': \'Servicos\'}\n\tgrid = SQLFORM.grid(query=query, fields=fields, headers=headers, csv=False,\n\t\t\t\t\t\tdetails=False, maxtextlength=23, searchable=True, editable=False, create=False)\n\n\treturn response.render("initial/teste.html", grid=grid,)\n\ndef user():\n\tif request.args(0) == \'register\':\n        \tdb.auth_user.bio.writable = db.auth_user.bio.readable = False\n\treturn response.render("initial/user.html", user=auth())\n\ndef register():\n\treturn auth.register()\n\ndef login():\n        return auth.login()\n\ndef account():\n    return dict(register=auth.register(),\n                login=auth.login())\n\t\ndef download():\n\treturn response.download(request, db)\n\ndef exemploo():\n#\treturn "teste"\n\treturn response.render("default/teste.html", nome="fernando", \n\t\tsobrenome="vieira", lista=["item1", "item2", "item3"])\n\ndef teste11():\n\tprint "Action index"\n\tprint request.args\n\tprint request.vars \t\n\tprint request.post_vars #somente entradas de formul\xc3\xa1rio\n    \tprint request.get_vars  #somente entradas de url\n    \t#nome = request.vars[\'nome\']\n        mensagem = "Bem Vindo"\n        form = "<form action=\'\' method=\'POST\'><input name=\'nome\' id=\'nome\'/><input type=\'Submit\'></form><br>"\n        if \'nome\' in request.vars:\n\t\tform = "<p>Bem vindo %(nome)s</p>" % request.vars + form\t\t\n\t\t#mensagem = mensagem + " usu\xc3\xa1rio %(nome)s" % request.vars\t#mostrando variavel da url\n        \t#mensagem = mensagem + " usu\xc3\xa1rio %s" %str(nome)\t\t\t#mostrando uma variavel local    \n\treturn form\n\ndef teste2():\n\treturn "<form><label>Nome</label><input /></form><br><a href=\'http://www.w3schools.com\'>Visit W3Schools</a>"\n\t#return dict(nome="fernando")\n\t#return response.render("teste.html", dict(nome="fernando"))\n\ndef soma(x, y):\n\treturn x + y\n\ndef product():\n\n\n    form = SQLFORM(db.hosts, fields = [\'id_cliente\'])\n    fields = [\'id_cliente\', \'id_servidor\', \'id_distro\', \'servicos\',\n\t\t\t\t\'if1\', \'ip1\', \'masc1\', \'obs1\', \'if2\', \'ip2\', \'masc2\', \'obs2\',\n\t\t\t\t\'if3\', \'ip3\', \'masc3\', \'obs3\', \'if4\', \'ip4\', \'masc4\', \'obs4\',\n\t\t\t\t\'nome\', \'ip_chegada\', \'porta_ssh\', \'gateway\', \'rotas\', \'obs_gerais\']\n\tlabels = {\'id_cliente\':\'Cliente\', \'id_servidor\':\'Servidor\', \'id_distro\':\'Distro\',\n\t\t\t\t\'if1\':\'Interface 1\', \'ip1\':\'IP\', \'masc1\':\'M\xc3\xa1scara\', \'obs1\':\'Obs\',\n\t\t\t\t\'if2\':\'Interface 2\', \'ip2\':\'IP\', \'masc2\':\'M\xc3\xa1scara\', \'obs2\':\'Obs\',\n\t\t\t\t\'if3\':\'Interface 3\', \'ip3\':\'IP\', \'masc3\':\'M\xc3\xa1scara\', \'obs3\':\'Obs\',\n\t\t\t\t\'if4\':\'Interface 4\', \'ip4\':\'IP\', \'masc4\':\'M\xc3\xa1scara\', \'obs4\':\'Obs\'}\n\n\n    if form.process().accepted:\n       response.flash = \'Inserido com sucesso\'\n    elif form.errors:\n       response.flash = \'Ops, algo n\xc3\xa3o est\xc3\xa1 correto\'\n    else:\n       response.flash = \'Insira os dados do novo host\'\n    return response.render("initial/show_form2.html", form=form)\n\n\n \n\nresponse._vars=response._caller(product)\n'
p7
sS'snapshot'
p8
(dp9
S'exception'
p10
(dp11
S'__getslice__'
p12
S"<method-wrapper '__getslice__' of exceptions.IndentationError object>"
p13
sS'text'
p14
S'"\\tlabels = {\'id_cliente\':\'Cliente\', \'id_servidor\':\'Servidor\', \'id_distro\':\'Distro\',\\n"'
p15
sS'__str__'
p16
S"<method-wrapper '__str__' of exceptions.IndentationError object>"
p17
sS'__reduce__'
p18
S'<built-in method __reduce__ of exceptions.IndentationError object>'
p19
sS'__dict__'
p20
S'{}'
p21
sS'__sizeof__'
p22
S'<built-in method __sizeof__ of exceptions.IndentationError object>'
p23
sS'__init__'
p24
S"<method-wrapper '__init__' of exceptions.IndentationError object>"
p25
sS'__setattr__'
p26
S"<method-wrapper '__setattr__' of exceptions.IndentationError object>"
p27
sS'__reduce_ex__'
p28
S'<built-in method __reduce_ex__ of exceptions.IndentationError object>'
p29
sS'__new__'
p30
S'<built-in method __new__ of type object>'
p31
sS'__format__'
p32
S'<built-in method __format__ of exceptions.IndentationError object>'
p33
sS'__class__'
p34
S"<type 'exceptions.IndentationError'>"
p35
sS'filename'
p36
S"'/var/www/hosts3/applications/projeto/controllers/initial.py'"
p37
sS'lineno'
p38
S'338'
p39
sS'msg'
p40
S"'unexpected indent'"
p41
sS'__doc__'
p42
S"'Improper indentation.'"
p43
sS'__getitem__'
p44
S"<method-wrapper '__getitem__' of exceptions.IndentationError object>"
p45
sS'__setstate__'
p46
S'<built-in method __setstate__ of exceptions.IndentationError object>'
p47
sS'__getattribute__'
p48
S"<method-wrapper '__getattribute__' of exceptions.IndentationError object>"
p49
sS'print_file_and_line'
p50
S'None'
p51
sS'args'
p52
S'(\'unexpected indent\', (\'/var/www/hosts3/applications/projeto/controllers/initial.py\', 338, 1, "\\tlabels = {\'id_cliente\':\'Cliente\', \'id_servidor\':\'Servidor\', \'id_distro\':\'Distro\',\\n"))'
p53
sS'__subclasshook__'
p54
S'<built-in method __subclasshook__ of type object>'
p55
sS'offset'
p56
S'1'
sS'__unicode__'
p57
S'<built-in method __unicode__ of exceptions.IndentationError object>'
p58
sS'__delattr__'
p59
S"<method-wrapper '__delattr__' of exceptions.IndentationError object>"
p60
sS'__repr__'
p61
S"<method-wrapper '__repr__' of exceptions.IndentationError object>"
p62
sS'__hash__'
p63
S"<method-wrapper '__hash__' of exceptions.IndentationError object>"
p64
ssS'evalue'
p65
S'unexpected indent (initial.py, line 338)'
p66
sS'request'
p67
ccopy_reg
_reconstructor
p68
(cgluon.html
BEAUTIFY
p69
c__builtin__
object
p70
NtRp71
(dp72
S'attributes'
p73
(dp74
sS'components'
p75
(lp76
g68
(cgluon.html
TABLE
p77
g70
NtRp78
(dp79
g73
(dp80
S'level'
p81
I5
ssS'parent'
p82
Nsg75
(lp83
g68
(cgluon.html
TR
p84
g70
NtRp85
(dp86
g73
(dp87
sg82
g78
sg75
(lp88
g68
(cgluon.html
TD
p89
g70
NtRp90
(dp91
g73
(dp92
S'_style'
p93
S'font-weight:bold;vertical-align:top'
p94
ssg82
g85
sg75
(lp95
S'ajax'
p96
asbag68
(g89
g70
NtRp97
(dp98
g73
(dp99
S'_valign'
p100
S'top'
p101
ssg82
g85
sg75
(lp102
S':'
asbag68
(g89
g70
NtRp103
(dp104
g73
(dp105
sg82
g85
sg75
(lp106
g68
(g69
g70
NtRp107
(dp108
g73
(dp109
g81
I5
ssg82
g103
sg75
(lp110
S'False'
p111
asbasbasbag68
(g84
g70
NtRp112
(dp113
g73
(dp114
sg82
g78
sg75
(lp115
g68
(g89
g70
NtRp116
(dp117
g73
(dp118
g93
g94
ssg82
g112
sg75
(lp119
S'application'
p120
asbag68
(g89
g70
NtRp121
(dp122
g73
(dp123
g100
g101
ssg82
g112
sg75
(lp124
S':'
asbag68
(g89
g70
NtRp125
(dp126
g73
(dp127
sg82
g112
sg75
(lp128
g68
(g69
g70
NtRp129
(dp130
g73
(dp131
g81
I5
ssg82
g125
sg75
(lp132
S'projeto'
p133
asbasbasbag68
(g84
g70
NtRp134
(dp135
g73
(dp136
sg82
g78
sg75
(lp137
g68
(g89
g70
NtRp138
(dp139
g73
(dp140
g93
g94
ssg82
g134
sg75
(lp141
g52
asbag68
(g89
g70
NtRp142
(dp143
g73
(dp144
g100
g101
ssg82
g134
sg75
(lp145
S':'
asbag68
(g89
g70
NtRp146
(dp147
g73
(dp148
sg82
g134
sg75
(lp149
g68
(g69
g70
NtRp150
(dp151
g73
(dp152
g81
I5
ssg82
g146
sg75
(lp153
g68
(g77
g70
NtRp154
(dp155
g73
(dp156
g81
I4
ssg82
Nsg75
(lp157
sbasbasbasbag68
(g84
g70
NtRp158
(dp159
g73
(dp160
sg82
g78
sg75
(lp161
g68
(g89
g70
NtRp162
(dp163
g73
(dp164
g93
g94
ssg82
g158
sg75
(lp165
S'body'
p166
asbag68
(g89
g70
NtRp167
(dp168
g73
(dp169
g100
g101
ssg82
g158
sg75
(lp170
S':'
asbag68
(g89
g70
NtRp171
(dp172
g73
(dp173
sg82
g158
sg75
(lp174
g68
(g69
g70
NtRp175
(dp176
g73
(dp177
g81
I5
ssg82
g171
sg75
(lp178
S'<cStringIO.StringO object at 0x7f9adc6fb6c0>'
p179
asbasbasbag68
(g84
g70
NtRp180
(dp181
g73
(dp182
sg82
g78
sg75
(lp183
g68
(g89
g70
NtRp184
(dp185
g73
(dp186
g93
g94
ssg82
g180
sg75
(lp187
S'cid'
p188
asbag68
(g89
g70
NtRp189
(dp190
g73
(dp191
g100
g101
ssg82
g180
sg75
(lp192
S':'
asbag68
(g89
g70
NtRp193
(dp194
g73
(dp195
sg82
g180
sg75
(lp196
g68
(g69
g70
NtRp197
(dp198
g73
(dp199
g81
I5
ssg82
g193
sg75
(lp200
S'None'
p201
asbasbasbag68
(g84
g70
NtRp202
(dp203
g73
(dp204
sg82
g78
sg75
(lp205
g68
(g89
g70
NtRp206
(dp207
g73
(dp208
g93
g94
ssg82
g202
sg75
(lp209
S'client'
p210
asbag68
(g89
g70
NtRp211
(dp212
g73
(dp213
g100
g101
ssg82
g202
sg75
(lp214
S':'
asbag68
(g89
g70
NtRp215
(dp216
g73
(dp217
sg82
g202
sg75
(lp218
g68
(g69
g70
NtRp219
(dp220
g73
(dp221
g81
I5
ssg82
g215
sg75
(lp222
S'127.0.0.1'
p223
asbasbasbag68
(g84
g70
NtRp224
(dp225
g73
(dp226
sg82
g78
sg75
(lp227
g68
(g89
g70
NtRp228
(dp229
g73
(dp230
g93
g94
ssg82
g224
sg75
(lp231
S'controller'
p232
asbag68
(g89
g70
NtRp233
(dp234
g73
(dp235
g100
g101
ssg82
g224
sg75
(lp236
S':'
asbag68
(g89
g70
NtRp237
(dp238
g73
(dp239
sg82
g224
sg75
(lp240
g68
(g69
g70
NtRp241
(dp242
g73
(dp243
g81
I5
ssg82
g237
sg75
(lp244
S'initial'
p245
asbasbasbag68
(g84
g70
NtRp246
(dp247
g73
(dp248
sg82
g78
sg75
(lp249
g68
(g89
g70
NtRp250
(dp251
g73
(dp252
g93
g94
ssg82
g246
sg75
(lp253
S'cookies'
p254
asbag68
(g89
g70
NtRp255
(dp256
g73
(dp257
g100
g101
ssg82
g246
sg75
(lp258
S':'
asbag68
(g89
g70
NtRp259
(dp260
g73
(dp261
sg82
g246
sg75
(lp262
g68
(g69
g70
NtRp263
(dp264
g73
(dp265
g81
I5
ssg82
g259
sg75
(lp266
g68
(g77
g70
NtRp267
(dp268
g73
(dp269
g81
I4
ssg82
Nsg75
(lp270
g68
(g84
g70
NtRp271
(dp272
g73
(dp273
sg82
g267
sg75
(lp274
g68
(g89
g70
NtRp275
(dp276
g73
(dp277
g93
g94
ssg82
g271
sg75
(lp278
S'language'
p279
asbag68
(g89
g70
NtRp280
(dp281
g73
(dp282
g100
g101
ssg82
g271
sg75
(lp283
S':'
asbag68
(g89
g70
NtRp284
(dp285
g73
(dp286
sg82
g271
sg75
(lp287
g68
(g69
g70
NtRp288
(dp289
g73
(dp290
g81
I4
ssg82
g284
sg75
(lp291
S'1'
ag68
(g77
g70
NtRp292
(dp293
g73
(dp294
g81
I3
ssg82
Nsg75
(lp295
g68
(g84
g70
NtRp296
(dp297
g73
(dp298
sg82
g292
sg75
(lp299
g68
(g89
g70
NtRp300
(dp301
g73
(dp302
g93
g94
ssg82
g296
sg75
(lp303
S'comment'
p304
asbag68
(g89
g70
NtRp305
(dp306
g73
(dp307
g100
g101
ssg82
g296
sg75
(lp308
S':'
asbag68
(g89
g70
NtRp309
(dp310
g73
(dp311
sg82
g296
sg75
(lp312
g68
(g69
g70
NtRp313
(dp314
g73
(dp315
g81
I3
ssg82
g309
sg75
(lp316
S''
asbasbasbag68
(g84
g70
NtRp317
(dp318
g73
(dp319
sg82
g292
sg75
(lp320
g68
(g89
g70
NtRp321
(dp322
g73
(dp323
g93
g94
ssg82
g317
sg75
(lp324
S'domain'
p325
asbag68
(g89
g70
NtRp326
(dp327
g73
(dp328
g100
g101
ssg82
g317
sg75
(lp329
S':'
asbag68
(g89
g70
NtRp330
(dp331
g73
(dp332
sg82
g317
sg75
(lp333
g68
(g69
g70
NtRp334
(dp335
g73
(dp336
g81
I3
ssg82
g330
sg75
(lp337
S''
asbasbasbag68
(g84
g70
NtRp338
(dp339
g73
(dp340
sg82
g292
sg75
(lp341
g68
(g89
g70
NtRp342
(dp343
g73
(dp344
g93
g94
ssg82
g338
sg75
(lp345
S'expires'
p346
asbag68
(g89
g70
NtRp347
(dp348
g73
(dp349
g100
g101
ssg82
g338
sg75
(lp350
S':'
asbag68
(g89
g70
NtRp351
(dp352
g73
(dp353
sg82
g338
sg75
(lp354
g68
(g69
g70
NtRp355
(dp356
g73
(dp357
g81
I3
ssg82
g351
sg75
(lp358
S''
asbasbasbag68
(g84
g70
NtRp359
(dp360
g73
(dp361
sg82
g292
sg75
(lp362
g68
(g89
g70
NtRp363
(dp364
g73
(dp365
g93
g94
ssg82
g359
sg75
(lp366
S'httponly'
p367
asbag68
(g89
g70
NtRp368
(dp369
g73
(dp370
g100
g101
ssg82
g359
sg75
(lp371
S':'
asbag68
(g89
g70
NtRp372
(dp373
g73
(dp374
sg82
g359
sg75
(lp375
g68
(g69
g70
NtRp376
(dp377
g73
(dp378
g81
I3
ssg82
g372
sg75
(lp379
S''
asbasbasbag68
(g84
g70
NtRp380
(dp381
g73
(dp382
sg82
g292
sg75
(lp383
g68
(g89
g70
NtRp384
(dp385
g73
(dp386
g93
g94
ssg82
g380
sg75
(lp387
S'max-age'
p388
asbag68
(g89
g70
NtRp389
(dp390
g73
(dp391
g100
g101
ssg82
g380
sg75
(lp392
S':'
asbag68
(g89
g70
NtRp393
(dp394
g73
(dp395
sg82
g380
sg75
(lp396
g68
(g69
g70
NtRp397
(dp398
g73
(dp399
g81
I3
ssg82
g393
sg75
(lp400
S''
asbasbasbag68
(g84
g70
NtRp401
(dp402
g73
(dp403
sg82
g292
sg75
(lp404
g68
(g89
g70
NtRp405
(dp406
g73
(dp407
g93
g94
ssg82
g401
sg75
(lp408
S'path'
p409
asbag68
(g89
g70
NtRp410
(dp411
g73
(dp412
g100
g101
ssg82
g401
sg75
(lp413
S':'
asbag68
(g89
g70
NtRp414
(dp415
g73
(dp416
sg82
g401
sg75
(lp417
g68
(g69
g70
NtRp418
(dp419
g73
(dp420
g81
I3
ssg82
g414
sg75
(lp421
S''
asbasbasbag68
(g84
g70
NtRp422
(dp423
g73
(dp424
sg82
g292
sg75
(lp425
g68
(g89
g70
NtRp426
(dp427
g73
(dp428
g93
g94
ssg82
g422
sg75
(lp429
S'secure'
p430
asbag68
(g89
g70
NtRp431
(dp432
g73
(dp433
g100
g101
ssg82
g422
sg75
(lp434
S':'
asbag68
(g89
g70
NtRp435
(dp436
g73
(dp437
sg82
g422
sg75
(lp438
g68
(g69
g70
NtRp439
(dp440
g73
(dp441
g81
I3
ssg82
g435
sg75
(lp442
S''
asbasbasbag68
(g84
g70
NtRp443
(dp444
g73
(dp445
sg82
g292
sg75
(lp446
g68
(g89
g70
NtRp447
(dp448
g73
(dp449
g93
g94
ssg82
g443
sg75
(lp450
S'version'
p451
asbag68
(g89
g70
NtRp452
(dp453
g73
(dp454
g100
g101
ssg82
g443
sg75
(lp455
S':'
asbag68
(g89
g70
NtRp456
(dp457
g73
(dp458
sg82
g443
sg75
(lp459
g68
(g69
g70
NtRp460
(dp461
g73
(dp462
g81
I3
ssg82
g456
sg75
(lp463
S''
asbasbasbasbasbasbasbag68
(g84
g70
NtRp464
(dp465
g73
(dp466
sg82
g267
sg75
(lp467
g68
(g89
g70
NtRp468
(dp469
g73
(dp470
g93
g94
ssg82
g464
sg75
(lp471
S'nr'
p472
asbag68
(g89
g70
NtRp473
(dp474
g73
(dp475
g100
g101
ssg82
g464
sg75
(lp476
S':'
asbag68
(g89
g70
NtRp477
(dp478
g73
(dp479
sg82
g464
sg75
(lp480
g68
(g69
g70
NtRp481
(dp482
g73
(dp483
g81
I4
ssg82
g477
sg75
(lp484
S'1'
ag68
(g77
g70
NtRp485
(dp486
g73
(dp487
g81
I3
ssg82
Nsg75
(lp488
g68
(g84
g70
NtRp489
(dp490
g73
(dp491
sg82
g485
sg75
(lp492
g68
(g89
g70
NtRp493
(dp494
g73
(dp495
g93
g94
ssg82
g489
sg75
(lp496
g304
asbag68
(g89
g70
NtRp497
(dp498
g73
(dp499
g100
g101
ssg82
g489
sg75
(lp500
S':'
asbag68
(g89
g70
NtRp501
(dp502
g73
(dp503
sg82
g489
sg75
(lp504
g68
(g69
g70
NtRp505
(dp506
g73
(dp507
g81
I3
ssg82
g501
sg75
(lp508
S''
asbasbasbag68
(g84
g70
NtRp509
(dp510
g73
(dp511
sg82
g485
sg75
(lp512
g68
(g89
g70
NtRp513
(dp514
g73
(dp515
g93
g94
ssg82
g509
sg75
(lp516
g325
asbag68
(g89
g70
NtRp517
(dp518
g73
(dp519
g100
g101
ssg82
g509
sg75
(lp520
S':'
asbag68
(g89
g70
NtRp521
(dp522
g73
(dp523
sg82
g509
sg75
(lp524
g68
(g69
g70
NtRp525
(dp526
g73
(dp527
g81
I3
ssg82
g521
sg75
(lp528
S''
asbasbasbag68
(g84
g70
NtRp529
(dp530
g73
(dp531
sg82
g485
sg75
(lp532
g68
(g89
g70
NtRp533
(dp534
g73
(dp535
g93
g94
ssg82
g529
sg75
(lp536
g346
asbag68
(g89
g70
NtRp537
(dp538
g73
(dp539
g100
g101
ssg82
g529
sg75
(lp540
S':'
asbag68
(g89
g70
NtRp541
(dp542
g73
(dp543
sg82
g529
sg75
(lp544
g68
(g69
g70
NtRp545
(dp546
g73
(dp547
g81
I3
ssg82
g541
sg75
(lp548
S''
asbasbasbag68
(g84
g70
NtRp549
(dp550
g73
(dp551
sg82
g485
sg75
(lp552
g68
(g89
g70
NtRp553
(dp554
g73
(dp555
g93
g94
ssg82
g549
sg75
(lp556
g367
asbag68
(g89
g70
NtRp557
(dp558
g73
(dp559
g100
g101
ssg82
g549
sg75
(lp560
S':'
asbag68
(g89
g70
NtRp561
(dp562
g73
(dp563
sg82
g549
sg75
(lp564
g68
(g69
g70
NtRp565
(dp566
g73
(dp567
g81
I3
ssg82
g561
sg75
(lp568
S''
asbasbasbag68
(g84
g70
NtRp569
(dp570
g73
(dp571
sg82
g485
sg75
(lp572
g68
(g89
g70
NtRp573
(dp574
g73
(dp575
g93
g94
ssg82
g569
sg75
(lp576
g388
asbag68
(g89
g70
NtRp577
(dp578
g73
(dp579
g100
g101
ssg82
g569
sg75
(lp580
S':'
asbag68
(g89
g70
NtRp581
(dp582
g73
(dp583
sg82
g569
sg75
(lp584
g68
(g69
g70
NtRp585
(dp586
g73
(dp587
g81
I3
ssg82
g581
sg75
(lp588
S''
asbasbasbag68
(g84
g70
NtRp589
(dp590
g73
(dp591
sg82
g485
sg75
(lp592
g68
(g89
g70
NtRp593
(dp594
g73
(dp595
g93
g94
ssg82
g589
sg75
(lp596
g409
asbag68
(g89
g70
NtRp597
(dp598
g73
(dp599
g100
g101
ssg82
g589
sg75
(lp600
S':'
asbag68
(g89
g70
NtRp601
(dp602
g73
(dp603
sg82
g589
sg75
(lp604
g68
(g69
g70
NtRp605
(dp606
g73
(dp607
g81
I3
ssg82
g601
sg75
(lp608
S''
asbasbasbag68
(g84
g70
NtRp609
(dp610
g73
(dp611
sg82
g485
sg75
(lp612
g68
(g89
g70
NtRp613
(dp614
g73
(dp615
g93
g94
ssg82
g609
sg75
(lp616
g430
asbag68
(g89
g70
NtRp617
(dp618
g73
(dp619
g100
g101
ssg82
g609
sg75
(lp620
S':'
asbag68
(g89
g70
NtRp621
(dp622
g73
(dp623
sg82
g609
sg75
(lp624
g68
(g69
g70
NtRp625
(dp626
g73
(dp627
g81
I3
ssg82
g621
sg75
(lp628
S''
asbasbasbag68
(g84
g70
NtRp629
(dp630
g73
(dp631
sg82
g485
sg75
(lp632
g68
(g89
g70
NtRp633
(dp634
g73
(dp635
g93
g94
ssg82
g629
sg75
(lp636
g451
asbag68
(g89
g70
NtRp637
(dp638
g73
(dp639
g100
g101
ssg82
g629
sg75
(lp640
S':'
asbag68
(g89
g70
NtRp641
(dp642
g73
(dp643
sg82
g629
sg75
(lp644
g68
(g69
g70
NtRp645
(dp646
g73
(dp647
g81
I3
ssg82
g641
sg75
(lp648
S''
asbasbasbasbasbasbasbag68
(g84
g70
NtRp649
(dp650
g73
(dp651
sg82
g267
sg75
(lp652
g68
(g89
g70
NtRp653
(dp654
g73
(dp655
g93
g94
ssg82
g649
sg75
(lp656
S'session_id_admin'
p657
asbag68
(g89
g70
NtRp658
(dp659
g73
(dp660
g100
g101
ssg82
g649
sg75
(lp661
S':'
asbag68
(g89
g70
NtRp662
(dp663
g73
(dp664
sg82
g649
sg75
(lp665
g68
(g69
g70
NtRp666
(dp667
g73
(dp668
g81
I4
ssg82
g662
sg75
(lp669
S'127.0.0.1-a33ced35-545c-414c-9ba1-4a74d8dd63b0'
p670
ag68
(g77
g70
NtRp671
(dp672
g73
(dp673
g81
I3
ssg82
Nsg75
(lp674
g68
(g84
g70
NtRp675
(dp676
g73
(dp677
sg82
g671
sg75
(lp678
g68
(g89
g70
NtRp679
(dp680
g73
(dp681
g93
g94
ssg82
g675
sg75
(lp682
g304
asbag68
(g89
g70
NtRp683
(dp684
g73
(dp685
g100
g101
ssg82
g675
sg75
(lp686
S':'
asbag68
(g89
g70
NtRp687
(dp688
g73
(dp689
sg82
g675
sg75
(lp690
g68
(g69
g70
NtRp691
(dp692
g73
(dp693
g81
I3
ssg82
g687
sg75
(lp694
S''
asbasbasbag68
(g84
g70
NtRp695
(dp696
g73
(dp697
sg82
g671
sg75
(lp698
g68
(g89
g70
NtRp699
(dp700
g73
(dp701
g93
g94
ssg82
g695
sg75
(lp702
g325
asbag68
(g89
g70
NtRp703
(dp704
g73
(dp705
g100
g101
ssg82
g695
sg75
(lp706
S':'
asbag68
(g89
g70
NtRp707
(dp708
g73
(dp709
sg82
g695
sg75
(lp710
g68
(g69
g70
NtRp711
(dp712
g73
(dp713
g81
I3
ssg82
g707
sg75
(lp714
S''
asbasbasbag68
(g84
g70
NtRp715
(dp716
g73
(dp717
sg82
g671
sg75
(lp718
g68
(g89
g70
NtRp719
(dp720
g73
(dp721
g93
g94
ssg82
g715
sg75
(lp722
g346
asbag68
(g89
g70
NtRp723
(dp724
g73
(dp725
g100
g101
ssg82
g715
sg75
(lp726
S':'
asbag68
(g89
g70
NtRp727
(dp728
g73
(dp729
sg82
g715
sg75
(lp730
g68
(g69
g70
NtRp731
(dp732
g73
(dp733
g81
I3
ssg82
g727
sg75
(lp734
S''
asbasbasbag68
(g84
g70
NtRp735
(dp736
g73
(dp737
sg82
g671
sg75
(lp738
g68
(g89
g70
NtRp739
(dp740
g73
(dp741
g93
g94
ssg82
g735
sg75
(lp742
g367
asbag68
(g89
g70
NtRp743
(dp744
g73
(dp745
g100
g101
ssg82
g735
sg75
(lp746
S':'
asbag68
(g89
g70
NtRp747
(dp748
g73
(dp749
sg82
g735
sg75
(lp750
g68
(g69
g70
NtRp751
(dp752
g73
(dp753
g81
I3
ssg82
g747
sg75
(lp754
S''
asbasbasbag68
(g84
g70
NtRp755
(dp756
g73
(dp757
sg82
g671
sg75
(lp758
g68
(g89
g70
NtRp759
(dp760
g73
(dp761
g93
g94
ssg82
g755
sg75
(lp762
g388
asbag68
(g89
g70
NtRp763
(dp764
g73
(dp765
g100
g101
ssg82
g755
sg75
(lp766
S':'
asbag68
(g89
g70
NtRp767
(dp768
g73
(dp769
sg82
g755
sg75
(lp770
g68
(g69
g70
NtRp771
(dp772
g73
(dp773
g81
I3
ssg82
g767
sg75
(lp774
S''
asbasbasbag68
(g84
g70
NtRp775
(dp776
g73
(dp777
sg82
g671
sg75
(lp778
g68
(g89
g70
NtRp779
(dp780
g73
(dp781
g93
g94
ssg82
g775
sg75
(lp782
g409
asbag68
(g89
g70
NtRp783
(dp784
g73
(dp785
g100
g101
ssg82
g775
sg75
(lp786
S':'
asbag68
(g89
g70
NtRp787
(dp788
g73
(dp789
sg82
g775
sg75
(lp790
g68
(g69
g70
NtRp791
(dp792
g73
(dp793
g81
I3
ssg82
g787
sg75
(lp794
S''
asbasbasbag68
(g84
g70
NtRp795
(dp796
g73
(dp797
sg82
g671
sg75
(lp798
g68
(g89
g70
NtRp799
(dp800
g73
(dp801
g93
g94
ssg82
g795
sg75
(lp802
g430
asbag68
(g89
g70
NtRp803
(dp804
g73
(dp805
g100
g101
ssg82
g795
sg75
(lp806
S':'
asbag68
(g89
g70
NtRp807
(dp808
g73
(dp809
sg82
g795
sg75
(lp810
g68
(g69
g70
NtRp811
(dp812
g73
(dp813
g81
I3
ssg82
g807
sg75
(lp814
S''
asbasbasbag68
(g84
g70
NtRp815
(dp816
g73
(dp817
sg82
g671
sg75
(lp818
g68
(g89
g70
NtRp819
(dp820
g73
(dp821
g93
g94
ssg82
g815
sg75
(lp822
g451
asbag68
(g89
g70
NtRp823
(dp824
g73
(dp825
g100
g101
ssg82
g815
sg75
(lp826
S':'
asbag68
(g89
g70
NtRp827
(dp828
g73
(dp829
sg82
g815
sg75
(lp830
g68
(g69
g70
NtRp831
(dp832
g73
(dp833
g81
I3
ssg82
g827
sg75
(lp834
S''
asbasbasbasbasbasbasbag68
(g84
g70
NtRp835
(dp836
g73
(dp837
sg82
g267
sg75
(lp838
g68
(g89
g70
NtRp839
(dp840
g73
(dp841
g93
g94
ssg82
g835
sg75
(lp842
S'session_id_projeto'
p843
asbag68
(g89
g70
NtRp844
(dp845
g73
(dp846
g100
g101
ssg82
g835
sg75
(lp847
S':'
asbag68
(g89
g70
NtRp848
(dp849
g73
(dp850
sg82
g835
sg75
(lp851
g68
(g69
g70
NtRp852
(dp853
g73
(dp854
g81
I4
ssg82
g848
sg75
(lp855
S'127.0.0.1-691450d9-0478-4d7f-a716-be4ace49b6f4'
p856
ag68
(g77
g70
NtRp857
(dp858
g73
(dp859
g81
I3
ssg82
Nsg75
(lp860
g68
(g84
g70
NtRp861
(dp862
g73
(dp863
sg82
g857
sg75
(lp864
g68
(g89
g70
NtRp865
(dp866
g73
(dp867
g93
g94
ssg82
g861
sg75
(lp868
g304
asbag68
(g89
g70
NtRp869
(dp870
g73
(dp871
g100
g101
ssg82
g861
sg75
(lp872
S':'
asbag68
(g89
g70
NtRp873
(dp874
g73
(dp875
sg82
g861
sg75
(lp876
g68
(g69
g70
NtRp877
(dp878
g73
(dp879
g81
I3
ssg82
g873
sg75
(lp880
S''
asbasbasbag68
(g84
g70
NtRp881
(dp882
g73
(dp883
sg82
g857
sg75
(lp884
g68
(g89
g70
NtRp885
(dp886
g73
(dp887
g93
g94
ssg82
g881
sg75
(lp888
g325
asbag68
(g89
g70
NtRp889
(dp890
g73
(dp891
g100
g101
ssg82
g881
sg75
(lp892
S':'
asbag68
(g89
g70
NtRp893
(dp894
g73
(dp895
sg82
g881
sg75
(lp896
g68
(g69
g70
NtRp897
(dp898
g73
(dp899
g81
I3
ssg82
g893
sg75
(lp900
S''
asbasbasbag68
(g84
g70
NtRp901
(dp902
g73
(dp903
sg82
g857
sg75
(lp904
g68
(g89
g70
NtRp905
(dp906
g73
(dp907
g93
g94
ssg82
g901
sg75
(lp908
g346
asbag68
(g89
g70
NtRp909
(dp910
g73
(dp911
g100
g101
ssg82
g901
sg75
(lp912
S':'
asbag68
(g89
g70
NtRp913
(dp914
g73
(dp915
sg82
g901
sg75
(lp916
g68
(g69
g70
NtRp917
(dp918
g73
(dp919
g81
I3
ssg82
g913
sg75
(lp920
S''
asbasbasbag68
(g84
g70
NtRp921
(dp922
g73
(dp923
sg82
g857
sg75
(lp924
g68
(g89
g70
NtRp925
(dp926
g73
(dp927
g93
g94
ssg82
g921
sg75
(lp928
g367
asbag68
(g89
g70
NtRp929
(dp930
g73
(dp931
g100
g101
ssg82
g921
sg75
(lp932
S':'
asbag68
(g89
g70
NtRp933
(dp934
g73
(dp935
sg82
g921
sg75
(lp936
g68
(g69
g70
NtRp937
(dp938
g73
(dp939
g81
I3
ssg82
g933
sg75
(lp940
S''
asbasbasbag68
(g84
g70
NtRp941
(dp942
g73
(dp943
sg82
g857
sg75
(lp944
g68
(g89
g70
NtRp945
(dp946
g73
(dp947
g93
g94
ssg82
g941
sg75
(lp948
g388
asbag68
(g89
g70
NtRp949
(dp950
g73
(dp951
g100
g101
ssg82
g941
sg75
(lp952
S':'
asbag68
(g89
g70
NtRp953
(dp954
g73
(dp955
sg82
g941
sg75
(lp956
g68
(g69
g70
NtRp957
(dp958
g73
(dp959
g81
I3
ssg82
g953
sg75
(lp960
S''
asbasbasbag68
(g84
g70
NtRp961
(dp962
g73
(dp963
sg82
g857
sg75
(lp964
g68
(g89
g70
NtRp965
(dp966
g73
(dp967
g93
g94
ssg82
g961
sg75
(lp968
g409
asbag68
(g89
g70
NtRp969
(dp970
g73
(dp971
g100
g101
ssg82
g961
sg75
(lp972
S':'
asbag68
(g89
g70
NtRp973
(dp974
g73
(dp975
sg82
g961
sg75
(lp976
g68
(g69
g70
NtRp977
(dp978
g73
(dp979
g81
I3
ssg82
g973
sg75
(lp980
S''
asbasbasbag68
(g84
g70
NtRp981
(dp982
g73
(dp983
sg82
g857
sg75
(lp984
g68
(g89
g70
NtRp985
(dp986
g73
(dp987
g93
g94
ssg82
g981
sg75
(lp988
g430
asbag68
(g89
g70
NtRp989
(dp990
g73
(dp991
g100
g101
ssg82
g981
sg75
(lp992
S':'
asbag68
(g89
g70
NtRp993
(dp994
g73
(dp995
sg82
g981
sg75
(lp996
g68
(g69
g70
NtRp997
(dp998
g73
(dp999
g81
I3
ssg82
g993
sg75
(lp1000
S''
asbasbasbag68
(g84
g70
NtRp1001
(dp1002
g73
(dp1003
sg82
g857
sg75
(lp1004
g68
(g89
g70
NtRp1005
(dp1006
g73
(dp1007
g93
g94
ssg82
g1001
sg75
(lp1008
g451
asbag68
(g89
g70
NtRp1009
(dp1010
g73
(dp1011
g100
g101
ssg82
g1001
sg75
(lp1012
S':'
asbag68
(g89
g70
NtRp1013
(dp1014
g73
(dp1015
sg82
g1001
sg75
(lp1016
g68
(g69
g70
NtRp1017
(dp1018
g73
(dp1019
g81
I3
ssg82
g1013
sg75
(lp1020
S''
asbasbasbasbasbasbasbasbasbasbasbag68
(g84
g70
NtRp1021
(dp1022
g73
(dp1023
sg82
g78
sg75
(lp1024
g68
(g89
g70
NtRp1025
(dp1026
g73
(dp1027
g93
g94
ssg82
g1021
sg75
(lp1028
S'env'
p1029
asbag68
(g89
g70
NtRp1030
(dp1031
g73
(dp1032
g100
g101
ssg82
g1021
sg75
(lp1033
S':'
asbag68
(g89
g70
NtRp1034
(dp1035
g73
(dp1036
sg82
g1021
sg75
(lp1037
g68
(g69
g70
NtRp1038
(dp1039
g73
(dp1040
g81
I5
ssg82
g1034
sg75
(lp1041
g68
(g77
g70
NtRp1042
(dp1043
g73
(dp1044
g81
I4
ssg82
Nsg75
(lp1045
g68
(g84
g70
NtRp1046
(dp1047
g73
(dp1048
sg82
g1042
sg75
(lp1049
g68
(g89
g70
NtRp1050
(dp1051
g73
(dp1052
g93
g94
ssg82
g1046
sg75
(lp1053
S'app_folders'
p1054
asbag68
(g89
g70
NtRp1055
(dp1056
g73
(dp1057
g100
g101
ssg82
g1046
sg75
(lp1058
S':'
asbag68
(g89
g70
NtRp1059
(dp1060
g73
(dp1061
sg82
g1046
sg75
(lp1062
g68
(g69
g70
NtRp1063
(dp1064
g73
(dp1065
g81
I4
ssg82
g1059
sg75
(lp1066
S"set(['/var/www/hosts3/applications/admin/', '/var/www/hosts3/applications/projeto/'])"
p1067
asbasbasbag68
(g84
g70
NtRp1068
(dp1069
g73
(dp1070
sg82
g1042
sg75
(lp1071
g68
(g89
g70
NtRp1072
(dp1073
g73
(dp1074
g93
g94
ssg82
g1068
sg75
(lp1075
S'applications_parent'
p1076
asbag68
(g89
g70
NtRp1077
(dp1078
g73
(dp1079
g100
g101
ssg82
g1068
sg75
(lp1080
S':'
asbag68
(g89
g70
NtRp1081
(dp1082
g73
(dp1083
sg82
g1068
sg75
(lp1084
g68
(g69
g70
NtRp1085
(dp1086
g73
(dp1087
g81
I4
ssg82
g1081
sg75
(lp1088
S'/var/www/hosts3'
p1089
asbasbasbag68
(g84
g70
NtRp1090
(dp1091
g73
(dp1092
sg82
g1042
sg75
(lp1093
g68
(g89
g70
NtRp1094
(dp1095
g73
(dp1096
g93
g94
ssg82
g1090
sg75
(lp1097
S'cmd_args'
p1098
asbag68
(g89
g70
NtRp1099
(dp1100
g73
(dp1101
g100
g101
ssg82
g1090
sg75
(lp1102
S':'
asbag68
(g89
g70
NtRp1103
(dp1104
g73
(dp1105
sg82
g1090
sg75
(lp1106
g68
(g69
g70
NtRp1107
(dp1108
g73
(dp1109
g81
I4
ssg82
g1103
sg75
(lp1110
g68
(g77
g70
NtRp1111
(dp1112
g73
(dp1113
g81
I3
ssg82
Nsg75
(lp1114
sbasbasbasbag68
(g84
g70
NtRp1115
(dp1116
g73
(dp1117
sg82
g1042
sg75
(lp1118
g68
(g89
g70
NtRp1119
(dp1120
g73
(dp1121
g93
g94
ssg82
g1115
sg75
(lp1122
S'cmd_options'
p1123
asbag68
(g89
g70
NtRp1124
(dp1125
g73
(dp1126
g100
g101
ssg82
g1115
sg75
(lp1127
S':'
asbag68
(g89
g70
NtRp1128
(dp1129
g73
(dp1130
sg82
g1115
sg75
(lp1131
g68
(g69
g70
NtRp1132
(dp1133
g73
(dp1134
g81
I4
ssg82
g1128
sg75
(lp1135
S"<Values at 0x27b56c8: {'verbose': False, 'ip': '127.0.0.1', 'with_scheduler': False, 'ips': [], 'shutdown_timeout': 5, 'taskbar': False, 'port': 8000, 'maxthreads': None, 'softcron': False, 'server_name': 'fernando-workstation', 'bpython': False, 'nogui': False, 'pid_filename': 'httpserver.pid', 'extcron': False, 'runcron': False, 'run_system_tests': False, 'test': None, 'folder': '/var/www/hosts3', 'config': '', 'minthreads': None, 'winservice': '', 'shell': None, 'run': '', 'log_filename': 'httpserver.log', 'debuglevel': 30, 'args': [''], 'socket_timeout': 5, 'ssl_ca_certificate': None, 'scheduler': None, 'profiler_filename': None, 'ssl_private_key': '', 'scheduler_groups': None, 'password': '123456', 'request_queue_size': 5, 'ssl_certificate': '', 'cronjob': False, 'numthreads': None, 'quiet': False, 'interfaces': None, 'import_models': False, 'timeout': 10, 'plain': False, 'nobanner': False}>"
p1136
asbasbasbag68
(g84
g70
NtRp1137
(dp1138
g73
(dp1139
sg82
g1042
sg75
(lp1140
g68
(g89
g70
NtRp1141
(dp1142
g73
(dp1143
g93
g94
ssg82
g1137
sg75
(lp1144
S'db_sessions'
p1145
asbag68
(g89
g70
NtRp1146
(dp1147
g73
(dp1148
g100
g101
ssg82
g1137
sg75
(lp1149
S':'
asbag68
(g89
g70
NtRp1150
(dp1151
g73
(dp1152
sg82
g1137
sg75
(lp1153
g68
(g69
g70
NtRp1154
(dp1155
g73
(dp1156
g81
I4
ssg82
g1150
sg75
(lp1157
S'set([])'
p1158
asbasbasbag68
(g84
g70
NtRp1159
(dp1160
g73
(dp1161
sg82
g1042
sg75
(lp1162
g68
(g89
g70
NtRp1163
(dp1164
g73
(dp1165
g93
g94
ssg82
g1159
sg75
(lp1166
S'debugging'
p1167
asbag68
(g89
g70
NtRp1168
(dp1169
g73
(dp1170
g100
g101
ssg82
g1159
sg75
(lp1171
S':'
asbag68
(g89
g70
NtRp1172
(dp1173
g73
(dp1174
sg82
g1159
sg75
(lp1175
g68
(g69
g70
NtRp1176
(dp1177
g73
(dp1178
g81
I4
ssg82
g1172
sg75
(lp1179
g111
asbasbasbag68
(g84
g70
NtRp1180
(dp1181
g73
(dp1182
sg82
g1042
sg75
(lp1183
g68
(g89
g70
NtRp1184
(dp1185
g73
(dp1186
g93
g94
ssg82
g1180
sg75
(lp1187
S'gluon_parent'
p1188
asbag68
(g89
g70
NtRp1189
(dp1190
g73
(dp1191
g100
g101
ssg82
g1180
sg75
(lp1192
S':'
asbag68
(g89
g70
NtRp1193
(dp1194
g73
(dp1195
sg82
g1180
sg75
(lp1196
g68
(g69
g70
NtRp1197
(dp1198
g73
(dp1199
g81
I4
ssg82
g1193
sg75
(lp1200
S'/var/www/hosts3'
p1201
asbasbasbag68
(g84
g70
NtRp1202
(dp1203
g73
(dp1204
sg82
g1042
sg75
(lp1205
g68
(g89
g70
NtRp1206
(dp1207
g73
(dp1208
g93
g94
ssg82
g1202
sg75
(lp1209
S'http_accept'
p1210
asbag68
(g89
g70
NtRp1211
(dp1212
g73
(dp1213
g100
g101
ssg82
g1202
sg75
(lp1214
S':'
asbag68
(g89
g70
NtRp1215
(dp1216
g73
(dp1217
sg82
g1202
sg75
(lp1218
g68
(g69
g70
NtRp1219
(dp1220
g73
(dp1221
g81
I4
ssg82
g1215
sg75
(lp1222
S'text/html,application/xhtml+xml,application/xml;q=0.9,*/*;q=0.8'
p1223
asbasbasbag68
(g84
g70
NtRp1224
(dp1225
g73
(dp1226
sg82
g1042
sg75
(lp1227
g68
(g89
g70
NtRp1228
(dp1229
g73
(dp1230
g93
g94
ssg82
g1224
sg75
(lp1231
S'http_accept_charset'
p1232
asbag68
(g89
g70
NtRp1233
(dp1234
g73
(dp1235
g100
g101
ssg82
g1224
sg75
(lp1236
S':'
asbag68
(g89
g70
NtRp1237
(dp1238
g73
(dp1239
sg82
g1224
sg75
(lp1240
g68
(g69
g70
NtRp1241
(dp1242
g73
(dp1243
g81
I4
ssg82
g1237
sg75
(lp1244
S'ISO-8859-1,utf-8;q=0.7,*;q=0.3'
p1245
asbasbasbag68
(g84
g70
NtRp1246
(dp1247
g73
(dp1248
sg82
g1042
sg75
(lp1249
g68
(g89
g70
NtRp1250
(dp1251
g73
(dp1252
g93
g94
ssg82
g1246
sg75
(lp1253
S'http_accept_encoding'
p1254
asbag68
(g89
g70
NtRp1255
(dp1256
g73
(dp1257
g100
g101
ssg82
g1246
sg75
(lp1258
S':'
asbag68
(g89
g70
NtRp1259
(dp1260
g73
(dp1261
sg82
g1246
sg75
(lp1262
g68
(g69
g70
NtRp1263
(dp1264
g73
(dp1265
g81
I4
ssg82
g1259
sg75
(lp1266
S'gzip,deflate,sdch'
p1267
asbasbasbag68
(g84
g70
NtRp1268
(dp1269
g73
(dp1270
sg82
g1042
sg75
(lp1271
g68
(g89
g70
NtRp1272
(dp1273
g73
(dp1274
g93
g94
ssg82
g1268
sg75
(lp1275
S'http_accept_language'
p1276
asbag68
(g89
g70
NtRp1277
(dp1278
g73
(dp1279
g100
g101
ssg82
g1268
sg75
(lp1280
S':'
asbag68
(g89
g70
NtRp1281
(dp1282
g73
(dp1283
sg82
g1268
sg75
(lp1284
g68
(g69
g70
NtRp1285
(dp1286
g73
(dp1287
g81
I4
ssg82
g1281
sg75
(lp1288
S'pt-BR,pt;q=0.8,en-US;q=0.6,en;q=0.4'
p1289
asbasbasbag68
(g84
g70
NtRp1290
(dp1291
g73
(dp1292
sg82
g1042
sg75
(lp1293
g68
(g89
g70
NtRp1294
(dp1295
g73
(dp1296
g93
g94
ssg82
g1290
sg75
(lp1297
S'http_cache_control'
p1298
asbag68
(g89
g70
NtRp1299
(dp1300
g73
(dp1301
g100
g101
ssg82
g1290
sg75
(lp1302
S':'
asbag68
(g89
g70
NtRp1303
(dp1304
g73
(dp1305
sg82
g1290
sg75
(lp1306
g68
(g69
g70
NtRp1307
(dp1308
g73
(dp1309
g81
I4
ssg82
g1303
sg75
(lp1310
S'max-age=0'
p1311
asbasbasbag68
(g84
g70
NtRp1312
(dp1313
g73
(dp1314
sg82
g1042
sg75
(lp1315
g68
(g89
g70
NtRp1316
(dp1317
g73
(dp1318
g93
g94
ssg82
g1312
sg75
(lp1319
S'http_connection'
p1320
asbag68
(g89
g70
NtRp1321
(dp1322
g73
(dp1323
g100
g101
ssg82
g1312
sg75
(lp1324
S':'
asbag68
(g89
g70
NtRp1325
(dp1326
g73
(dp1327
sg82
g1312
sg75
(lp1328
g68
(g69
g70
NtRp1329
(dp1330
g73
(dp1331
g81
I4
ssg82
g1325
sg75
(lp1332
S'keep-alive'
p1333
asbasbasbag68
(g84
g70
NtRp1334
(dp1335
g73
(dp1336
sg82
g1042
sg75
(lp1337
g68
(g89
g70
NtRp1338
(dp1339
g73
(dp1340
g93
g94
ssg82
g1334
sg75
(lp1341
S'http_cookie'
p1342
asbag68
(g89
g70
NtRp1343
(dp1344
g73
(dp1345
g100
g101
ssg82
g1334
sg75
(lp1346
S':'
asbag68
(g89
g70
NtRp1347
(dp1348
g73
(dp1349
sg82
g1334
sg75
(lp1350
g68
(g69
g70
NtRp1351
(dp1352
g73
(dp1353
g81
I4
ssg82
g1347
sg75
(lp1354
S'nr=1; language=1; session_id_admin=127.0.0.1-a33ced35-545c-414c-9ba1-4a74d8dd63b0; session_id_projeto=127.0.0.1-691450d9-0478-4d7f-a716-be4ace49b6f4'
p1355
asbasbasbag68
(g84
g70
NtRp1356
(dp1357
g73
(dp1358
sg82
g1042
sg75
(lp1359
g68
(g89
g70
NtRp1360
(dp1361
g73
(dp1362
g93
g94
ssg82
g1356
sg75
(lp1363
S'http_host'
p1364
asbag68
(g89
g70
NtRp1365
(dp1366
g73
(dp1367
g100
g101
ssg82
g1356
sg75
(lp1368
S':'
asbag68
(g89
g70
NtRp1369
(dp1370
g73
(dp1371
sg82
g1356
sg75
(lp1372
g68
(g69
g70
NtRp1373
(dp1374
g73
(dp1375
g81
I4
ssg82
g1369
sg75
(lp1376
S'127.0.0.1:8000'
p1377
asbasbasbag68
(g84
g70
NtRp1378
(dp1379
g73
(dp1380
sg82
g1042
sg75
(lp1381
g68
(g89
g70
NtRp1382
(dp1383
g73
(dp1384
g93
g94
ssg82
g1378
sg75
(lp1385
S'http_user_agent'
p1386
asbag68
(g89
g70
NtRp1387
(dp1388
g73
(dp1389
g100
g101
ssg82
g1378
sg75
(lp1390
S':'
asbag68
(g89
g70
NtRp1391
(dp1392
g73
(dp1393
sg82
g1378
sg75
(lp1394
g68
(g69
g70
NtRp1395
(dp1396
g73
(dp1397
g81
I4
ssg82
g1391
sg75
(lp1398
S'Mozilla/5.0 (X11; Linux x86_64) AppleWebKit/537.4 (KHTML, like Gecko) Ubuntu/12.10 Chromium/22.0.1229.94 Chrome/22.0.1229.94 Safari/537.4'
p1399
asbasbasbag68
(g84
g70
NtRp1400
(dp1401
g73
(dp1402
sg82
g1042
sg75
(lp1403
g68
(g89
g70
NtRp1404
(dp1405
g73
(dp1406
g93
g94
ssg82
g1400
sg75
(lp1407
S'is_jython'
p1408
asbag68
(g89
g70
NtRp1409
(dp1410
g73
(dp1411
g100
g101
ssg82
g1400
sg75
(lp1412
S':'
asbag68
(g89
g70
NtRp1413
(dp1414
g73
(dp1415
sg82
g1400
sg75
(lp1416
g68
(g69
g70
NtRp1417
(dp1418
g73
(dp1419
g81
I4
ssg82
g1413
sg75
(lp1420
g111
asbasbasbag68
(g84
g70
NtRp1421
(dp1422
g73
(dp1423
sg82
g1042
sg75
(lp1424
g68
(g89
g70
NtRp1425
(dp1426
g73
(dp1427
g93
g94
ssg82
g1421
sg75
(lp1428
S'is_pypy'
p1429
asbag68
(g89
g70
NtRp1430
(dp1431
g73
(dp1432
g100
g101
ssg82
g1421
sg75
(lp1433
S':'
asbag68
(g89
g70
NtRp1434
(dp1435
g73
(dp1436
sg82
g1421
sg75
(lp1437
g68
(g69
g70
NtRp1438
(dp1439
g73
(dp1440
g81
I4
ssg82
g1434
sg75
(lp1441
g111
asbasbasbag68
(g84
g70
NtRp1442
(dp1443
g73
(dp1444
sg82
g1042
sg75
(lp1445
g68
(g89
g70
NtRp1446
(dp1447
g73
(dp1448
g93
g94
ssg82
g1442
sg75
(lp1449
S'local_hosts'
p1450
asbag68
(g89
g70
NtRp1451
(dp1452
g73
(dp1453
g100
g101
ssg82
g1442
sg75
(lp1454
S':'
asbag68
(g89
g70
NtRp1455
(dp1456
g73
(dp1457
sg82
g1442
sg75
(lp1458
g68
(g69
g70
NtRp1459
(dp1460
g73
(dp1461
g81
I4
ssg82
g1455
sg75
(lp1462
g68
(g77
g70
NtRp1463
(dp1464
g73
(dp1465
g81
I3
ssg82
Nsg75
(lp1466
g68
(g84
g70
NtRp1467
(dp1468
g73
(dp1469
sg82
g1463
sg75
(lp1470
g68
(g89
g70
NtRp1471
(dp1472
g73
(dp1473
sg82
g1467
sg75
(lp1474
g68
(g69
g70
NtRp1475
(dp1476
g73
(dp1477
g81
I3
ssg82
g1471
sg75
(lp1478
S'::1'
p1479
asbasbasbag68
(g84
g70
NtRp1480
(dp1481
g73
(dp1482
sg82
g1463
sg75
(lp1483
g68
(g89
g70
NtRp1484
(dp1485
g73
(dp1486
sg82
g1480
sg75
(lp1487
g68
(g69
g70
NtRp1488
(dp1489
g73
(dp1490
g81
I3
ssg82
g1484
sg75
(lp1491
S'::ffff:127.0.0.1'
p1492
asbasbasbag68
(g84
g70
NtRp1493
(dp1494
g73
(dp1495
sg82
g1463
sg75
(lp1496
g68
(g89
g70
NtRp1497
(dp1498
g73
(dp1499
sg82
g1493
sg75
(lp1500
g68
(g69
g70
NtRp1501
(dp1502
g73
(dp1503
g81
I3
ssg82
g1497
sg75
(lp1504
S'127.0.0.1'
p1505
asbasbasbag68
(g84
g70
NtRp1506
(dp1507
g73
(dp1508
sg82
g1463
sg75
(lp1509
g68
(g89
g70
NtRp1510
(dp1511
g73
(dp1512
sg82
g1506
sg75
(lp1513
g68
(g69
g70
NtRp1514
(dp1515
g73
(dp1516
g81
I3
ssg82
g1510
sg75
(lp1517
S'fernando-workstation'
p1518
asbasbasbasbasbasbasbag68
(g84
g70
NtRp1519
(dp1520
g73
(dp1521
sg82
g1042
sg75
(lp1522
g68
(g89
g70
NtRp1523
(dp1524
g73
(dp1525
g93
g94
ssg82
g1519
sg75
(lp1526
S'path_info'
p1527
asbag68
(g89
g70
NtRp1528
(dp1529
g73
(dp1530
g100
g101
ssg82
g1519
sg75
(lp1531
S':'
asbag68
(g89
g70
NtRp1532
(dp1533
g73
(dp1534
sg82
g1519
sg75
(lp1535
g68
(g69
g70
NtRp1536
(dp1537
g73
(dp1538
g81
I4
ssg82
g1532
sg75
(lp1539
S'/product'
p1540
asbasbasbag68
(g84
g70
NtRp1541
(dp1542
g73
(dp1543
sg82
g1042
sg75
(lp1544
g68
(g89
g70
NtRp1545
(dp1546
g73
(dp1547
g93
g94
ssg82
g1541
sg75
(lp1548
S'query_string'
p1549
asbag68
(g89
g70
NtRp1550
(dp1551
g73
(dp1552
g100
g101
ssg82
g1541
sg75
(lp1553
S':'
asbag68
(g89
g70
NtRp1554
(dp1555
g73
(dp1556
sg82
g1541
sg75
(lp1557
g68
(g69
g70
NtRp1558
(dp1559
g73
(dp1560
g81
I4
ssg82
g1554
sg75
(lp1561
S''
asbasbasbag68
(g84
g70
NtRp1562
(dp1563
g73
(dp1564
sg82
g1042
sg75
(lp1565
g68
(g89
g70
NtRp1566
(dp1567
g73
(dp1568
g93
g94
ssg82
g1562
sg75
(lp1569
S'remote_addr'
p1570
asbag68
(g89
g70
NtRp1571
(dp1572
g73
(dp1573
g100
g101
ssg82
g1562
sg75
(lp1574
S':'
asbag68
(g89
g70
NtRp1575
(dp1576
g73
(dp1577
sg82
g1562
sg75
(lp1578
g68
(g69
g70
NtRp1579
(dp1580
g73
(dp1581
g81
I4
ssg82
g1575
sg75
(lp1582
g223
asbasbasbag68
(g84
g70
NtRp1583
(dp1584
g73
(dp1585
sg82
g1042
sg75
(lp1586
g68
(g89
g70
NtRp1587
(dp1588
g73
(dp1589
g93
g94
ssg82
g1583
sg75
(lp1590
S'remote_port'
p1591
asbag68
(g89
g70
NtRp1592
(dp1593
g73
(dp1594
g100
g101
ssg82
g1583
sg75
(lp1595
S':'
asbag68
(g89
g70
NtRp1596
(dp1597
g73
(dp1598
sg82
g1583
sg75
(lp1599
g68
(g69
g70
NtRp1600
(dp1601
g73
(dp1602
g81
I4
ssg82
g1596
sg75
(lp1603
S'58364'
p1604
asbasbasbag68
(g84
g70
NtRp1605
(dp1606
g73
(dp1607
sg82
g1042
sg75
(lp1608
g68
(g89
g70
NtRp1609
(dp1610
g73
(dp1611
g93
g94
ssg82
g1605
sg75
(lp1612
S'request_method'
p1613
asbag68
(g89
g70
NtRp1614
(dp1615
g73
(dp1616
g100
g101
ssg82
g1605
sg75
(lp1617
S':'
asbag68
(g89
g70
NtRp1618
(dp1619
g73
(dp1620
sg82
g1605
sg75
(lp1621
g68
(g69
g70
NtRp1622
(dp1623
g73
(dp1624
g81
I4
ssg82
g1618
sg75
(lp1625
S'GET'
p1626
asbasbasbag68
(g84
g70
NtRp1627
(dp1628
g73
(dp1629
sg82
g1042
sg75
(lp1630
g68
(g89
g70
NtRp1631
(dp1632
g73
(dp1633
g93
g94
ssg82
g1627
sg75
(lp1634
S'request_uri'
p1635
asbag68
(g89
g70
NtRp1636
(dp1637
g73
(dp1638
g100
g101
ssg82
g1627
sg75
(lp1639
S':'
asbag68
(g89
g70
NtRp1640
(dp1641
g73
(dp1642
sg82
g1627
sg75
(lp1643
g68
(g69
g70
NtRp1644
(dp1645
g73
(dp1646
g81
I4
ssg82
g1640
sg75
(lp1647
S'/projeto/initial/product'
p1648
asbasbasbag68
(g84
g70
NtRp1649
(dp1650
g73
(dp1651
sg82
g1042
sg75
(lp1652
g68
(g89
g70
NtRp1653
(dp1654
g73
(dp1655
g93
g94
ssg82
g1649
sg75
(lp1656
S'script_name'
p1657
asbag68
(g89
g70
NtRp1658
(dp1659
g73
(dp1660
g100
g101
ssg82
g1649
sg75
(lp1661
S':'
asbag68
(g89
g70
NtRp1662
(dp1663
g73
(dp1664
sg82
g1649
sg75
(lp1665
g68
(g69
g70
NtRp1666
(dp1667
g73
(dp1668
g81
I4
ssg82
g1662
sg75
(lp1669
S''
asbasbasbag68
(g84
g70
NtRp1670
(dp1671
g73
(dp1672
sg82
g1042
sg75
(lp1673
g68
(g89
g70
NtRp1674
(dp1675
g73
(dp1676
g93
g94
ssg82
g1670
sg75
(lp1677
S'server_name'
p1678
asbag68
(g89
g70
NtRp1679
(dp1680
g73
(dp1681
g100
g101
ssg82
g1670
sg75
(lp1682
S':'
asbag68
(g89
g70
NtRp1683
(dp1684
g73
(dp1685
sg82
g1670
sg75
(lp1686
g68
(g69
g70
NtRp1687
(dp1688
g73
(dp1689
g81
I4
ssg82
g1683
sg75
(lp1690
S'fernando-workstation'
p1691
asbasbasbag68
(g84
g70
NtRp1692
(dp1693
g73
(dp1694
sg82
g1042
sg75
(lp1695
g68
(g89
g70
NtRp1696
(dp1697
g73
(dp1698
g93
g94
ssg82
g1692
sg75
(lp1699
S'server_port'
p1700
asbag68
(g89
g70
NtRp1701
(dp1702
g73
(dp1703
g100
g101
ssg82
g1692
sg75
(lp1704
S':'
asbag68
(g89
g70
NtRp1705
(dp1706
g73
(dp1707
sg82
g1692
sg75
(lp1708
g68
(g69
g70
NtRp1709
(dp1710
g73
(dp1711
g81
I4
ssg82
g1705
sg75
(lp1712
S'8000'
p1713
asbasbasbag68
(g84
g70
NtRp1714
(dp1715
g73
(dp1716
sg82
g1042
sg75
(lp1717
g68
(g89
g70
NtRp1718
(dp1719
g73
(dp1720
g93
g94
ssg82
g1714
sg75
(lp1721
S'server_protocol'
p1722
asbag68
(g89
g70
NtRp1723
(dp1724
g73
(dp1725
g100
g101
ssg82
g1714
sg75
(lp1726
S':'
asbag68
(g89
g70
NtRp1727
(dp1728
g73
(dp1729
sg82
g1714
sg75
(lp1730
g68
(g69
g70
NtRp1731
(dp1732
g73
(dp1733
g81
I4
ssg82
g1727
sg75
(lp1734
S'HTTP/1.1'
p1735
asbasbasbag68
(g84
g70
NtRp1736
(dp1737
g73
(dp1738
sg82
g1042
sg75
(lp1739
g68
(g89
g70
NtRp1740
(dp1741
g73
(dp1742
g93
g94
ssg82
g1736
sg75
(lp1743
S'server_software'
p1744
asbag68
(g89
g70
NtRp1745
(dp1746
g73
(dp1747
g100
g101
ssg82
g1736
sg75
(lp1748
S':'
asbag68
(g89
g70
NtRp1749
(dp1750
g73
(dp1751
sg82
g1736
sg75
(lp1752
g68
(g69
g70
NtRp1753
(dp1754
g73
(dp1755
g81
I4
ssg82
g1749
sg75
(lp1756
S'Rocket 1.2.6'
p1757
asbasbasbag68
(g84
g70
NtRp1758
(dp1759
g73
(dp1760
sg82
g1042
sg75
(lp1761
g68
(g89
g70
NtRp1762
(dp1763
g73
(dp1764
g93
g94
ssg82
g1758
sg75
(lp1765
S'web2py_original_uri'
p1766
asbag68
(g89
g70
NtRp1767
(dp1768
g73
(dp1769
g100
g101
ssg82
g1758
sg75
(lp1770
S':'
asbag68
(g89
g70
NtRp1771
(dp1772
g73
(dp1773
sg82
g1758
sg75
(lp1774
g68
(g69
g70
NtRp1775
(dp1776
g73
(dp1777
g81
I4
ssg82
g1771
sg75
(lp1778
g1540
asbasbasbag68
(g84
g70
NtRp1779
(dp1780
g73
(dp1781
sg82
g1042
sg75
(lp1782
g68
(g89
g70
NtRp1783
(dp1784
g73
(dp1785
g93
g94
ssg82
g1779
sg75
(lp1786
S'web2py_path'
p1787
asbag68
(g89
g70
NtRp1788
(dp1789
g73
(dp1790
g100
g101
ssg82
g1779
sg75
(lp1791
S':'
asbag68
(g89
g70
NtRp1792
(dp1793
g73
(dp1794
sg82
g1779
sg75
(lp1795
g68
(g69
g70
NtRp1796
(dp1797
g73
(dp1798
g81
I4
ssg82
g1792
sg75
(lp1799
g1089
asbasbasbag68
(g84
g70
NtRp1800
(dp1801
g73
(dp1802
sg82
g1042
sg75
(lp1803
g68
(g89
g70
NtRp1804
(dp1805
g73
(dp1806
g93
g94
ssg82
g1800
sg75
(lp1807
S'web2py_version'
p1808
asbag68
(g89
g70
NtRp1809
(dp1810
g73
(dp1811
g100
g101
ssg82
g1800
sg75
(lp1812
S':'
asbag68
(g89
g70
NtRp1813
(dp1814
g73
(dp1815
sg82
g1800
sg75
(lp1816
g68
(g69
g70
NtRp1817
(dp1818
g73
(dp1819
g81
I4
ssg82
g1813
sg75
(lp1820
g68
(g77
g70
NtRp1821
(dp1822
g73
(dp1823
g81
I3
ssg82
Nsg75
(lp1824
g68
(g84
g70
NtRp1825
(dp1826
g73
(dp1827
sg82
g1821
sg75
(lp1828
g68
(g89
g70
NtRp1829
(dp1830
g73
(dp1831
sg82
g1825
sg75
(lp1832
g68
(g69
g70
NtRp1833
(dp1834
g73
(dp1835
g81
I3
ssg82
g1829
sg75
(lp1836
S'2'
asbasbasbag68
(g84
g70
NtRp1837
(dp1838
g73
(dp1839
sg82
g1821
sg75
(lp1840
g68
(g89
g70
NtRp1841
(dp1842
g73
(dp1843
sg82
g1837
sg75
(lp1844
g68
(g69
g70
NtRp1845
(dp1846
g73
(dp1847
g81
I3
ssg82
g1841
sg75
(lp1848
S'3'
asbasbasbag68
(g84
g70
NtRp1849
(dp1850
g73
(dp1851
sg82
g1821
sg75
(lp1852
g68
(g89
g70
NtRp1853
(dp1854
g73
(dp1855
sg82
g1849
sg75
(lp1856
g68
(g69
g70
NtRp1857
(dp1858
g73
(dp1859
g81
I3
ssg82
g1853
sg75
(lp1860
S'2'
asbasbasbag68
(g84
g70
NtRp1861
(dp1862
g73
(dp1863
sg82
g1821
sg75
(lp1864
g68
(g89
g70
NtRp1865
(dp1866
g73
(dp1867
sg82
g1861
sg75
(lp1868
g68
(g69
g70
NtRp1869
(dp1870
g73
(dp1871
g81
I3
ssg82
g1865
sg75
(lp1872
S'datetime.datetime(2012, 12, 17, 15, 3, 30)'
p1873
asbasbasbag68
(g84
g70
NtRp1874
(dp1875
g73
(dp1876
sg82
g1821
sg75
(lp1877
g68
(g89
g70
NtRp1878
(dp1879
g73
(dp1880
sg82
g1874
sg75
(lp1881
g68
(g69
g70
NtRp1882
(dp1883
g73
(dp1884
g81
I3
ssg82
g1878
sg75
(lp1885
S'stable'
p1886
asbasbasbasbasbasbasbag68
(g84
g70
NtRp1887
(dp1888
g73
(dp1889
sg82
g1042
sg75
(lp1890
g68
(g89
g70
NtRp1891
(dp1892
g73
(dp1893
g93
g94
ssg82
g1887
sg75
(lp1894
S'wsgi_errors'
p1895
asbag68
(g89
g70
NtRp1896
(dp1897
g73
(dp1898
g100
g101
ssg82
g1887
sg75
(lp1899
S':'
asbag68
(g89
g70
NtRp1900
(dp1901
g73
(dp1902
sg82
g1887
sg75
(lp1903
g68
(g69
g70
NtRp1904
(dp1905
g73
(dp1906
g81
I4
ssg82
g1900
sg75
(lp1907
S"<open file '<stderr>', mode 'w' at 0x7f9af6051270>"
p1908
asbasbasbag68
(g84
g70
NtRp1909
(dp1910
g73
(dp1911
sg82
g1042
sg75
(lp1912
g68
(g89
g70
NtRp1913
(dp1914
g73
(dp1915
g93
g94
ssg82
g1909
sg75
(lp1916
S'wsgi_file_wrapper'
p1917
asbag68
(g89
g70
NtRp1918
(dp1919
g73
(dp1920
g100
g101
ssg82
g1909
sg75
(lp1921
S':'
asbag68
(g89
g70
NtRp1922
(dp1923
g73
(dp1924
sg82
g1909
sg75
(lp1925
g68
(g69
g70
NtRp1926
(dp1927
g73
(dp1928
g81
I4
ssg82
g1922
sg75
(lp1929
S'<class wsgiref.util.FileWrapper at 0x272d460>'
p1930
asbasbasbag68
(g84
g70
NtRp1931
(dp1932
g73
(dp1933
sg82
g1042
sg75
(lp1934
g68
(g89
g70
NtRp1935
(dp1936
g73
(dp1937
g93
g94
ssg82
g1931
sg75
(lp1938
S'wsgi_input'
p1939
asbag68
(g89
g70
NtRp1940
(dp1941
g73
(dp1942
g100
g101
ssg82
g1931
sg75
(lp1943
S':'
asbag68
(g89
g70
NtRp1944
(dp1945
g73
(dp1946
sg82
g1931
sg75
(lp1947
g68
(g69
g70
NtRp1948
(dp1949
g73
(dp1950
g81
I4
ssg82
g1944
sg75
(lp1951
S'<socket._fileobject object at 0x7f9ad82b0350>'
p1952
asbasbasbag68
(g84
g70
NtRp1953
(dp1954
g73
(dp1955
sg82
g1042
sg75
(lp1956
g68
(g89
g70
NtRp1957
(dp1958
g73
(dp1959
g93
g94
ssg82
g1953
sg75
(lp1960
S'wsgi_multiprocess'
p1961
asbag68
(g89
g70
NtRp1962
(dp1963
g73
(dp1964
g100
g101
ssg82
g1953
sg75
(lp1965
S':'
asbag68
(g89
g70
NtRp1966
(dp1967
g73
(dp1968
sg82
g1953
sg75
(lp1969
g68
(g69
g70
NtRp1970
(dp1971
g73
(dp1972
g81
I4
ssg82
g1966
sg75
(lp1973
g111
asbasbasbag68
(g84
g70
NtRp1974
(dp1975
g73
(dp1976
sg82
g1042
sg75
(lp1977
g68
(g89
g70
NtRp1978
(dp1979
g73
(dp1980
g93
g94
ssg82
g1974
sg75
(lp1981
S'wsgi_multithread'
p1982
asbag68
(g89
g70
NtRp1983
(dp1984
g73
(dp1985
g100
g101
ssg82
g1974
sg75
(lp1986
S':'
asbag68
(g89
g70
NtRp1987
(dp1988
g73
(dp1989
sg82
g1974
sg75
(lp1990
g68
(g69
g70
NtRp1991
(dp1992
g73
(dp1993
g81
I4
ssg82
g1987
sg75
(lp1994
S'True'
p1995
asbasbasbag68
(g84
g70
NtRp1996
(dp1997
g73
(dp1998
sg82
g1042
sg75
(lp1999
g68
(g89
g70
NtRp2000
(dp2001
g73
(dp2002
g93
g94
ssg82
g1996
sg75
(lp2003
S'wsgi_run_once'
p2004
asbag68
(g89
g70
NtRp2005
(dp2006
g73
(dp2007
g100
g101
ssg82
g1996
sg75
(lp2008
S':'
asbag68
(g89
g70
NtRp2009
(dp2010
g73
(dp2011
sg82
g1996
sg75
(lp2012
g68
(g69
g70
NtRp2013
(dp2014
g73
(dp2015
g81
I4
ssg82
g2009
sg75
(lp2016
g111
asbasbasbag68
(g84
g70
NtRp2017
(dp2018
g73
(dp2019
sg82
g1042
sg75
(lp2020
g68
(g89
g70
NtRp2021
(dp2022
g73
(dp2023
g93
g94
ssg82
g2017
sg75
(lp2024
S'wsgi_url_scheme'
p2025
asbag68
(g89
g70
NtRp2026
(dp2027
g73
(dp2028
g100
g101
ssg82
g2017
sg75
(lp2029
S':'
asbag68
(g89
g70
NtRp2030
(dp2031
g73
(dp2032
sg82
g2017
sg75
(lp2033
g68
(g69
g70
NtRp2034
(dp2035
g73
(dp2036
g81
I4
ssg82
g2030
sg75
(lp2037
S'http'
p2038
asbasbasbag68
(g84
g70
NtRp2039
(dp2040
g73
(dp2041
sg82
g1042
sg75
(lp2042
g68
(g89
g70
NtRp2043
(dp2044
g73
(dp2045
g93
g94
ssg82
g2039
sg75
(lp2046
S'wsgi_version'
p2047
asbag68
(g89
g70
NtRp2048
(dp2049
g73
(dp2050
g100
g101
ssg82
g2039
sg75
(lp2051
S':'
asbag68
(g89
g70
NtRp2052
(dp2053
g73
(dp2054
sg82
g2039
sg75
(lp2055
g68
(g69
g70
NtRp2056
(dp2057
g73
(dp2058
g81
I4
ssg82
g2052
sg75
(lp2059
g68
(g77
g70
NtRp2060
(dp2061
g73
(dp2062
g81
I3
ssg82
Nsg75
(lp2063
g68
(g84
g70
NtRp2064
(dp2065
g73
(dp2066
sg82
g2060
sg75
(lp2067
g68
(g89
g70
NtRp2068
(dp2069
g73
(dp2070
sg82
g2064
sg75
(lp2071
g68
(g69
g70
NtRp2072
(dp2073
g73
(dp2074
g81
I3
ssg82
g2068
sg75
(lp2075
S'1'
asbasbasbag68
(g84
g70
NtRp2076
(dp2077
g73
(dp2078
sg82
g2060
sg75
(lp2079
g68
(g89
g70
NtRp2080
(dp2081
g73
(dp2082
sg82
g2076
sg75
(lp2083
g68
(g69
g70
NtRp2084
(dp2085
g73
(dp2086
g81
I3
ssg82
g2080
sg75
(lp2087
S'0'
asbasbasbasbasbasbasbasbasbasbasbag68
(g84
g70
NtRp2088
(dp2089
g73
(dp2090
sg82
g78
sg75
(lp2091
g68
(g89
g70
NtRp2092
(dp2093
g73
(dp2094
g93
g94
ssg82
g2088
sg75
(lp2095
S'extension'
p2096
asbag68
(g89
g70
NtRp2097
(dp2098
g73
(dp2099
g100
g101
ssg82
g2088
sg75
(lp2100
S':'
asbag68
(g89
g70
NtRp2101
(dp2102
g73
(dp2103
sg82
g2088
sg75
(lp2104
g68
(g69
g70
NtRp2105
(dp2106
g73
(dp2107
g81
I5
ssg82
g2101
sg75
(lp2108
S'html'
p2109
asbasbasbag68
(g84
g70
NtRp2110
(dp2111
g73
(dp2112
sg82
g78
sg75
(lp2113
g68
(g89
g70
NtRp2114
(dp2115
g73
(dp2116
g93
g94
ssg82
g2110
sg75
(lp2117
S'folder'
p2118
asbag68
(g89
g70
NtRp2119
(dp2120
g73
(dp2121
g100
g101
ssg82
g2110
sg75
(lp2122
S':'
asbag68
(g89
g70
NtRp2123
(dp2124
g73
(dp2125
sg82
g2110
sg75
(lp2126
g68
(g69
g70
NtRp2127
(dp2128
g73
(dp2129
g81
I5
ssg82
g2123
sg75
(lp2130
S'/var/www/hosts3/applications/projeto/'
p2131
asbasbasbag68
(g84
g70
NtRp2132
(dp2133
g73
(dp2134
sg82
g78
sg75
(lp2135
g68
(g89
g70
NtRp2136
(dp2137
g73
(dp2138
g93
g94
ssg82
g2132
sg75
(lp2139
S'function'
p2140
asbag68
(g89
g70
NtRp2141
(dp2142
g73
(dp2143
g100
g101
ssg82
g2132
sg75
(lp2144
S':'
asbag68
(g89
g70
NtRp2145
(dp2146
g73
(dp2147
sg82
g2132
sg75
(lp2148
g68
(g69
g70
NtRp2149
(dp2150
g73
(dp2151
g81
I5
ssg82
g2145
sg75
(lp2152
S'product'
p2153
asbasbasbag68
(g84
g70
NtRp2154
(dp2155
g73
(dp2156
sg82
g78
sg75
(lp2157
g68
(g89
g70
NtRp2158
(dp2159
g73
(dp2160
g93
g94
ssg82
g2154
sg75
(lp2161
S'get_vars'
p2162
asbag68
(g89
g70
NtRp2163
(dp2164
g73
(dp2165
g100
g101
ssg82
g2154
sg75
(lp2166
S':'
asbag68
(g89
g70
NtRp2167
(dp2168
g73
(dp2169
sg82
g2154
sg75
(lp2170
g68
(g69
g70
NtRp2171
(dp2172
g73
(dp2173
g81
I5
ssg82
g2167
sg75
(lp2174
g68
(g77
g70
NtRp2175
(dp2176
g73
(dp2177
g81
I4
ssg82
Nsg75
(lp2178
sbasbasbasbag68
(g84
g70
NtRp2179
(dp2180
g73
(dp2181
sg82
g78
sg75
(lp2182
g68
(g89
g70
NtRp2183
(dp2184
g73
(dp2185
g93
g94
ssg82
g2179
sg75
(lp2186
S'global_settings'
p2187
asbag68
(g89
g70
NtRp2188
(dp2189
g73
(dp2190
g100
g101
ssg82
g2179
sg75
(lp2191
S':'
asbag68
(g89
g70
NtRp2192
(dp2193
g73
(dp2194
sg82
g2179
sg75
(lp2195
g68
(g69
g70
NtRp2196
(dp2197
g73
(dp2198
g81
I5
ssg82
g2192
sg75
(lp2199
g68
(g77
g70
NtRp2200
(dp2201
g73
(dp2202
g81
I4
ssg82
Nsg75
(lp2203
g68
(g84
g70
NtRp2204
(dp2205
g73
(dp2206
sg82
g2200
sg75
(lp2207
g68
(g89
g70
NtRp2208
(dp2209
g73
(dp2210
g93
g94
ssg82
g2204
sg75
(lp2211
g1054
asbag68
(g89
g70
NtRp2212
(dp2213
g73
(dp2214
g100
g101
ssg82
g2204
sg75
(lp2215
S':'
asbag68
(g89
g70
NtRp2216
(dp2217
g73
(dp2218
sg82
g2204
sg75
(lp2219
g68
(g69
g70
NtRp2220
(dp2221
g73
(dp2222
g81
I4
ssg82
g2216
sg75
(lp2223
S"set(['/var/www/hosts3/applications/admin/', '/var/www/hosts3/applications/projeto/'])"
p2224
asbasbasbag68
(g84
g70
NtRp2225
(dp2226
g73
(dp2227
sg82
g2200
sg75
(lp2228
g68
(g89
g70
NtRp2229
(dp2230
g73
(dp2231
g93
g94
ssg82
g2225
sg75
(lp2232
g1076
asbag68
(g89
g70
NtRp2233
(dp2234
g73
(dp2235
g100
g101
ssg82
g2225
sg75
(lp2236
S':'
asbag68
(g89
g70
NtRp2237
(dp2238
g73
(dp2239
sg82
g2225
sg75
(lp2240
g68
(g69
g70
NtRp2241
(dp2242
g73
(dp2243
g81
I4
ssg82
g2237
sg75
(lp2244
g1089
asbasbasbag68
(g84
g70
NtRp2245
(dp2246
g73
(dp2247
sg82
g2200
sg75
(lp2248
g68
(g89
g70
NtRp2249
(dp2250
g73
(dp2251
g93
g94
ssg82
g2245
sg75
(lp2252
g1098
asbag68
(g89
g70
NtRp2253
(dp2254
g73
(dp2255
g100
g101
ssg82
g2245
sg75
(lp2256
S':'
asbag68
(g89
g70
NtRp2257
(dp2258
g73
(dp2259
sg82
g2245
sg75
(lp2260
g68
(g69
g70
NtRp2261
(dp2262
g73
(dp2263
g81
I4
ssg82
g2257
sg75
(lp2264
g68
(g77
g70
NtRp2265
(dp2266
g73
(dp2267
g81
I3
ssg82
Nsg75
(lp2268
sbasbasbasbag68
(g84
g70
NtRp2269
(dp2270
g73
(dp2271
sg82
g2200
sg75
(lp2272
g68
(g89
g70
NtRp2273
(dp2274
g73
(dp2275
g93
g94
ssg82
g2269
sg75
(lp2276
g1123
asbag68
(g89
g70
NtRp2277
(dp2278
g73
(dp2279
g100
g101
ssg82
g2269
sg75
(lp2280
S':'
asbag68
(g89
g70
NtRp2281
(dp2282
g73
(dp2283
sg82
g2269
sg75
(lp2284
g68
(g69
g70
NtRp2285
(dp2286
g73
(dp2287
g81
I4
ssg82
g2281
sg75
(lp2288
S"<Values at 0x27b56c8: {'verbose': False, 'ip': '127.0.0.1', 'with_scheduler': False, 'ips': [], 'shutdown_timeout': 5, 'taskbar': False, 'port': 8000, 'maxthreads': None, 'softcron': False, 'server_name': 'fernando-workstation', 'bpython': False, 'nogui': False, 'pid_filename': 'httpserver.pid', 'extcron': False, 'runcron': False, 'run_system_tests': False, 'test': None, 'folder': '/var/www/hosts3', 'config': '', 'minthreads': None, 'winservice': '', 'shell': None, 'run': '', 'log_filename': 'httpserver.log', 'debuglevel': 30, 'args': [''], 'socket_timeout': 5, 'ssl_ca_certificate': None, 'scheduler': None, 'profiler_filename': None, 'ssl_private_key': '', 'scheduler_groups': None, 'password': '123456', 'request_queue_size': 5, 'ssl_certificate': '', 'cronjob': False, 'numthreads': None, 'quiet': False, 'interfaces': None, 'import_models': False, 'timeout': 10, 'plain': False, 'nobanner': False}>"
p2289
asbasbasbag68
(g84
g70
NtRp2290
(dp2291
g73
(dp2292
sg82
g2200
sg75
(lp2293
g68
(g89
g70
NtRp2294
(dp2295
g73
(dp2296
g93
g94
ssg82
g2290
sg75
(lp2297
g1145
asbag68
(g89
g70
NtRp2298
(dp2299
g73
(dp2300
g100
g101
ssg82
g2290
sg75
(lp2301
S':'
asbag68
(g89
g70
NtRp2302
(dp2303
g73
(dp2304
sg82
g2290
sg75
(lp2305
g68
(g69
g70
NtRp2306
(dp2307
g73
(dp2308
g81
I4
ssg82
g2302
sg75
(lp2309
S'set([])'
p2310
asbasbasbag68
(g84
g70
NtRp2311
(dp2312
g73
(dp2313
sg82
g2200
sg75
(lp2314
g68
(g89
g70
NtRp2315
(dp2316
g73
(dp2317
g93
g94
ssg82
g2311
sg75
(lp2318
g1167
asbag68
(g89
g70
NtRp2319
(dp2320
g73
(dp2321
g100
g101
ssg82
g2311
sg75
(lp2322
S':'
asbag68
(g89
g70
NtRp2323
(dp2324
g73
(dp2325
sg82
g2311
sg75
(lp2326
g68
(g69
g70
NtRp2327
(dp2328
g73
(dp2329
g81
I4
ssg82
g2323
sg75
(lp2330
g111
asbasbasbag68
(g84
g70
NtRp2331
(dp2332
g73
(dp2333
sg82
g2200
sg75
(lp2334
g68
(g89
g70
NtRp2335
(dp2336
g73
(dp2337
g93
g94
ssg82
g2331
sg75
(lp2338
g1188
asbag68
(g89
g70
NtRp2339
(dp2340
g73
(dp2341
g100
g101
ssg82
g2331
sg75
(lp2342
S':'
asbag68
(g89
g70
NtRp2343
(dp2344
g73
(dp2345
sg82
g2331
sg75
(lp2346
g68
(g69
g70
NtRp2347
(dp2348
g73
(dp2349
g81
I4
ssg82
g2343
sg75
(lp2350
g1201
asbasbasbag68
(g84
g70
NtRp2351
(dp2352
g73
(dp2353
sg82
g2200
sg75
(lp2354
g68
(g89
g70
NtRp2355
(dp2356
g73
(dp2357
g93
g94
ssg82
g2351
sg75
(lp2358
g1408
asbag68
(g89
g70
NtRp2359
(dp2360
g73
(dp2361
g100
g101
ssg82
g2351
sg75
(lp2362
S':'
asbag68
(g89
g70
NtRp2363
(dp2364
g73
(dp2365
sg82
g2351
sg75
(lp2366
g68
(g69
g70
NtRp2367
(dp2368
g73
(dp2369
g81
I4
ssg82
g2363
sg75
(lp2370
g111
asbasbasbag68
(g84
g70
NtRp2371
(dp2372
g73
(dp2373
sg82
g2200
sg75
(lp2374
g68
(g89
g70
NtRp2375
(dp2376
g73
(dp2377
g93
g94
ssg82
g2371
sg75
(lp2378
g1429
asbag68
(g89
g70
NtRp2379
(dp2380
g73
(dp2381
g100
g101
ssg82
g2371
sg75
(lp2382
S':'
asbag68
(g89
g70
NtRp2383
(dp2384
g73
(dp2385
sg82
g2371
sg75
(lp2386
g68
(g69
g70
NtRp2387
(dp2388
g73
(dp2389
g81
I4
ssg82
g2383
sg75
(lp2390
g111
asbasbasbag68
(g84
g70
NtRp2391
(dp2392
g73
(dp2393
sg82
g2200
sg75
(lp2394
g68
(g89
g70
NtRp2395
(dp2396
g73
(dp2397
g93
g94
ssg82
g2391
sg75
(lp2398
g1450
asbag68
(g89
g70
NtRp2399
(dp2400
g73
(dp2401
g100
g101
ssg82
g2391
sg75
(lp2402
S':'
asbag68
(g89
g70
NtRp2403
(dp2404
g73
(dp2405
sg82
g2391
sg75
(lp2406
g68
(g69
g70
NtRp2407
(dp2408
g73
(dp2409
g81
I4
ssg82
g2403
sg75
(lp2410
g68
(g77
g70
NtRp2411
(dp2412
g73
(dp2413
g81
I3
ssg82
Nsg75
(lp2414
g68
(g84
g70
NtRp2415
(dp2416
g73
(dp2417
sg82
g2411
sg75
(lp2418
g68
(g89
g70
NtRp2419
(dp2420
g73
(dp2421
sg82
g2415
sg75
(lp2422
g68
(g69
g70
NtRp2423
(dp2424
g73
(dp2425
g81
I3
ssg82
g2419
sg75
(lp2426
g1479
asbasbasbag68
(g84
g70
NtRp2427
(dp2428
g73
(dp2429
sg82
g2411
sg75
(lp2430
g68
(g89
g70
NtRp2431
(dp2432
g73
(dp2433
sg82
g2427
sg75
(lp2434
g68
(g69
g70
NtRp2435
(dp2436
g73
(dp2437
g81
I3
ssg82
g2431
sg75
(lp2438
g1492
asbasbasbag68
(g84
g70
NtRp2439
(dp2440
g73
(dp2441
sg82
g2411
sg75
(lp2442
g68
(g89
g70
NtRp2443
(dp2444
g73
(dp2445
sg82
g2439
sg75
(lp2446
g68
(g69
g70
NtRp2447
(dp2448
g73
(dp2449
g81
I3
ssg82
g2443
sg75
(lp2450
g1505
asbasbasbag68
(g84
g70
NtRp2451
(dp2452
g73
(dp2453
sg82
g2411
sg75
(lp2454
g68
(g89
g70
NtRp2455
(dp2456
g73
(dp2457
sg82
g2451
sg75
(lp2458
g68
(g69
g70
NtRp2459
(dp2460
g73
(dp2461
g81
I3
ssg82
g2455
sg75
(lp2462
g1518
asbasbasbasbasbasbasbag68
(g84
g70
NtRp2463
(dp2464
g73
(dp2465
sg82
g2200
sg75
(lp2466
g68
(g89
g70
NtRp2467
(dp2468
g73
(dp2469
g93
g94
ssg82
g2463
sg75
(lp2470
g1808
asbag68
(g89
g70
NtRp2471
(dp2472
g73
(dp2473
g100
g101
ssg82
g2463
sg75
(lp2474
S':'
asbag68
(g89
g70
NtRp2475
(dp2476
g73
(dp2477
sg82
g2463
sg75
(lp2478
g68
(g69
g70
NtRp2479
(dp2480
g73
(dp2481
g81
I4
ssg82
g2475
sg75
(lp2482
g68
(g77
g70
NtRp2483
(dp2484
g73
(dp2485
g81
I3
ssg82
Nsg75
(lp2486
g68
(g84
g70
NtRp2487
(dp2488
g73
(dp2489
sg82
g2483
sg75
(lp2490
g68
(g89
g70
NtRp2491
(dp2492
g73
(dp2493
sg82
g2487
sg75
(lp2494
g68
(g69
g70
NtRp2495
(dp2496
g73
(dp2497
g81
I3
ssg82
g2491
sg75
(lp2498
S'2'
asbasbasbag68
(g84
g70
NtRp2499
(dp2500
g73
(dp2501
sg82
g2483
sg75
(lp2502
g68
(g89
g70
NtRp2503
(dp2504
g73
(dp2505
sg82
g2499
sg75
(lp2506
g68
(g69
g70
NtRp2507
(dp2508
g73
(dp2509
g81
I3
ssg82
g2503
sg75
(lp2510
S'3'
asbasbasbag68
(g84
g70
NtRp2511
(dp2512
g73
(dp2513
sg82
g2483
sg75
(lp2514
g68
(g89
g70
NtRp2515
(dp2516
g73
(dp2517
sg82
g2511
sg75
(lp2518
g68
(g69
g70
NtRp2519
(dp2520
g73
(dp2521
g81
I3
ssg82
g2515
sg75
(lp2522
S'2'
asbasbasbag68
(g84
g70
NtRp2523
(dp2524
g73
(dp2525
sg82
g2483
sg75
(lp2526
g68
(g89
g70
NtRp2527
(dp2528
g73
(dp2529
sg82
g2523
sg75
(lp2530
g68
(g69
g70
NtRp2531
(dp2532
g73
(dp2533
g81
I3
ssg82
g2527
sg75
(lp2534
S'datetime.datetime(2012, 12, 17, 15, 3, 30)'
p2535
asbasbasbag68
(g84
g70
NtRp2536
(dp2537
g73
(dp2538
sg82
g2483
sg75
(lp2539
g68
(g89
g70
NtRp2540
(dp2541
g73
(dp2542
sg82
g2536
sg75
(lp2543
g68
(g69
g70
NtRp2544
(dp2545
g73
(dp2546
g81
I3
ssg82
g2540
sg75
(lp2547
g1886
asbasbasbasbasbasbasbasbasbasbasbag68
(g84
g70
NtRp2548
(dp2549
g73
(dp2550
sg82
g78
sg75
(lp2551
g68
(g89
g70
NtRp2552
(dp2553
g73
(dp2554
g93
g94
ssg82
g2548
sg75
(lp2555
S'is_https'
p2556
asbag68
(g89
g70
NtRp2557
(dp2558
g73
(dp2559
g100
g101
ssg82
g2548
sg75
(lp2560
S':'
asbag68
(g89
g70
NtRp2561
(dp2562
g73
(dp2563
sg82
g2548
sg75
(lp2564
g68
(g69
g70
NtRp2565
(dp2566
g73
(dp2567
g81
I5
ssg82
g2561
sg75
(lp2568
g111
asbasbasbag68
(g84
g70
NtRp2569
(dp2570
g73
(dp2571
sg82
g78
sg75
(lp2572
g68
(g89
g70
NtRp2573
(dp2574
g73
(dp2575
g93
g94
ssg82
g2569
sg75
(lp2576
S'is_local'
p2577
asbag68
(g89
g70
NtRp2578
(dp2579
g73
(dp2580
g100
g101
ssg82
g2569
sg75
(lp2581
S':'
asbag68
(g89
g70
NtRp2582
(dp2583
g73
(dp2584
sg82
g2569
sg75
(lp2585
g68
(g69
g70
NtRp2586
(dp2587
g73
(dp2588
g81
I5
ssg82
g2582
sg75
(lp2589
g1995
asbasbasbag68
(g84
g70
NtRp2590
(dp2591
g73
(dp2592
sg82
g78
sg75
(lp2593
g68
(g89
g70
NtRp2594
(dp2595
g73
(dp2596
g93
g94
ssg82
g2590
sg75
(lp2597
S'is_restful'
p2598
asbag68
(g89
g70
NtRp2599
(dp2600
g73
(dp2601
g100
g101
ssg82
g2590
sg75
(lp2602
S':'
asbag68
(g89
g70
NtRp2603
(dp2604
g73
(dp2605
sg82
g2590
sg75
(lp2606
g68
(g69
g70
NtRp2607
(dp2608
g73
(dp2609
g81
I5
ssg82
g2603
sg75
(lp2610
g111
asbasbasbag68
(g84
g70
NtRp2611
(dp2612
g73
(dp2613
sg82
g78
sg75
(lp2614
g68
(g89
g70
NtRp2615
(dp2616
g73
(dp2617
g93
g94
ssg82
g2611
sg75
(lp2618
S'now'
p2619
asbag68
(g89
g70
NtRp2620
(dp2621
g73
(dp2622
g100
g101
ssg82
g2611
sg75
(lp2623
S':'
asbag68
(g89
g70
NtRp2624
(dp2625
g73
(dp2626
sg82
g2611
sg75
(lp2627
g68
(g69
g70
NtRp2628
(dp2629
g73
(dp2630
g81
I5
ssg82
g2624
sg75
(lp2631
S'datetime.datetime(2013, 3, 7, 16, 6, 45, 303859)'
p2632
asbasbasbag68
(g84
g70
NtRp2633
(dp2634
g73
(dp2635
sg82
g78
sg75
(lp2636
g68
(g89
g70
NtRp2637
(dp2638
g73
(dp2639
g93
g94
ssg82
g2633
sg75
(lp2640
S'post_vars'
p2641
asbag68
(g89
g70
NtRp2642
(dp2643
g73
(dp2644
g100
g101
ssg82
g2633
sg75
(lp2645
S':'
asbag68
(g89
g70
NtRp2646
(dp2647
g73
(dp2648
sg82
g2633
sg75
(lp2649
g68
(g69
g70
NtRp2650
(dp2651
g73
(dp2652
g81
I5
ssg82
g2646
sg75
(lp2653
g68
(g77
g70
NtRp2654
(dp2655
g73
(dp2656
g81
I4
ssg82
Nsg75
(lp2657
sbasbasbasbag68
(g84
g70
NtRp2658
(dp2659
g73
(dp2660
sg82
g78
sg75
(lp2661
g68
(g89
g70
NtRp2662
(dp2663
g73
(dp2664
g93
g94
ssg82
g2658
sg75
(lp2665
S'url'
p2666
asbag68
(g89
g70
NtRp2667
(dp2668
g73
(dp2669
g100
g101
ssg82
g2658
sg75
(lp2670
S':'
asbag68
(g89
g70
NtRp2671
(dp2672
g73
(dp2673
sg82
g2658
sg75
(lp2674
g68
(g69
g70
NtRp2675
(dp2676
g73
(dp2677
g81
I5
ssg82
g2671
sg75
(lp2678
g1540
asbasbasbag68
(g84
g70
NtRp2679
(dp2680
g73
(dp2681
sg82
g78
sg75
(lp2682
g68
(g89
g70
NtRp2683
(dp2684
g73
(dp2685
g93
g94
ssg82
g2679
sg75
(lp2686
S'utcnow'
p2687
asbag68
(g89
g70
NtRp2688
(dp2689
g73
(dp2690
g100
g101
ssg82
g2679
sg75
(lp2691
S':'
asbag68
(g89
g70
NtRp2692
(dp2693
g73
(dp2694
sg82
g2679
sg75
(lp2695
g68
(g69
g70
NtRp2696
(dp2697
g73
(dp2698
g81
I5
ssg82
g2692
sg75
(lp2699
S'datetime.datetime(2013, 3, 7, 19, 6, 45, 303911)'
p2700
asbasbasbag68
(g84
g70
NtRp2701
(dp2702
g73
(dp2703
sg82
g78
sg75
(lp2704
g68
(g89
g70
NtRp2705
(dp2706
g73
(dp2707
g93
g94
ssg82
g2701
sg75
(lp2708
S'uuid'
p2709
asbag68
(g89
g70
NtRp2710
(dp2711
g73
(dp2712
g100
g101
ssg82
g2701
sg75
(lp2713
S':'
asbag68
(g89
g70
NtRp2714
(dp2715
g73
(dp2716
sg82
g2701
sg75
(lp2717
g68
(g69
g70
NtRp2718
(dp2719
g73
(dp2720
g81
I5
ssg82
g2714
sg75
(lp2721
S'projeto/127.0.0.1.2013-03-07.16-06-45.629f1496-5c98-4787-99b3-fb501590aa95'
p2722
asbasbasbag68
(g84
g70
NtRp2723
(dp2724
g73
(dp2725
sg82
g78
sg75
(lp2726
g68
(g89
g70
NtRp2727
(dp2728
g73
(dp2729
g93
g94
ssg82
g2723
sg75
(lp2730
S'vars'
p2731
asbag68
(g89
g70
NtRp2732
(dp2733
g73
(dp2734
g100
g101
ssg82
g2723
sg75
(lp2735
S':'
asbag68
(g89
g70
NtRp2736
(dp2737
g73
(dp2738
sg82
g2723
sg75
(lp2739
g68
(g69
g70
NtRp2740
(dp2741
g73
(dp2742
g81
I5
ssg82
g2736
sg75
(lp2743
g68
(g77
g70
NtRp2744
(dp2745
g73
(dp2746
g81
I4
ssg82
Nsg75
(lp2747
sbasbasbasbag68
(g84
g70
NtRp2748
(dp2749
g73
(dp2750
sg82
g78
sg75
(lp2751
g68
(g89
g70
NtRp2752
(dp2753
g73
(dp2754
g93
g94
ssg82
g2748
sg75
(lp2755
S'wsgi'
p2756
asbag68
(g89
g70
NtRp2757
(dp2758
g73
(dp2759
g100
g101
ssg82
g2748
sg75
(lp2760
S':'
asbag68
(g89
g70
NtRp2761
(dp2762
g73
(dp2763
sg82
g2748
sg75
(lp2764
g68
(g69
g70
NtRp2765
(dp2766
g73
(dp2767
g81
I5
ssg82
g2761
sg75
(lp2768
g68
(g77
g70
NtRp2769
(dp2770
g73
(dp2771
g81
I4
ssg82
Nsg75
(lp2772
g68
(g84
g70
NtRp2773
(dp2774
g73
(dp2775
sg82
g2769
sg75
(lp2776
g68
(g89
g70
NtRp2777
(dp2778
g73
(dp2779
g93
g94
ssg82
g2773
sg75
(lp2780
S'environ'
p2781
asbag68
(g89
g70
NtRp2782
(dp2783
g73
(dp2784
g100
g101
ssg82
g2773
sg75
(lp2785
S':'
asbag68
(g89
g70
NtRp2786
(dp2787
g73
(dp2788
sg82
g2773
sg75
(lp2789
g68
(g69
g70
NtRp2790
(dp2791
g73
(dp2792
g81
I4
ssg82
g2786
sg75
(lp2793
g68
(g77
g70
NtRp2794
(dp2795
g73
(dp2796
g81
I3
ssg82
Nsg75
(lp2797
g68
(g84
g70
NtRp2798
(dp2799
g73
(dp2800
sg82
g2794
sg75
(lp2801
g68
(g89
g70
NtRp2802
(dp2803
g73
(dp2804
g93
g94
ssg82
g2798
sg75
(lp2805
S'HTTP_ACCEPT'
p2806
asbag68
(g89
g70
NtRp2807
(dp2808
g73
(dp2809
g100
g101
ssg82
g2798
sg75
(lp2810
S':'
asbag68
(g89
g70
NtRp2811
(dp2812
g73
(dp2813
sg82
g2798
sg75
(lp2814
g68
(g69
g70
NtRp2815
(dp2816
g73
(dp2817
g81
I3
ssg82
g2811
sg75
(lp2818
g1223
asbasbasbag68
(g84
g70
NtRp2819
(dp2820
g73
(dp2821
sg82
g2794
sg75
(lp2822
g68
(g89
g70
NtRp2823
(dp2824
g73
(dp2825
g93
g94
ssg82
g2819
sg75
(lp2826
S'HTTP_ACCEPT_CHARSET'
p2827
asbag68
(g89
g70
NtRp2828
(dp2829
g73
(dp2830
g100
g101
ssg82
g2819
sg75
(lp2831
S':'
asbag68
(g89
g70
NtRp2832
(dp2833
g73
(dp2834
sg82
g2819
sg75
(lp2835
g68
(g69
g70
NtRp2836
(dp2837
g73
(dp2838
g81
I3
ssg82
g2832
sg75
(lp2839
g1245
asbasbasbag68
(g84
g70
NtRp2840
(dp2841
g73
(dp2842
sg82
g2794
sg75
(lp2843
g68
(g89
g70
NtRp2844
(dp2845
g73
(dp2846
g93
g94
ssg82
g2840
sg75
(lp2847
S'HTTP_ACCEPT_ENCODING'
p2848
asbag68
(g89
g70
NtRp2849
(dp2850
g73
(dp2851
g100
g101
ssg82
g2840
sg75
(lp2852
S':'
asbag68
(g89
g70
NtRp2853
(dp2854
g73
(dp2855
sg82
g2840
sg75
(lp2856
g68
(g69
g70
NtRp2857
(dp2858
g73
(dp2859
g81
I3
ssg82
g2853
sg75
(lp2860
g1267
asbasbasbag68
(g84
g70
NtRp2861
(dp2862
g73
(dp2863
sg82
g2794
sg75
(lp2864
g68
(g89
g70
NtRp2865
(dp2866
g73
(dp2867
g93
g94
ssg82
g2861
sg75
(lp2868
S'HTTP_ACCEPT_LANGUAGE'
p2869
asbag68
(g89
g70
NtRp2870
(dp2871
g73
(dp2872
g100
g101
ssg82
g2861
sg75
(lp2873
S':'
asbag68
(g89
g70
NtRp2874
(dp2875
g73
(dp2876
sg82
g2861
sg75
(lp2877
g68
(g69
g70
NtRp2878
(dp2879
g73
(dp2880
g81
I3
ssg82
g2874
sg75
(lp2881
g1289
asbasbasbag68
(g84
g70
NtRp2882
(dp2883
g73
(dp2884
sg82
g2794
sg75
(lp2885
g68
(g89
g70
NtRp2886
(dp2887
g73
(dp2888
g93
g94
ssg82
g2882
sg75
(lp2889
S'HTTP_CACHE_CONTROL'
p2890
asbag68
(g89
g70
NtRp2891
(dp2892
g73
(dp2893
g100
g101
ssg82
g2882
sg75
(lp2894
S':'
asbag68
(g89
g70
NtRp2895
(dp2896
g73
(dp2897
sg82
g2882
sg75
(lp2898
g68
(g69
g70
NtRp2899
(dp2900
g73
(dp2901
g81
I3
ssg82
g2895
sg75
(lp2902
g1311
asbasbasbag68
(g84
g70
NtRp2903
(dp2904
g73
(dp2905
sg82
g2794
sg75
(lp2906
g68
(g89
g70
NtRp2907
(dp2908
g73
(dp2909
g93
g94
ssg82
g2903
sg75
(lp2910
S'HTTP_CONNECTION'
p2911
asbag68
(g89
g70
NtRp2912
(dp2913
g73
(dp2914
g100
g101
ssg82
g2903
sg75
(lp2915
S':'
asbag68
(g89
g70
NtRp2916
(dp2917
g73
(dp2918
sg82
g2903
sg75
(lp2919
g68
(g69
g70
NtRp2920
(dp2921
g73
(dp2922
g81
I3
ssg82
g2916
sg75
(lp2923
g1333
asbasbasbag68
(g84
g70
NtRp2924
(dp2925
g73
(dp2926
sg82
g2794
sg75
(lp2927
g68
(g89
g70
NtRp2928
(dp2929
g73
(dp2930
g93
g94
ssg82
g2924
sg75
(lp2931
S'HTTP_COOKIE'
p2932
asbag68
(g89
g70
NtRp2933
(dp2934
g73
(dp2935
g100
g101
ssg82
g2924
sg75
(lp2936
S':'
asbag68
(g89
g70
NtRp2937
(dp2938
g73
(dp2939
sg82
g2924
sg75
(lp2940
g68
(g69
g70
NtRp2941
(dp2942
g73
(dp2943
g81
I3
ssg82
g2937
sg75
(lp2944
g1355
asbasbasbag68
(g84
g70
NtRp2945
(dp2946
g73
(dp2947
sg82
g2794
sg75
(lp2948
g68
(g89
g70
NtRp2949
(dp2950
g73
(dp2951
g93
g94
ssg82
g2945
sg75
(lp2952
S'HTTP_HOST'
p2953
asbag68
(g89
g70
NtRp2954
(dp2955
g73
(dp2956
g100
g101
ssg82
g2945
sg75
(lp2957
S':'
asbag68
(g89
g70
NtRp2958
(dp2959
g73
(dp2960
sg82
g2945
sg75
(lp2961
g68
(g69
g70
NtRp2962
(dp2963
g73
(dp2964
g81
I3
ssg82
g2958
sg75
(lp2965
g1377
asbasbasbag68
(g84
g70
NtRp2966
(dp2967
g73
(dp2968
sg82
g2794
sg75
(lp2969
g68
(g89
g70
NtRp2970
(dp2971
g73
(dp2972
g93
g94
ssg82
g2966
sg75
(lp2973
S'HTTP_USER_AGENT'
p2974
asbag68
(g89
g70
NtRp2975
(dp2976
g73
(dp2977
g100
g101
ssg82
g2966
sg75
(lp2978
S':'
asbag68
(g89
g70
NtRp2979
(dp2980
g73
(dp2981
sg82
g2966
sg75
(lp2982
g68
(g69
g70
NtRp2983
(dp2984
g73
(dp2985
g81
I3
ssg82
g2979
sg75
(lp2986
g1399
asbasbasbag68
(g84
g70
NtRp2987
(dp2988
g73
(dp2989
sg82
g2794
sg75
(lp2990
g68
(g89
g70
NtRp2991
(dp2992
g73
(dp2993
g93
g94
ssg82
g2987
sg75
(lp2994
S'PATH_INFO'
p2995
asbag68
(g89
g70
NtRp2996
(dp2997
g73
(dp2998
g100
g101
ssg82
g2987
sg75
(lp2999
S':'
asbag68
(g89
g70
NtRp3000
(dp3001
g73
(dp3002
sg82
g2987
sg75
(lp3003
g68
(g69
g70
NtRp3004
(dp3005
g73
(dp3006
g81
I3
ssg82
g3000
sg75
(lp3007
g1540
asbasbasbag68
(g84
g70
NtRp3008
(dp3009
g73
(dp3010
sg82
g2794
sg75
(lp3011
g68
(g89
g70
NtRp3012
(dp3013
g73
(dp3014
g93
g94
ssg82
g3008
sg75
(lp3015
S'QUERY_STRING'
p3016
asbag68
(g89
g70
NtRp3017
(dp3018
g73
(dp3019
g100
g101
ssg82
g3008
sg75
(lp3020
S':'
asbag68
(g89
g70
NtRp3021
(dp3022
g73
(dp3023
sg82
g3008
sg75
(lp3024
g68
(g69
g70
NtRp3025
(dp3026
g73
(dp3027
g81
I3
ssg82
g3021
sg75
(lp3028
S''
asbasbasbag68
(g84
g70
NtRp3029
(dp3030
g73
(dp3031
sg82
g2794
sg75
(lp3032
g68
(g89
g70
NtRp3033
(dp3034
g73
(dp3035
g93
g94
ssg82
g3029
sg75
(lp3036
S'REMOTE_ADDR'
p3037
asbag68
(g89
g70
NtRp3038
(dp3039
g73
(dp3040
g100
g101
ssg82
g3029
sg75
(lp3041
S':'
asbag68
(g89
g70
NtRp3042
(dp3043
g73
(dp3044
sg82
g3029
sg75
(lp3045
g68
(g69
g70
NtRp3046
(dp3047
g73
(dp3048
g81
I3
ssg82
g3042
sg75
(lp3049
g223
asbasbasbag68
(g84
g70
NtRp3050
(dp3051
g73
(dp3052
sg82
g2794
sg75
(lp3053
g68
(g89
g70
NtRp3054
(dp3055
g73
(dp3056
g93
g94
ssg82
g3050
sg75
(lp3057
S'REMOTE_PORT'
p3058
asbag68
(g89
g70
NtRp3059
(dp3060
g73
(dp3061
g100
g101
ssg82
g3050
sg75
(lp3062
S':'
asbag68
(g89
g70
NtRp3063
(dp3064
g73
(dp3065
sg82
g3050
sg75
(lp3066
g68
(g69
g70
NtRp3067
(dp3068
g73
(dp3069
g81
I3
ssg82
g3063
sg75
(lp3070
g1604
asbasbasbag68
(g84
g70
NtRp3071
(dp3072
g73
(dp3073
sg82
g2794
sg75
(lp3074
g68
(g89
g70
NtRp3075
(dp3076
g73
(dp3077
g93
g94
ssg82
g3071
sg75
(lp3078
S'REQUEST_METHOD'
p3079
asbag68
(g89
g70
NtRp3080
(dp3081
g73
(dp3082
g100
g101
ssg82
g3071
sg75
(lp3083
S':'
asbag68
(g89
g70
NtRp3084
(dp3085
g73
(dp3086
sg82
g3071
sg75
(lp3087
g68
(g69
g70
NtRp3088
(dp3089
g73
(dp3090
g81
I3
ssg82
g3084
sg75
(lp3091
g1626
asbasbasbag68
(g84
g70
NtRp3092
(dp3093
g73
(dp3094
sg82
g2794
sg75
(lp3095
g68
(g89
g70
NtRp3096
(dp3097
g73
(dp3098
g93
g94
ssg82
g3092
sg75
(lp3099
S'REQUEST_URI'
p3100
asbag68
(g89
g70
NtRp3101
(dp3102
g73
(dp3103
g100
g101
ssg82
g3092
sg75
(lp3104
S':'
asbag68
(g89
g70
NtRp3105
(dp3106
g73
(dp3107
sg82
g3092
sg75
(lp3108
g68
(g69
g70
NtRp3109
(dp3110
g73
(dp3111
g81
I3
ssg82
g3105
sg75
(lp3112
g1648
asbasbasbag68
(g84
g70
NtRp3113
(dp3114
g73
(dp3115
sg82
g2794
sg75
(lp3116
g68
(g89
g70
NtRp3117
(dp3118
g73
(dp3119
g93
g94
ssg82
g3113
sg75
(lp3120
S'SCRIPT_NAME'
p3121
asbag68
(g89
g70
NtRp3122
(dp3123
g73
(dp3124
g100
g101
ssg82
g3113
sg75
(lp3125
S':'
asbag68
(g89
g70
NtRp3126
(dp3127
g73
(dp3128
sg82
g3113
sg75
(lp3129
g68
(g69
g70
NtRp3130
(dp3131
g73
(dp3132
g81
I3
ssg82
g3126
sg75
(lp3133
S''
asbasbasbag68
(g84
g70
NtRp3134
(dp3135
g73
(dp3136
sg82
g2794
sg75
(lp3137
g68
(g89
g70
NtRp3138
(dp3139
g73
(dp3140
g93
g94
ssg82
g3134
sg75
(lp3141
S'SERVER_NAME'
p3142
asbag68
(g89
g70
NtRp3143
(dp3144
g73
(dp3145
g100
g101
ssg82
g3134
sg75
(lp3146
S':'
asbag68
(g89
g70
NtRp3147
(dp3148
g73
(dp3149
sg82
g3134
sg75
(lp3150
g68
(g69
g70
NtRp3151
(dp3152
g73
(dp3153
g81
I3
ssg82
g3147
sg75
(lp3154
g1691
asbasbasbag68
(g84
g70
NtRp3155
(dp3156
g73
(dp3157
sg82
g2794
sg75
(lp3158
g68
(g89
g70
NtRp3159
(dp3160
g73
(dp3161
g93
g94
ssg82
g3155
sg75
(lp3162
S'SERVER_PORT'
p3163
asbag68
(g89
g70
NtRp3164
(dp3165
g73
(dp3166
g100
g101
ssg82
g3155
sg75
(lp3167
S':'
asbag68
(g89
g70
NtRp3168
(dp3169
g73
(dp3170
sg82
g3155
sg75
(lp3171
g68
(g69
g70
NtRp3172
(dp3173
g73
(dp3174
g81
I3
ssg82
g3168
sg75
(lp3175
g1713
asbasbasbag68
(g84
g70
NtRp3176
(dp3177
g73
(dp3178
sg82
g2794
sg75
(lp3179
g68
(g89
g70
NtRp3180
(dp3181
g73
(dp3182
g93
g94
ssg82
g3176
sg75
(lp3183
S'SERVER_PROTOCOL'
p3184
asbag68
(g89
g70
NtRp3185
(dp3186
g73
(dp3187
g100
g101
ssg82
g3176
sg75
(lp3188
S':'
asbag68
(g89
g70
NtRp3189
(dp3190
g73
(dp3191
sg82
g3176
sg75
(lp3192
g68
(g69
g70
NtRp3193
(dp3194
g73
(dp3195
g81
I3
ssg82
g3189
sg75
(lp3196
g1735
asbasbasbag68
(g84
g70
NtRp3197
(dp3198
g73
(dp3199
sg82
g2794
sg75
(lp3200
g68
(g89
g70
NtRp3201
(dp3202
g73
(dp3203
g93
g94
ssg82
g3197
sg75
(lp3204
S'SERVER_SOFTWARE'
p3205
asbag68
(g89
g70
NtRp3206
(dp3207
g73
(dp3208
g100
g101
ssg82
g3197
sg75
(lp3209
S':'
asbag68
(g89
g70
NtRp3210
(dp3211
g73
(dp3212
sg82
g3197
sg75
(lp3213
g68
(g69
g70
NtRp3214
(dp3215
g73
(dp3216
g81
I3
ssg82
g3210
sg75
(lp3217
g1757
asbasbasbag68
(g84
g70
NtRp3218
(dp3219
g73
(dp3220
sg82
g2794
sg75
(lp3221
g68
(g89
g70
NtRp3222
(dp3223
g73
(dp3224
g93
g94
ssg82
g3218
sg75
(lp3225
S'WEB2PY_ORIGINAL_URI'
p3226
asbag68
(g89
g70
NtRp3227
(dp3228
g73
(dp3229
g100
g101
ssg82
g3218
sg75
(lp3230
S':'
asbag68
(g89
g70
NtRp3231
(dp3232
g73
(dp3233
sg82
g3218
sg75
(lp3234
g68
(g69
g70
NtRp3235
(dp3236
g73
(dp3237
g81
I3
ssg82
g3231
sg75
(lp3238
g1540
asbasbasbag68
(g84
g70
NtRp3239
(dp3240
g73
(dp3241
sg82
g2794
sg75
(lp3242
g68
(g89
g70
NtRp3243
(dp3244
g73
(dp3245
g93
g94
ssg82
g3239
sg75
(lp3246
S'wsgi.errors'
p3247
asbag68
(g89
g70
NtRp3248
(dp3249
g73
(dp3250
g100
g101
ssg82
g3239
sg75
(lp3251
S':'
asbag68
(g89
g70
NtRp3252
(dp3253
g73
(dp3254
sg82
g3239
sg75
(lp3255
g68
(g69
g70
NtRp3256
(dp3257
g73
(dp3258
g81
I3
ssg82
g3252
sg75
(lp3259
S"<open file '<stderr>', mode 'w' at 0x7f9af6051270>"
p3260
asbasbasbag68
(g84
g70
NtRp3261
(dp3262
g73
(dp3263
sg82
g2794
sg75
(lp3264
g68
(g89
g70
NtRp3265
(dp3266
g73
(dp3267
g93
g94
ssg82
g3261
sg75
(lp3268
S'wsgi.file_wrapper'
p3269
asbag68
(g89
g70
NtRp3270
(dp3271
g73
(dp3272
g100
g101
ssg82
g3261
sg75
(lp3273
S':'
asbag68
(g89
g70
NtRp3274
(dp3275
g73
(dp3276
sg82
g3261
sg75
(lp3277
g68
(g69
g70
NtRp3278
(dp3279
g73
(dp3280
g81
I3
ssg82
g3274
sg75
(lp3281
S'<class wsgiref.util.FileWrapper at 0x272d460>'
p3282
asbasbasbag68
(g84
g70
NtRp3283
(dp3284
g73
(dp3285
sg82
g2794
sg75
(lp3286
g68
(g89
g70
NtRp3287
(dp3288
g73
(dp3289
g93
g94
ssg82
g3283
sg75
(lp3290
S'wsgi.input'
p3291
asbag68
(g89
g70
NtRp3292
(dp3293
g73
(dp3294
g100
g101
ssg82
g3283
sg75
(lp3295
S':'
asbag68
(g89
g70
NtRp3296
(dp3297
g73
(dp3298
sg82
g3283
sg75
(lp3299
g68
(g69
g70
NtRp3300
(dp3301
g73
(dp3302
g81
I3
ssg82
g3296
sg75
(lp3303
S'<cStringIO.StringO object at 0x7f9adc6fb6c0>'
p3304
asbasbasbag68
(g84
g70
NtRp3305
(dp3306
g73
(dp3307
sg82
g2794
sg75
(lp3308
g68
(g89
g70
NtRp3309
(dp3310
g73
(dp3311
g93
g94
ssg82
g3305
sg75
(lp3312
S'wsgi.multiprocess'
p3313
asbag68
(g89
g70
NtRp3314
(dp3315
g73
(dp3316
g100
g101
ssg82
g3305
sg75
(lp3317
S':'
asbag68
(g89
g70
NtRp3318
(dp3319
g73
(dp3320
sg82
g3305
sg75
(lp3321
g68
(g69
g70
NtRp3322
(dp3323
g73
(dp3324
g81
I3
ssg82
g3318
sg75
(lp3325
g111
asbasbasbag68
(g84
g70
NtRp3326
(dp3327
g73
(dp3328
sg82
g2794
sg75
(lp3329
g68
(g89
g70
NtRp3330
(dp3331
g73
(dp3332
g93
g94
ssg82
g3326
sg75
(lp3333
S'wsgi.multithread'
p3334
asbag68
(g89
g70
NtRp3335
(dp3336
g73
(dp3337
g100
g101
ssg82
g3326
sg75
(lp3338
S':'
asbag68
(g89
g70
NtRp3339
(dp3340
g73
(dp3341
sg82
g3326
sg75
(lp3342
g68
(g69
g70
NtRp3343
(dp3344
g73
(dp3345
g81
I3
ssg82
g3339
sg75
(lp3346
g1995
asbasbasbag68
(g84
g70
NtRp3347
(dp3348
g73
(dp3349
sg82
g2794
sg75
(lp3350
g68
(g89
g70
NtRp3351
(dp3352
g73
(dp3353
g93
g94
ssg82
g3347
sg75
(lp3354
S'wsgi.run_once'
p3355
asbag68
(g89
g70
NtRp3356
(dp3357
g73
(dp3358
g100
g101
ssg82
g3347
sg75
(lp3359
S':'
asbag68
(g89
g70
NtRp3360
(dp3361
g73
(dp3362
sg82
g3347
sg75
(lp3363
g68
(g69
g70
NtRp3364
(dp3365
g73
(dp3366
g81
I3
ssg82
g3360
sg75
(lp3367
g111
asbasbasbag68
(g84
g70
NtRp3368
(dp3369
g73
(dp3370
sg82
g2794
sg75
(lp3371
g68
(g89
g70
NtRp3372
(dp3373
g73
(dp3374
g93
g94
ssg82
g3368
sg75
(lp3375
S'wsgi.url_scheme'
p3376
asbag68
(g89
g70
NtRp3377
(dp3378
g73
(dp3379
g100
g101
ssg82
g3368
sg75
(lp3380
S':'
asbag68
(g89
g70
NtRp3381
(dp3382
g73
(dp3383
sg82
g3368
sg75
(lp3384
g68
(g69
g70
NtRp3385
(dp3386
g73
(dp3387
g81
I3
ssg82
g3381
sg75
(lp3388
g2038
asbasbasbag68
(g84
g70
NtRp3389
(dp3390
g73
(dp3391
sg82
g2794
sg75
(lp3392
g68
(g89
g70
NtRp3393
(dp3394
g73
(dp3395
g93
g94
ssg82
g3389
sg75
(lp3396
S'wsgi.version'
p3397
asbag68
(g89
g70
NtRp3398
(dp3399
g73
(dp3400
g100
g101
ssg82
g3389
sg75
(lp3401
S':'
asbag68
(g89
g70
NtRp3402
(dp3403
g73
(dp3404
sg82
g3389
sg75
(lp3405
g68
(g69
g70
NtRp3406
(dp3407
g73
(dp3408
g81
I3
ssg82
g3402
sg75
(lp3409
S'1'
asbasbasbasbasbasbasbasbasbasbasbasbasbsS'frames'
p3410
(lp3411
(dp3412
S'file'
p3413
S'/var/www/hosts3/gluon/restricted.py'
p3414
sS'dump'
p3415
(dp3416
S'code'
p3417
S"'# coding: utf-8\\n\\n@auth.requires_login()\\ndef show...m)\\n\\n\\n \\n\\nresponse._vars=response._caller(product)\\n'"
p3418
sS'layer'
p3419
S"'/var/www/hosts3/applications/projeto/controllers/initial.py'"
p3420
sS'global compile2'
p3421
S'<function compile2>'
p3422
sS'ccode'
p3423
S'undefined'
p3424
ssS'lnum'
p3425
I211
sS'lines'
p3426
(dp3427
I206
S"    environment['__name__'] = '__restricted__'"
p3428
sI207
S'    try:'
p3429
sI208
S'        if isinstance(code, types.CodeType):'
p3430
sI209
S'            ccode = code'
p3431
sI210
S'        else:'
p3432
sI211
S'            ccode = compile2(code, layer)'
p3433
sI212
S'        exec ccode in environment'
p3434
sI213
S'    except HTTP:'
p3435
sI214
S'        raise'
p3436
sI215
S'    except RestrictedError:'
p3437
ssS'call'
p3438
S"(code='# coding: utf-8\\n\\n@auth.requires_login()\\ndef show...m)\\n\\n\\n \\n\\nresponse._vars=response._caller(product)\\n', environment={'A': <class 'gluon.html.A'>, 'Auth': <class 'gluon.tools.Auth'>, 'B': <class 'gluon.html.B'>, 'BEAUTIFY': <class 'gluon.html.BEAUTIFY'>, 'BODY': <class 'gluon.html.BODY'>, 'BR': <class 'gluon.html.BR'>, 'BUTTON': <class 'gluon.html.BUTTON'>, 'CAT': <class 'gluon.html.CAT'>, 'CENTER': <class 'gluon.html.CENTER'>, 'CLEANUP': <class 'gluon.validators.CLEANUP'>, ...}, layer='/var/www/hosts3/applications/projeto/controllers/initial.py')"
p3439
sS'func'
p3440
S'restricted'
p3441
sa(dp3442
g3413
S'/var/www/hosts3/gluon/restricted.py'
p3443
sg3415
(dp3444
S'builtincompile'
p3445
S'<built-in function compile>'
p3446
sS'code'
p3447
S"'# coding: utf-8\\n\\n@auth.requires_login()\\ndef show...m)\\n\\n\\n \\n\\nresponse._vars=response._caller(product)\\n'"
p3448
sS'code.rstrip'
p3449
S'<built-in method rstrip of str object>'
p3450
sS').replace'
p3451
g3424
sS'layer'
p3452
S"'/var/www/hosts3/applications/projeto/controllers/initial.py'"
p3453
ssg3425
I194
sg3426
(dp3454
I192
S"    The +'\\n' is necessary else compile fails when code ends in a comment."
p3455
sI193
S'    """'
p3456
sI194
S"    return compile(code.rstrip().replace('\\r\\n', '\\n') + '\\n', layer, 'exec')"
p3457
sI195
S''
sI196
S''
sI197
S"def restricted(code, environment=None, layer='Unknown'):"
p3458
sI198
S'    """'
p3459
sI189
S''
sI190
S'def compile2(code, layer):'
p3460
sI191
S'    """'
p3461
ssg3438
S"(code='# coding: utf-8\\n\\n@auth.requires_login()\\ndef show...m)\\n\\n\\n \\n\\nresponse._vars=response._caller(product)\\n', layer='/var/www/hosts3/applications/projeto/controllers/initial.py')"
p3462
sg3440
S'compile2'
p3463
sasS'pyver'
p3464
S'Python 2.7.3: /usr/bin/python'
p3465
sS'session'
p3466
g68
(g69
g70
NtRp3467
(dp3468
g73
(dp3469
sg75
(lp3470
g68
(g77
g70
NtRp3471
(dp3472
g73
(dp3473
g81
I5
ssg82
Nsg75
(lp3474
g68
(g84
g70
NtRp3475
(dp3476
g73
(dp3477
sg82
g3471
sg75
(lp3478
g68
(g89
g70
NtRp3479
(dp3480
g73
(dp3481
g93
g94
ssg82
g3475
sg75
(lp3482
S'auth'
p3483
asbag68
(g89
g70
NtRp3484
(dp3485
g73
(dp3486
g100
g101
ssg82
g3475
sg75
(lp3487
S':'
asbag68
(g89
g70
NtRp3488
(dp3489
g73
(dp3490
sg82
g3475
sg75
(lp3491
g68
(g69
g70
NtRp3492
(dp3493
g73
(dp3494
g81
I5
ssg82
g3488
sg75
(lp3495
g68
(g77
g70
NtRp3496
(dp3497
g73
(dp3498
g81
I4
ssg82
Nsg75
(lp3499
g68
(g84
g70
NtRp3500
(dp3501
g73
(dp3502
sg82
g3496
sg75
(lp3503
g68
(g89
g70
NtRp3504
(dp3505
g73
(dp3506
g93
g94
ssg82
g3500
sg75
(lp3507
S'expiration'
p3508
asbag68
(g89
g70
NtRp3509
(dp3510
g73
(dp3511
g100
g101
ssg82
g3500
sg75
(lp3512
S':'
asbag68
(g89
g70
NtRp3513
(dp3514
g73
(dp3515
sg82
g3500
sg75
(lp3516
g68
(g69
g70
NtRp3517
(dp3518
g73
(dp3519
g81
I4
ssg82
g3513
sg75
(lp3520
S'3600'
p3521
asbasbasbag68
(g84
g70
NtRp3522
(dp3523
g73
(dp3524
sg82
g3496
sg75
(lp3525
g68
(g89
g70
NtRp3526
(dp3527
g73
(dp3528
g93
g94
ssg82
g3522
sg75
(lp3529
S'hmac_key'
p3530
asbag68
(g89
g70
NtRp3531
(dp3532
g73
(dp3533
g100
g101
ssg82
g3522
sg75
(lp3534
S':'
asbag68
(g89
g70
NtRp3535
(dp3536
g73
(dp3537
sg82
g3522
sg75
(lp3538
g68
(g69
g70
NtRp3539
(dp3540
g73
(dp3541
g81
I4
ssg82
g3535
sg75
(lp3542
S'3ef480ba-710e-4059-9afe-3fa6099355fb'
p3543
asbasbasbag68
(g84
g70
NtRp3544
(dp3545
g73
(dp3546
sg82
g3496
sg75
(lp3547
g68
(g89
g70
NtRp3548
(dp3549
g73
(dp3550
g93
g94
ssg82
g3544
sg75
(lp3551
S'last_visit'
p3552
asbag68
(g89
g70
NtRp3553
(dp3554
g73
(dp3555
g100
g101
ssg82
g3544
sg75
(lp3556
S':'
asbag68
(g89
g70
NtRp3557
(dp3558
g73
(dp3559
sg82
g3544
sg75
(lp3560
g68
(g69
g70
NtRp3561
(dp3562
g73
(dp3563
g81
I4
ssg82
g3557
sg75
(lp3564
S'datetime.datetime(2013, 3, 7, 16, 1, 29, 811993)'
p3565
asbasbasbag68
(g84
g70
NtRp3566
(dp3567
g73
(dp3568
sg82
g3496
sg75
(lp3569
g68
(g89
g70
NtRp3570
(dp3571
g73
(dp3572
g93
g94
ssg82
g3566
sg75
(lp3573
S'remember'
p3574
asbag68
(g89
g70
NtRp3575
(dp3576
g73
(dp3577
g100
g101
ssg82
g3566
sg75
(lp3578
S':'
asbag68
(g89
g70
NtRp3579
(dp3580
g73
(dp3581
sg82
g3566
sg75
(lp3582
g68
(g69
g70
NtRp3583
(dp3584
g73
(dp3585
g81
I4
ssg82
g3579
sg75
(lp3586
g111
asbasbasbag68
(g84
g70
NtRp3587
(dp3588
g73
(dp3589
sg82
g3496
sg75
(lp3590
g68
(g89
g70
NtRp3591
(dp3592
g73
(dp3593
g93
g94
ssg82
g3587
sg75
(lp3594
S'user'
p3595
asbag68
(g89
g70
NtRp3596
(dp3597
g73
(dp3598
g100
g101
ssg82
g3587
sg75
(lp3599
S':'
asbag68
(g89
g70
NtRp3600
(dp3601
g73
(dp3602
sg82
g3587
sg75
(lp3603
g68
(g69
g70
NtRp3604
(dp3605
g73
(dp3606
g81
I4
ssg82
g3600
sg75
(lp3607
g68
(g77
g70
NtRp3608
(dp3609
g73
(dp3610
g81
I3
ssg82
Nsg75
(lp3611
g68
(g84
g70
NtRp3612
(dp3613
g73
(dp3614
sg82
g3608
sg75
(lp3615
g68
(g89
g70
NtRp3616
(dp3617
g73
(dp3618
g93
g94
ssg82
g3612
sg75
(lp3619
S'email'
p3620
asbag68
(g89
g70
NtRp3621
(dp3622
g73
(dp3623
g100
g101
ssg82
g3612
sg75
(lp3624
S':'
asbag68
(g89
g70
NtRp3625
(dp3626
g73
(dp3627
sg82
g3612
sg75
(lp3628
g68
(g69
g70
NtRp3629
(dp3630
g73
(dp3631
g81
I3
ssg82
g3625
sg75
(lp3632
S'fernando@ad2.com.br'
p3633
asbasbasbag68
(g84
g70
NtRp3634
(dp3635
g73
(dp3636
sg82
g3608
sg75
(lp3637
g68
(g89
g70
NtRp3638
(dp3639
g73
(dp3640
g93
g94
ssg82
g3634
sg75
(lp3641
S'first_name'
p3642
asbag68
(g89
g70
NtRp3643
(dp3644
g73
(dp3645
g100
g101
ssg82
g3634
sg75
(lp3646
S':'
asbag68
(g89
g70
NtRp3647
(dp3648
g73
(dp3649
sg82
g3634
sg75
(lp3650
g68
(g69
g70
NtRp3651
(dp3652
g73
(dp3653
g81
I3
ssg82
g3647
sg75
(lp3654
S'Fernando'
p3655
asbasbasbag68
(g84
g70
NtRp3656
(dp3657
g73
(dp3658
sg82
g3608
sg75
(lp3659
g68
(g89
g70
NtRp3660
(dp3661
g73
(dp3662
g93
g94
ssg82
g3656
sg75
(lp3663
S'id'
p3664
asbag68
(g89
g70
NtRp3665
(dp3666
g73
(dp3667
g100
g101
ssg82
g3656
sg75
(lp3668
S':'
asbag68
(g89
g70
NtRp3669
(dp3670
g73
(dp3671
sg82
g3656
sg75
(lp3672
g68
(g69
g70
NtRp3673
(dp3674
g73
(dp3675
g81
I3
ssg82
g3669
sg75
(lp3676
S'1'
asbasbasbag68
(g84
g70
NtRp3677
(dp3678
g73
(dp3679
sg82
g3608
sg75
(lp3680
g68
(g89
g70
NtRp3681
(dp3682
g73
(dp3683
g93
g94
ssg82
g3677
sg75
(lp3684
S'last_name'
p3685
asbag68
(g89
g70
NtRp3686
(dp3687
g73
(dp3688
g100
g101
ssg82
g3677
sg75
(lp3689
S':'
asbag68
(g89
g70
NtRp3690
(dp3691
g73
(dp3692
sg82
g3677
sg75
(lp3693
g68
(g69
g70
NtRp3694
(dp3695
g73
(dp3696
g81
I3
ssg82
g3690
sg75
(lp3697
S'Vieira'
p3698
asbasbasbag68
(g84
g70
NtRp3699
(dp3700
g73
(dp3701
sg82
g3608
sg75
(lp3702
g68
(g89
g70
NtRp3703
(dp3704
g73
(dp3705
g93
g94
ssg82
g3699
sg75
(lp3706
S'registration_id'
p3707
asbag68
(g89
g70
NtRp3708
(dp3709
g73
(dp3710
g100
g101
ssg82
g3699
sg75
(lp3711
S':'
asbag68
(g89
g70
NtRp3712
(dp3713
g73
(dp3714
sg82
g3699
sg75
(lp3715
g68
(g69
g70
NtRp3716
(dp3717
g73
(dp3718
g81
I3
ssg82
g3712
sg75
(lp3719
S''
asbasbasbag68
(g84
g70
NtRp3720
(dp3721
g73
(dp3722
sg82
g3608
sg75
(lp3723
g68
(g89
g70
NtRp3724
(dp3725
g73
(dp3726
g93
g94
ssg82
g3720
sg75
(lp3727
S'registration_key'
p3728
asbag68
(g89
g70
NtRp3729
(dp3730
g73
(dp3731
g100
g101
ssg82
g3720
sg75
(lp3732
S':'
asbag68
(g89
g70
NtRp3733
(dp3734
g73
(dp3735
sg82
g3720
sg75
(lp3736
g68
(g69
g70
NtRp3737
(dp3738
g73
(dp3739
g81
I3
ssg82
g3733
sg75
(lp3740
S''
asbasbasbag68
(g84
g70
NtRp3741
(dp3742
g73
(dp3743
sg82
g3608
sg75
(lp3744
g68
(g89
g70
NtRp3745
(dp3746
g73
(dp3747
g93
g94
ssg82
g3741
sg75
(lp3748
S'reset_password_key'
p3749
asbag68
(g89
g70
NtRp3750
(dp3751
g73
(dp3752
g100
g101
ssg82
g3741
sg75
(lp3753
S':'
asbag68
(g89
g70
NtRp3754
(dp3755
g73
(dp3756
sg82
g3741
sg75
(lp3757
g68
(g69
g70
NtRp3758
(dp3759
g73
(dp3760
g81
I3
ssg82
g3754
sg75
(lp3761
S''
asbasbasbasbasbasbasbag68
(g84
g70
NtRp3762
(dp3763
g73
(dp3764
sg82
g3496
sg75
(lp3765
g68
(g89
g70
NtRp3766
(dp3767
g73
(dp3768
g93
g94
ssg82
g3762
sg75
(lp3769
S'user_groups'
p3770
asbag68
(g89
g70
NtRp3771
(dp3772
g73
(dp3773
g100
g101
ssg82
g3762
sg75
(lp3774
S':'
asbag68
(g89
g70
NtRp3775
(dp3776
g73
(dp3777
sg82
g3762
sg75
(lp3778
g68
(g69
g70
NtRp3779
(dp3780
g73
(dp3781
g81
I4
ssg82
g3775
sg75
(lp3782
g68
(g77
g70
NtRp3783
(dp3784
g73
(dp3785
g81
I3
ssg82
Nsg75
(lp3786
g68
(g84
g70
NtRp3787
(dp3788
g73
(dp3789
sg82
g3783
sg75
(lp3790
g68
(g89
g70
NtRp3791
(dp3792
g73
(dp3793
g93
g94
ssg82
g3787
sg75
(lp3794
S'1'
asbag68
(g89
g70
NtRp3795
(dp3796
g73
(dp3797
g100
g101
ssg82
g3787
sg75
(lp3798
S':'
asbag68
(g89
g70
NtRp3799
(dp3800
g73
(dp3801
sg82
g3787
sg75
(lp3802
g68
(g69
g70
NtRp3803
(dp3804
g73
(dp3805
g81
I3
ssg82
g3799
sg75
(lp3806
S'group1'
p3807
asbasbasbag68
(g84
g70
NtRp3808
(dp3809
g73
(dp3810
sg82
g3783
sg75
(lp3811
g68
(g89
g70
NtRp3812
(dp3813
g73
(dp3814
g93
g94
ssg82
g3808
sg75
(lp3815
S'99'
p3816
asbag68
(g89
g70
NtRp3817
(dp3818
g73
(dp3819
g100
g101
ssg82
g3808
sg75
(lp3820
S':'
asbag68
(g89
g70
NtRp3821
(dp3822
g73
(dp3823
sg82
g3808
sg75
(lp3824
g68
(g69
g70
NtRp3825
(dp3826
g73
(dp3827
g81
I3
ssg82
g3821
sg75
(lp3828
S'admin'
p3829
asbasbasbasbasbasbasbasbasbasbasbag68
(g84
g70
NtRp3830
(dp3831
g73
(dp3832
sg82
g3471
sg75
(lp3833
g68
(g89
g70
NtRp3834
(dp3835
g73
(dp3836
g93
g94
ssg82
g3830
sg75
(lp3837
S'flash'
p3838
asbag68
(g89
g70
NtRp3839
(dp3840
g73
(dp3841
g100
g101
ssg82
g3830
sg75
(lp3842
S':'
asbag68
(g89
g70
NtRp3843
(dp3844
g73
(dp3845
sg82
g3830
sg75
(lp3846
g68
(g69
g70
NtRp3847
(dp3848
g73
(dp3849
g81
I5
ssg82
g3843
sg75
(lp3850
S'None'
p3851
asbasbasbasbasbsS'etype'
p3852
S"<type 'exceptions.IndentationError'>"
p3853
sS'date'
p3854
S'Thu Mar  7 16:06:45 2013'
p3855
sS'response'
p3856
g68
(g69
g70
NtRp3857
(dp3858
g73
(dp3859
sg75
(lp3860
g68
(g77
g70
NtRp3861
(dp3862
g73
(dp3863
g81
I5
ssg82
Nsg75
(lp3864
g68
(g84
g70
NtRp3865
(dp3866
g73
(dp3867
sg82
g3861
sg75
(lp3868
g68
(g89
g70
NtRp3869
(dp3870
g73
(dp3871
g93
g94
ssg82
g3865
sg75
(lp3872
g166
asbag68
(g89
g70
NtRp3873
(dp3874
g73
(dp3875
g100
g101
ssg82
g3865
sg75
(lp3876
S':'
asbag68
(g89
g70
NtRp3877
(dp3878
g73
(dp3879
sg82
g3865
sg75
(lp3880
g68
(g69
g70
NtRp3881
(dp3882
g73
(dp3883
g81
I5
ssg82
g3877
sg75
(lp3884
S'<cStringIO.StringO object at 0x27cb4c8>'
p3885
asbasbasbag68
(g84
g70
NtRp3886
(dp3887
g73
(dp3888
sg82
g3861
sg75
(lp3889
g68
(g89
g70
NtRp3890
(dp3891
g73
(dp3892
g93
g94
ssg82
g3886
sg75
(lp3893
g254
asbag68
(g89
g70
NtRp3894
(dp3895
g73
(dp3896
g100
g101
ssg82
g3886
sg75
(lp3897
S':'
asbag68
(g89
g70
NtRp3898
(dp3899
g73
(dp3900
sg82
g3886
sg75
(lp3901
g68
(g69
g70
NtRp3902
(dp3903
g73
(dp3904
g81
I5
ssg82
g3898
sg75
(lp3905
g68
(g77
g70
NtRp3906
(dp3907
g73
(dp3908
g81
I4
ssg82
Nsg75
(lp3909
g68
(g84
g70
NtRp3910
(dp3911
g73
(dp3912
sg82
g3906
sg75
(lp3913
g68
(g89
g70
NtRp3914
(dp3915
g73
(dp3916
g93
g94
ssg82
g3910
sg75
(lp3917
S'session_id_projeto'
p3918
asbag68
(g89
g70
NtRp3919
(dp3920
g73
(dp3921
g100
g101
ssg82
g3910
sg75
(lp3922
S':'
asbag68
(g89
g70
NtRp3923
(dp3924
g73
(dp3925
sg82
g3910
sg75
(lp3926
g68
(g69
g70
NtRp3927
(dp3928
g73
(dp3929
g81
I4
ssg82
g3923
sg75
(lp3930
g856
ag68
(g77
g70
NtRp3931
(dp3932
g73
(dp3933
g81
I3
ssg82
Nsg75
(lp3934
g68
(g84
g70
NtRp3935
(dp3936
g73
(dp3937
sg82
g3931
sg75
(lp3938
g68
(g89
g70
NtRp3939
(dp3940
g73
(dp3941
g93
g94
ssg82
g3935
sg75
(lp3942
g304
asbag68
(g89
g70
NtRp3943
(dp3944
g73
(dp3945
g100
g101
ssg82
g3935
sg75
(lp3946
S':'
asbag68
(g89
g70
NtRp3947
(dp3948
g73
(dp3949
sg82
g3935
sg75
(lp3950
g68
(g69
g70
NtRp3951
(dp3952
g73
(dp3953
g81
I3
ssg82
g3947
sg75
(lp3954
S''
asbasbasbag68
(g84
g70
NtRp3955
(dp3956
g73
(dp3957
sg82
g3931
sg75
(lp3958
g68
(g89
g70
NtRp3959
(dp3960
g73
(dp3961
g93
g94
ssg82
g3955
sg75
(lp3962
g325
asbag68
(g89
g70
NtRp3963
(dp3964
g73
(dp3965
g100
g101
ssg82
g3955
sg75
(lp3966
S':'
asbag68
(g89
g70
NtRp3967
(dp3968
g73
(dp3969
sg82
g3955
sg75
(lp3970
g68
(g69
g70
NtRp3971
(dp3972
g73
(dp3973
g81
I3
ssg82
g3967
sg75
(lp3974
S''
asbasbasbag68
(g84
g70
NtRp3975
(dp3976
g73
(dp3977
sg82
g3931
sg75
(lp3978
g68
(g89
g70
NtRp3979
(dp3980
g73
(dp3981
g93
g94
ssg82
g3975
sg75
(lp3982
g346
asbag68
(g89
g70
NtRp3983
(dp3984
g73
(dp3985
g100
g101
ssg82
g3975
sg75
(lp3986
S':'
asbag68
(g89
g70
NtRp3987
(dp3988
g73
(dp3989
sg82
g3975
sg75
(lp3990
g68
(g69
g70
NtRp3991
(dp3992
g73
(dp3993
g81
I3
ssg82
g3987
sg75
(lp3994
S''
asbasbasbag68
(g84
g70
NtRp3995
(dp3996
g73
(dp3997
sg82
g3931
sg75
(lp3998
g68
(g89
g70
NtRp3999
(dp4000
g73
(dp4001
g93
g94
ssg82
g3995
sg75
(lp4002
g367
asbag68
(g89
g70
NtRp4003
(dp4004
g73
(dp4005
g100
g101
ssg82
g3995
sg75
(lp4006
S':'
asbag68
(g89
g70
NtRp4007
(dp4008
g73
(dp4009
sg82
g3995
sg75
(lp4010
g68
(g69
g70
NtRp4011
(dp4012
g73
(dp4013
g81
I3
ssg82
g4007
sg75
(lp4014
S''
asbasbasbag68
(g84
g70
NtRp4015
(dp4016
g73
(dp4017
sg82
g3931
sg75
(lp4018
g68
(g89
g70
NtRp4019
(dp4020
g73
(dp4021
g93
g94
ssg82
g4015
sg75
(lp4022
g388
asbag68
(g89
g70
NtRp4023
(dp4024
g73
(dp4025
g100
g101
ssg82
g4015
sg75
(lp4026
S':'
asbag68
(g89
g70
NtRp4027
(dp4028
g73
(dp4029
sg82
g4015
sg75
(lp4030
g68
(g69
g70
NtRp4031
(dp4032
g73
(dp4033
g81
I3
ssg82
g4027
sg75
(lp4034
S''
asbasbasbag68
(g84
g70
NtRp4035
(dp4036
g73
(dp4037
sg82
g3931
sg75
(lp4038
g68
(g89
g70
NtRp4039
(dp4040
g73
(dp4041
g93
g94
ssg82
g4035
sg75
(lp4042
g409
asbag68
(g89
g70
NtRp4043
(dp4044
g73
(dp4045
g100
g101
ssg82
g4035
sg75
(lp4046
S':'
asbag68
(g89
g70
NtRp4047
(dp4048
g73
(dp4049
sg82
g4035
sg75
(lp4050
g68
(g69
g70
NtRp4051
(dp4052
g73
(dp4053
g81
I3
ssg82
g4047
sg75
(lp4054
S'/'
asbasbasbag68
(g84
g70
NtRp4055
(dp4056
g73
(dp4057
sg82
g3931
sg75
(lp4058
g68
(g89
g70
NtRp4059
(dp4060
g73
(dp4061
g93
g94
ssg82
g4055
sg75
(lp4062
g430
asbag68
(g89
g70
NtRp4063
(dp4064
g73
(dp4065
g100
g101
ssg82
g4055
sg75
(lp4066
S':'
asbag68
(g89
g70
NtRp4067
(dp4068
g73
(dp4069
sg82
g4055
sg75
(lp4070
g68
(g69
g70
NtRp4071
(dp4072
g73
(dp4073
g81
I3
ssg82
g4067
sg75
(lp4074
S''
asbasbasbag68
(g84
g70
NtRp4075
(dp4076
g73
(dp4077
sg82
g3931
sg75
(lp4078
g68
(g89
g70
NtRp4079
(dp4080
g73
(dp4081
g93
g94
ssg82
g4075
sg75
(lp4082
g451
asbag68
(g89
g70
NtRp4083
(dp4084
g73
(dp4085
g100
g101
ssg82
g4075
sg75
(lp4086
S':'
asbag68
(g89
g70
NtRp4087
(dp4088
g73
(dp4089
sg82
g4075
sg75
(lp4090
g68
(g69
g70
NtRp4091
(dp4092
g73
(dp4093
g81
I3
ssg82
g4087
sg75
(lp4094
S''
asbasbasbasbasbasbasbasbasbasbasbag68
(g84
g70
NtRp4095
(dp4096
g73
(dp4097
sg82
g3861
sg75
(lp4098
g68
(g89
g70
NtRp4099
(dp4100
g73
(dp4101
g93
g94
ssg82
g4095
sg75
(lp4102
S'delimiters'
p4103
asbag68
(g89
g70
NtRp4104
(dp4105
g73
(dp4106
g100
g101
ssg82
g4095
sg75
(lp4107
S':'
asbag68
(g89
g70
NtRp4108
(dp4109
g73
(dp4110
sg82
g4095
sg75
(lp4111
g68
(g69
g70
NtRp4112
(dp4113
g73
(dp4114
g81
I5
ssg82
g4108
sg75
(lp4115
g68
(g77
g70
NtRp4116
(dp4117
g73
(dp4118
g81
I4
ssg82
Nsg75
(lp4119
g68
(g84
g70
NtRp4120
(dp4121
g73
(dp4122
sg82
g4116
sg75
(lp4123
g68
(g89
g70
NtRp4124
(dp4125
g73
(dp4126
sg82
g4120
sg75
(lp4127
g68
(g69
g70
NtRp4128
(dp4129
g73
(dp4130
g81
I4
ssg82
g4124
sg75
(lp4131
S'{{'
p4132
asbasbasbag68
(g84
g70
NtRp4133
(dp4134
g73
(dp4135
sg82
g4116
sg75
(lp4136
g68
(g89
g70
NtRp4137
(dp4138
g73
(dp4139
sg82
g4133
sg75
(lp4140
g68
(g69
g70
NtRp4141
(dp4142
g73
(dp4143
g81
I4
ssg82
g4137
sg75
(lp4144
S'}}'
p4145
asbasbasbasbasbasbasbag68
(g84
g70
NtRp4146
(dp4147
g73
(dp4148
sg82
g3861
sg75
(lp4149
g68
(g89
g70
NtRp4150
(dp4151
g73
(dp4152
g93
g94
ssg82
g4146
sg75
(lp4153
S'files'
p4154
asbag68
(g89
g70
NtRp4155
(dp4156
g73
(dp4157
g100
g101
ssg82
g4146
sg75
(lp4158
S':'
asbag68
(g89
g70
NtRp4159
(dp4160
g73
(dp4161
sg82
g4146
sg75
(lp4162
g68
(g69
g70
NtRp4163
(dp4164
g73
(dp4165
g81
I5
ssg82
g4159
sg75
(lp4166
g68
(g77
g70
NtRp4167
(dp4168
g73
(dp4169
g81
I4
ssg82
Nsg75
(lp4170
sbasbasbasbag68
(g84
g70
NtRp4171
(dp4172
g73
(dp4173
sg82
g3861
sg75
(lp4174
g68
(g89
g70
NtRp4175
(dp4176
g73
(dp4177
g93
g94
ssg82
g4171
sg75
(lp4178
S'flash'
p4179
asbag68
(g89
g70
NtRp4180
(dp4181
g73
(dp4182
g100
g101
ssg82
g4171
sg75
(lp4183
S':'
asbag68
(g89
g70
NtRp4184
(dp4185
g73
(dp4186
sg82
g4171
sg75
(lp4187
g68
(g69
g70
NtRp4188
(dp4189
g73
(dp4190
g81
I5
ssg82
g4184
sg75
(lp4191
S''
asbasbasbag68
(g84
g70
NtRp4192
(dp4193
g73
(dp4194
sg82
g3861
sg75
(lp4195
g68
(g89
g70
NtRp4196
(dp4197
g73
(dp4198
g93
g94
ssg82
g4192
sg75
(lp4199
S'generic_patterns'
p4200
asbag68
(g89
g70
NtRp4201
(dp4202
g73
(dp4203
g100
g101
ssg82
g4192
sg75
(lp4204
S':'
asbag68
(g89
g70
NtRp4205
(dp4206
g73
(dp4207
sg82
g4192
sg75
(lp4208
g68
(g69
g70
NtRp4209
(dp4210
g73
(dp4211
g81
I5
ssg82
g4205
sg75
(lp4212
g68
(g77
g70
NtRp4213
(dp4214
g73
(dp4215
g81
I4
ssg82
Nsg75
(lp4216
g68
(g84
g70
NtRp4217
(dp4218
g73
(dp4219
sg82
g4213
sg75
(lp4220
g68
(g89
g70
NtRp4221
(dp4222
g73
(dp4223
sg82
g4217
sg75
(lp4224
g68
(g69
g70
NtRp4225
(dp4226
g73
(dp4227
g81
I4
ssg82
g4221
sg75
(lp4228
S'*'
asbasbasbasbasbasbasbag68
(g84
g70
NtRp4229
(dp4230
g73
(dp4231
sg82
g3861
sg75
(lp4232
g68
(g89
g70
NtRp4233
(dp4234
g73
(dp4235
g93
g94
ssg82
g4229
sg75
(lp4236
S'google_analytics_id'
p4237
asbag68
(g89
g70
NtRp4238
(dp4239
g73
(dp4240
g100
g101
ssg82
g4229
sg75
(lp4241
S':'
asbag68
(g89
g70
NtRp4242
(dp4243
g73
(dp4244
sg82
g4229
sg75
(lp4245
g68
(g69
g70
NtRp4246
(dp4247
g73
(dp4248
g81
I5
ssg82
g4242
sg75
(lp4249
S'None'
p4250
asbasbasbag68
(g84
g70
NtRp4251
(dp4252
g73
(dp4253
sg82
g3861
sg75
(lp4254
g68
(g89
g70
NtRp4255
(dp4256
g73
(dp4257
g93
g94
ssg82
g4251
sg75
(lp4258
S'headers'
p4259
asbag68
(g89
g70
NtRp4260
(dp4261
g73
(dp4262
g100
g101
ssg82
g4251
sg75
(lp4263
S':'
asbag68
(g89
g70
NtRp4264
(dp4265
g73
(dp4266
sg82
g4251
sg75
(lp4267
g68
(g69
g70
NtRp4268
(dp4269
g73
(dp4270
g81
I5
ssg82
g4264
sg75
(lp4271
g68
(g77
g70
NtRp4272
(dp4273
g73
(dp4274
g81
I4
ssg82
Nsg75
(lp4275
g68
(g84
g70
NtRp4276
(dp4277
g73
(dp4278
sg82
g4272
sg75
(lp4279
g68
(g89
g70
NtRp4280
(dp4281
g73
(dp4282
g93
g94
ssg82
g4276
sg75
(lp4283
S'X-Powered-By'
p4284
asbag68
(g89
g70
NtRp4285
(dp4286
g73
(dp4287
g100
g101
ssg82
g4276
sg75
(lp4288
S':'
asbag68
(g89
g70
NtRp4289
(dp4290
g73
(dp4291
sg82
g4276
sg75
(lp4292
g68
(g69
g70
NtRp4293
(dp4294
g73
(dp4295
g81
I4
ssg82
g4289
sg75
(lp4296
S'web2py'
p4297
asbasbasbasbasbasbasbag68
(g84
g70
NtRp4298
(dp4299
g73
(dp4300
sg82
g3861
sg75
(lp4301
g68
(g89
g70
NtRp4302
(dp4303
g73
(dp4304
g93
g94
ssg82
g4298
sg75
(lp4305
S'logo'
p4306
asbag68
(g89
g70
NtRp4307
(dp4308
g73
(dp4309
g100
g101
ssg82
g4298
sg75
(lp4310
S':'
asbag68
(g89
g70
NtRp4311
(dp4312
g73
(dp4313
sg82
g4298
sg75
(lp4314
g68
(g69
g70
NtRp4315
(dp4316
g73
(dp4317
g81
I5
ssg82
g4311
sg75
(lp4318
g68
(cgluon.html
A
p4319
g70
NtRp4320
(dp4321
g73
(dp4322
S'_class'
p4323
S'brand'
p4324
sS'_href'
p4325
S''
ssg82
Nsg75
(lp4326
g68
(cgluon.html
B
p4327
g70
NtRp4328
(dp4329
g73
(dp4330
sg82
g4320
sg75
(lp4331
S'hosts'
p4332
ag68
(cgluon.html
SPAN
p4333
g70
NtRp4334
(dp4335
g73
(dp4336
sg82
g4328
sg75
(lp4337
S'3'
asbaS''
asbacgluon.html
XML_unpickle
p4338
(S's\r\x00\x00\x00&trade;&nbsp;'
tRp4339
asbasbasbasbag68
(g84
g70
NtRp4340
(dp4341
g73
(dp4342
sg82
g3861
sg75
(lp4343
g68
(g89
g70
NtRp4344
(dp4345
g73
(dp4346
g93
g94
ssg82
g4340
sg75
(lp4347
S'menu'
p4348
asbag68
(g89
g70
NtRp4349
(dp4350
g73
(dp4351
g100
g101
ssg82
g4340
sg75
(lp4352
S':'
asbag68
(g89
g70
NtRp4353
(dp4354
g73
(dp4355
sg82
g4340
sg75
(lp4356
g68
(g69
g70
NtRp4357
(dp4358
g73
(dp4359
g81
I5
ssg82
g4353
sg75
(lp4360
g68
(g77
g70
NtRp4361
(dp4362
g73
(dp4363
g81
I4
ssg82
Nsg75
(lp4364
g68
(g84
g70
NtRp4365
(dp4366
g73
(dp4367
sg82
g4361
sg75
(lp4368
g68
(g89
g70
NtRp4369
(dp4370
g73
(dp4371
sg82
g4365
sg75
(lp4372
g68
(g69
g70
NtRp4373
(dp4374
g73
(dp4375
g81
I4
ssg82
g4369
sg75
(lp4376
g68
(g77
g70
NtRp4377
(dp4378
g73
(dp4379
g81
I3
ssg82
Nsg75
(lp4380
g68
(g84
g70
NtRp4381
(dp4382
g73
(dp4383
sg82
g4377
sg75
(lp4384
g68
(g89
g70
NtRp4385
(dp4386
g73
(dp4387
sg82
g4381
sg75
(lp4388
g68
(g69
g70
NtRp4389
(dp4390
g73
(dp4391
g81
I3
ssg82
g4385
sg75
(lp4392
cgluon.languages
lazyT_unpickle
p4393
(S't\x08\x00\x00\x00Clientes'
tRp4394
asbasbasbag68
(g84
g70
NtRp4395
(dp4396
g73
(dp4397
sg82
g4377
sg75
(lp4398
g68
(g89
g70
NtRp4399
(dp4400
g73
(dp4401
sg82
g4395
sg75
(lp4402
g68
(g69
g70
NtRp4403
(dp4404
g73
(dp4405
g81
I3
ssg82
g4399
sg75
(lp4406
g111
asbasbasbag68
(g84
g70
NtRp4407
(dp4408
g73
(dp4409
sg82
g4377
sg75
(lp4410
g68
(g89
g70
NtRp4411
(dp4412
g73
(dp4413
sg82
g4407
sg75
(lp4414
g68
(g69
g70
NtRp4415
(dp4416
g73
(dp4417
g81
I3
ssg82
g4411
sg75
(lp4418
S'/'
asbasbasbag68
(g84
g70
NtRp4419
(dp4420
g73
(dp4421
sg82
g4377
sg75
(lp4422
g68
(g89
g70
NtRp4423
(dp4424
g73
(dp4425
sg82
g4419
sg75
(lp4426
g68
(g69
g70
NtRp4427
(dp4428
g73
(dp4429
g81
I3
ssg82
g4423
sg75
(lp4430
g68
(g77
g70
NtRp4431
(dp4432
g73
(dp4433
g81
I2
ssg82
Nsg75
(lp4434
sbasbasbasbasbasbasbasbag68
(g84
g70
NtRp4435
(dp4436
g73
(dp4437
sg82
g4361
sg75
(lp4438
g68
(g89
g70
NtRp4439
(dp4440
g73
(dp4441
sg82
g4435
sg75
(lp4442
g68
(g69
g70
NtRp4443
(dp4444
g73
(dp4445
g81
I4
ssg82
g4439
sg75
(lp4446
g68
(g77
g70
NtRp4447
(dp4448
g73
(dp4449
g81
I3
ssg82
Nsg75
(lp4450
g68
(g84
g70
NtRp4451
(dp4452
g73
(dp4453
sg82
g4447
sg75
(lp4454
g68
(g89
g70
NtRp4455
(dp4456
g73
(dp4457
sg82
g4451
sg75
(lp4458
g68
(g69
g70
NtRp4459
(dp4460
g73
(dp4461
g81
I3
ssg82
g4455
sg75
(lp4462
g4393
(S't\n\x00\x00\x00Servidores'
tRp4463
asbasbasbag68
(g84
g70
NtRp4464
(dp4465
g73
(dp4466
sg82
g4447
sg75
(lp4467
g68
(g89
g70
NtRp4468
(dp4469
g73
(dp4470
sg82
g4464
sg75
(lp4471
g68
(g69
g70
NtRp4472
(dp4473
g73
(dp4474
g81
I3
ssg82
g4468
sg75
(lp4475
g111
asbasbasbag68
(g84
g70
NtRp4476
(dp4477
g73
(dp4478
sg82
g4447
sg75
(lp4479
g68
(g89
g70
NtRp4480
(dp4481
g73
(dp4482
sg82
g4476
sg75
(lp4483
g68
(g69
g70
NtRp4484
(dp4485
g73
(dp4486
g81
I3
ssg82
g4480
sg75
(lp4487
S'/show_servidor'
p4488
asbasbasbag68
(g84
g70
NtRp4489
(dp4490
g73
(dp4491
sg82
g4447
sg75
(lp4492
g68
(g89
g70
NtRp4493
(dp4494
g73
(dp4495
sg82
g4489
sg75
(lp4496
g68
(g69
g70
NtRp4497
(dp4498
g73
(dp4499
g81
I3
ssg82
g4493
sg75
(lp4500
g68
(g77
g70
NtRp4501
(dp4502
g73
(dp4503
g81
I2
ssg82
Nsg75
(lp4504
sbasbasbasbasbasbasbasbag68
(g84
g70
NtRp4505
(dp4506
g73
(dp4507
sg82
g4361
sg75
(lp4508
g68
(g89
g70
NtRp4509
(dp4510
g73
(dp4511
sg82
g4505
sg75
(lp4512
g68
(g69
g70
NtRp4513
(dp4514
g73
(dp4515
g81
I4
ssg82
g4509
sg75
(lp4516
g68
(g77
g70
NtRp4517
(dp4518
g73
(dp4519
g81
I3
ssg82
Nsg75
(lp4520
g68
(g84
g70
NtRp4521
(dp4522
g73
(dp4523
sg82
g4517
sg75
(lp4524
g68
(g89
g70
NtRp4525
(dp4526
g73
(dp4527
sg82
g4521
sg75
(lp4528
g68
(g69
g70
NtRp4529
(dp4530
g73
(dp4531
g81
I3
ssg82
g4525
sg75
(lp4532
g4393
(S't\x07\x00\x00\x00Distros'
tRp4533
asbasbasbag68
(g84
g70
NtRp4534
(dp4535
g73
(dp4536
sg82
g4517
sg75
(lp4537
g68
(g89
g70
NtRp4538
(dp4539
g73
(dp4540
sg82
g4534
sg75
(lp4541
g68
(g69
g70
NtRp4542
(dp4543
g73
(dp4544
g81
I3
ssg82
g4538
sg75
(lp4545
g111
asbasbasbag68
(g84
g70
NtRp4546
(dp4547
g73
(dp4548
sg82
g4517
sg75
(lp4549
g68
(g89
g70
NtRp4550
(dp4551
g73
(dp4552
sg82
g4546
sg75
(lp4553
g68
(g69
g70
NtRp4554
(dp4555
g73
(dp4556
g81
I3
ssg82
g4550
sg75
(lp4557
S'/show_distro'
p4558
asbasbasbag68
(g84
g70
NtRp4559
(dp4560
g73
(dp4561
sg82
g4517
sg75
(lp4562
g68
(g89
g70
NtRp4563
(dp4564
g73
(dp4565
sg82
g4559
sg75
(lp4566
g68
(g69
g70
NtRp4567
(dp4568
g73
(dp4569
g81
I3
ssg82
g4563
sg75
(lp4570
g68
(g77
g70
NtRp4571
(dp4572
g73
(dp4573
g81
I2
ssg82
Nsg75
(lp4574
sbasbasbasbasbasbasbasbag68
(g84
g70
NtRp4575
(dp4576
g73
(dp4577
sg82
g4361
sg75
(lp4578
g68
(g89
g70
NtRp4579
(dp4580
g73
(dp4581
sg82
g4575
sg75
(lp4582
g68
(g69
g70
NtRp4583
(dp4584
g73
(dp4585
g81
I4
ssg82
g4579
sg75
(lp4586
g68
(g77
g70
NtRp4587
(dp4588
g73
(dp4589
g81
I3
ssg82
Nsg75
(lp4590
g68
(g84
g70
NtRp4591
(dp4592
g73
(dp4593
sg82
g4587
sg75
(lp4594
g68
(g89
g70
NtRp4595
(dp4596
g73
(dp4597
sg82
g4591
sg75
(lp4598
g68
(g69
g70
NtRp4599
(dp4600
g73
(dp4601
g81
I3
ssg82
g4595
sg75
(lp4602
g4393
(S's\x05\x00\x00\x00+host'
tRp4603
asbasbasbag68
(g84
g70
NtRp4604
(dp4605
g73
(dp4606
sg82
g4587
sg75
(lp4607
g68
(g89
g70
NtRp4608
(dp4609
g73
(dp4610
sg82
g4604
sg75
(lp4611
g68
(g69
g70
NtRp4612
(dp4613
g73
(dp4614
g81
I3
ssg82
g4608
sg75
(lp4615
g111
asbasbasbag68
(g84
g70
NtRp4616
(dp4617
g73
(dp4618
sg82
g4587
sg75
(lp4619
g68
(g89
g70
NtRp4620
(dp4621
g73
(dp4622
sg82
g4616
sg75
(lp4623
g68
(g69
g70
NtRp4624
(dp4625
g73
(dp4626
g81
I3
ssg82
g4620
sg75
(lp4627
S'/interface'
p4628
asbasbasbag68
(g84
g70
NtRp4629
(dp4630
g73
(dp4631
sg82
g4587
sg75
(lp4632
g68
(g89
g70
NtRp4633
(dp4634
g73
(dp4635
sg82
g4629
sg75
(lp4636
g68
(g69
g70
NtRp4637
(dp4638
g73
(dp4639
g81
I3
ssg82
g4633
sg75
(lp4640
g68
(g77
g70
NtRp4641
(dp4642
g73
(dp4643
g81
I2
ssg82
Nsg75
(lp4644
sbasbasbasbasbasbasbasbasbasbasbasbag68
(g84
g70
NtRp4645
(dp4646
g73
(dp4647
sg82
g3861
sg75
(lp4648
g68
(g89
g70
NtRp4649
(dp4650
g73
(dp4651
g93
g94
ssg82
g4645
sg75
(lp4652
S'menu2'
p4653
asbag68
(g89
g70
NtRp4654
(dp4655
g73
(dp4656
g100
g101
ssg82
g4645
sg75
(lp4657
S':'
asbag68
(g89
g70
NtRp4658
(dp4659
g73
(dp4660
sg82
g4645
sg75
(lp4661
g68
(g69
g70
NtRp4662
(dp4663
g73
(dp4664
g81
I5
ssg82
g4658
sg75
(lp4665
g68
(g77
g70
NtRp4666
(dp4667
g73
(dp4668
g81
I4
ssg82
Nsg75
(lp4669
g68
(g84
g70
NtRp4670
(dp4671
g73
(dp4672
sg82
g4666
sg75
(lp4673
g68
(g89
g70
NtRp4674
(dp4675
g73
(dp4676
sg82
g4670
sg75
(lp4677
g68
(g69
g70
NtRp4678
(dp4679
g73
(dp4680
g81
I4
ssg82
g4674
sg75
(lp4681
g68
(g77
g70
NtRp4682
(dp4683
g73
(dp4684
g81
I3
ssg82
Nsg75
(lp4685
g68
(g84
g70
NtRp4686
(dp4687
g73
(dp4688
sg82
g4682
sg75
(lp4689
g68
(g89
g70
NtRp4690
(dp4691
g73
(dp4692
sg82
g4686
sg75
(lp4693
g68
(g69
g70
NtRp4694
(dp4695
g73
(dp4696
g81
I3
ssg82
g4690
sg75
(lp4697
g68
(g4333
g70
NtRp4698
(dp4699
g73
(dp4700
g4323
S'dropdown-toggle'
p4701
ssg82
Nsg75
(lp4702
S'Admin'
p4703
asbasbasbasbag68
(g84
g70
NtRp4704
(dp4705
g73
(dp4706
sg82
g4682
sg75
(lp4707
g68
(g89
g70
NtRp4708
(dp4709
g73
(dp4710
sg82
g4704
sg75
(lp4711
g68
(g69
g70
NtRp4712
(dp4713
g73
(dp4714
g81
I3
ssg82
g4708
sg75
(lp4715
g111
asbasbasbag68
(g84
g70
NtRp4716
(dp4717
g73
(dp4718
sg82
g4682
sg75
(lp4719
g68
(g89
g70
NtRp4720
(dp4721
g73
(dp4722
sg82
g4716
sg75
(lp4723
g68
(g69
g70
NtRp4724
(dp4725
g73
(dp4726
g81
I3
ssg82
g4720
sg75
(lp4727
S'#'
asbasbasbag68
(g84
g70
NtRp4728
(dp4729
g73
(dp4730
sg82
g4682
sg75
(lp4731
g68
(g89
g70
NtRp4732
(dp4733
g73
(dp4734
sg82
g4728
sg75
(lp4735
g68
(g69
g70
NtRp4736
(dp4737
g73
(dp4738
g81
I3
ssg82
g4732
sg75
(lp4739
g68
(g77
g70
NtRp4740
(dp4741
g73
(dp4742
g81
I2
ssg82
Nsg75
(lp4743
g68
(g84
g70
NtRp4744
(dp4745
g73
(dp4746
sg82
g4740
sg75
(lp4747
g68
(g89
g70
NtRp4748
(dp4749
g73
(dp4750
sg82
g4744
sg75
(lp4751
g68
(g69
g70
NtRp4752
(dp4753
g73
(dp4754
g81
I2
ssg82
g4748
sg75
(lp4755
g68
(g77
g70
NtRp4756
(dp4757
g73
(dp4758
g81
I1
ssg82
Nsg75
(lp4759
g68
(g84
g70
NtRp4760
(dp4761
g73
(dp4762
sg82
g4756
sg75
(lp4763
g68
(g89
g70
NtRp4764
(dp4765
g73
(dp4766
sg82
g4760
sg75
(lp4767
g68
(g69
g70
NtRp4768
(dp4769
g73
(dp4770
g81
I1
ssg82
g4764
sg75
(lp4771
g4393
(S's\t\x00\x00\x00Usu\xc3\xa1rios'
tRp4772
asbasbasbag68
(g84
g70
NtRp4773
(dp4774
g73
(dp4775
sg82
g4756
sg75
(lp4776
g68
(g89
g70
NtRp4777
(dp4778
g73
(dp4779
sg82
g4773
sg75
(lp4780
g68
(g69
g70
NtRp4781
(dp4782
g73
(dp4783
g81
I1
ssg82
g4777
sg75
(lp4784
I00
asbasbasbag68
(g84
g70
NtRp4785
(dp4786
g73
(dp4787
sg82
g4756
sg75
(lp4788
g68
(g89
g70
NtRp4789
(dp4790
g73
(dp4791
sg82
g4785
sg75
(lp4792
g68
(g69
g70
NtRp4793
(dp4794
g73
(dp4795
g81
I1
ssg82
g4789
sg75
(lp4796
S'/manager/users'
p4797
asbasbasbasbasbasbasbag68
(g84
g70
NtRp4798
(dp4799
g73
(dp4800
sg82
g4740
sg75
(lp4801
g68
(g89
g70
NtRp4802
(dp4803
g73
(dp4804
sg82
g4798
sg75
(lp4805
g68
(g69
g70
NtRp4806
(dp4807
g73
(dp4808
g81
I2
ssg82
g4802
sg75
(lp4809
g68
(g77
g70
NtRp4810
(dp4811
g73
(dp4812
g81
I1
ssg82
Nsg75
(lp4813
g68
(g84
g70
NtRp4814
(dp4815
g73
(dp4816
sg82
g4810
sg75
(lp4817
g68
(g89
g70
NtRp4818
(dp4819
g73
(dp4820
sg82
g4814
sg75
(lp4821
g68
(g69
g70
NtRp4822
(dp4823
g73
(dp4824
g81
I1
ssg82
g4818
sg75
(lp4825
g4393
(S't\x06\x00\x00\x00Grupos'
tRp4826
asbasbasbag68
(g84
g70
NtRp4827
(dp4828
g73
(dp4829
sg82
g4810
sg75
(lp4830
g68
(g89
g70
NtRp4831
(dp4832
g73
(dp4833
sg82
g4827
sg75
(lp4834
g68
(g69
g70
NtRp4835
(dp4836
g73
(dp4837
g81
I1
ssg82
g4831
sg75
(lp4838
I00
asbasbasbag68
(g84
g70
NtRp4839
(dp4840
g73
(dp4841
sg82
g4810
sg75
(lp4842
g68
(g89
g70
NtRp4843
(dp4844
g73
(dp4845
sg82
g4839
sg75
(lp4846
g68
(g69
g70
NtRp4847
(dp4848
g73
(dp4849
g81
I1
ssg82
g4843
sg75
(lp4850
S'/manager/groups'
p4851
asbasbasbasbasbasbasbag68
(g84
g70
NtRp4852
(dp4853
g73
(dp4854
sg82
g4740
sg75
(lp4855
g68
(g89
g70
NtRp4856
(dp4857
g73
(dp4858
sg82
g4852
sg75
(lp4859
g68
(g69
g70
NtRp4860
(dp4861
g73
(dp4862
g81
I2
ssg82
g4856
sg75
(lp4863
g68
(g77
g70
NtRp4864
(dp4865
g73
(dp4866
g81
I1
ssg82
Nsg75
(lp4867
g68
(g84
g70
NtRp4868
(dp4869
g73
(dp4870
sg82
g4864
sg75
(lp4871
g68
(g89
g70
NtRp4872
(dp4873
g73
(dp4874
sg82
g4868
sg75
(lp4875
g68
(g69
g70
NtRp4876
(dp4877
g73
(dp4878
g81
I1
ssg82
g4872
sg75
(lp4879
g4393
(S't\x07\x00\x00\x00Membros'
tRp4880
asbasbasbag68
(g84
g70
NtRp4881
(dp4882
g73
(dp4883
sg82
g4864
sg75
(lp4884
g68
(g89
g70
NtRp4885
(dp4886
g73
(dp4887
sg82
g4881
sg75
(lp4888
g68
(g69
g70
NtRp4889
(dp4890
g73
(dp4891
g81
I1
ssg82
g4885
sg75
(lp4892
I00
asbasbasbag68
(g84
g70
NtRp4893
(dp4894
g73
(dp4895
sg82
g4864
sg75
(lp4896
g68
(g89
g70
NtRp4897
(dp4898
g73
(dp4899
sg82
g4893
sg75
(lp4900
g68
(g69
g70
NtRp4901
(dp4902
g73
(dp4903
g81
I1
ssg82
g4897
sg75
(lp4904
S'/manager/membership'
p4905
asbasbasbasbasbasbasbasbasbasbasbasbasbasbasbag68
(g84
g70
NtRp4906
(dp4907
g73
(dp4908
sg82
g4666
sg75
(lp4909
g68
(g89
g70
NtRp4910
(dp4911
g73
(dp4912
sg82
g4906
sg75
(lp4913
g68
(g69
g70
NtRp4914
(dp4915
g73
(dp4916
g81
I4
ssg82
g4910
sg75
(lp4917
g68
(g77
g70
NtRp4918
(dp4919
g73
(dp4920
g81
I3
ssg82
Nsg75
(lp4921
g68
(g84
g70
NtRp4922
(dp4923
g73
(dp4924
sg82
g4918
sg75
(lp4925
g68
(g89
g70
NtRp4926
(dp4927
g73
(dp4928
sg82
g4922
sg75
(lp4929
g68
(g69
g70
NtRp4930
(dp4931
g73
(dp4932
g81
I3
ssg82
g4926
sg75
(lp4933
g68
(g4333
g70
NtRp4934
(dp4935
g73
(dp4936
g4323
g4701
ssg82
Nsg75
(lp4937
S'Login'
p4938
asbasbasbasbag68
(g84
g70
NtRp4939
(dp4940
g73
(dp4941
sg82
g4918
sg75
(lp4942
g68
(g89
g70
NtRp4943
(dp4944
g73
(dp4945
sg82
g4939
sg75
(lp4946
g68
(g69
g70
NtRp4947
(dp4948
g73
(dp4949
g81
I3
ssg82
g4943
sg75
(lp4950
g111
asbasbasbag68
(g84
g70
NtRp4951
(dp4952
g73
(dp4953
sg82
g4918
sg75
(lp4954
g68
(g89
g70
NtRp4955
(dp4956
g73
(dp4957
sg82
g4951
sg75
(lp4958
g68
(g69
g70
NtRp4959
(dp4960
g73
(dp4961
g81
I3
ssg82
g4955
sg75
(lp4962
S'#'
asbasbasbag68
(g84
g70
NtRp4963
(dp4964
g73
(dp4965
sg82
g4918
sg75
(lp4966
g68
(g89
g70
NtRp4967
(dp4968
g73
(dp4969
sg82
g4963
sg75
(lp4970
g68
(g69
g70
NtRp4971
(dp4972
g73
(dp4973
g81
I3
ssg82
g4967
sg75
(lp4974
g68
(g77
g70
NtRp4975
(dp4976
g73
(dp4977
g81
I2
ssg82
Nsg75
(lp4978
g68
(g84
g70
NtRp4979
(dp4980
g73
(dp4981
sg82
g4975
sg75
(lp4982
g68
(g89
g70
NtRp4983
(dp4984
g73
(dp4985
sg82
g4979
sg75
(lp4986
g68
(g69
g70
NtRp4987
(dp4988
g73
(dp4989
g81
I2
ssg82
g4983
sg75
(lp4990
g68
(g77
g70
NtRp4991
(dp4992
g73
(dp4993
g81
I1
ssg82
Nsg75
(lp4994
g68
(g84
g70
NtRp4995
(dp4996
g73
(dp4997
sg82
g4991
sg75
(lp4998
g68
(g89
g70
NtRp4999
(dp5000
g73
(dp5001
sg82
g4995
sg75
(lp5002
g68
(g69
g70
NtRp5003
(dp5004
g73
(dp5005
g81
I1
ssg82
g4999
sg75
(lp5006
g4393
(S't\x06\x00\x00\x00Logout'
tRp5007
asbasbasbag68
(g84
g70
NtRp5008
(dp5009
g73
(dp5010
sg82
g4991
sg75
(lp5011
g68
(g89
g70
NtRp5012
(dp5013
g73
(dp5014
sg82
g5008
sg75
(lp5015
g68
(g69
g70
NtRp5016
(dp5017
g73
(dp5018
g81
I1
ssg82
g5012
sg75
(lp5019
I00
asbasbasbag68
(g84
g70
NtRp5020
(dp5021
g73
(dp5022
sg82
g4991
sg75
(lp5023
g68
(g89
g70
NtRp5024
(dp5025
g73
(dp5026
sg82
g5020
sg75
(lp5027
g68
(g69
g70
NtRp5028
(dp5029
g73
(dp5030
g81
I1
ssg82
g5024
sg75
(lp5031
S'/initial/user/logout'
p5032
asbasbasbasbasbasbasbasbasbasbasbasbasbasbasbasbasbasbasbag68
(g84
g70
NtRp5033
(dp5034
g73
(dp5035
sg82
g3861
sg75
(lp5036
g68
(g89
g70
NtRp5037
(dp5038
g73
(dp5039
g93
g94
ssg82
g5033
sg75
(lp5040
S'meta'
p5041
asbag68
(g89
g70
NtRp5042
(dp5043
g73
(dp5044
g100
g101
ssg82
g5033
sg75
(lp5045
S':'
asbag68
(g89
g70
NtRp5046
(dp5047
g73
(dp5048
sg82
g5033
sg75
(lp5049
g68
(g69
g70
NtRp5050
(dp5051
g73
(dp5052
g81
I5
ssg82
g5046
sg75
(lp5053
g68
(g77
g70
NtRp5054
(dp5055
g73
(dp5056
g81
I4
ssg82
Nsg75
(lp5057
g68
(g84
g70
NtRp5058
(dp5059
g73
(dp5060
sg82
g5054
sg75
(lp5061
g68
(g89
g70
NtRp5062
(dp5063
g73
(dp5064
g93
g94
ssg82
g5058
sg75
(lp5065
S'author'
p5066
asbag68
(g89
g70
NtRp5067
(dp5068
g73
(dp5069
g100
g101
ssg82
g5058
sg75
(lp5070
S':'
asbag68
(g89
g70
NtRp5071
(dp5072
g73
(dp5073
sg82
g5058
sg75
(lp5074
g68
(g69
g70
NtRp5075
(dp5076
g73
(dp5077
g81
I4
ssg82
g5071
sg75
(lp5078
S'Your Name <you@example.com>'
p5079
asbasbasbag68
(g84
g70
NtRp5080
(dp5081
g73
(dp5082
sg82
g5054
sg75
(lp5083
g68
(g89
g70
NtRp5084
(dp5085
g73
(dp5086
g93
g94
ssg82
g5080
sg75
(lp5087
S'description'
p5088
asbag68
(g89
g70
NtRp5089
(dp5090
g73
(dp5091
g100
g101
ssg82
g5080
sg75
(lp5092
S':'
asbag68
(g89
g70
NtRp5093
(dp5094
g73
(dp5095
sg82
g5080
sg75
(lp5096
g68
(g69
g70
NtRp5097
(dp5098
g73
(dp5099
g81
I4
ssg82
g5093
sg75
(lp5100
S'a cool new app'
p5101
asbasbasbag68
(g84
g70
NtRp5102
(dp5103
g73
(dp5104
sg82
g5054
sg75
(lp5105
g68
(g89
g70
NtRp5106
(dp5107
g73
(dp5108
g93
g94
ssg82
g5102
sg75
(lp5109
S'generator'
p5110
asbag68
(g89
g70
NtRp5111
(dp5112
g73
(dp5113
g100
g101
ssg82
g5102
sg75
(lp5114
S':'
asbag68
(g89
g70
NtRp5115
(dp5116
g73
(dp5117
sg82
g5102
sg75
(lp5118
g68
(g69
g70
NtRp5119
(dp5120
g73
(dp5121
g81
I4
ssg82
g5115
sg75
(lp5122
S'Web2py Web Framework'
p5123
asbasbasbag68
(g84
g70
NtRp5124
(dp5125
g73
(dp5126
sg82
g5054
sg75
(lp5127
g68
(g89
g70
NtRp5128
(dp5129
g73
(dp5130
g93
g94
ssg82
g5124
sg75
(lp5131
S'keywords'
p5132
asbag68
(g89
g70
NtRp5133
(dp5134
g73
(dp5135
g100
g101
ssg82
g5124
sg75
(lp5136
S':'
asbag68
(g89
g70
NtRp5137
(dp5138
g73
(dp5139
sg82
g5124
sg75
(lp5140
g68
(g69
g70
NtRp5141
(dp5142
g73
(dp5143
g81
I4
ssg82
g5137
sg75
(lp5144
S'web2py, python, framework'
p5145
asbasbasbasbasbasbasbag68
(g84
g70
NtRp5146
(dp5147
g73
(dp5148
sg82
g3861
sg75
(lp5149
g68
(g89
g70
NtRp5150
(dp5151
g73
(dp5152
g93
g94
ssg82
g5146
sg75
(lp5153
S'models_to_run'
p5154
asbag68
(g89
g70
NtRp5155
(dp5156
g73
(dp5157
g100
g101
ssg82
g5146
sg75
(lp5158
S':'
asbag68
(g89
g70
NtRp5159
(dp5160
g73
(dp5161
sg82
g5146
sg75
(lp5162
g68
(g69
g70
NtRp5163
(dp5164
g73
(dp5165
g81
I5
ssg82
g5159
sg75
(lp5166
g68
(g77
g70
NtRp5167
(dp5168
g73
(dp5169
g81
I4
ssg82
Nsg75
(lp5170
g68
(g84
g70
NtRp5171
(dp5172
g73
(dp5173
sg82
g5167
sg75
(lp5174
g68
(g89
g70
NtRp5175
(dp5176
g73
(dp5177
sg82
g5171
sg75
(lp5178
g68
(g69
g70
NtRp5179
(dp5180
g73
(dp5181
g81
I4
ssg82
g5175
sg75
(lp5182
S'^\\w+\\.py$'
p5183
asbasbasbag68
(g84
g70
NtRp5184
(dp5185
g73
(dp5186
sg82
g5167
sg75
(lp5187
g68
(g89
g70
NtRp5188
(dp5189
g73
(dp5190
sg82
g5184
sg75
(lp5191
g68
(g69
g70
NtRp5192
(dp5193
g73
(dp5194
g81
I4
ssg82
g5188
sg75
(lp5195
S'^initial/\\w+\\.py$'
p5196
asbasbasbag68
(g84
g70
NtRp5197
(dp5198
g73
(dp5199
sg82
g5167
sg75
(lp5200
g68
(g89
g70
NtRp5201
(dp5202
g73
(dp5203
sg82
g5197
sg75
(lp5204
g68
(g69
g70
NtRp5205
(dp5206
g73
(dp5207
g81
I4
ssg82
g5201
sg75
(lp5208
S'^initial/product/\\w+\\.py$'
p5209
asbasbasbasbasbasbasbag68
(g84
g70
NtRp5210
(dp5211
g73
(dp5212
sg82
g3861
sg75
(lp5213
g68
(g89
g70
NtRp5214
(dp5215
g73
(dp5216
g93
g94
ssg82
g5210
sg75
(lp5217
S'postprocessing'
p5218
asbag68
(g89
g70
NtRp5219
(dp5220
g73
(dp5221
g100
g101
ssg82
g5210
sg75
(lp5222
S':'
asbag68
(g89
g70
NtRp5223
(dp5224
g73
(dp5225
sg82
g5210
sg75
(lp5226
g68
(g69
g70
NtRp5227
(dp5228
g73
(dp5229
g81
I5
ssg82
g5223
sg75
(lp5230
g68
(g77
g70
NtRp5231
(dp5232
g73
(dp5233
g81
I4
ssg82
Nsg75
(lp5234
sbasbasbasbag68
(g84
g70
NtRp5235
(dp5236
g73
(dp5237
sg82
g3861
sg75
(lp5238
g68
(g89
g70
NtRp5239
(dp5240
g73
(dp5241
g93
g94
ssg82
g5235
sg75
(lp5242
S'session_cookie_expires'
p5243
asbag68
(g89
g70
NtRp5244
(dp5245
g73
(dp5246
g100
g101
ssg82
g5235
sg75
(lp5247
S':'
asbag68
(g89
g70
NtRp5248
(dp5249
g73
(dp5250
sg82
g5235
sg75
(lp5251
g68
(g69
g70
NtRp5252
(dp5253
g73
(dp5254
g81
I5
ssg82
g5248
sg75
(lp5255
S'None'
p5256
asbasbasbag68
(g84
g70
NtRp5257
(dp5258
g73
(dp5259
sg82
g3861
sg75
(lp5260
g68
(g89
g70
NtRp5261
(dp5262
g73
(dp5263
g93
g94
ssg82
g5257
sg75
(lp5264
S'session_data_name'
p5265
asbag68
(g89
g70
NtRp5266
(dp5267
g73
(dp5268
g100
g101
ssg82
g5257
sg75
(lp5269
S':'
asbag68
(g89
g70
NtRp5270
(dp5271
g73
(dp5272
sg82
g5257
sg75
(lp5273
g68
(g69
g70
NtRp5274
(dp5275
g73
(dp5276
g81
I5
ssg82
g5270
sg75
(lp5277
S'session_data_projeto'
p5278
asbasbasbag68
(g84
g70
NtRp5279
(dp5280
g73
(dp5281
sg82
g3861
sg75
(lp5282
g68
(g89
g70
NtRp5283
(dp5284
g73
(dp5285
g93
g94
ssg82
g5279
sg75
(lp5286
S'session_file'
p5287
asbag68
(g89
g70
NtRp5288
(dp5289
g73
(dp5290
g100
g101
ssg82
g5279
sg75
(lp5291
S':'
asbag68
(g89
g70
NtRp5292
(dp5293
g73
(dp5294
sg82
g5279
sg75
(lp5295
g68
(g69
g70
NtRp5296
(dp5297
g73
(dp5298
g81
I5
ssg82
g5292
sg75
(lp5299
S"<open file '/var/www/hosts3/applications/projeto/sessions/127.0.0.1-691450d9-0478-4d7f-a716-be4ace49b6f4', mode 'rb+' at 0x7f9acc35eb70>"
p5300
asbasbasbag68
(g84
g70
NtRp5301
(dp5302
g73
(dp5303
sg82
g3861
sg75
(lp5304
g68
(g89
g70
NtRp5305
(dp5306
g73
(dp5307
g93
g94
ssg82
g5301
sg75
(lp5308
S'session_filename'
p5309
asbag68
(g89
g70
NtRp5310
(dp5311
g73
(dp5312
g100
g101
ssg82
g5301
sg75
(lp5313
S':'
asbag68
(g89
g70
NtRp5314
(dp5315
g73
(dp5316
sg82
g5301
sg75
(lp5317
g68
(g69
g70
NtRp5318
(dp5319
g73
(dp5320
g81
I5
ssg82
g5314
sg75
(lp5321
S'/var/www/hosts3/applications/projeto/sessions/127.0.0.1-691450d9-0478-4d7f-a716-be4ace49b6f4'
p5322
asbasbasbag68
(g84
g70
NtRp5323
(dp5324
g73
(dp5325
sg82
g3861
sg75
(lp5326
g68
(g89
g70
NtRp5327
(dp5328
g73
(dp5329
g93
g94
ssg82
g5323
sg75
(lp5330
S'session_id'
p5331
asbag68
(g89
g70
NtRp5332
(dp5333
g73
(dp5334
g100
g101
ssg82
g5323
sg75
(lp5335
S':'
asbag68
(g89
g70
NtRp5336
(dp5337
g73
(dp5338
sg82
g5323
sg75
(lp5339
g68
(g69
g70
NtRp5340
(dp5341
g73
(dp5342
g81
I5
ssg82
g5336
sg75
(lp5343
g856
asbasbasbag68
(g84
g70
NtRp5344
(dp5345
g73
(dp5346
sg82
g3861
sg75
(lp5347
g68
(g89
g70
NtRp5348
(dp5349
g73
(dp5350
g93
g94
ssg82
g5344
sg75
(lp5351
S'session_id_name'
p5352
asbag68
(g89
g70
NtRp5353
(dp5354
g73
(dp5355
g100
g101
ssg82
g5344
sg75
(lp5356
S':'
asbag68
(g89
g70
NtRp5357
(dp5358
g73
(dp5359
sg82
g5344
sg75
(lp5360
g68
(g69
g70
NtRp5361
(dp5362
g73
(dp5363
g81
I5
ssg82
g5357
sg75
(lp5364
g3918
asbasbasbag68
(g84
g70
NtRp5365
(dp5366
g73
(dp5367
sg82
g3861
sg75
(lp5368
g68
(g89
g70
NtRp5369
(dp5370
g73
(dp5371
g93
g94
ssg82
g5365
sg75
(lp5372
S'session_locked'
p5373
asbag68
(g89
g70
NtRp5374
(dp5375
g73
(dp5376
g100
g101
ssg82
g5365
sg75
(lp5377
S':'
asbag68
(g89
g70
NtRp5378
(dp5379
g73
(dp5380
sg82
g5365
sg75
(lp5381
g68
(g69
g70
NtRp5382
(dp5383
g73
(dp5384
g81
I5
ssg82
g5378
sg75
(lp5385
g1995
asbasbasbag68
(g84
g70
NtRp5386
(dp5387
g73
(dp5388
sg82
g3861
sg75
(lp5389
g68
(g89
g70
NtRp5390
(dp5391
g73
(dp5392
g93
g94
ssg82
g5386
sg75
(lp5393
S'session_new'
p5394
asbag68
(g89
g70
NtRp5395
(dp5396
g73
(dp5397
g100
g101
ssg82
g5386
sg75
(lp5398
S':'
asbag68
(g89
g70
NtRp5399
(dp5400
g73
(dp5401
sg82
g5386
sg75
(lp5402
g68
(g69
g70
NtRp5403
(dp5404
g73
(dp5405
g81
I5
ssg82
g5399
sg75
(lp5406
g111
asbasbasbag68
(g84
g70
NtRp5407
(dp5408
g73
(dp5409
sg82
g3861
sg75
(lp5410
g68
(g89
g70
NtRp5411
(dp5412
g73
(dp5413
g93
g94
ssg82
g5407
sg75
(lp5414
S'session_storage_type'
p5415
asbag68
(g89
g70
NtRp5416
(dp5417
g73
(dp5418
g100
g101
ssg82
g5407
sg75
(lp5419
S':'
asbag68
(g89
g70
NtRp5420
(dp5421
g73
(dp5422
sg82
g5407
sg75
(lp5423
g68
(g69
g70
NtRp5424
(dp5425
g73
(dp5426
g81
I5
ssg82
g5420
sg75
(lp5427
g3413
asbasbasbag68
(g84
g70
NtRp5428
(dp5429
g73
(dp5430
sg82
g3861
sg75
(lp5431
g68
(g89
g70
NtRp5432
(dp5433
g73
(dp5434
g93
g94
ssg82
g5428
sg75
(lp5435
S'status'
p5436
asbag68
(g89
g70
NtRp5437
(dp5438
g73
(dp5439
g100
g101
ssg82
g5428
sg75
(lp5440
S':'
asbag68
(g89
g70
NtRp5441
(dp5442
g73
(dp5443
sg82
g5428
sg75
(lp5444
g68
(g69
g70
NtRp5445
(dp5446
g73
(dp5447
g81
I5
ssg82
g5441
sg75
(lp5448
S'200'
p5449
asbasbasbag68
(g84
g70
NtRp5450
(dp5451
g73
(dp5452
sg82
g3861
sg75
(lp5453
g68
(g89
g70
NtRp5454
(dp5455
g73
(dp5456
g93
g94
ssg82
g5450
sg75
(lp5457
S'subtitle'
p5458
asbag68
(g89
g70
NtRp5459
(dp5460
g73
(dp5461
g100
g101
ssg82
g5450
sg75
(lp5462
S':'
asbag68
(g89
g70
NtRp5463
(dp5464
g73
(dp5465
sg82
g5450
sg75
(lp5466
g68
(g69
g70
NtRp5467
(dp5468
g73
(dp5469
g81
I5
ssg82
g5463
sg75
(lp5470
g4393
(S's\r\x00\x00\x00customize me!'
tRp5471
asbasbasbag68
(g84
g70
NtRp5472
(dp5473
g73
(dp5474
sg82
g3861
sg75
(lp5475
g68
(g89
g70
NtRp5476
(dp5477
g73
(dp5478
g93
g94
ssg82
g5472
sg75
(lp5479
S'title'
p5480
asbag68
(g89
g70
NtRp5481
(dp5482
g73
(dp5483
g100
g101
ssg82
g5472
sg75
(lp5484
S':'
asbag68
(g89
g70
NtRp5485
(dp5486
g73
(dp5487
sg82
g5472
sg75
(lp5488
g68
(g69
g70
NtRp5489
(dp5490
g73
(dp5491
g81
I5
ssg82
g5485
sg75
(lp5492
S'Projeto'
p5493
asbasbasbag68
(g84
g70
NtRp5494
(dp5495
g73
(dp5496
sg82
g3861
sg75
(lp5497
g68
(g89
g70
NtRp5498
(dp5499
g73
(dp5500
g93
g94
ssg82
g5494
sg75
(lp5501
S'view'
p5502
asbag68
(g89
g70
NtRp5503
(dp5504
g73
(dp5505
g100
g101
ssg82
g5494
sg75
(lp5506
S':'
asbag68
(g89
g70
NtRp5507
(dp5508
g73
(dp5509
sg82
g5494
sg75
(lp5510
g68
(g69
g70
NtRp5511
(dp5512
g73
(dp5513
g81
I5
ssg82
g5507
sg75
(lp5514
S'initial/product.html'
p5515
asbasbasbasbasbsS'locals'
p5516
(dp5517
g4
S"'/var/www/hosts3/applications/projeto/controllers/initial.py'"
p5518
sg6
S"'# coding: utf-8\\n\\n@auth.requires_login()\\ndef show...m)\\n\\n\\n \\n\\nresponse._vars=response._caller(product)\\n'"
p5519
sssS'traceback'
p5520
S'Traceback (most recent call last):\n  File "/var/www/hosts3/gluon/restricted.py", line 211, in restricted\n    ccode = compile2(code, layer)\n  File "/var/www/hosts3/gluon/restricted.py", line 194, in compile2\n    return compile(code.rstrip().replace(\'\\r\\n\', \'\\n\') + \'\\n\', layer, \'exec\')\n  File "/var/www/hosts3/applications/projeto/controllers/initial.py", line 338\n    labels = {\'id_cliente\':\'Cliente\', \'id_servidor\':\'Servidor\', \'id_distro\':\'Distro\',\n   ^\nIndentationError: unexpected indent\n'
p5521
s.