(dp1
S'output'
p2
S"<type 'exceptions.IndentationError'> expected an indented block (initial.py, line 233)"
p3
sS'layer'
p4
S'/var/www/hosts3/applications/projeto/controllers/initial.py'
p5
sS'code'
p6
S'# coding: utf-8\n\n@auth.requires_login()\ndef show_cliente():\n\tresponse.title="Clientes"\n\n\tdb.args=Cliente.id.readable=False\n\tgrid = SQLFORM.grid(Cliente,\n\t\tuser_signature=True, searchable=True, csv=False, \n\t\tpaginate=50, details=False, \n\t\tignore_rw = True, maxtextlength=26,\n\t\tcreate=auth.has_membership("admin"),\n\t\teditable=auth.has_membership("admin"),\n\t\tdeletable=auth.has_membership("admin"),  \n    \tlinks = [lambda row: A(\'hosts\', _class=\'btn\', \n\t\t\t_title=\'ver servidores\', \n\t\t\t_href=URL("initial", "/cliente_host", \n\t\t\tvars=dict(f=row.id, n1=\'Clientes\', p1=\'show_cliente\')))]\n    \t)\n\treturn response.render("initial/show_grid.html", grid=grid)\n\n@auth.requires_login()\ndef show_servidor():\n\tresponse.title="Servidores"\n\n\tdb.args=Servidor.id.readable=False\n\tgrid = SQLFORM.grid(Servidor,\n\t\tuser_signature=True, searchable=True, csv=False,\n\t\tpaginate=50, details=False, \n\t\tignore_rw = True, maxtextlength=26,\n\t\tcreate=auth.has_membership("admin"),\n\t\teditable=auth.has_membership("admin"),\n\t\tdeletable=auth.has_membership("admin"),  \n    \tlinks = [lambda row: A(\'hosts\', _class=\'btn\', \n    \t\t_title=\'ver servidores\', \n    \t\t_href=URL("initial", "/servidor_host", \n    \t\tvars=dict(f=row.id, n1=\'Servidores\', p1=\'show_servidor\')))]\n\t\t)\n\treturn response.render("initial/show_grid.html", grid=grid)\n\n@auth.requires_login()\ndef show_distro():\n\tresponse.title="Distribui\xc3\xa7\xc3\xb5es"\n\n\tdb.args=Distro.id.readable=False\n\tdb.args=Distro.img.readable=False\n\tgrid = SQLFORM.grid(Distro,\n\t\tuser_signature=True, searchable=True, csv=False,\n\t\tpaginate=50, details=False, ignore_rw = True, \n\t\tmaxtextlength=26, links_placement=\'left\',\n\t\tcreate=auth.has_membership("admin"),\n\t\teditable=auth.has_membership("admin"),\n\t\tdeletable=auth.has_membership("admin"),  \n    \tlinks = [lambda row: A(\'hosts\', \n    \t\t_class=\'btn\', \n    \t\t_title=\'ver servidores\', \n    \t\t_href=URL("initial", "/distro_host", \n    \t\tvars=dict(f=row.id, n1=\'Distros\', p1=\'show_distro\'))), \n    \tdict(header=\'\',body=lambda row: A( IMG(_src=URL("static", "images", args=(row.img) ))))]\n\t\t)\n\treturn response.render("initial/show_grid.html", grid=grid)\n\n\n@auth.requires_login()\ndef cliente_host():\n\tfiltro = request.vars[\'f\']\n\tqueryset = db(db.cliente.id == filtro)\n\trows = queryset.select()\n\tcliente = rows[0]\n\tresponse.title = cliente.nome\n\tprint cliente\n\n\tnome_ant1 = request.vars[\'n1\']\n\tfuncao_ant1 = request.vars[\'p1\']\n\tnome_atual = cliente.nome\n\n\tquery = ((db.hosts.id_cliente == filtro) & (db.distro.id == db.hosts.id_distro))\n\tlinks = [dict(header=\'\',body=lambda row: A( IMG(_src=URL("static", "images", args=(row.distro.img)) ))), \n\t lambda row: A(\'Detalhes\', \n    \t\t      _class=\'btn\', \n    \t\t      _title=\'Detalhes\', \n    \t\t      _href=URL("initial", "/exemplo", \n    \t\t      vars=dict(f=row.hosts.id, c=filtro, n=cliente.nome, \n    \t\t      \t\t\tn1=\'Clientes\', p1=\'show_cliente\', p=\'cliente_host\'))),\n\t lambda row: A(\'Editar\', \n    \t\t      _class=\'btn\', \n    \t\t      _title=\'Editar\', \n    \t\t      _href=URL("initial", "/edit_host", \n    \t\t      vars=dict(f=row.hosts.id, c=filtro, n=cliente.nome, \n    \t\t      \t\tn1=\'Clientes\', p1=\'show_cliente\', p=\'cliente_host\')))]\n\tdb.hosts.id.readable=False\n\tdb.distro.img.readable=False\n\t\n\tfields = (db.hosts.id, db.hosts.id_servidor, db.hosts.id_distro, db.distro.img, \n\t\t\t  db.hosts.ip_chegada, db.hosts.porta_ssh, db.hosts.gateway)\n\theaders = {\'host.id\':   \'ID\',\n               \'host.id_servidor\': \'Servidor\',\n               \'host.id_distro\': \'Distro\',\n               \'host.nome\': \'Nome\',\n\t           \'host.servicos\': \'Servicos\'}\n\tgrid = SQLFORM.grid(query=query, fields=fields, csv=False,\n\t\t\t\t\t\tdetails=False, searchable=False, maxtextlength=23, links=links, \n\t\t\t\t\t\tlinks_placement=\'left\', editable=False, create=False)\n\n\treturn response.render("initial/show_grid2.html", grid=grid, nome_ant1=nome_ant1, \n\t\t\t\t\t\tfuncao_ant1=funcao_ant1, nome_atual=nome_atual)\n\n@auth.requires_login()\ndef servidor_host():\n\tfiltro = request.vars[\'f\']\n\tqueryset = db(db.servidor.id == filtro)\n\trows = queryset.select()\n\tservidor = rows[0]\n\tresponse.title = servidor.nome\n\n\tnome_ant1 = request.vars[\'n1\']\n\tfuncao_ant1 = request.vars[\'p1\']\n\tnome_atual = servidor.nome\t\n\n\tdb.distro.img.readable=False\n\tdb.hosts.id.readable=False\n\tquery = ((db.hosts.id_servidor == filtro) & (db.distro.id == db.hosts.id_distro))\n\n\tlinks = [dict(header=\'\',body=lambda row: A( IMG(_src=URL("static", "images", args=(row.distro.img)) ))), \n\t lambda row: A(\'Detalhes\', \n    \t\t      _class=\'btn\', \n    \t\t      _title=\'Detalhes\', \n    \t\t      _href=URL("initial", "/exemplo", \n    \t\t      vars=dict(f=row.hosts.id, c=filtro, n=servidor.nome, \n    \t\t      \t\tn1=\'Servidores\', p1=\'show_servidor\', p=\'servidor_host\'))),\n\t lambda row: A(\'Editar\', \n    \t\t      _class=\'btn\', \n    \t\t      _title=\'Editar\', \n    \t\t      _href=URL("initial", "/edit_host", \n    \t\t      vars=dict(f=row.hosts.id, c=filtro, n=servidor.nome, \n    \t\t      \t\tn1=\'Servidores\', p1=\'show_servidor\', p=\'servidor_host\')))]\n\n\tfields = (db.hosts.id, db.hosts.id_cliente, db.hosts.id_distro, db.distro.img, \n\t\t\t\tdb.hosts.ip_chegada, db.hosts.porta_ssh, db.hosts.gateway)\n\theaders = {\'host.id\':   \'ID\',\n               \'host.id_servidor\': \'Servidor\',\n               \'host.id_distro\': \'Distro\',\n               \'host.nome\': \'Nome\',\n\t           \'host.servicos\': \'Servicos\'}\n\tgrid = SQLFORM.grid(query=query, fields=fields, headers=headers, csv=False,\n\t\t\t\t\t\tdetails=False, searchable=False, maxtextlength=23, links=links, \n\t\t\t\t\t\tlinks_placement=\'left\', editable=False, create=False)\n\n\treturn response.render("initial/show_grid2.html", grid=grid, nome_ant1=nome_ant1, \n\t\t\t\t\t\tfuncao_ant1=funcao_ant1, nome_atual=nome_atual)\n\n@auth.requires_login()\ndef distro_host():\n\tfiltro = request.vars[\'f\']\n\tqueryset = db(db.distro.id == filtro)\n\trows = queryset.select()\n\tdistro = rows[0]\n\tresponse.title = distro.nome\n\n\tnome_ant1 = request.vars[\'n1\']\n\tfuncao_ant1 = request.vars[\'p1\']\n\tnome_atual = distro.nome\t\n\t\n\tdb.hosts.id.readable=False\n\tdb.distro.img.readable=False\n\tquery = ((db.hosts.id_distro == filtro) & (db.distro.id == db.hosts.id_distro))\n\tlinks = [dict(header=\'\',body=lambda row: A( IMG(_src=URL("static", "images", args=(row.distro.img)) ))), \n\t lambda row: A(\'Detalhes\', \n    \t\t      _class=\'btn\', \n    \t\t      _title=\'Detalhes\', \n    \t\t      _href=URL("initial", "/exemplo", \n    \t\t      vars=dict(f=row.hosts.id, c=filtro, n=distro.nome, \n    \t\t      \t\tn1=\'Distros\', p1=\'show_distro\', p=\'distro_host\'))),\n\t lambda row: A(\'Editar\', \n    \t\t      _class=\'btn\', \n    \t\t      _title=\'Editar\', \n    \t\t      _href=URL("initial", "/edit_host", \n    \t\t      vars=dict(f=row.hosts.id, c=filtro, n=distro.nome, \n    \t\t      \t\tn1=\'Distros\', p1=\'show_distro\', p=\'distro_host\')))]\n\n\tfields = (db.hosts.id, db.hosts.id_cliente, db.hosts.id_servidor, db.distro.img, \n\t\t\t  db.hosts.ip_chegada, db.hosts.porta_ssh, db.hosts.gateway)\n\theaders = {\'host.id\':   \'ID\',\n               \'host.id_servidor\': \'Servidor\',\n               \'host.id_distro\': \'Distro\',\n               \'host.nome\': \'Nome\',\n\t           \'host.servicos\': \'Servicos\'}\n\tgrid = SQLFORM.grid(query=query, fields=fields, headers=headers, csv=False,\n\t\t\t\t\t\tdetails=False, searchable=False, maxtextlength=23, links=links, \n\t\t\t\t\t\tlinks_placement=\'left\', editable=False, create=False)\n\n\treturn response.render("initial/show_grid2.html", grid=grid, nome_ant1=nome_ant1, \n\t\t\t\t\t\tfuncao_ant1=funcao_ant1, nome_atual=nome_atual)\n\ndef exemplo():\n\tfiltro = request.vars[\'f\'] #id_host\n\tid_cliente = request.vars[\'c\'] #id_cliente\n\tnome_ant = request.vars[\'n\'] #nome (asterisk ou agronelli ou debian)\n\tnome_ant1 = request.vars[\'n1\'] #nome (servidores ou clientes ou distros)\n\tfuncao_ant = request.vars[\'p\'] #funcao(host_servidores)\n\tfuncao_ant1 = request.vars[\'p1\'] #funcao(show_servidores)\n\t\n\n\tquery = ((db.hosts.id == filtro) & (db.hosts.id_cliente == db.cliente.id)\n\t \t    & (db.hosts.id_servidor == db.servidor.id) \n\t \t    & (db.hosts.id_distro == db.distro.id)) \n\tdetalhes = db.hosts(query)\n\t\n\t\n\treturn response.render("initial/detalhes_host.html", detalhes=detalhes, \n\t\t\t\tid_cliente=id_cliente, funcao_ant=funcao_ant, funcao_ant1=funcao_ant1, \n\t\t\t\tnome_ant=nome_ant, nome_ant1=nome_ant1, filtro=filtro)\n\ndef edit_host():\n\tid_cliente = request.vars[\'c\']\n\tnome_ant = request.vars[\'n\']\n\tnome_ant1 = request.vars[\'n1\']\n\tfuncao_ant = request.vars[\'p\']\n\tfuncao_ant1 = request.vars[\'p1\']\n\n\tresponse.view = \'initial/show_form.html\'\n\treturn dict(form=SQLFORM(db.hosts, request.vars[\'f\']).process(), \n\t\t\t\tid_cliente=id_cliente, funcao_ant=funcao_ant, funcao_ant1=funcao_ant1, \n\t\t\t\t\tnome_ant=nome_ant, nome_ant1=nome_ant1)\n\n\n@auth.requires_login()\ndef interface():\n\tresponse.view = \'initial/show_form2.html\'\n\tform=SQLFORM(db.hosts, request.vars[\'f\']).process()\n\n\tif form.process().accepted:\n        ptests = "a"\n    else:\n        pteste = "b"\n    \treturn dict(form=form)\n\n\ndef interfaceee():\n\tresponse.view = \'initial/show_form2.html\'\n\treturn dict(form=SQLFORM(db.hosts).process())\n\n\ndef home():\n\tnome = "Fernando"\n\tresponse.title = "Titulo home"\n\treturn dict(nome=nome)\n\ndef contact():\n\treturn "form"\n\ndef about():\n\tfiltro = request.vars[\'f\']\n\tquery = ((db.hosts.id_servidor == filtro) & (db.distro.id == db.hosts.id_distro))\n\tfields = (db.hosts.id, db.hosts.id_cliente, db.hosts.id_distro, db.distro.img, \n\t\t\t\tdb.hosts.ip_chegada, db.hosts.porta_ssh, db.hosts.gateway)\n\theaders = {\'host.id\':   \'ID\',\n               \'host.id_servidor\': \'Servidor\',\n               \'host.id_distro\': \'Distro\',\n               \'host.nome\': \'Nome\',\n\t           \'host.servicos\': \'Servicos\'}\n\tgrid = SQLFORM.grid(query=query, fields=fields, headers=headers, csv=False,\n\t\t\t\t\t\tdetails=False, maxtextlength=23, searchable=True, editable=False, create=False)\n\n\treturn response.render("initial/teste.html", grid=grid,)\n\ndef user():\n\tif request.args(0) == \'register\':\n        \tdb.auth_user.bio.writable = db.auth_user.bio.readable = False\n\treturn response.render("initial/user.html", user=auth())\n\ndef register():\n\treturn auth.register()\n\ndef login():\n        return auth.login()\n\ndef account():\n    return dict(register=auth.register(),\n                login=auth.login())\n\t\ndef download():\n\treturn response.download(request, db)\n\ndef exemploo():\n#\treturn "teste"\n\treturn response.render("default/teste.html", nome="fernando", \n\t\tsobrenome="vieira", lista=["item1", "item2", "item3"])\n\ndef teste11():\n\tprint "Action index"\n\tprint request.args\n\tprint request.vars \t\n\tprint request.post_vars #somente entradas de formul\xc3\xa1rio\n    \tprint request.get_vars  #somente entradas de url\n    \t#nome = request.vars[\'nome\']\n        mensagem = "Bem Vindo"\n        form = "<form action=\'\' method=\'POST\'><input name=\'nome\' id=\'nome\'/><input type=\'Submit\'></form><br>"\n        if \'nome\' in request.vars:\n\t\tform = "<p>Bem vindo %(nome)s</p>" % request.vars + form\t\t\n\t\t#mensagem = mensagem + " usu\xc3\xa1rio %(nome)s" % request.vars\t#mostrando variavel da url\n        \t#mensagem = mensagem + " usu\xc3\xa1rio %s" %str(nome)\t\t\t#mostrando uma variavel local    \n\treturn form\n\ndef teste2():\n\treturn "<form><label>Nome</label><input /></form><br><a href=\'http://www.w3schools.com\'>Visit W3Schools</a>"\n\t#return dict(nome="fernando")\n\t#return response.render("teste.html", dict(nome="fernando"))\n\ndef soma(x, y):\n\treturn x + y\n\ndef product():\n    grid = SQLFORM(db.product)\n    return response.render("initial/show_grid.html", grid=grid)\n\n\n \n\nresponse._vars=response._caller(show_cliente)\n'
p7
sS'snapshot'
p8
(dp9
S'exception'
p10
(dp11
S'__getslice__'
p12
S"<method-wrapper '__getslice__' of exceptions.IndentationError object>"
p13
sS'text'
p14
S'\'        ptests = "a"\\n\''
p15
sS'__str__'
p16
S"<method-wrapper '__str__' of exceptions.IndentationError object>"
p17
sS'__reduce__'
p18
S'<built-in method __reduce__ of exceptions.IndentationError object>'
p19
sS'__dict__'
p20
S'{}'
p21
sS'__sizeof__'
p22
S'<built-in method __sizeof__ of exceptions.IndentationError object>'
p23
sS'__init__'
p24
S"<method-wrapper '__init__' of exceptions.IndentationError object>"
p25
sS'__setattr__'
p26
S"<method-wrapper '__setattr__' of exceptions.IndentationError object>"
p27
sS'__reduce_ex__'
p28
S'<built-in method __reduce_ex__ of exceptions.IndentationError object>'
p29
sS'__new__'
p30
S'<built-in method __new__ of type object>'
p31
sS'__format__'
p32
S'<built-in method __format__ of exceptions.IndentationError object>'
p33
sS'__class__'
p34
S"<type 'exceptions.IndentationError'>"
p35
sS'filename'
p36
S"'/var/www/hosts3/applications/projeto/controllers/initial.py'"
p37
sS'lineno'
p38
S'233'
p39
sS'msg'
p40
S"'expected an indented block'"
p41
sS'__doc__'
p42
S"'Improper indentation.'"
p43
sS'__getitem__'
p44
S"<method-wrapper '__getitem__' of exceptions.IndentationError object>"
p45
sS'__setstate__'
p46
S'<built-in method __setstate__ of exceptions.IndentationError object>'
p47
sS'__getattribute__'
p48
S"<method-wrapper '__getattribute__' of exceptions.IndentationError object>"
p49
sS'print_file_and_line'
p50
S'None'
p51
sS'args'
p52
S'(\'expected an indented block\', (\'/var/www/hosts3/applications/projeto/controllers/initial.py\', 233, 14, \'        ptests = "a"\\n\'))'
p53
sS'__subclasshook__'
p54
S'<built-in method __subclasshook__ of type object>'
p55
sS'offset'
p56
S'14'
p57
sS'__unicode__'
p58
S'<built-in method __unicode__ of exceptions.IndentationError object>'
p59
sS'__delattr__'
p60
S"<method-wrapper '__delattr__' of exceptions.IndentationError object>"
p61
sS'__repr__'
p62
S"<method-wrapper '__repr__' of exceptions.IndentationError object>"
p63
sS'__hash__'
p64
S"<method-wrapper '__hash__' of exceptions.IndentationError object>"
p65
ssS'evalue'
p66
S'expected an indented block (initial.py, line 233)'
p67
sS'request'
p68
ccopy_reg
_reconstructor
p69
(cgluon.html
BEAUTIFY
p70
c__builtin__
object
p71
NtRp72
(dp73
S'attributes'
p74
(dp75
sS'components'
p76
(lp77
g69
(cgluon.html
TABLE
p78
g71
NtRp79
(dp80
g74
(dp81
S'level'
p82
I5
ssS'parent'
p83
Nsg76
(lp84
g69
(cgluon.html
TR
p85
g71
NtRp86
(dp87
g74
(dp88
sg83
g79
sg76
(lp89
g69
(cgluon.html
TD
p90
g71
NtRp91
(dp92
g74
(dp93
S'_style'
p94
S'font-weight:bold;vertical-align:top'
p95
ssg83
g86
sg76
(lp96
S'ajax'
p97
asbag69
(g90
g71
NtRp98
(dp99
g74
(dp100
S'_valign'
p101
S'top'
p102
ssg83
g86
sg76
(lp103
S':'
asbag69
(g90
g71
NtRp104
(dp105
g74
(dp106
sg83
g86
sg76
(lp107
g69
(g70
g71
NtRp108
(dp109
g74
(dp110
g82
I5
ssg83
g104
sg76
(lp111
S'False'
p112
asbasbasbag69
(g85
g71
NtRp113
(dp114
g74
(dp115
sg83
g79
sg76
(lp116
g69
(g90
g71
NtRp117
(dp118
g74
(dp119
g94
g95
ssg83
g113
sg76
(lp120
S'application'
p121
asbag69
(g90
g71
NtRp122
(dp123
g74
(dp124
g101
g102
ssg83
g113
sg76
(lp125
S':'
asbag69
(g90
g71
NtRp126
(dp127
g74
(dp128
sg83
g113
sg76
(lp129
g69
(g70
g71
NtRp130
(dp131
g74
(dp132
g82
I5
ssg83
g126
sg76
(lp133
S'projeto'
p134
asbasbasbag69
(g85
g71
NtRp135
(dp136
g74
(dp137
sg83
g79
sg76
(lp138
g69
(g90
g71
NtRp139
(dp140
g74
(dp141
g94
g95
ssg83
g135
sg76
(lp142
g52
asbag69
(g90
g71
NtRp143
(dp144
g74
(dp145
g101
g102
ssg83
g135
sg76
(lp146
S':'
asbag69
(g90
g71
NtRp147
(dp148
g74
(dp149
sg83
g135
sg76
(lp150
g69
(g70
g71
NtRp151
(dp152
g74
(dp153
g82
I5
ssg83
g147
sg76
(lp154
g69
(g78
g71
NtRp155
(dp156
g74
(dp157
g82
I4
ssg83
Nsg76
(lp158
sbasbasbasbag69
(g85
g71
NtRp159
(dp160
g74
(dp161
sg83
g79
sg76
(lp162
g69
(g90
g71
NtRp163
(dp164
g74
(dp165
g94
g95
ssg83
g159
sg76
(lp166
S'body'
p167
asbag69
(g90
g71
NtRp168
(dp169
g74
(dp170
g101
g102
ssg83
g159
sg76
(lp171
S':'
asbag69
(g90
g71
NtRp172
(dp173
g74
(dp174
sg83
g159
sg76
(lp175
g69
(g70
g71
NtRp176
(dp177
g74
(dp178
g82
I5
ssg83
g172
sg76
(lp179
S'<cStringIO.StringO object at 0x7fcfac6d56f8>'
p180
asbasbasbag69
(g85
g71
NtRp181
(dp182
g74
(dp183
sg83
g79
sg76
(lp184
g69
(g90
g71
NtRp185
(dp186
g74
(dp187
g94
g95
ssg83
g181
sg76
(lp188
S'cid'
p189
asbag69
(g90
g71
NtRp190
(dp191
g74
(dp192
g101
g102
ssg83
g181
sg76
(lp193
S':'
asbag69
(g90
g71
NtRp194
(dp195
g74
(dp196
sg83
g181
sg76
(lp197
g69
(g70
g71
NtRp198
(dp199
g74
(dp200
g82
I5
ssg83
g194
sg76
(lp201
S'None'
p202
asbasbasbag69
(g85
g71
NtRp203
(dp204
g74
(dp205
sg83
g79
sg76
(lp206
g69
(g90
g71
NtRp207
(dp208
g74
(dp209
g94
g95
ssg83
g203
sg76
(lp210
S'client'
p211
asbag69
(g90
g71
NtRp212
(dp213
g74
(dp214
g101
g102
ssg83
g203
sg76
(lp215
S':'
asbag69
(g90
g71
NtRp216
(dp217
g74
(dp218
sg83
g203
sg76
(lp219
g69
(g70
g71
NtRp220
(dp221
g74
(dp222
g82
I5
ssg83
g216
sg76
(lp223
S'127.0.0.1'
p224
asbasbasbag69
(g85
g71
NtRp225
(dp226
g74
(dp227
sg83
g79
sg76
(lp228
g69
(g90
g71
NtRp229
(dp230
g74
(dp231
g94
g95
ssg83
g225
sg76
(lp232
S'controller'
p233
asbag69
(g90
g71
NtRp234
(dp235
g74
(dp236
g101
g102
ssg83
g225
sg76
(lp237
S':'
asbag69
(g90
g71
NtRp238
(dp239
g74
(dp240
sg83
g225
sg76
(lp241
g69
(g70
g71
NtRp242
(dp243
g74
(dp244
g82
I5
ssg83
g238
sg76
(lp245
S'initial'
p246
asbasbasbag69
(g85
g71
NtRp247
(dp248
g74
(dp249
sg83
g79
sg76
(lp250
g69
(g90
g71
NtRp251
(dp252
g74
(dp253
g94
g95
ssg83
g247
sg76
(lp254
S'cookies'
p255
asbag69
(g90
g71
NtRp256
(dp257
g74
(dp258
g101
g102
ssg83
g247
sg76
(lp259
S':'
asbag69
(g90
g71
NtRp260
(dp261
g74
(dp262
sg83
g247
sg76
(lp263
g69
(g70
g71
NtRp264
(dp265
g74
(dp266
g82
I5
ssg83
g260
sg76
(lp267
g69
(g78
g71
NtRp268
(dp269
g74
(dp270
g82
I4
ssg83
Nsg76
(lp271
g69
(g85
g71
NtRp272
(dp273
g74
(dp274
sg83
g268
sg76
(lp275
g69
(g90
g71
NtRp276
(dp277
g74
(dp278
g94
g95
ssg83
g272
sg76
(lp279
S'language'
p280
asbag69
(g90
g71
NtRp281
(dp282
g74
(dp283
g101
g102
ssg83
g272
sg76
(lp284
S':'
asbag69
(g90
g71
NtRp285
(dp286
g74
(dp287
sg83
g272
sg76
(lp288
g69
(g70
g71
NtRp289
(dp290
g74
(dp291
g82
I4
ssg83
g285
sg76
(lp292
S'1'
ag69
(g78
g71
NtRp293
(dp294
g74
(dp295
g82
I3
ssg83
Nsg76
(lp296
g69
(g85
g71
NtRp297
(dp298
g74
(dp299
sg83
g293
sg76
(lp300
g69
(g90
g71
NtRp301
(dp302
g74
(dp303
g94
g95
ssg83
g297
sg76
(lp304
S'comment'
p305
asbag69
(g90
g71
NtRp306
(dp307
g74
(dp308
g101
g102
ssg83
g297
sg76
(lp309
S':'
asbag69
(g90
g71
NtRp310
(dp311
g74
(dp312
sg83
g297
sg76
(lp313
g69
(g70
g71
NtRp314
(dp315
g74
(dp316
g82
I3
ssg83
g310
sg76
(lp317
S''
asbasbasbag69
(g85
g71
NtRp318
(dp319
g74
(dp320
sg83
g293
sg76
(lp321
g69
(g90
g71
NtRp322
(dp323
g74
(dp324
g94
g95
ssg83
g318
sg76
(lp325
S'domain'
p326
asbag69
(g90
g71
NtRp327
(dp328
g74
(dp329
g101
g102
ssg83
g318
sg76
(lp330
S':'
asbag69
(g90
g71
NtRp331
(dp332
g74
(dp333
sg83
g318
sg76
(lp334
g69
(g70
g71
NtRp335
(dp336
g74
(dp337
g82
I3
ssg83
g331
sg76
(lp338
S''
asbasbasbag69
(g85
g71
NtRp339
(dp340
g74
(dp341
sg83
g293
sg76
(lp342
g69
(g90
g71
NtRp343
(dp344
g74
(dp345
g94
g95
ssg83
g339
sg76
(lp346
S'expires'
p347
asbag69
(g90
g71
NtRp348
(dp349
g74
(dp350
g101
g102
ssg83
g339
sg76
(lp351
S':'
asbag69
(g90
g71
NtRp352
(dp353
g74
(dp354
sg83
g339
sg76
(lp355
g69
(g70
g71
NtRp356
(dp357
g74
(dp358
g82
I3
ssg83
g352
sg76
(lp359
S''
asbasbasbag69
(g85
g71
NtRp360
(dp361
g74
(dp362
sg83
g293
sg76
(lp363
g69
(g90
g71
NtRp364
(dp365
g74
(dp366
g94
g95
ssg83
g360
sg76
(lp367
S'httponly'
p368
asbag69
(g90
g71
NtRp369
(dp370
g74
(dp371
g101
g102
ssg83
g360
sg76
(lp372
S':'
asbag69
(g90
g71
NtRp373
(dp374
g74
(dp375
sg83
g360
sg76
(lp376
g69
(g70
g71
NtRp377
(dp378
g74
(dp379
g82
I3
ssg83
g373
sg76
(lp380
S''
asbasbasbag69
(g85
g71
NtRp381
(dp382
g74
(dp383
sg83
g293
sg76
(lp384
g69
(g90
g71
NtRp385
(dp386
g74
(dp387
g94
g95
ssg83
g381
sg76
(lp388
S'max-age'
p389
asbag69
(g90
g71
NtRp390
(dp391
g74
(dp392
g101
g102
ssg83
g381
sg76
(lp393
S':'
asbag69
(g90
g71
NtRp394
(dp395
g74
(dp396
sg83
g381
sg76
(lp397
g69
(g70
g71
NtRp398
(dp399
g74
(dp400
g82
I3
ssg83
g394
sg76
(lp401
S''
asbasbasbag69
(g85
g71
NtRp402
(dp403
g74
(dp404
sg83
g293
sg76
(lp405
g69
(g90
g71
NtRp406
(dp407
g74
(dp408
g94
g95
ssg83
g402
sg76
(lp409
S'path'
p410
asbag69
(g90
g71
NtRp411
(dp412
g74
(dp413
g101
g102
ssg83
g402
sg76
(lp414
S':'
asbag69
(g90
g71
NtRp415
(dp416
g74
(dp417
sg83
g402
sg76
(lp418
g69
(g70
g71
NtRp419
(dp420
g74
(dp421
g82
I3
ssg83
g415
sg76
(lp422
S''
asbasbasbag69
(g85
g71
NtRp423
(dp424
g74
(dp425
sg83
g293
sg76
(lp426
g69
(g90
g71
NtRp427
(dp428
g74
(dp429
g94
g95
ssg83
g423
sg76
(lp430
S'secure'
p431
asbag69
(g90
g71
NtRp432
(dp433
g74
(dp434
g101
g102
ssg83
g423
sg76
(lp435
S':'
asbag69
(g90
g71
NtRp436
(dp437
g74
(dp438
sg83
g423
sg76
(lp439
g69
(g70
g71
NtRp440
(dp441
g74
(dp442
g82
I3
ssg83
g436
sg76
(lp443
S''
asbasbasbag69
(g85
g71
NtRp444
(dp445
g74
(dp446
sg83
g293
sg76
(lp447
g69
(g90
g71
NtRp448
(dp449
g74
(dp450
g94
g95
ssg83
g444
sg76
(lp451
S'version'
p452
asbag69
(g90
g71
NtRp453
(dp454
g74
(dp455
g101
g102
ssg83
g444
sg76
(lp456
S':'
asbag69
(g90
g71
NtRp457
(dp458
g74
(dp459
sg83
g444
sg76
(lp460
g69
(g70
g71
NtRp461
(dp462
g74
(dp463
g82
I3
ssg83
g457
sg76
(lp464
S''
asbasbasbasbasbasbasbag69
(g85
g71
NtRp465
(dp466
g74
(dp467
sg83
g268
sg76
(lp468
g69
(g90
g71
NtRp469
(dp470
g74
(dp471
g94
g95
ssg83
g465
sg76
(lp472
S'nr'
p473
asbag69
(g90
g71
NtRp474
(dp475
g74
(dp476
g101
g102
ssg83
g465
sg76
(lp477
S':'
asbag69
(g90
g71
NtRp478
(dp479
g74
(dp480
sg83
g465
sg76
(lp481
g69
(g70
g71
NtRp482
(dp483
g74
(dp484
g82
I4
ssg83
g478
sg76
(lp485
S'1'
ag69
(g78
g71
NtRp486
(dp487
g74
(dp488
g82
I3
ssg83
Nsg76
(lp489
g69
(g85
g71
NtRp490
(dp491
g74
(dp492
sg83
g486
sg76
(lp493
g69
(g90
g71
NtRp494
(dp495
g74
(dp496
g94
g95
ssg83
g490
sg76
(lp497
g305
asbag69
(g90
g71
NtRp498
(dp499
g74
(dp500
g101
g102
ssg83
g490
sg76
(lp501
S':'
asbag69
(g90
g71
NtRp502
(dp503
g74
(dp504
sg83
g490
sg76
(lp505
g69
(g70
g71
NtRp506
(dp507
g74
(dp508
g82
I3
ssg83
g502
sg76
(lp509
S''
asbasbasbag69
(g85
g71
NtRp510
(dp511
g74
(dp512
sg83
g486
sg76
(lp513
g69
(g90
g71
NtRp514
(dp515
g74
(dp516
g94
g95
ssg83
g510
sg76
(lp517
g326
asbag69
(g90
g71
NtRp518
(dp519
g74
(dp520
g101
g102
ssg83
g510
sg76
(lp521
S':'
asbag69
(g90
g71
NtRp522
(dp523
g74
(dp524
sg83
g510
sg76
(lp525
g69
(g70
g71
NtRp526
(dp527
g74
(dp528
g82
I3
ssg83
g522
sg76
(lp529
S''
asbasbasbag69
(g85
g71
NtRp530
(dp531
g74
(dp532
sg83
g486
sg76
(lp533
g69
(g90
g71
NtRp534
(dp535
g74
(dp536
g94
g95
ssg83
g530
sg76
(lp537
g347
asbag69
(g90
g71
NtRp538
(dp539
g74
(dp540
g101
g102
ssg83
g530
sg76
(lp541
S':'
asbag69
(g90
g71
NtRp542
(dp543
g74
(dp544
sg83
g530
sg76
(lp545
g69
(g70
g71
NtRp546
(dp547
g74
(dp548
g82
I3
ssg83
g542
sg76
(lp549
S''
asbasbasbag69
(g85
g71
NtRp550
(dp551
g74
(dp552
sg83
g486
sg76
(lp553
g69
(g90
g71
NtRp554
(dp555
g74
(dp556
g94
g95
ssg83
g550
sg76
(lp557
g368
asbag69
(g90
g71
NtRp558
(dp559
g74
(dp560
g101
g102
ssg83
g550
sg76
(lp561
S':'
asbag69
(g90
g71
NtRp562
(dp563
g74
(dp564
sg83
g550
sg76
(lp565
g69
(g70
g71
NtRp566
(dp567
g74
(dp568
g82
I3
ssg83
g562
sg76
(lp569
S''
asbasbasbag69
(g85
g71
NtRp570
(dp571
g74
(dp572
sg83
g486
sg76
(lp573
g69
(g90
g71
NtRp574
(dp575
g74
(dp576
g94
g95
ssg83
g570
sg76
(lp577
g389
asbag69
(g90
g71
NtRp578
(dp579
g74
(dp580
g101
g102
ssg83
g570
sg76
(lp581
S':'
asbag69
(g90
g71
NtRp582
(dp583
g74
(dp584
sg83
g570
sg76
(lp585
g69
(g70
g71
NtRp586
(dp587
g74
(dp588
g82
I3
ssg83
g582
sg76
(lp589
S''
asbasbasbag69
(g85
g71
NtRp590
(dp591
g74
(dp592
sg83
g486
sg76
(lp593
g69
(g90
g71
NtRp594
(dp595
g74
(dp596
g94
g95
ssg83
g590
sg76
(lp597
g410
asbag69
(g90
g71
NtRp598
(dp599
g74
(dp600
g101
g102
ssg83
g590
sg76
(lp601
S':'
asbag69
(g90
g71
NtRp602
(dp603
g74
(dp604
sg83
g590
sg76
(lp605
g69
(g70
g71
NtRp606
(dp607
g74
(dp608
g82
I3
ssg83
g602
sg76
(lp609
S''
asbasbasbag69
(g85
g71
NtRp610
(dp611
g74
(dp612
sg83
g486
sg76
(lp613
g69
(g90
g71
NtRp614
(dp615
g74
(dp616
g94
g95
ssg83
g610
sg76
(lp617
g431
asbag69
(g90
g71
NtRp618
(dp619
g74
(dp620
g101
g102
ssg83
g610
sg76
(lp621
S':'
asbag69
(g90
g71
NtRp622
(dp623
g74
(dp624
sg83
g610
sg76
(lp625
g69
(g70
g71
NtRp626
(dp627
g74
(dp628
g82
I3
ssg83
g622
sg76
(lp629
S''
asbasbasbag69
(g85
g71
NtRp630
(dp631
g74
(dp632
sg83
g486
sg76
(lp633
g69
(g90
g71
NtRp634
(dp635
g74
(dp636
g94
g95
ssg83
g630
sg76
(lp637
g452
asbag69
(g90
g71
NtRp638
(dp639
g74
(dp640
g101
g102
ssg83
g630
sg76
(lp641
S':'
asbag69
(g90
g71
NtRp642
(dp643
g74
(dp644
sg83
g630
sg76
(lp645
g69
(g70
g71
NtRp646
(dp647
g74
(dp648
g82
I3
ssg83
g642
sg76
(lp649
S''
asbasbasbasbasbasbasbag69
(g85
g71
NtRp650
(dp651
g74
(dp652
sg83
g268
sg76
(lp653
g69
(g90
g71
NtRp654
(dp655
g74
(dp656
g94
g95
ssg83
g650
sg76
(lp657
S'session_id_admin'
p658
asbag69
(g90
g71
NtRp659
(dp660
g74
(dp661
g101
g102
ssg83
g650
sg76
(lp662
S':'
asbag69
(g90
g71
NtRp663
(dp664
g74
(dp665
sg83
g650
sg76
(lp666
g69
(g70
g71
NtRp667
(dp668
g74
(dp669
g82
I4
ssg83
g663
sg76
(lp670
S'127.0.0.1-08328b58-a15e-4ffd-9e36-b8cb93d7a537'
p671
ag69
(g78
g71
NtRp672
(dp673
g74
(dp674
g82
I3
ssg83
Nsg76
(lp675
g69
(g85
g71
NtRp676
(dp677
g74
(dp678
sg83
g672
sg76
(lp679
g69
(g90
g71
NtRp680
(dp681
g74
(dp682
g94
g95
ssg83
g676
sg76
(lp683
g305
asbag69
(g90
g71
NtRp684
(dp685
g74
(dp686
g101
g102
ssg83
g676
sg76
(lp687
S':'
asbag69
(g90
g71
NtRp688
(dp689
g74
(dp690
sg83
g676
sg76
(lp691
g69
(g70
g71
NtRp692
(dp693
g74
(dp694
g82
I3
ssg83
g688
sg76
(lp695
S''
asbasbasbag69
(g85
g71
NtRp696
(dp697
g74
(dp698
sg83
g672
sg76
(lp699
g69
(g90
g71
NtRp700
(dp701
g74
(dp702
g94
g95
ssg83
g696
sg76
(lp703
g326
asbag69
(g90
g71
NtRp704
(dp705
g74
(dp706
g101
g102
ssg83
g696
sg76
(lp707
S':'
asbag69
(g90
g71
NtRp708
(dp709
g74
(dp710
sg83
g696
sg76
(lp711
g69
(g70
g71
NtRp712
(dp713
g74
(dp714
g82
I3
ssg83
g708
sg76
(lp715
S''
asbasbasbag69
(g85
g71
NtRp716
(dp717
g74
(dp718
sg83
g672
sg76
(lp719
g69
(g90
g71
NtRp720
(dp721
g74
(dp722
g94
g95
ssg83
g716
sg76
(lp723
g347
asbag69
(g90
g71
NtRp724
(dp725
g74
(dp726
g101
g102
ssg83
g716
sg76
(lp727
S':'
asbag69
(g90
g71
NtRp728
(dp729
g74
(dp730
sg83
g716
sg76
(lp731
g69
(g70
g71
NtRp732
(dp733
g74
(dp734
g82
I3
ssg83
g728
sg76
(lp735
S''
asbasbasbag69
(g85
g71
NtRp736
(dp737
g74
(dp738
sg83
g672
sg76
(lp739
g69
(g90
g71
NtRp740
(dp741
g74
(dp742
g94
g95
ssg83
g736
sg76
(lp743
g368
asbag69
(g90
g71
NtRp744
(dp745
g74
(dp746
g101
g102
ssg83
g736
sg76
(lp747
S':'
asbag69
(g90
g71
NtRp748
(dp749
g74
(dp750
sg83
g736
sg76
(lp751
g69
(g70
g71
NtRp752
(dp753
g74
(dp754
g82
I3
ssg83
g748
sg76
(lp755
S''
asbasbasbag69
(g85
g71
NtRp756
(dp757
g74
(dp758
sg83
g672
sg76
(lp759
g69
(g90
g71
NtRp760
(dp761
g74
(dp762
g94
g95
ssg83
g756
sg76
(lp763
g389
asbag69
(g90
g71
NtRp764
(dp765
g74
(dp766
g101
g102
ssg83
g756
sg76
(lp767
S':'
asbag69
(g90
g71
NtRp768
(dp769
g74
(dp770
sg83
g756
sg76
(lp771
g69
(g70
g71
NtRp772
(dp773
g74
(dp774
g82
I3
ssg83
g768
sg76
(lp775
S''
asbasbasbag69
(g85
g71
NtRp776
(dp777
g74
(dp778
sg83
g672
sg76
(lp779
g69
(g90
g71
NtRp780
(dp781
g74
(dp782
g94
g95
ssg83
g776
sg76
(lp783
g410
asbag69
(g90
g71
NtRp784
(dp785
g74
(dp786
g101
g102
ssg83
g776
sg76
(lp787
S':'
asbag69
(g90
g71
NtRp788
(dp789
g74
(dp790
sg83
g776
sg76
(lp791
g69
(g70
g71
NtRp792
(dp793
g74
(dp794
g82
I3
ssg83
g788
sg76
(lp795
S''
asbasbasbag69
(g85
g71
NtRp796
(dp797
g74
(dp798
sg83
g672
sg76
(lp799
g69
(g90
g71
NtRp800
(dp801
g74
(dp802
g94
g95
ssg83
g796
sg76
(lp803
g431
asbag69
(g90
g71
NtRp804
(dp805
g74
(dp806
g101
g102
ssg83
g796
sg76
(lp807
S':'
asbag69
(g90
g71
NtRp808
(dp809
g74
(dp810
sg83
g796
sg76
(lp811
g69
(g70
g71
NtRp812
(dp813
g74
(dp814
g82
I3
ssg83
g808
sg76
(lp815
S''
asbasbasbag69
(g85
g71
NtRp816
(dp817
g74
(dp818
sg83
g672
sg76
(lp819
g69
(g90
g71
NtRp820
(dp821
g74
(dp822
g94
g95
ssg83
g816
sg76
(lp823
g452
asbag69
(g90
g71
NtRp824
(dp825
g74
(dp826
g101
g102
ssg83
g816
sg76
(lp827
S':'
asbag69
(g90
g71
NtRp828
(dp829
g74
(dp830
sg83
g816
sg76
(lp831
g69
(g70
g71
NtRp832
(dp833
g74
(dp834
g82
I3
ssg83
g828
sg76
(lp835
S''
asbasbasbasbasbasbasbag69
(g85
g71
NtRp836
(dp837
g74
(dp838
sg83
g268
sg76
(lp839
g69
(g90
g71
NtRp840
(dp841
g74
(dp842
g94
g95
ssg83
g836
sg76
(lp843
S'session_id_projeto'
p844
asbag69
(g90
g71
NtRp845
(dp846
g74
(dp847
g101
g102
ssg83
g836
sg76
(lp848
S':'
asbag69
(g90
g71
NtRp849
(dp850
g74
(dp851
sg83
g836
sg76
(lp852
g69
(g70
g71
NtRp853
(dp854
g74
(dp855
g82
I4
ssg83
g849
sg76
(lp856
S'127.0.0.1-2593ca5a-9aaf-4468-bbd5-27e4709e54ae'
p857
ag69
(g78
g71
NtRp858
(dp859
g74
(dp860
g82
I3
ssg83
Nsg76
(lp861
g69
(g85
g71
NtRp862
(dp863
g74
(dp864
sg83
g858
sg76
(lp865
g69
(g90
g71
NtRp866
(dp867
g74
(dp868
g94
g95
ssg83
g862
sg76
(lp869
g305
asbag69
(g90
g71
NtRp870
(dp871
g74
(dp872
g101
g102
ssg83
g862
sg76
(lp873
S':'
asbag69
(g90
g71
NtRp874
(dp875
g74
(dp876
sg83
g862
sg76
(lp877
g69
(g70
g71
NtRp878
(dp879
g74
(dp880
g82
I3
ssg83
g874
sg76
(lp881
S''
asbasbasbag69
(g85
g71
NtRp882
(dp883
g74
(dp884
sg83
g858
sg76
(lp885
g69
(g90
g71
NtRp886
(dp887
g74
(dp888
g94
g95
ssg83
g882
sg76
(lp889
g326
asbag69
(g90
g71
NtRp890
(dp891
g74
(dp892
g101
g102
ssg83
g882
sg76
(lp893
S':'
asbag69
(g90
g71
NtRp894
(dp895
g74
(dp896
sg83
g882
sg76
(lp897
g69
(g70
g71
NtRp898
(dp899
g74
(dp900
g82
I3
ssg83
g894
sg76
(lp901
S''
asbasbasbag69
(g85
g71
NtRp902
(dp903
g74
(dp904
sg83
g858
sg76
(lp905
g69
(g90
g71
NtRp906
(dp907
g74
(dp908
g94
g95
ssg83
g902
sg76
(lp909
g347
asbag69
(g90
g71
NtRp910
(dp911
g74
(dp912
g101
g102
ssg83
g902
sg76
(lp913
S':'
asbag69
(g90
g71
NtRp914
(dp915
g74
(dp916
sg83
g902
sg76
(lp917
g69
(g70
g71
NtRp918
(dp919
g74
(dp920
g82
I3
ssg83
g914
sg76
(lp921
S''
asbasbasbag69
(g85
g71
NtRp922
(dp923
g74
(dp924
sg83
g858
sg76
(lp925
g69
(g90
g71
NtRp926
(dp927
g74
(dp928
g94
g95
ssg83
g922
sg76
(lp929
g368
asbag69
(g90
g71
NtRp930
(dp931
g74
(dp932
g101
g102
ssg83
g922
sg76
(lp933
S':'
asbag69
(g90
g71
NtRp934
(dp935
g74
(dp936
sg83
g922
sg76
(lp937
g69
(g70
g71
NtRp938
(dp939
g74
(dp940
g82
I3
ssg83
g934
sg76
(lp941
S''
asbasbasbag69
(g85
g71
NtRp942
(dp943
g74
(dp944
sg83
g858
sg76
(lp945
g69
(g90
g71
NtRp946
(dp947
g74
(dp948
g94
g95
ssg83
g942
sg76
(lp949
g389
asbag69
(g90
g71
NtRp950
(dp951
g74
(dp952
g101
g102
ssg83
g942
sg76
(lp953
S':'
asbag69
(g90
g71
NtRp954
(dp955
g74
(dp956
sg83
g942
sg76
(lp957
g69
(g70
g71
NtRp958
(dp959
g74
(dp960
g82
I3
ssg83
g954
sg76
(lp961
S''
asbasbasbag69
(g85
g71
NtRp962
(dp963
g74
(dp964
sg83
g858
sg76
(lp965
g69
(g90
g71
NtRp966
(dp967
g74
(dp968
g94
g95
ssg83
g962
sg76
(lp969
g410
asbag69
(g90
g71
NtRp970
(dp971
g74
(dp972
g101
g102
ssg83
g962
sg76
(lp973
S':'
asbag69
(g90
g71
NtRp974
(dp975
g74
(dp976
sg83
g962
sg76
(lp977
g69
(g70
g71
NtRp978
(dp979
g74
(dp980
g82
I3
ssg83
g974
sg76
(lp981
S''
asbasbasbag69
(g85
g71
NtRp982
(dp983
g74
(dp984
sg83
g858
sg76
(lp985
g69
(g90
g71
NtRp986
(dp987
g74
(dp988
g94
g95
ssg83
g982
sg76
(lp989
g431
asbag69
(g90
g71
NtRp990
(dp991
g74
(dp992
g101
g102
ssg83
g982
sg76
(lp993
S':'
asbag69
(g90
g71
NtRp994
(dp995
g74
(dp996
sg83
g982
sg76
(lp997
g69
(g70
g71
NtRp998
(dp999
g74
(dp1000
g82
I3
ssg83
g994
sg76
(lp1001
S''
asbasbasbag69
(g85
g71
NtRp1002
(dp1003
g74
(dp1004
sg83
g858
sg76
(lp1005
g69
(g90
g71
NtRp1006
(dp1007
g74
(dp1008
g94
g95
ssg83
g1002
sg76
(lp1009
g452
asbag69
(g90
g71
NtRp1010
(dp1011
g74
(dp1012
g101
g102
ssg83
g1002
sg76
(lp1013
S':'
asbag69
(g90
g71
NtRp1014
(dp1015
g74
(dp1016
sg83
g1002
sg76
(lp1017
g69
(g70
g71
NtRp1018
(dp1019
g74
(dp1020
g82
I3
ssg83
g1014
sg76
(lp1021
S''
asbasbasbasbasbasbasbasbasbasbasbag69
(g85
g71
NtRp1022
(dp1023
g74
(dp1024
sg83
g79
sg76
(lp1025
g69
(g90
g71
NtRp1026
(dp1027
g74
(dp1028
g94
g95
ssg83
g1022
sg76
(lp1029
S'env'
p1030
asbag69
(g90
g71
NtRp1031
(dp1032
g74
(dp1033
g101
g102
ssg83
g1022
sg76
(lp1034
S':'
asbag69
(g90
g71
NtRp1035
(dp1036
g74
(dp1037
sg83
g1022
sg76
(lp1038
g69
(g70
g71
NtRp1039
(dp1040
g74
(dp1041
g82
I5
ssg83
g1035
sg76
(lp1042
g69
(g78
g71
NtRp1043
(dp1044
g74
(dp1045
g82
I4
ssg83
Nsg76
(lp1046
g69
(g85
g71
NtRp1047
(dp1048
g74
(dp1049
sg83
g1043
sg76
(lp1050
g69
(g90
g71
NtRp1051
(dp1052
g74
(dp1053
g94
g95
ssg83
g1047
sg76
(lp1054
S'app_folders'
p1055
asbag69
(g90
g71
NtRp1056
(dp1057
g74
(dp1058
g101
g102
ssg83
g1047
sg76
(lp1059
S':'
asbag69
(g90
g71
NtRp1060
(dp1061
g74
(dp1062
sg83
g1047
sg76
(lp1063
g69
(g70
g71
NtRp1064
(dp1065
g74
(dp1066
g82
I4
ssg83
g1060
sg76
(lp1067
S"set(['/var/www/hosts3/applications/admin/', '/var/www/hosts3/applications/projeto/'])"
p1068
asbasbasbag69
(g85
g71
NtRp1069
(dp1070
g74
(dp1071
sg83
g1043
sg76
(lp1072
g69
(g90
g71
NtRp1073
(dp1074
g74
(dp1075
g94
g95
ssg83
g1069
sg76
(lp1076
S'applications_parent'
p1077
asbag69
(g90
g71
NtRp1078
(dp1079
g74
(dp1080
g101
g102
ssg83
g1069
sg76
(lp1081
S':'
asbag69
(g90
g71
NtRp1082
(dp1083
g74
(dp1084
sg83
g1069
sg76
(lp1085
g69
(g70
g71
NtRp1086
(dp1087
g74
(dp1088
g82
I4
ssg83
g1082
sg76
(lp1089
S'/var/www/hosts3'
p1090
asbasbasbag69
(g85
g71
NtRp1091
(dp1092
g74
(dp1093
sg83
g1043
sg76
(lp1094
g69
(g90
g71
NtRp1095
(dp1096
g74
(dp1097
g94
g95
ssg83
g1091
sg76
(lp1098
S'cmd_args'
p1099
asbag69
(g90
g71
NtRp1100
(dp1101
g74
(dp1102
g101
g102
ssg83
g1091
sg76
(lp1103
S':'
asbag69
(g90
g71
NtRp1104
(dp1105
g74
(dp1106
sg83
g1091
sg76
(lp1107
g69
(g70
g71
NtRp1108
(dp1109
g74
(dp1110
g82
I4
ssg83
g1104
sg76
(lp1111
g69
(g78
g71
NtRp1112
(dp1113
g74
(dp1114
g82
I3
ssg83
Nsg76
(lp1115
sbasbasbasbag69
(g85
g71
NtRp1116
(dp1117
g74
(dp1118
sg83
g1043
sg76
(lp1119
g69
(g90
g71
NtRp1120
(dp1121
g74
(dp1122
g94
g95
ssg83
g1116
sg76
(lp1123
S'cmd_options'
p1124
asbag69
(g90
g71
NtRp1125
(dp1126
g74
(dp1127
g101
g102
ssg83
g1116
sg76
(lp1128
S':'
asbag69
(g90
g71
NtRp1129
(dp1130
g74
(dp1131
sg83
g1116
sg76
(lp1132
g69
(g70
g71
NtRp1133
(dp1134
g74
(dp1135
g82
I4
ssg83
g1129
sg76
(lp1136
S"<Values at 0x33f56c8: {'verbose': False, 'ip': '127.0.0.1', 'with_scheduler': False, 'ips': [], 'shutdown_timeout': 5, 'taskbar': False, 'port': 8000, 'maxthreads': None, 'softcron': False, 'server_name': 'fernado-desktop', 'bpython': False, 'nogui': False, 'pid_filename': 'httpserver.pid', 'extcron': False, 'runcron': False, 'run_system_tests': False, 'test': None, 'folder': '/var/www/hosts3', 'config': '', 'minthreads': None, 'winservice': '', 'shell': None, 'run': '', 'log_filename': 'httpserver.log', 'debuglevel': 30, 'args': [''], 'socket_timeout': 5, 'ssl_ca_certificate': None, 'scheduler': None, 'profiler_filename': None, 'ssl_private_key': '', 'scheduler_groups': None, 'password': '123456', 'request_queue_size': 5, 'ssl_certificate': '', 'cronjob': False, 'numthreads': None, 'quiet': False, 'interfaces': None, 'import_models': False, 'timeout': 10, 'plain': False, 'nobanner': False}>"
p1137
asbasbasbag69
(g85
g71
NtRp1138
(dp1139
g74
(dp1140
sg83
g1043
sg76
(lp1141
g69
(g90
g71
NtRp1142
(dp1143
g74
(dp1144
g94
g95
ssg83
g1138
sg76
(lp1145
S'db_sessions'
p1146
asbag69
(g90
g71
NtRp1147
(dp1148
g74
(dp1149
g101
g102
ssg83
g1138
sg76
(lp1150
S':'
asbag69
(g90
g71
NtRp1151
(dp1152
g74
(dp1153
sg83
g1138
sg76
(lp1154
g69
(g70
g71
NtRp1155
(dp1156
g74
(dp1157
g82
I4
ssg83
g1151
sg76
(lp1158
S'set([])'
p1159
asbasbasbag69
(g85
g71
NtRp1160
(dp1161
g74
(dp1162
sg83
g1043
sg76
(lp1163
g69
(g90
g71
NtRp1164
(dp1165
g74
(dp1166
g94
g95
ssg83
g1160
sg76
(lp1167
S'debugging'
p1168
asbag69
(g90
g71
NtRp1169
(dp1170
g74
(dp1171
g101
g102
ssg83
g1160
sg76
(lp1172
S':'
asbag69
(g90
g71
NtRp1173
(dp1174
g74
(dp1175
sg83
g1160
sg76
(lp1176
g69
(g70
g71
NtRp1177
(dp1178
g74
(dp1179
g82
I4
ssg83
g1173
sg76
(lp1180
g112
asbasbasbag69
(g85
g71
NtRp1181
(dp1182
g74
(dp1183
sg83
g1043
sg76
(lp1184
g69
(g90
g71
NtRp1185
(dp1186
g74
(dp1187
g94
g95
ssg83
g1181
sg76
(lp1188
S'gluon_parent'
p1189
asbag69
(g90
g71
NtRp1190
(dp1191
g74
(dp1192
g101
g102
ssg83
g1181
sg76
(lp1193
S':'
asbag69
(g90
g71
NtRp1194
(dp1195
g74
(dp1196
sg83
g1181
sg76
(lp1197
g69
(g70
g71
NtRp1198
(dp1199
g74
(dp1200
g82
I4
ssg83
g1194
sg76
(lp1201
S'/var/www/hosts3'
p1202
asbasbasbag69
(g85
g71
NtRp1203
(dp1204
g74
(dp1205
sg83
g1043
sg76
(lp1206
g69
(g90
g71
NtRp1207
(dp1208
g74
(dp1209
g94
g95
ssg83
g1203
sg76
(lp1210
S'http_accept'
p1211
asbag69
(g90
g71
NtRp1212
(dp1213
g74
(dp1214
g101
g102
ssg83
g1203
sg76
(lp1215
S':'
asbag69
(g90
g71
NtRp1216
(dp1217
g74
(dp1218
sg83
g1203
sg76
(lp1219
g69
(g70
g71
NtRp1220
(dp1221
g74
(dp1222
g82
I4
ssg83
g1216
sg76
(lp1223
S'text/html,application/xhtml+xml,application/xml;q=0.9,*/*;q=0.8'
p1224
asbasbasbag69
(g85
g71
NtRp1225
(dp1226
g74
(dp1227
sg83
g1043
sg76
(lp1228
g69
(g90
g71
NtRp1229
(dp1230
g74
(dp1231
g94
g95
ssg83
g1225
sg76
(lp1232
S'http_accept_charset'
p1233
asbag69
(g90
g71
NtRp1234
(dp1235
g74
(dp1236
g101
g102
ssg83
g1225
sg76
(lp1237
S':'
asbag69
(g90
g71
NtRp1238
(dp1239
g74
(dp1240
sg83
g1225
sg76
(lp1241
g69
(g70
g71
NtRp1242
(dp1243
g74
(dp1244
g82
I4
ssg83
g1238
sg76
(lp1245
S'ISO-8859-1,utf-8;q=0.7,*;q=0.3'
p1246
asbasbasbag69
(g85
g71
NtRp1247
(dp1248
g74
(dp1249
sg83
g1043
sg76
(lp1250
g69
(g90
g71
NtRp1251
(dp1252
g74
(dp1253
g94
g95
ssg83
g1247
sg76
(lp1254
S'http_accept_encoding'
p1255
asbag69
(g90
g71
NtRp1256
(dp1257
g74
(dp1258
g101
g102
ssg83
g1247
sg76
(lp1259
S':'
asbag69
(g90
g71
NtRp1260
(dp1261
g74
(dp1262
sg83
g1247
sg76
(lp1263
g69
(g70
g71
NtRp1264
(dp1265
g74
(dp1266
g82
I4
ssg83
g1260
sg76
(lp1267
S'gzip,deflate,sdch'
p1268
asbasbasbag69
(g85
g71
NtRp1269
(dp1270
g74
(dp1271
sg83
g1043
sg76
(lp1272
g69
(g90
g71
NtRp1273
(dp1274
g74
(dp1275
g94
g95
ssg83
g1269
sg76
(lp1276
S'http_accept_language'
p1277
asbag69
(g90
g71
NtRp1278
(dp1279
g74
(dp1280
g101
g102
ssg83
g1269
sg76
(lp1281
S':'
asbag69
(g90
g71
NtRp1282
(dp1283
g74
(dp1284
sg83
g1269
sg76
(lp1285
g69
(g70
g71
NtRp1286
(dp1287
g74
(dp1288
g82
I4
ssg83
g1282
sg76
(lp1289
S'pt-BR,pt;q=0.8,en-US;q=0.6,en;q=0.4'
p1290
asbasbasbag69
(g85
g71
NtRp1291
(dp1292
g74
(dp1293
sg83
g1043
sg76
(lp1294
g69
(g90
g71
NtRp1295
(dp1296
g74
(dp1297
g94
g95
ssg83
g1291
sg76
(lp1298
S'http_connection'
p1299
asbag69
(g90
g71
NtRp1300
(dp1301
g74
(dp1302
g101
g102
ssg83
g1291
sg76
(lp1303
S':'
asbag69
(g90
g71
NtRp1304
(dp1305
g74
(dp1306
sg83
g1291
sg76
(lp1307
g69
(g70
g71
NtRp1308
(dp1309
g74
(dp1310
g82
I4
ssg83
g1304
sg76
(lp1311
S'keep-alive'
p1312
asbasbasbag69
(g85
g71
NtRp1313
(dp1314
g74
(dp1315
sg83
g1043
sg76
(lp1316
g69
(g90
g71
NtRp1317
(dp1318
g74
(dp1319
g94
g95
ssg83
g1313
sg76
(lp1320
S'http_cookie'
p1321
asbag69
(g90
g71
NtRp1322
(dp1323
g74
(dp1324
g101
g102
ssg83
g1313
sg76
(lp1325
S':'
asbag69
(g90
g71
NtRp1326
(dp1327
g74
(dp1328
sg83
g1313
sg76
(lp1329
g69
(g70
g71
NtRp1330
(dp1331
g74
(dp1332
g82
I4
ssg83
g1326
sg76
(lp1333
S'nr=1; language=1; session_id_projeto=127.0.0.1-2593ca5a-9aaf-4468-bbd5-27e4709e54ae; session_id_admin=127.0.0.1-08328b58-a15e-4ffd-9e36-b8cb93d7a537'
p1334
asbasbasbag69
(g85
g71
NtRp1335
(dp1336
g74
(dp1337
sg83
g1043
sg76
(lp1338
g69
(g90
g71
NtRp1339
(dp1340
g74
(dp1341
g94
g95
ssg83
g1335
sg76
(lp1342
S'http_host'
p1343
asbag69
(g90
g71
NtRp1344
(dp1345
g74
(dp1346
g101
g102
ssg83
g1335
sg76
(lp1347
S':'
asbag69
(g90
g71
NtRp1348
(dp1349
g74
(dp1350
sg83
g1335
sg76
(lp1351
g69
(g70
g71
NtRp1352
(dp1353
g74
(dp1354
g82
I4
ssg83
g1348
sg76
(lp1355
S'127.0.0.1:8000'
p1356
asbasbasbag69
(g85
g71
NtRp1357
(dp1358
g74
(dp1359
sg83
g1043
sg76
(lp1360
g69
(g90
g71
NtRp1361
(dp1362
g74
(dp1363
g94
g95
ssg83
g1357
sg76
(lp1364
S'http_user_agent'
p1365
asbag69
(g90
g71
NtRp1366
(dp1367
g74
(dp1368
g101
g102
ssg83
g1357
sg76
(lp1369
S':'
asbag69
(g90
g71
NtRp1370
(dp1371
g74
(dp1372
sg83
g1357
sg76
(lp1373
g69
(g70
g71
NtRp1374
(dp1375
g74
(dp1376
g82
I4
ssg83
g1370
sg76
(lp1377
S'Mozilla/5.0 (X11; Linux x86_64) AppleWebKit/537.4 (KHTML, like Gecko) Ubuntu/12.10 Chromium/22.0.1229.94 Chrome/22.0.1229.94 Safari/537.4'
p1378
asbasbasbag69
(g85
g71
NtRp1379
(dp1380
g74
(dp1381
sg83
g1043
sg76
(lp1382
g69
(g90
g71
NtRp1383
(dp1384
g74
(dp1385
g94
g95
ssg83
g1379
sg76
(lp1386
S'is_jython'
p1387
asbag69
(g90
g71
NtRp1388
(dp1389
g74
(dp1390
g101
g102
ssg83
g1379
sg76
(lp1391
S':'
asbag69
(g90
g71
NtRp1392
(dp1393
g74
(dp1394
sg83
g1379
sg76
(lp1395
g69
(g70
g71
NtRp1396
(dp1397
g74
(dp1398
g82
I4
ssg83
g1392
sg76
(lp1399
g112
asbasbasbag69
(g85
g71
NtRp1400
(dp1401
g74
(dp1402
sg83
g1043
sg76
(lp1403
g69
(g90
g71
NtRp1404
(dp1405
g74
(dp1406
g94
g95
ssg83
g1400
sg76
(lp1407
S'is_pypy'
p1408
asbag69
(g90
g71
NtRp1409
(dp1410
g74
(dp1411
g101
g102
ssg83
g1400
sg76
(lp1412
S':'
asbag69
(g90
g71
NtRp1413
(dp1414
g74
(dp1415
sg83
g1400
sg76
(lp1416
g69
(g70
g71
NtRp1417
(dp1418
g74
(dp1419
g82
I4
ssg83
g1413
sg76
(lp1420
g112
asbasbasbag69
(g85
g71
NtRp1421
(dp1422
g74
(dp1423
sg83
g1043
sg76
(lp1424
g69
(g90
g71
NtRp1425
(dp1426
g74
(dp1427
g94
g95
ssg83
g1421
sg76
(lp1428
S'local_hosts'
p1429
asbag69
(g90
g71
NtRp1430
(dp1431
g74
(dp1432
g101
g102
ssg83
g1421
sg76
(lp1433
S':'
asbag69
(g90
g71
NtRp1434
(dp1435
g74
(dp1436
sg83
g1421
sg76
(lp1437
g69
(g70
g71
NtRp1438
(dp1439
g74
(dp1440
g82
I4
ssg83
g1434
sg76
(lp1441
g69
(g78
g71
NtRp1442
(dp1443
g74
(dp1444
g82
I3
ssg83
Nsg76
(lp1445
g69
(g85
g71
NtRp1446
(dp1447
g74
(dp1448
sg83
g1442
sg76
(lp1449
g69
(g90
g71
NtRp1450
(dp1451
g74
(dp1452
sg83
g1446
sg76
(lp1453
g69
(g70
g71
NtRp1454
(dp1455
g74
(dp1456
g82
I3
ssg83
g1450
sg76
(lp1457
S'127.0.1.1'
p1458
asbasbasbag69
(g85
g71
NtRp1459
(dp1460
g74
(dp1461
sg83
g1442
sg76
(lp1462
g69
(g90
g71
NtRp1463
(dp1464
g74
(dp1465
sg83
g1459
sg76
(lp1466
g69
(g70
g71
NtRp1467
(dp1468
g74
(dp1469
g82
I3
ssg83
g1463
sg76
(lp1470
S'::1'
p1471
asbasbasbag69
(g85
g71
NtRp1472
(dp1473
g74
(dp1474
sg83
g1442
sg76
(lp1475
g69
(g90
g71
NtRp1476
(dp1477
g74
(dp1478
sg83
g1472
sg76
(lp1479
g69
(g70
g71
NtRp1480
(dp1481
g74
(dp1482
g82
I3
ssg83
g1476
sg76
(lp1483
S'fernado-desktop'
p1484
asbasbasbag69
(g85
g71
NtRp1485
(dp1486
g74
(dp1487
sg83
g1442
sg76
(lp1488
g69
(g90
g71
NtRp1489
(dp1490
g74
(dp1491
sg83
g1485
sg76
(lp1492
g69
(g70
g71
NtRp1493
(dp1494
g74
(dp1495
g82
I3
ssg83
g1489
sg76
(lp1496
S'::ffff:127.0.0.1'
p1497
asbasbasbag69
(g85
g71
NtRp1498
(dp1499
g74
(dp1500
sg83
g1442
sg76
(lp1501
g69
(g90
g71
NtRp1502
(dp1503
g74
(dp1504
sg83
g1498
sg76
(lp1505
g69
(g70
g71
NtRp1506
(dp1507
g74
(dp1508
g82
I3
ssg83
g1502
sg76
(lp1509
S'127.0.0.1'
p1510
asbasbasbasbasbasbasbag69
(g85
g71
NtRp1511
(dp1512
g74
(dp1513
sg83
g1043
sg76
(lp1514
g69
(g90
g71
NtRp1515
(dp1516
g74
(dp1517
g94
g95
ssg83
g1511
sg76
(lp1518
S'path_info'
p1519
asbag69
(g90
g71
NtRp1520
(dp1521
g74
(dp1522
g101
g102
ssg83
g1511
sg76
(lp1523
S':'
asbag69
(g90
g71
NtRp1524
(dp1525
g74
(dp1526
sg83
g1511
sg76
(lp1527
g69
(g70
g71
NtRp1528
(dp1529
g74
(dp1530
g82
I4
ssg83
g1524
sg76
(lp1531
S'/'
asbasbasbag69
(g85
g71
NtRp1532
(dp1533
g74
(dp1534
sg83
g1043
sg76
(lp1535
g69
(g90
g71
NtRp1536
(dp1537
g74
(dp1538
g94
g95
ssg83
g1532
sg76
(lp1539
S'query_string'
p1540
asbag69
(g90
g71
NtRp1541
(dp1542
g74
(dp1543
g101
g102
ssg83
g1532
sg76
(lp1544
S':'
asbag69
(g90
g71
NtRp1545
(dp1546
g74
(dp1547
sg83
g1532
sg76
(lp1548
g69
(g70
g71
NtRp1549
(dp1550
g74
(dp1551
g82
I4
ssg83
g1545
sg76
(lp1552
S''
asbasbasbag69
(g85
g71
NtRp1553
(dp1554
g74
(dp1555
sg83
g1043
sg76
(lp1556
g69
(g90
g71
NtRp1557
(dp1558
g74
(dp1559
g94
g95
ssg83
g1553
sg76
(lp1560
S'remote_addr'
p1561
asbag69
(g90
g71
NtRp1562
(dp1563
g74
(dp1564
g101
g102
ssg83
g1553
sg76
(lp1565
S':'
asbag69
(g90
g71
NtRp1566
(dp1567
g74
(dp1568
sg83
g1553
sg76
(lp1569
g69
(g70
g71
NtRp1570
(dp1571
g74
(dp1572
g82
I4
ssg83
g1566
sg76
(lp1573
g224
asbasbasbag69
(g85
g71
NtRp1574
(dp1575
g74
(dp1576
sg83
g1043
sg76
(lp1577
g69
(g90
g71
NtRp1578
(dp1579
g74
(dp1580
g94
g95
ssg83
g1574
sg76
(lp1581
S'remote_port'
p1582
asbag69
(g90
g71
NtRp1583
(dp1584
g74
(dp1585
g101
g102
ssg83
g1574
sg76
(lp1586
S':'
asbag69
(g90
g71
NtRp1587
(dp1588
g74
(dp1589
sg83
g1574
sg76
(lp1590
g69
(g70
g71
NtRp1591
(dp1592
g74
(dp1593
g82
I4
ssg83
g1587
sg76
(lp1594
S'48943'
p1595
asbasbasbag69
(g85
g71
NtRp1596
(dp1597
g74
(dp1598
sg83
g1043
sg76
(lp1599
g69
(g90
g71
NtRp1600
(dp1601
g74
(dp1602
g94
g95
ssg83
g1596
sg76
(lp1603
S'request_method'
p1604
asbag69
(g90
g71
NtRp1605
(dp1606
g74
(dp1607
g101
g102
ssg83
g1596
sg76
(lp1608
S':'
asbag69
(g90
g71
NtRp1609
(dp1610
g74
(dp1611
sg83
g1596
sg76
(lp1612
g69
(g70
g71
NtRp1613
(dp1614
g74
(dp1615
g82
I4
ssg83
g1609
sg76
(lp1616
S'GET'
p1617
asbasbasbag69
(g85
g71
NtRp1618
(dp1619
g74
(dp1620
sg83
g1043
sg76
(lp1621
g69
(g90
g71
NtRp1622
(dp1623
g74
(dp1624
g94
g95
ssg83
g1618
sg76
(lp1625
S'request_uri'
p1626
asbag69
(g90
g71
NtRp1627
(dp1628
g74
(dp1629
g101
g102
ssg83
g1618
sg76
(lp1630
S':'
asbag69
(g90
g71
NtRp1631
(dp1632
g74
(dp1633
sg83
g1618
sg76
(lp1634
g69
(g70
g71
NtRp1635
(dp1636
g74
(dp1637
g82
I4
ssg83
g1631
sg76
(lp1638
S'/projeto/initial/show_cliente'
p1639
asbasbasbag69
(g85
g71
NtRp1640
(dp1641
g74
(dp1642
sg83
g1043
sg76
(lp1643
g69
(g90
g71
NtRp1644
(dp1645
g74
(dp1646
g94
g95
ssg83
g1640
sg76
(lp1647
S'script_name'
p1648
asbag69
(g90
g71
NtRp1649
(dp1650
g74
(dp1651
g101
g102
ssg83
g1640
sg76
(lp1652
S':'
asbag69
(g90
g71
NtRp1653
(dp1654
g74
(dp1655
sg83
g1640
sg76
(lp1656
g69
(g70
g71
NtRp1657
(dp1658
g74
(dp1659
g82
I4
ssg83
g1653
sg76
(lp1660
S''
asbasbasbag69
(g85
g71
NtRp1661
(dp1662
g74
(dp1663
sg83
g1043
sg76
(lp1664
g69
(g90
g71
NtRp1665
(dp1666
g74
(dp1667
g94
g95
ssg83
g1661
sg76
(lp1668
S'server_name'
p1669
asbag69
(g90
g71
NtRp1670
(dp1671
g74
(dp1672
g101
g102
ssg83
g1661
sg76
(lp1673
S':'
asbag69
(g90
g71
NtRp1674
(dp1675
g74
(dp1676
sg83
g1661
sg76
(lp1677
g69
(g70
g71
NtRp1678
(dp1679
g74
(dp1680
g82
I4
ssg83
g1674
sg76
(lp1681
S'fernado-desktop'
p1682
asbasbasbag69
(g85
g71
NtRp1683
(dp1684
g74
(dp1685
sg83
g1043
sg76
(lp1686
g69
(g90
g71
NtRp1687
(dp1688
g74
(dp1689
g94
g95
ssg83
g1683
sg76
(lp1690
S'server_port'
p1691
asbag69
(g90
g71
NtRp1692
(dp1693
g74
(dp1694
g101
g102
ssg83
g1683
sg76
(lp1695
S':'
asbag69
(g90
g71
NtRp1696
(dp1697
g74
(dp1698
sg83
g1683
sg76
(lp1699
g69
(g70
g71
NtRp1700
(dp1701
g74
(dp1702
g82
I4
ssg83
g1696
sg76
(lp1703
S'8000'
p1704
asbasbasbag69
(g85
g71
NtRp1705
(dp1706
g74
(dp1707
sg83
g1043
sg76
(lp1708
g69
(g90
g71
NtRp1709
(dp1710
g74
(dp1711
g94
g95
ssg83
g1705
sg76
(lp1712
S'server_protocol'
p1713
asbag69
(g90
g71
NtRp1714
(dp1715
g74
(dp1716
g101
g102
ssg83
g1705
sg76
(lp1717
S':'
asbag69
(g90
g71
NtRp1718
(dp1719
g74
(dp1720
sg83
g1705
sg76
(lp1721
g69
(g70
g71
NtRp1722
(dp1723
g74
(dp1724
g82
I4
ssg83
g1718
sg76
(lp1725
S'HTTP/1.1'
p1726
asbasbasbag69
(g85
g71
NtRp1727
(dp1728
g74
(dp1729
sg83
g1043
sg76
(lp1730
g69
(g90
g71
NtRp1731
(dp1732
g74
(dp1733
g94
g95
ssg83
g1727
sg76
(lp1734
S'server_software'
p1735
asbag69
(g90
g71
NtRp1736
(dp1737
g74
(dp1738
g101
g102
ssg83
g1727
sg76
(lp1739
S':'
asbag69
(g90
g71
NtRp1740
(dp1741
g74
(dp1742
sg83
g1727
sg76
(lp1743
g69
(g70
g71
NtRp1744
(dp1745
g74
(dp1746
g82
I4
ssg83
g1740
sg76
(lp1747
S'Rocket 1.2.6'
p1748
asbasbasbag69
(g85
g71
NtRp1749
(dp1750
g74
(dp1751
sg83
g1043
sg76
(lp1752
g69
(g90
g71
NtRp1753
(dp1754
g74
(dp1755
g94
g95
ssg83
g1749
sg76
(lp1756
S'web2py_original_uri'
p1757
asbag69
(g90
g71
NtRp1758
(dp1759
g74
(dp1760
g101
g102
ssg83
g1749
sg76
(lp1761
S':'
asbag69
(g90
g71
NtRp1762
(dp1763
g74
(dp1764
sg83
g1749
sg76
(lp1765
g69
(g70
g71
NtRp1766
(dp1767
g74
(dp1768
g82
I4
ssg83
g1762
sg76
(lp1769
S'/'
asbasbasbag69
(g85
g71
NtRp1770
(dp1771
g74
(dp1772
sg83
g1043
sg76
(lp1773
g69
(g90
g71
NtRp1774
(dp1775
g74
(dp1776
g94
g95
ssg83
g1770
sg76
(lp1777
S'web2py_path'
p1778
asbag69
(g90
g71
NtRp1779
(dp1780
g74
(dp1781
g101
g102
ssg83
g1770
sg76
(lp1782
S':'
asbag69
(g90
g71
NtRp1783
(dp1784
g74
(dp1785
sg83
g1770
sg76
(lp1786
g69
(g70
g71
NtRp1787
(dp1788
g74
(dp1789
g82
I4
ssg83
g1783
sg76
(lp1790
g1090
asbasbasbag69
(g85
g71
NtRp1791
(dp1792
g74
(dp1793
sg83
g1043
sg76
(lp1794
g69
(g90
g71
NtRp1795
(dp1796
g74
(dp1797
g94
g95
ssg83
g1791
sg76
(lp1798
S'web2py_version'
p1799
asbag69
(g90
g71
NtRp1800
(dp1801
g74
(dp1802
g101
g102
ssg83
g1791
sg76
(lp1803
S':'
asbag69
(g90
g71
NtRp1804
(dp1805
g74
(dp1806
sg83
g1791
sg76
(lp1807
g69
(g70
g71
NtRp1808
(dp1809
g74
(dp1810
g82
I4
ssg83
g1804
sg76
(lp1811
g69
(g78
g71
NtRp1812
(dp1813
g74
(dp1814
g82
I3
ssg83
Nsg76
(lp1815
g69
(g85
g71
NtRp1816
(dp1817
g74
(dp1818
sg83
g1812
sg76
(lp1819
g69
(g90
g71
NtRp1820
(dp1821
g74
(dp1822
sg83
g1816
sg76
(lp1823
g69
(g70
g71
NtRp1824
(dp1825
g74
(dp1826
g82
I3
ssg83
g1820
sg76
(lp1827
S'2'
asbasbasbag69
(g85
g71
NtRp1828
(dp1829
g74
(dp1830
sg83
g1812
sg76
(lp1831
g69
(g90
g71
NtRp1832
(dp1833
g74
(dp1834
sg83
g1828
sg76
(lp1835
g69
(g70
g71
NtRp1836
(dp1837
g74
(dp1838
g82
I3
ssg83
g1832
sg76
(lp1839
S'3'
asbasbasbag69
(g85
g71
NtRp1840
(dp1841
g74
(dp1842
sg83
g1812
sg76
(lp1843
g69
(g90
g71
NtRp1844
(dp1845
g74
(dp1846
sg83
g1840
sg76
(lp1847
g69
(g70
g71
NtRp1848
(dp1849
g74
(dp1850
g82
I3
ssg83
g1844
sg76
(lp1851
S'2'
asbasbasbag69
(g85
g71
NtRp1852
(dp1853
g74
(dp1854
sg83
g1812
sg76
(lp1855
g69
(g90
g71
NtRp1856
(dp1857
g74
(dp1858
sg83
g1852
sg76
(lp1859
g69
(g70
g71
NtRp1860
(dp1861
g74
(dp1862
g82
I3
ssg83
g1856
sg76
(lp1863
S'datetime.datetime(2012, 12, 17, 15, 3, 30)'
p1864
asbasbasbag69
(g85
g71
NtRp1865
(dp1866
g74
(dp1867
sg83
g1812
sg76
(lp1868
g69
(g90
g71
NtRp1869
(dp1870
g74
(dp1871
sg83
g1865
sg76
(lp1872
g69
(g70
g71
NtRp1873
(dp1874
g74
(dp1875
g82
I3
ssg83
g1869
sg76
(lp1876
S'stable'
p1877
asbasbasbasbasbasbasbag69
(g85
g71
NtRp1878
(dp1879
g74
(dp1880
sg83
g1043
sg76
(lp1881
g69
(g90
g71
NtRp1882
(dp1883
g74
(dp1884
g94
g95
ssg83
g1878
sg76
(lp1885
S'wsgi_errors'
p1886
asbag69
(g90
g71
NtRp1887
(dp1888
g74
(dp1889
g101
g102
ssg83
g1878
sg76
(lp1890
S':'
asbag69
(g90
g71
NtRp1891
(dp1892
g74
(dp1893
sg83
g1878
sg76
(lp1894
g69
(g70
g71
NtRp1895
(dp1896
g74
(dp1897
g82
I4
ssg83
g1891
sg76
(lp1898
S"<open file '<stderr>', mode 'w' at 0x7fcfd5f3c270>"
p1899
asbasbasbag69
(g85
g71
NtRp1900
(dp1901
g74
(dp1902
sg83
g1043
sg76
(lp1903
g69
(g90
g71
NtRp1904
(dp1905
g74
(dp1906
g94
g95
ssg83
g1900
sg76
(lp1907
S'wsgi_file_wrapper'
p1908
asbag69
(g90
g71
NtRp1909
(dp1910
g74
(dp1911
g101
g102
ssg83
g1900
sg76
(lp1912
S':'
asbag69
(g90
g71
NtRp1913
(dp1914
g74
(dp1915
sg83
g1900
sg76
(lp1916
g69
(g70
g71
NtRp1917
(dp1918
g74
(dp1919
g82
I4
ssg83
g1913
sg76
(lp1920
S'<class wsgiref.util.FileWrapper at 0x336c460>'
p1921
asbasbasbag69
(g85
g71
NtRp1922
(dp1923
g74
(dp1924
sg83
g1043
sg76
(lp1925
g69
(g90
g71
NtRp1926
(dp1927
g74
(dp1928
g94
g95
ssg83
g1922
sg76
(lp1929
S'wsgi_input'
p1930
asbag69
(g90
g71
NtRp1931
(dp1932
g74
(dp1933
g101
g102
ssg83
g1922
sg76
(lp1934
S':'
asbag69
(g90
g71
NtRp1935
(dp1936
g74
(dp1937
sg83
g1922
sg76
(lp1938
g69
(g70
g71
NtRp1939
(dp1940
g74
(dp1941
g82
I4
ssg83
g1935
sg76
(lp1942
S'<socket._fileobject object at 0x7fcfac2f0dd0>'
p1943
asbasbasbag69
(g85
g71
NtRp1944
(dp1945
g74
(dp1946
sg83
g1043
sg76
(lp1947
g69
(g90
g71
NtRp1948
(dp1949
g74
(dp1950
g94
g95
ssg83
g1944
sg76
(lp1951
S'wsgi_multiprocess'
p1952
asbag69
(g90
g71
NtRp1953
(dp1954
g74
(dp1955
g101
g102
ssg83
g1944
sg76
(lp1956
S':'
asbag69
(g90
g71
NtRp1957
(dp1958
g74
(dp1959
sg83
g1944
sg76
(lp1960
g69
(g70
g71
NtRp1961
(dp1962
g74
(dp1963
g82
I4
ssg83
g1957
sg76
(lp1964
g112
asbasbasbag69
(g85
g71
NtRp1965
(dp1966
g74
(dp1967
sg83
g1043
sg76
(lp1968
g69
(g90
g71
NtRp1969
(dp1970
g74
(dp1971
g94
g95
ssg83
g1965
sg76
(lp1972
S'wsgi_multithread'
p1973
asbag69
(g90
g71
NtRp1974
(dp1975
g74
(dp1976
g101
g102
ssg83
g1965
sg76
(lp1977
S':'
asbag69
(g90
g71
NtRp1978
(dp1979
g74
(dp1980
sg83
g1965
sg76
(lp1981
g69
(g70
g71
NtRp1982
(dp1983
g74
(dp1984
g82
I4
ssg83
g1978
sg76
(lp1985
S'True'
p1986
asbasbasbag69
(g85
g71
NtRp1987
(dp1988
g74
(dp1989
sg83
g1043
sg76
(lp1990
g69
(g90
g71
NtRp1991
(dp1992
g74
(dp1993
g94
g95
ssg83
g1987
sg76
(lp1994
S'wsgi_run_once'
p1995
asbag69
(g90
g71
NtRp1996
(dp1997
g74
(dp1998
g101
g102
ssg83
g1987
sg76
(lp1999
S':'
asbag69
(g90
g71
NtRp2000
(dp2001
g74
(dp2002
sg83
g1987
sg76
(lp2003
g69
(g70
g71
NtRp2004
(dp2005
g74
(dp2006
g82
I4
ssg83
g2000
sg76
(lp2007
g112
asbasbasbag69
(g85
g71
NtRp2008
(dp2009
g74
(dp2010
sg83
g1043
sg76
(lp2011
g69
(g90
g71
NtRp2012
(dp2013
g74
(dp2014
g94
g95
ssg83
g2008
sg76
(lp2015
S'wsgi_url_scheme'
p2016
asbag69
(g90
g71
NtRp2017
(dp2018
g74
(dp2019
g101
g102
ssg83
g2008
sg76
(lp2020
S':'
asbag69
(g90
g71
NtRp2021
(dp2022
g74
(dp2023
sg83
g2008
sg76
(lp2024
g69
(g70
g71
NtRp2025
(dp2026
g74
(dp2027
g82
I4
ssg83
g2021
sg76
(lp2028
S'http'
p2029
asbasbasbag69
(g85
g71
NtRp2030
(dp2031
g74
(dp2032
sg83
g1043
sg76
(lp2033
g69
(g90
g71
NtRp2034
(dp2035
g74
(dp2036
g94
g95
ssg83
g2030
sg76
(lp2037
S'wsgi_version'
p2038
asbag69
(g90
g71
NtRp2039
(dp2040
g74
(dp2041
g101
g102
ssg83
g2030
sg76
(lp2042
S':'
asbag69
(g90
g71
NtRp2043
(dp2044
g74
(dp2045
sg83
g2030
sg76
(lp2046
g69
(g70
g71
NtRp2047
(dp2048
g74
(dp2049
g82
I4
ssg83
g2043
sg76
(lp2050
g69
(g78
g71
NtRp2051
(dp2052
g74
(dp2053
g82
I3
ssg83
Nsg76
(lp2054
g69
(g85
g71
NtRp2055
(dp2056
g74
(dp2057
sg83
g2051
sg76
(lp2058
g69
(g90
g71
NtRp2059
(dp2060
g74
(dp2061
sg83
g2055
sg76
(lp2062
g69
(g70
g71
NtRp2063
(dp2064
g74
(dp2065
g82
I3
ssg83
g2059
sg76
(lp2066
S'1'
asbasbasbag69
(g85
g71
NtRp2067
(dp2068
g74
(dp2069
sg83
g2051
sg76
(lp2070
g69
(g90
g71
NtRp2071
(dp2072
g74
(dp2073
sg83
g2067
sg76
(lp2074
g69
(g70
g71
NtRp2075
(dp2076
g74
(dp2077
g82
I3
ssg83
g2071
sg76
(lp2078
S'0'
asbasbasbasbasbasbasbasbasbasbasbag69
(g85
g71
NtRp2079
(dp2080
g74
(dp2081
sg83
g79
sg76
(lp2082
g69
(g90
g71
NtRp2083
(dp2084
g74
(dp2085
g94
g95
ssg83
g2079
sg76
(lp2086
S'extension'
p2087
asbag69
(g90
g71
NtRp2088
(dp2089
g74
(dp2090
g101
g102
ssg83
g2079
sg76
(lp2091
S':'
asbag69
(g90
g71
NtRp2092
(dp2093
g74
(dp2094
sg83
g2079
sg76
(lp2095
g69
(g70
g71
NtRp2096
(dp2097
g74
(dp2098
g82
I5
ssg83
g2092
sg76
(lp2099
S'html'
p2100
asbasbasbag69
(g85
g71
NtRp2101
(dp2102
g74
(dp2103
sg83
g79
sg76
(lp2104
g69
(g90
g71
NtRp2105
(dp2106
g74
(dp2107
g94
g95
ssg83
g2101
sg76
(lp2108
S'folder'
p2109
asbag69
(g90
g71
NtRp2110
(dp2111
g74
(dp2112
g101
g102
ssg83
g2101
sg76
(lp2113
S':'
asbag69
(g90
g71
NtRp2114
(dp2115
g74
(dp2116
sg83
g2101
sg76
(lp2117
g69
(g70
g71
NtRp2118
(dp2119
g74
(dp2120
g82
I5
ssg83
g2114
sg76
(lp2121
S'/var/www/hosts3/applications/projeto/'
p2122
asbasbasbag69
(g85
g71
NtRp2123
(dp2124
g74
(dp2125
sg83
g79
sg76
(lp2126
g69
(g90
g71
NtRp2127
(dp2128
g74
(dp2129
g94
g95
ssg83
g2123
sg76
(lp2130
S'function'
p2131
asbag69
(g90
g71
NtRp2132
(dp2133
g74
(dp2134
g101
g102
ssg83
g2123
sg76
(lp2135
S':'
asbag69
(g90
g71
NtRp2136
(dp2137
g74
(dp2138
sg83
g2123
sg76
(lp2139
g69
(g70
g71
NtRp2140
(dp2141
g74
(dp2142
g82
I5
ssg83
g2136
sg76
(lp2143
S'show_cliente'
p2144
asbasbasbag69
(g85
g71
NtRp2145
(dp2146
g74
(dp2147
sg83
g79
sg76
(lp2148
g69
(g90
g71
NtRp2149
(dp2150
g74
(dp2151
g94
g95
ssg83
g2145
sg76
(lp2152
S'get_vars'
p2153
asbag69
(g90
g71
NtRp2154
(dp2155
g74
(dp2156
g101
g102
ssg83
g2145
sg76
(lp2157
S':'
asbag69
(g90
g71
NtRp2158
(dp2159
g74
(dp2160
sg83
g2145
sg76
(lp2161
g69
(g70
g71
NtRp2162
(dp2163
g74
(dp2164
g82
I5
ssg83
g2158
sg76
(lp2165
g69
(g78
g71
NtRp2166
(dp2167
g74
(dp2168
g82
I4
ssg83
Nsg76
(lp2169
sbasbasbasbag69
(g85
g71
NtRp2170
(dp2171
g74
(dp2172
sg83
g79
sg76
(lp2173
g69
(g90
g71
NtRp2174
(dp2175
g74
(dp2176
g94
g95
ssg83
g2170
sg76
(lp2177
S'global_settings'
p2178
asbag69
(g90
g71
NtRp2179
(dp2180
g74
(dp2181
g101
g102
ssg83
g2170
sg76
(lp2182
S':'
asbag69
(g90
g71
NtRp2183
(dp2184
g74
(dp2185
sg83
g2170
sg76
(lp2186
g69
(g70
g71
NtRp2187
(dp2188
g74
(dp2189
g82
I5
ssg83
g2183
sg76
(lp2190
g69
(g78
g71
NtRp2191
(dp2192
g74
(dp2193
g82
I4
ssg83
Nsg76
(lp2194
g69
(g85
g71
NtRp2195
(dp2196
g74
(dp2197
sg83
g2191
sg76
(lp2198
g69
(g90
g71
NtRp2199
(dp2200
g74
(dp2201
g94
g95
ssg83
g2195
sg76
(lp2202
g1055
asbag69
(g90
g71
NtRp2203
(dp2204
g74
(dp2205
g101
g102
ssg83
g2195
sg76
(lp2206
S':'
asbag69
(g90
g71
NtRp2207
(dp2208
g74
(dp2209
sg83
g2195
sg76
(lp2210
g69
(g70
g71
NtRp2211
(dp2212
g74
(dp2213
g82
I4
ssg83
g2207
sg76
(lp2214
S"set(['/var/www/hosts3/applications/admin/', '/var/www/hosts3/applications/projeto/'])"
p2215
asbasbasbag69
(g85
g71
NtRp2216
(dp2217
g74
(dp2218
sg83
g2191
sg76
(lp2219
g69
(g90
g71
NtRp2220
(dp2221
g74
(dp2222
g94
g95
ssg83
g2216
sg76
(lp2223
g1077
asbag69
(g90
g71
NtRp2224
(dp2225
g74
(dp2226
g101
g102
ssg83
g2216
sg76
(lp2227
S':'
asbag69
(g90
g71
NtRp2228
(dp2229
g74
(dp2230
sg83
g2216
sg76
(lp2231
g69
(g70
g71
NtRp2232
(dp2233
g74
(dp2234
g82
I4
ssg83
g2228
sg76
(lp2235
g1090
asbasbasbag69
(g85
g71
NtRp2236
(dp2237
g74
(dp2238
sg83
g2191
sg76
(lp2239
g69
(g90
g71
NtRp2240
(dp2241
g74
(dp2242
g94
g95
ssg83
g2236
sg76
(lp2243
g1099
asbag69
(g90
g71
NtRp2244
(dp2245
g74
(dp2246
g101
g102
ssg83
g2236
sg76
(lp2247
S':'
asbag69
(g90
g71
NtRp2248
(dp2249
g74
(dp2250
sg83
g2236
sg76
(lp2251
g69
(g70
g71
NtRp2252
(dp2253
g74
(dp2254
g82
I4
ssg83
g2248
sg76
(lp2255
g69
(g78
g71
NtRp2256
(dp2257
g74
(dp2258
g82
I3
ssg83
Nsg76
(lp2259
sbasbasbasbag69
(g85
g71
NtRp2260
(dp2261
g74
(dp2262
sg83
g2191
sg76
(lp2263
g69
(g90
g71
NtRp2264
(dp2265
g74
(dp2266
g94
g95
ssg83
g2260
sg76
(lp2267
g1124
asbag69
(g90
g71
NtRp2268
(dp2269
g74
(dp2270
g101
g102
ssg83
g2260
sg76
(lp2271
S':'
asbag69
(g90
g71
NtRp2272
(dp2273
g74
(dp2274
sg83
g2260
sg76
(lp2275
g69
(g70
g71
NtRp2276
(dp2277
g74
(dp2278
g82
I4
ssg83
g2272
sg76
(lp2279
S"<Values at 0x33f56c8: {'verbose': False, 'ip': '127.0.0.1', 'with_scheduler': False, 'ips': [], 'shutdown_timeout': 5, 'taskbar': False, 'port': 8000, 'maxthreads': None, 'softcron': False, 'server_name': 'fernado-desktop', 'bpython': False, 'nogui': False, 'pid_filename': 'httpserver.pid', 'extcron': False, 'runcron': False, 'run_system_tests': False, 'test': None, 'folder': '/var/www/hosts3', 'config': '', 'minthreads': None, 'winservice': '', 'shell': None, 'run': '', 'log_filename': 'httpserver.log', 'debuglevel': 30, 'args': [''], 'socket_timeout': 5, 'ssl_ca_certificate': None, 'scheduler': None, 'profiler_filename': None, 'ssl_private_key': '', 'scheduler_groups': None, 'password': '123456', 'request_queue_size': 5, 'ssl_certificate': '', 'cronjob': False, 'numthreads': None, 'quiet': False, 'interfaces': None, 'import_models': False, 'timeout': 10, 'plain': False, 'nobanner': False}>"
p2280
asbasbasbag69
(g85
g71
NtRp2281
(dp2282
g74
(dp2283
sg83
g2191
sg76
(lp2284
g69
(g90
g71
NtRp2285
(dp2286
g74
(dp2287
g94
g95
ssg83
g2281
sg76
(lp2288
g1146
asbag69
(g90
g71
NtRp2289
(dp2290
g74
(dp2291
g101
g102
ssg83
g2281
sg76
(lp2292
S':'
asbag69
(g90
g71
NtRp2293
(dp2294
g74
(dp2295
sg83
g2281
sg76
(lp2296
g69
(g70
g71
NtRp2297
(dp2298
g74
(dp2299
g82
I4
ssg83
g2293
sg76
(lp2300
S'set([])'
p2301
asbasbasbag69
(g85
g71
NtRp2302
(dp2303
g74
(dp2304
sg83
g2191
sg76
(lp2305
g69
(g90
g71
NtRp2306
(dp2307
g74
(dp2308
g94
g95
ssg83
g2302
sg76
(lp2309
g1168
asbag69
(g90
g71
NtRp2310
(dp2311
g74
(dp2312
g101
g102
ssg83
g2302
sg76
(lp2313
S':'
asbag69
(g90
g71
NtRp2314
(dp2315
g74
(dp2316
sg83
g2302
sg76
(lp2317
g69
(g70
g71
NtRp2318
(dp2319
g74
(dp2320
g82
I4
ssg83
g2314
sg76
(lp2321
g112
asbasbasbag69
(g85
g71
NtRp2322
(dp2323
g74
(dp2324
sg83
g2191
sg76
(lp2325
g69
(g90
g71
NtRp2326
(dp2327
g74
(dp2328
g94
g95
ssg83
g2322
sg76
(lp2329
g1189
asbag69
(g90
g71
NtRp2330
(dp2331
g74
(dp2332
g101
g102
ssg83
g2322
sg76
(lp2333
S':'
asbag69
(g90
g71
NtRp2334
(dp2335
g74
(dp2336
sg83
g2322
sg76
(lp2337
g69
(g70
g71
NtRp2338
(dp2339
g74
(dp2340
g82
I4
ssg83
g2334
sg76
(lp2341
g1202
asbasbasbag69
(g85
g71
NtRp2342
(dp2343
g74
(dp2344
sg83
g2191
sg76
(lp2345
g69
(g90
g71
NtRp2346
(dp2347
g74
(dp2348
g94
g95
ssg83
g2342
sg76
(lp2349
g1387
asbag69
(g90
g71
NtRp2350
(dp2351
g74
(dp2352
g101
g102
ssg83
g2342
sg76
(lp2353
S':'
asbag69
(g90
g71
NtRp2354
(dp2355
g74
(dp2356
sg83
g2342
sg76
(lp2357
g69
(g70
g71
NtRp2358
(dp2359
g74
(dp2360
g82
I4
ssg83
g2354
sg76
(lp2361
g112
asbasbasbag69
(g85
g71
NtRp2362
(dp2363
g74
(dp2364
sg83
g2191
sg76
(lp2365
g69
(g90
g71
NtRp2366
(dp2367
g74
(dp2368
g94
g95
ssg83
g2362
sg76
(lp2369
g1408
asbag69
(g90
g71
NtRp2370
(dp2371
g74
(dp2372
g101
g102
ssg83
g2362
sg76
(lp2373
S':'
asbag69
(g90
g71
NtRp2374
(dp2375
g74
(dp2376
sg83
g2362
sg76
(lp2377
g69
(g70
g71
NtRp2378
(dp2379
g74
(dp2380
g82
I4
ssg83
g2374
sg76
(lp2381
g112
asbasbasbag69
(g85
g71
NtRp2382
(dp2383
g74
(dp2384
sg83
g2191
sg76
(lp2385
g69
(g90
g71
NtRp2386
(dp2387
g74
(dp2388
g94
g95
ssg83
g2382
sg76
(lp2389
g1429
asbag69
(g90
g71
NtRp2390
(dp2391
g74
(dp2392
g101
g102
ssg83
g2382
sg76
(lp2393
S':'
asbag69
(g90
g71
NtRp2394
(dp2395
g74
(dp2396
sg83
g2382
sg76
(lp2397
g69
(g70
g71
NtRp2398
(dp2399
g74
(dp2400
g82
I4
ssg83
g2394
sg76
(lp2401
g69
(g78
g71
NtRp2402
(dp2403
g74
(dp2404
g82
I3
ssg83
Nsg76
(lp2405
g69
(g85
g71
NtRp2406
(dp2407
g74
(dp2408
sg83
g2402
sg76
(lp2409
g69
(g90
g71
NtRp2410
(dp2411
g74
(dp2412
sg83
g2406
sg76
(lp2413
g69
(g70
g71
NtRp2414
(dp2415
g74
(dp2416
g82
I3
ssg83
g2410
sg76
(lp2417
g1458
asbasbasbag69
(g85
g71
NtRp2418
(dp2419
g74
(dp2420
sg83
g2402
sg76
(lp2421
g69
(g90
g71
NtRp2422
(dp2423
g74
(dp2424
sg83
g2418
sg76
(lp2425
g69
(g70
g71
NtRp2426
(dp2427
g74
(dp2428
g82
I3
ssg83
g2422
sg76
(lp2429
g1471
asbasbasbag69
(g85
g71
NtRp2430
(dp2431
g74
(dp2432
sg83
g2402
sg76
(lp2433
g69
(g90
g71
NtRp2434
(dp2435
g74
(dp2436
sg83
g2430
sg76
(lp2437
g69
(g70
g71
NtRp2438
(dp2439
g74
(dp2440
g82
I3
ssg83
g2434
sg76
(lp2441
g1484
asbasbasbag69
(g85
g71
NtRp2442
(dp2443
g74
(dp2444
sg83
g2402
sg76
(lp2445
g69
(g90
g71
NtRp2446
(dp2447
g74
(dp2448
sg83
g2442
sg76
(lp2449
g69
(g70
g71
NtRp2450
(dp2451
g74
(dp2452
g82
I3
ssg83
g2446
sg76
(lp2453
g1497
asbasbasbag69
(g85
g71
NtRp2454
(dp2455
g74
(dp2456
sg83
g2402
sg76
(lp2457
g69
(g90
g71
NtRp2458
(dp2459
g74
(dp2460
sg83
g2454
sg76
(lp2461
g69
(g70
g71
NtRp2462
(dp2463
g74
(dp2464
g82
I3
ssg83
g2458
sg76
(lp2465
g1510
asbasbasbasbasbasbasbag69
(g85
g71
NtRp2466
(dp2467
g74
(dp2468
sg83
g2191
sg76
(lp2469
g69
(g90
g71
NtRp2470
(dp2471
g74
(dp2472
g94
g95
ssg83
g2466
sg76
(lp2473
g1799
asbag69
(g90
g71
NtRp2474
(dp2475
g74
(dp2476
g101
g102
ssg83
g2466
sg76
(lp2477
S':'
asbag69
(g90
g71
NtRp2478
(dp2479
g74
(dp2480
sg83
g2466
sg76
(lp2481
g69
(g70
g71
NtRp2482
(dp2483
g74
(dp2484
g82
I4
ssg83
g2478
sg76
(lp2485
g69
(g78
g71
NtRp2486
(dp2487
g74
(dp2488
g82
I3
ssg83
Nsg76
(lp2489
g69
(g85
g71
NtRp2490
(dp2491
g74
(dp2492
sg83
g2486
sg76
(lp2493
g69
(g90
g71
NtRp2494
(dp2495
g74
(dp2496
sg83
g2490
sg76
(lp2497
g69
(g70
g71
NtRp2498
(dp2499
g74
(dp2500
g82
I3
ssg83
g2494
sg76
(lp2501
S'2'
asbasbasbag69
(g85
g71
NtRp2502
(dp2503
g74
(dp2504
sg83
g2486
sg76
(lp2505
g69
(g90
g71
NtRp2506
(dp2507
g74
(dp2508
sg83
g2502
sg76
(lp2509
g69
(g70
g71
NtRp2510
(dp2511
g74
(dp2512
g82
I3
ssg83
g2506
sg76
(lp2513
S'3'
asbasbasbag69
(g85
g71
NtRp2514
(dp2515
g74
(dp2516
sg83
g2486
sg76
(lp2517
g69
(g90
g71
NtRp2518
(dp2519
g74
(dp2520
sg83
g2514
sg76
(lp2521
g69
(g70
g71
NtRp2522
(dp2523
g74
(dp2524
g82
I3
ssg83
g2518
sg76
(lp2525
S'2'
asbasbasbag69
(g85
g71
NtRp2526
(dp2527
g74
(dp2528
sg83
g2486
sg76
(lp2529
g69
(g90
g71
NtRp2530
(dp2531
g74
(dp2532
sg83
g2526
sg76
(lp2533
g69
(g70
g71
NtRp2534
(dp2535
g74
(dp2536
g82
I3
ssg83
g2530
sg76
(lp2537
S'datetime.datetime(2012, 12, 17, 15, 3, 30)'
p2538
asbasbasbag69
(g85
g71
NtRp2539
(dp2540
g74
(dp2541
sg83
g2486
sg76
(lp2542
g69
(g90
g71
NtRp2543
(dp2544
g74
(dp2545
sg83
g2539
sg76
(lp2546
g69
(g70
g71
NtRp2547
(dp2548
g74
(dp2549
g82
I3
ssg83
g2543
sg76
(lp2550
g1877
asbasbasbasbasbasbasbasbasbasbasbag69
(g85
g71
NtRp2551
(dp2552
g74
(dp2553
sg83
g79
sg76
(lp2554
g69
(g90
g71
NtRp2555
(dp2556
g74
(dp2557
g94
g95
ssg83
g2551
sg76
(lp2558
S'is_https'
p2559
asbag69
(g90
g71
NtRp2560
(dp2561
g74
(dp2562
g101
g102
ssg83
g2551
sg76
(lp2563
S':'
asbag69
(g90
g71
NtRp2564
(dp2565
g74
(dp2566
sg83
g2551
sg76
(lp2567
g69
(g70
g71
NtRp2568
(dp2569
g74
(dp2570
g82
I5
ssg83
g2564
sg76
(lp2571
g112
asbasbasbag69
(g85
g71
NtRp2572
(dp2573
g74
(dp2574
sg83
g79
sg76
(lp2575
g69
(g90
g71
NtRp2576
(dp2577
g74
(dp2578
g94
g95
ssg83
g2572
sg76
(lp2579
S'is_local'
p2580
asbag69
(g90
g71
NtRp2581
(dp2582
g74
(dp2583
g101
g102
ssg83
g2572
sg76
(lp2584
S':'
asbag69
(g90
g71
NtRp2585
(dp2586
g74
(dp2587
sg83
g2572
sg76
(lp2588
g69
(g70
g71
NtRp2589
(dp2590
g74
(dp2591
g82
I5
ssg83
g2585
sg76
(lp2592
g1986
asbasbasbag69
(g85
g71
NtRp2593
(dp2594
g74
(dp2595
sg83
g79
sg76
(lp2596
g69
(g90
g71
NtRp2597
(dp2598
g74
(dp2599
g94
g95
ssg83
g2593
sg76
(lp2600
S'is_restful'
p2601
asbag69
(g90
g71
NtRp2602
(dp2603
g74
(dp2604
g101
g102
ssg83
g2593
sg76
(lp2605
S':'
asbag69
(g90
g71
NtRp2606
(dp2607
g74
(dp2608
sg83
g2593
sg76
(lp2609
g69
(g70
g71
NtRp2610
(dp2611
g74
(dp2612
g82
I5
ssg83
g2606
sg76
(lp2613
g112
asbasbasbag69
(g85
g71
NtRp2614
(dp2615
g74
(dp2616
sg83
g79
sg76
(lp2617
g69
(g90
g71
NtRp2618
(dp2619
g74
(dp2620
g94
g95
ssg83
g2614
sg76
(lp2621
S'now'
p2622
asbag69
(g90
g71
NtRp2623
(dp2624
g74
(dp2625
g101
g102
ssg83
g2614
sg76
(lp2626
S':'
asbag69
(g90
g71
NtRp2627
(dp2628
g74
(dp2629
sg83
g2614
sg76
(lp2630
g69
(g70
g71
NtRp2631
(dp2632
g74
(dp2633
g82
I5
ssg83
g2627
sg76
(lp2634
S'datetime.datetime(2013, 3, 5, 10, 49, 53, 347960)'
p2635
asbasbasbag69
(g85
g71
NtRp2636
(dp2637
g74
(dp2638
sg83
g79
sg76
(lp2639
g69
(g90
g71
NtRp2640
(dp2641
g74
(dp2642
g94
g95
ssg83
g2636
sg76
(lp2643
S'post_vars'
p2644
asbag69
(g90
g71
NtRp2645
(dp2646
g74
(dp2647
g101
g102
ssg83
g2636
sg76
(lp2648
S':'
asbag69
(g90
g71
NtRp2649
(dp2650
g74
(dp2651
sg83
g2636
sg76
(lp2652
g69
(g70
g71
NtRp2653
(dp2654
g74
(dp2655
g82
I5
ssg83
g2649
sg76
(lp2656
g69
(g78
g71
NtRp2657
(dp2658
g74
(dp2659
g82
I4
ssg83
Nsg76
(lp2660
sbasbasbasbag69
(g85
g71
NtRp2661
(dp2662
g74
(dp2663
sg83
g79
sg76
(lp2664
g69
(g90
g71
NtRp2665
(dp2666
g74
(dp2667
g94
g95
ssg83
g2661
sg76
(lp2668
S'url'
p2669
asbag69
(g90
g71
NtRp2670
(dp2671
g74
(dp2672
g101
g102
ssg83
g2661
sg76
(lp2673
S':'
asbag69
(g90
g71
NtRp2674
(dp2675
g74
(dp2676
sg83
g2661
sg76
(lp2677
g69
(g70
g71
NtRp2678
(dp2679
g74
(dp2680
g82
I5
ssg83
g2674
sg76
(lp2681
S'/'
asbasbasbag69
(g85
g71
NtRp2682
(dp2683
g74
(dp2684
sg83
g79
sg76
(lp2685
g69
(g90
g71
NtRp2686
(dp2687
g74
(dp2688
g94
g95
ssg83
g2682
sg76
(lp2689
S'utcnow'
p2690
asbag69
(g90
g71
NtRp2691
(dp2692
g74
(dp2693
g101
g102
ssg83
g2682
sg76
(lp2694
S':'
asbag69
(g90
g71
NtRp2695
(dp2696
g74
(dp2697
sg83
g2682
sg76
(lp2698
g69
(g70
g71
NtRp2699
(dp2700
g74
(dp2701
g82
I5
ssg83
g2695
sg76
(lp2702
S'datetime.datetime(2013, 3, 5, 13, 49, 53, 348021)'
p2703
asbasbasbag69
(g85
g71
NtRp2704
(dp2705
g74
(dp2706
sg83
g79
sg76
(lp2707
g69
(g90
g71
NtRp2708
(dp2709
g74
(dp2710
g94
g95
ssg83
g2704
sg76
(lp2711
S'uuid'
p2712
asbag69
(g90
g71
NtRp2713
(dp2714
g74
(dp2715
g101
g102
ssg83
g2704
sg76
(lp2716
S':'
asbag69
(g90
g71
NtRp2717
(dp2718
g74
(dp2719
sg83
g2704
sg76
(lp2720
g69
(g70
g71
NtRp2721
(dp2722
g74
(dp2723
g82
I5
ssg83
g2717
sg76
(lp2724
S'projeto/127.0.0.1.2013-03-05.10-49-53.c5412f65-ab8a-4900-ad52-2c7707c208e9'
p2725
asbasbasbag69
(g85
g71
NtRp2726
(dp2727
g74
(dp2728
sg83
g79
sg76
(lp2729
g69
(g90
g71
NtRp2730
(dp2731
g74
(dp2732
g94
g95
ssg83
g2726
sg76
(lp2733
S'vars'
p2734
asbag69
(g90
g71
NtRp2735
(dp2736
g74
(dp2737
g101
g102
ssg83
g2726
sg76
(lp2738
S':'
asbag69
(g90
g71
NtRp2739
(dp2740
g74
(dp2741
sg83
g2726
sg76
(lp2742
g69
(g70
g71
NtRp2743
(dp2744
g74
(dp2745
g82
I5
ssg83
g2739
sg76
(lp2746
g69
(g78
g71
NtRp2747
(dp2748
g74
(dp2749
g82
I4
ssg83
Nsg76
(lp2750
sbasbasbasbag69
(g85
g71
NtRp2751
(dp2752
g74
(dp2753
sg83
g79
sg76
(lp2754
g69
(g90
g71
NtRp2755
(dp2756
g74
(dp2757
g94
g95
ssg83
g2751
sg76
(lp2758
S'wsgi'
p2759
asbag69
(g90
g71
NtRp2760
(dp2761
g74
(dp2762
g101
g102
ssg83
g2751
sg76
(lp2763
S':'
asbag69
(g90
g71
NtRp2764
(dp2765
g74
(dp2766
sg83
g2751
sg76
(lp2767
g69
(g70
g71
NtRp2768
(dp2769
g74
(dp2770
g82
I5
ssg83
g2764
sg76
(lp2771
g69
(g78
g71
NtRp2772
(dp2773
g74
(dp2774
g82
I4
ssg83
Nsg76
(lp2775
g69
(g85
g71
NtRp2776
(dp2777
g74
(dp2778
sg83
g2772
sg76
(lp2779
g69
(g90
g71
NtRp2780
(dp2781
g74
(dp2782
g94
g95
ssg83
g2776
sg76
(lp2783
S'environ'
p2784
asbag69
(g90
g71
NtRp2785
(dp2786
g74
(dp2787
g101
g102
ssg83
g2776
sg76
(lp2788
S':'
asbag69
(g90
g71
NtRp2789
(dp2790
g74
(dp2791
sg83
g2776
sg76
(lp2792
g69
(g70
g71
NtRp2793
(dp2794
g74
(dp2795
g82
I4
ssg83
g2789
sg76
(lp2796
g69
(g78
g71
NtRp2797
(dp2798
g74
(dp2799
g82
I3
ssg83
Nsg76
(lp2800
g69
(g85
g71
NtRp2801
(dp2802
g74
(dp2803
sg83
g2797
sg76
(lp2804
g69
(g90
g71
NtRp2805
(dp2806
g74
(dp2807
g94
g95
ssg83
g2801
sg76
(lp2808
S'HTTP_ACCEPT'
p2809
asbag69
(g90
g71
NtRp2810
(dp2811
g74
(dp2812
g101
g102
ssg83
g2801
sg76
(lp2813
S':'
asbag69
(g90
g71
NtRp2814
(dp2815
g74
(dp2816
sg83
g2801
sg76
(lp2817
g69
(g70
g71
NtRp2818
(dp2819
g74
(dp2820
g82
I3
ssg83
g2814
sg76
(lp2821
g1224
asbasbasbag69
(g85
g71
NtRp2822
(dp2823
g74
(dp2824
sg83
g2797
sg76
(lp2825
g69
(g90
g71
NtRp2826
(dp2827
g74
(dp2828
g94
g95
ssg83
g2822
sg76
(lp2829
S'HTTP_ACCEPT_CHARSET'
p2830
asbag69
(g90
g71
NtRp2831
(dp2832
g74
(dp2833
g101
g102
ssg83
g2822
sg76
(lp2834
S':'
asbag69
(g90
g71
NtRp2835
(dp2836
g74
(dp2837
sg83
g2822
sg76
(lp2838
g69
(g70
g71
NtRp2839
(dp2840
g74
(dp2841
g82
I3
ssg83
g2835
sg76
(lp2842
g1246
asbasbasbag69
(g85
g71
NtRp2843
(dp2844
g74
(dp2845
sg83
g2797
sg76
(lp2846
g69
(g90
g71
NtRp2847
(dp2848
g74
(dp2849
g94
g95
ssg83
g2843
sg76
(lp2850
S'HTTP_ACCEPT_ENCODING'
p2851
asbag69
(g90
g71
NtRp2852
(dp2853
g74
(dp2854
g101
g102
ssg83
g2843
sg76
(lp2855
S':'
asbag69
(g90
g71
NtRp2856
(dp2857
g74
(dp2858
sg83
g2843
sg76
(lp2859
g69
(g70
g71
NtRp2860
(dp2861
g74
(dp2862
g82
I3
ssg83
g2856
sg76
(lp2863
g1268
asbasbasbag69
(g85
g71
NtRp2864
(dp2865
g74
(dp2866
sg83
g2797
sg76
(lp2867
g69
(g90
g71
NtRp2868
(dp2869
g74
(dp2870
g94
g95
ssg83
g2864
sg76
(lp2871
S'HTTP_ACCEPT_LANGUAGE'
p2872
asbag69
(g90
g71
NtRp2873
(dp2874
g74
(dp2875
g101
g102
ssg83
g2864
sg76
(lp2876
S':'
asbag69
(g90
g71
NtRp2877
(dp2878
g74
(dp2879
sg83
g2864
sg76
(lp2880
g69
(g70
g71
NtRp2881
(dp2882
g74
(dp2883
g82
I3
ssg83
g2877
sg76
(lp2884
g1290
asbasbasbag69
(g85
g71
NtRp2885
(dp2886
g74
(dp2887
sg83
g2797
sg76
(lp2888
g69
(g90
g71
NtRp2889
(dp2890
g74
(dp2891
g94
g95
ssg83
g2885
sg76
(lp2892
S'HTTP_CONNECTION'
p2893
asbag69
(g90
g71
NtRp2894
(dp2895
g74
(dp2896
g101
g102
ssg83
g2885
sg76
(lp2897
S':'
asbag69
(g90
g71
NtRp2898
(dp2899
g74
(dp2900
sg83
g2885
sg76
(lp2901
g69
(g70
g71
NtRp2902
(dp2903
g74
(dp2904
g82
I3
ssg83
g2898
sg76
(lp2905
g1312
asbasbasbag69
(g85
g71
NtRp2906
(dp2907
g74
(dp2908
sg83
g2797
sg76
(lp2909
g69
(g90
g71
NtRp2910
(dp2911
g74
(dp2912
g94
g95
ssg83
g2906
sg76
(lp2913
S'HTTP_COOKIE'
p2914
asbag69
(g90
g71
NtRp2915
(dp2916
g74
(dp2917
g101
g102
ssg83
g2906
sg76
(lp2918
S':'
asbag69
(g90
g71
NtRp2919
(dp2920
g74
(dp2921
sg83
g2906
sg76
(lp2922
g69
(g70
g71
NtRp2923
(dp2924
g74
(dp2925
g82
I3
ssg83
g2919
sg76
(lp2926
g1334
asbasbasbag69
(g85
g71
NtRp2927
(dp2928
g74
(dp2929
sg83
g2797
sg76
(lp2930
g69
(g90
g71
NtRp2931
(dp2932
g74
(dp2933
g94
g95
ssg83
g2927
sg76
(lp2934
S'HTTP_HOST'
p2935
asbag69
(g90
g71
NtRp2936
(dp2937
g74
(dp2938
g101
g102
ssg83
g2927
sg76
(lp2939
S':'
asbag69
(g90
g71
NtRp2940
(dp2941
g74
(dp2942
sg83
g2927
sg76
(lp2943
g69
(g70
g71
NtRp2944
(dp2945
g74
(dp2946
g82
I3
ssg83
g2940
sg76
(lp2947
g1356
asbasbasbag69
(g85
g71
NtRp2948
(dp2949
g74
(dp2950
sg83
g2797
sg76
(lp2951
g69
(g90
g71
NtRp2952
(dp2953
g74
(dp2954
g94
g95
ssg83
g2948
sg76
(lp2955
S'HTTP_USER_AGENT'
p2956
asbag69
(g90
g71
NtRp2957
(dp2958
g74
(dp2959
g101
g102
ssg83
g2948
sg76
(lp2960
S':'
asbag69
(g90
g71
NtRp2961
(dp2962
g74
(dp2963
sg83
g2948
sg76
(lp2964
g69
(g70
g71
NtRp2965
(dp2966
g74
(dp2967
g82
I3
ssg83
g2961
sg76
(lp2968
g1378
asbasbasbag69
(g85
g71
NtRp2969
(dp2970
g74
(dp2971
sg83
g2797
sg76
(lp2972
g69
(g90
g71
NtRp2973
(dp2974
g74
(dp2975
g94
g95
ssg83
g2969
sg76
(lp2976
S'PATH_INFO'
p2977
asbag69
(g90
g71
NtRp2978
(dp2979
g74
(dp2980
g101
g102
ssg83
g2969
sg76
(lp2981
S':'
asbag69
(g90
g71
NtRp2982
(dp2983
g74
(dp2984
sg83
g2969
sg76
(lp2985
g69
(g70
g71
NtRp2986
(dp2987
g74
(dp2988
g82
I3
ssg83
g2982
sg76
(lp2989
S'/'
asbasbasbag69
(g85
g71
NtRp2990
(dp2991
g74
(dp2992
sg83
g2797
sg76
(lp2993
g69
(g90
g71
NtRp2994
(dp2995
g74
(dp2996
g94
g95
ssg83
g2990
sg76
(lp2997
S'QUERY_STRING'
p2998
asbag69
(g90
g71
NtRp2999
(dp3000
g74
(dp3001
g101
g102
ssg83
g2990
sg76
(lp3002
S':'
asbag69
(g90
g71
NtRp3003
(dp3004
g74
(dp3005
sg83
g2990
sg76
(lp3006
g69
(g70
g71
NtRp3007
(dp3008
g74
(dp3009
g82
I3
ssg83
g3003
sg76
(lp3010
S''
asbasbasbag69
(g85
g71
NtRp3011
(dp3012
g74
(dp3013
sg83
g2797
sg76
(lp3014
g69
(g90
g71
NtRp3015
(dp3016
g74
(dp3017
g94
g95
ssg83
g3011
sg76
(lp3018
S'REMOTE_ADDR'
p3019
asbag69
(g90
g71
NtRp3020
(dp3021
g74
(dp3022
g101
g102
ssg83
g3011
sg76
(lp3023
S':'
asbag69
(g90
g71
NtRp3024
(dp3025
g74
(dp3026
sg83
g3011
sg76
(lp3027
g69
(g70
g71
NtRp3028
(dp3029
g74
(dp3030
g82
I3
ssg83
g3024
sg76
(lp3031
g224
asbasbasbag69
(g85
g71
NtRp3032
(dp3033
g74
(dp3034
sg83
g2797
sg76
(lp3035
g69
(g90
g71
NtRp3036
(dp3037
g74
(dp3038
g94
g95
ssg83
g3032
sg76
(lp3039
S'REMOTE_PORT'
p3040
asbag69
(g90
g71
NtRp3041
(dp3042
g74
(dp3043
g101
g102
ssg83
g3032
sg76
(lp3044
S':'
asbag69
(g90
g71
NtRp3045
(dp3046
g74
(dp3047
sg83
g3032
sg76
(lp3048
g69
(g70
g71
NtRp3049
(dp3050
g74
(dp3051
g82
I3
ssg83
g3045
sg76
(lp3052
g1595
asbasbasbag69
(g85
g71
NtRp3053
(dp3054
g74
(dp3055
sg83
g2797
sg76
(lp3056
g69
(g90
g71
NtRp3057
(dp3058
g74
(dp3059
g94
g95
ssg83
g3053
sg76
(lp3060
S'REQUEST_METHOD'
p3061
asbag69
(g90
g71
NtRp3062
(dp3063
g74
(dp3064
g101
g102
ssg83
g3053
sg76
(lp3065
S':'
asbag69
(g90
g71
NtRp3066
(dp3067
g74
(dp3068
sg83
g3053
sg76
(lp3069
g69
(g70
g71
NtRp3070
(dp3071
g74
(dp3072
g82
I3
ssg83
g3066
sg76
(lp3073
g1617
asbasbasbag69
(g85
g71
NtRp3074
(dp3075
g74
(dp3076
sg83
g2797
sg76
(lp3077
g69
(g90
g71
NtRp3078
(dp3079
g74
(dp3080
g94
g95
ssg83
g3074
sg76
(lp3081
S'REQUEST_URI'
p3082
asbag69
(g90
g71
NtRp3083
(dp3084
g74
(dp3085
g101
g102
ssg83
g3074
sg76
(lp3086
S':'
asbag69
(g90
g71
NtRp3087
(dp3088
g74
(dp3089
sg83
g3074
sg76
(lp3090
g69
(g70
g71
NtRp3091
(dp3092
g74
(dp3093
g82
I3
ssg83
g3087
sg76
(lp3094
g1639
asbasbasbag69
(g85
g71
NtRp3095
(dp3096
g74
(dp3097
sg83
g2797
sg76
(lp3098
g69
(g90
g71
NtRp3099
(dp3100
g74
(dp3101
g94
g95
ssg83
g3095
sg76
(lp3102
S'SCRIPT_NAME'
p3103
asbag69
(g90
g71
NtRp3104
(dp3105
g74
(dp3106
g101
g102
ssg83
g3095
sg76
(lp3107
S':'
asbag69
(g90
g71
NtRp3108
(dp3109
g74
(dp3110
sg83
g3095
sg76
(lp3111
g69
(g70
g71
NtRp3112
(dp3113
g74
(dp3114
g82
I3
ssg83
g3108
sg76
(lp3115
S''
asbasbasbag69
(g85
g71
NtRp3116
(dp3117
g74
(dp3118
sg83
g2797
sg76
(lp3119
g69
(g90
g71
NtRp3120
(dp3121
g74
(dp3122
g94
g95
ssg83
g3116
sg76
(lp3123
S'SERVER_NAME'
p3124
asbag69
(g90
g71
NtRp3125
(dp3126
g74
(dp3127
g101
g102
ssg83
g3116
sg76
(lp3128
S':'
asbag69
(g90
g71
NtRp3129
(dp3130
g74
(dp3131
sg83
g3116
sg76
(lp3132
g69
(g70
g71
NtRp3133
(dp3134
g74
(dp3135
g82
I3
ssg83
g3129
sg76
(lp3136
g1682
asbasbasbag69
(g85
g71
NtRp3137
(dp3138
g74
(dp3139
sg83
g2797
sg76
(lp3140
g69
(g90
g71
NtRp3141
(dp3142
g74
(dp3143
g94
g95
ssg83
g3137
sg76
(lp3144
S'SERVER_PORT'
p3145
asbag69
(g90
g71
NtRp3146
(dp3147
g74
(dp3148
g101
g102
ssg83
g3137
sg76
(lp3149
S':'
asbag69
(g90
g71
NtRp3150
(dp3151
g74
(dp3152
sg83
g3137
sg76
(lp3153
g69
(g70
g71
NtRp3154
(dp3155
g74
(dp3156
g82
I3
ssg83
g3150
sg76
(lp3157
g1704
asbasbasbag69
(g85
g71
NtRp3158
(dp3159
g74
(dp3160
sg83
g2797
sg76
(lp3161
g69
(g90
g71
NtRp3162
(dp3163
g74
(dp3164
g94
g95
ssg83
g3158
sg76
(lp3165
S'SERVER_PROTOCOL'
p3166
asbag69
(g90
g71
NtRp3167
(dp3168
g74
(dp3169
g101
g102
ssg83
g3158
sg76
(lp3170
S':'
asbag69
(g90
g71
NtRp3171
(dp3172
g74
(dp3173
sg83
g3158
sg76
(lp3174
g69
(g70
g71
NtRp3175
(dp3176
g74
(dp3177
g82
I3
ssg83
g3171
sg76
(lp3178
g1726
asbasbasbag69
(g85
g71
NtRp3179
(dp3180
g74
(dp3181
sg83
g2797
sg76
(lp3182
g69
(g90
g71
NtRp3183
(dp3184
g74
(dp3185
g94
g95
ssg83
g3179
sg76
(lp3186
S'SERVER_SOFTWARE'
p3187
asbag69
(g90
g71
NtRp3188
(dp3189
g74
(dp3190
g101
g102
ssg83
g3179
sg76
(lp3191
S':'
asbag69
(g90
g71
NtRp3192
(dp3193
g74
(dp3194
sg83
g3179
sg76
(lp3195
g69
(g70
g71
NtRp3196
(dp3197
g74
(dp3198
g82
I3
ssg83
g3192
sg76
(lp3199
g1748
asbasbasbag69
(g85
g71
NtRp3200
(dp3201
g74
(dp3202
sg83
g2797
sg76
(lp3203
g69
(g90
g71
NtRp3204
(dp3205
g74
(dp3206
g94
g95
ssg83
g3200
sg76
(lp3207
S'WEB2PY_ORIGINAL_URI'
p3208
asbag69
(g90
g71
NtRp3209
(dp3210
g74
(dp3211
g101
g102
ssg83
g3200
sg76
(lp3212
S':'
asbag69
(g90
g71
NtRp3213
(dp3214
g74
(dp3215
sg83
g3200
sg76
(lp3216
g69
(g70
g71
NtRp3217
(dp3218
g74
(dp3219
g82
I3
ssg83
g3213
sg76
(lp3220
S'/'
asbasbasbag69
(g85
g71
NtRp3221
(dp3222
g74
(dp3223
sg83
g2797
sg76
(lp3224
g69
(g90
g71
NtRp3225
(dp3226
g74
(dp3227
g94
g95
ssg83
g3221
sg76
(lp3228
S'wsgi.errors'
p3229
asbag69
(g90
g71
NtRp3230
(dp3231
g74
(dp3232
g101
g102
ssg83
g3221
sg76
(lp3233
S':'
asbag69
(g90
g71
NtRp3234
(dp3235
g74
(dp3236
sg83
g3221
sg76
(lp3237
g69
(g70
g71
NtRp3238
(dp3239
g74
(dp3240
g82
I3
ssg83
g3234
sg76
(lp3241
S"<open file '<stderr>', mode 'w' at 0x7fcfd5f3c270>"
p3242
asbasbasbag69
(g85
g71
NtRp3243
(dp3244
g74
(dp3245
sg83
g2797
sg76
(lp3246
g69
(g90
g71
NtRp3247
(dp3248
g74
(dp3249
g94
g95
ssg83
g3243
sg76
(lp3250
S'wsgi.file_wrapper'
p3251
asbag69
(g90
g71
NtRp3252
(dp3253
g74
(dp3254
g101
g102
ssg83
g3243
sg76
(lp3255
S':'
asbag69
(g90
g71
NtRp3256
(dp3257
g74
(dp3258
sg83
g3243
sg76
(lp3259
g69
(g70
g71
NtRp3260
(dp3261
g74
(dp3262
g82
I3
ssg83
g3256
sg76
(lp3263
S'<class wsgiref.util.FileWrapper at 0x336c460>'
p3264
asbasbasbag69
(g85
g71
NtRp3265
(dp3266
g74
(dp3267
sg83
g2797
sg76
(lp3268
g69
(g90
g71
NtRp3269
(dp3270
g74
(dp3271
g94
g95
ssg83
g3265
sg76
(lp3272
S'wsgi.input'
p3273
asbag69
(g90
g71
NtRp3274
(dp3275
g74
(dp3276
g101
g102
ssg83
g3265
sg76
(lp3277
S':'
asbag69
(g90
g71
NtRp3278
(dp3279
g74
(dp3280
sg83
g3265
sg76
(lp3281
g69
(g70
g71
NtRp3282
(dp3283
g74
(dp3284
g82
I3
ssg83
g3278
sg76
(lp3285
S'<cStringIO.StringO object at 0x7fcfac6d56f8>'
p3286
asbasbasbag69
(g85
g71
NtRp3287
(dp3288
g74
(dp3289
sg83
g2797
sg76
(lp3290
g69
(g90
g71
NtRp3291
(dp3292
g74
(dp3293
g94
g95
ssg83
g3287
sg76
(lp3294
S'wsgi.multiprocess'
p3295
asbag69
(g90
g71
NtRp3296
(dp3297
g74
(dp3298
g101
g102
ssg83
g3287
sg76
(lp3299
S':'
asbag69
(g90
g71
NtRp3300
(dp3301
g74
(dp3302
sg83
g3287
sg76
(lp3303
g69
(g70
g71
NtRp3304
(dp3305
g74
(dp3306
g82
I3
ssg83
g3300
sg76
(lp3307
g112
asbasbasbag69
(g85
g71
NtRp3308
(dp3309
g74
(dp3310
sg83
g2797
sg76
(lp3311
g69
(g90
g71
NtRp3312
(dp3313
g74
(dp3314
g94
g95
ssg83
g3308
sg76
(lp3315
S'wsgi.multithread'
p3316
asbag69
(g90
g71
NtRp3317
(dp3318
g74
(dp3319
g101
g102
ssg83
g3308
sg76
(lp3320
S':'
asbag69
(g90
g71
NtRp3321
(dp3322
g74
(dp3323
sg83
g3308
sg76
(lp3324
g69
(g70
g71
NtRp3325
(dp3326
g74
(dp3327
g82
I3
ssg83
g3321
sg76
(lp3328
g1986
asbasbasbag69
(g85
g71
NtRp3329
(dp3330
g74
(dp3331
sg83
g2797
sg76
(lp3332
g69
(g90
g71
NtRp3333
(dp3334
g74
(dp3335
g94
g95
ssg83
g3329
sg76
(lp3336
S'wsgi.run_once'
p3337
asbag69
(g90
g71
NtRp3338
(dp3339
g74
(dp3340
g101
g102
ssg83
g3329
sg76
(lp3341
S':'
asbag69
(g90
g71
NtRp3342
(dp3343
g74
(dp3344
sg83
g3329
sg76
(lp3345
g69
(g70
g71
NtRp3346
(dp3347
g74
(dp3348
g82
I3
ssg83
g3342
sg76
(lp3349
g112
asbasbasbag69
(g85
g71
NtRp3350
(dp3351
g74
(dp3352
sg83
g2797
sg76
(lp3353
g69
(g90
g71
NtRp3354
(dp3355
g74
(dp3356
g94
g95
ssg83
g3350
sg76
(lp3357
S'wsgi.url_scheme'
p3358
asbag69
(g90
g71
NtRp3359
(dp3360
g74
(dp3361
g101
g102
ssg83
g3350
sg76
(lp3362
S':'
asbag69
(g90
g71
NtRp3363
(dp3364
g74
(dp3365
sg83
g3350
sg76
(lp3366
g69
(g70
g71
NtRp3367
(dp3368
g74
(dp3369
g82
I3
ssg83
g3363
sg76
(lp3370
g2029
asbasbasbag69
(g85
g71
NtRp3371
(dp3372
g74
(dp3373
sg83
g2797
sg76
(lp3374
g69
(g90
g71
NtRp3375
(dp3376
g74
(dp3377
g94
g95
ssg83
g3371
sg76
(lp3378
S'wsgi.version'
p3379
asbag69
(g90
g71
NtRp3380
(dp3381
g74
(dp3382
g101
g102
ssg83
g3371
sg76
(lp3383
S':'
asbag69
(g90
g71
NtRp3384
(dp3385
g74
(dp3386
sg83
g3371
sg76
(lp3387
g69
(g70
g71
NtRp3388
(dp3389
g74
(dp3390
g82
I3
ssg83
g3384
sg76
(lp3391
S'1'
asbasbasbasbasbasbasbasbasbasbasbasbasbsS'frames'
p3392
(lp3393
(dp3394
S'file'
p3395
S'/var/www/hosts3/gluon/restricted.py'
p3396
sS'dump'
p3397
(dp3398
S'code'
p3399
S"'# coding: utf-8\\n\\n@auth.requires_login()\\ndef show... \\n\\nresponse._vars=response._caller(show_cliente)\\n'"
p3400
sS'layer'
p3401
S"'/var/www/hosts3/applications/projeto/controllers/initial.py'"
p3402
sS'global compile2'
p3403
S'<function compile2>'
p3404
sS'ccode'
p3405
S'undefined'
p3406
ssS'lnum'
p3407
I211
sS'lines'
p3408
(dp3409
I206
S"    environment['__name__'] = '__restricted__'"
p3410
sI207
S'    try:'
p3411
sI208
S'        if isinstance(code, types.CodeType):'
p3412
sI209
S'            ccode = code'
p3413
sI210
S'        else:'
p3414
sI211
S'            ccode = compile2(code, layer)'
p3415
sI212
S'        exec ccode in environment'
p3416
sI213
S'    except HTTP:'
p3417
sI214
S'        raise'
p3418
sI215
S'    except RestrictedError:'
p3419
ssS'call'
p3420
S"(code='# coding: utf-8\\n\\n@auth.requires_login()\\ndef show... \\n\\nresponse._vars=response._caller(show_cliente)\\n', environment={'A': <class 'gluon.html.A'>, 'Auth': <class 'gluon.tools.Auth'>, 'B': <class 'gluon.html.B'>, 'BEAUTIFY': <class 'gluon.html.BEAUTIFY'>, 'BODY': <class 'gluon.html.BODY'>, 'BR': <class 'gluon.html.BR'>, 'BUTTON': <class 'gluon.html.BUTTON'>, 'CAT': <class 'gluon.html.CAT'>, 'CENTER': <class 'gluon.html.CENTER'>, 'CLEANUP': <class 'gluon.validators.CLEANUP'>, ...}, layer='/var/www/hosts3/applications/projeto/controllers/initial.py')"
p3421
sS'func'
p3422
S'restricted'
p3423
sa(dp3424
g3395
S'/var/www/hosts3/gluon/restricted.py'
p3425
sg3397
(dp3426
S'builtincompile'
p3427
S'<built-in function compile>'
p3428
sS'code'
p3429
S"'# coding: utf-8\\n\\n@auth.requires_login()\\ndef show... \\n\\nresponse._vars=response._caller(show_cliente)\\n'"
p3430
sS'code.rstrip'
p3431
S'<built-in method rstrip of str object>'
p3432
sS').replace'
p3433
g3406
sS'layer'
p3434
S"'/var/www/hosts3/applications/projeto/controllers/initial.py'"
p3435
ssg3407
I194
sg3408
(dp3436
I192
S"    The +'\\n' is necessary else compile fails when code ends in a comment."
p3437
sI193
S'    """'
p3438
sI194
S"    return compile(code.rstrip().replace('\\r\\n', '\\n') + '\\n', layer, 'exec')"
p3439
sI195
S''
sI196
S''
sI197
S"def restricted(code, environment=None, layer='Unknown'):"
p3440
sI198
S'    """'
p3441
sI189
S''
sI190
S'def compile2(code, layer):'
p3442
sI191
S'    """'
p3443
ssg3420
S"(code='# coding: utf-8\\n\\n@auth.requires_login()\\ndef show... \\n\\nresponse._vars=response._caller(show_cliente)\\n', layer='/var/www/hosts3/applications/projeto/controllers/initial.py')"
p3444
sg3422
S'compile2'
p3445
sasS'pyver'
p3446
S'Python 2.7.3: /usr/bin/python'
p3447
sS'session'
p3448
g69
(g70
g71
NtRp3449
(dp3450
g74
(dp3451
sg76
(lp3452
g69
(g78
g71
NtRp3453
(dp3454
g74
(dp3455
g82
I5
ssg83
Nsg76
(lp3456
g69
(g85
g71
NtRp3457
(dp3458
g74
(dp3459
sg83
g3453
sg76
(lp3460
g69
(g90
g71
NtRp3461
(dp3462
g74
(dp3463
g94
g95
ssg83
g3457
sg76
(lp3464
S'auth'
p3465
asbag69
(g90
g71
NtRp3466
(dp3467
g74
(dp3468
g101
g102
ssg83
g3457
sg76
(lp3469
S':'
asbag69
(g90
g71
NtRp3470
(dp3471
g74
(dp3472
sg83
g3457
sg76
(lp3473
g69
(g70
g71
NtRp3474
(dp3475
g74
(dp3476
g82
I5
ssg83
g3470
sg76
(lp3477
g69
(g78
g71
NtRp3478
(dp3479
g74
(dp3480
g82
I4
ssg83
Nsg76
(lp3481
g69
(g85
g71
NtRp3482
(dp3483
g74
(dp3484
sg83
g3478
sg76
(lp3485
g69
(g90
g71
NtRp3486
(dp3487
g74
(dp3488
g94
g95
ssg83
g3482
sg76
(lp3489
S'expiration'
p3490
asbag69
(g90
g71
NtRp3491
(dp3492
g74
(dp3493
g101
g102
ssg83
g3482
sg76
(lp3494
S':'
asbag69
(g90
g71
NtRp3495
(dp3496
g74
(dp3497
sg83
g3482
sg76
(lp3498
g69
(g70
g71
NtRp3499
(dp3500
g74
(dp3501
g82
I4
ssg83
g3495
sg76
(lp3502
S'3600'
p3503
asbasbasbag69
(g85
g71
NtRp3504
(dp3505
g74
(dp3506
sg83
g3478
sg76
(lp3507
g69
(g90
g71
NtRp3508
(dp3509
g74
(dp3510
g94
g95
ssg83
g3504
sg76
(lp3511
S'hmac_key'
p3512
asbag69
(g90
g71
NtRp3513
(dp3514
g74
(dp3515
g101
g102
ssg83
g3504
sg76
(lp3516
S':'
asbag69
(g90
g71
NtRp3517
(dp3518
g74
(dp3519
sg83
g3504
sg76
(lp3520
g69
(g70
g71
NtRp3521
(dp3522
g74
(dp3523
g82
I4
ssg83
g3517
sg76
(lp3524
S'07f4f1c0-a65d-4439-b10f-59d402eaa7a0'
p3525
asbasbasbag69
(g85
g71
NtRp3526
(dp3527
g74
(dp3528
sg83
g3478
sg76
(lp3529
g69
(g90
g71
NtRp3530
(dp3531
g74
(dp3532
g94
g95
ssg83
g3526
sg76
(lp3533
S'last_visit'
p3534
asbag69
(g90
g71
NtRp3535
(dp3536
g74
(dp3537
g101
g102
ssg83
g3526
sg76
(lp3538
S':'
asbag69
(g90
g71
NtRp3539
(dp3540
g74
(dp3541
sg83
g3526
sg76
(lp3542
g69
(g70
g71
NtRp3543
(dp3544
g74
(dp3545
g82
I4
ssg83
g3539
sg76
(lp3546
S'datetime.datetime(2013, 3, 5, 10, 43, 53, 738548)'
p3547
asbasbasbag69
(g85
g71
NtRp3548
(dp3549
g74
(dp3550
sg83
g3478
sg76
(lp3551
g69
(g90
g71
NtRp3552
(dp3553
g74
(dp3554
g94
g95
ssg83
g3548
sg76
(lp3555
S'remember'
p3556
asbag69
(g90
g71
NtRp3557
(dp3558
g74
(dp3559
g101
g102
ssg83
g3548
sg76
(lp3560
S':'
asbag69
(g90
g71
NtRp3561
(dp3562
g74
(dp3563
sg83
g3548
sg76
(lp3564
g69
(g70
g71
NtRp3565
(dp3566
g74
(dp3567
g82
I4
ssg83
g3561
sg76
(lp3568
g112
asbasbasbag69
(g85
g71
NtRp3569
(dp3570
g74
(dp3571
sg83
g3478
sg76
(lp3572
g69
(g90
g71
NtRp3573
(dp3574
g74
(dp3575
g94
g95
ssg83
g3569
sg76
(lp3576
S'user'
p3577
asbag69
(g90
g71
NtRp3578
(dp3579
g74
(dp3580
g101
g102
ssg83
g3569
sg76
(lp3581
S':'
asbag69
(g90
g71
NtRp3582
(dp3583
g74
(dp3584
sg83
g3569
sg76
(lp3585
g69
(g70
g71
NtRp3586
(dp3587
g74
(dp3588
g82
I4
ssg83
g3582
sg76
(lp3589
g69
(g78
g71
NtRp3590
(dp3591
g74
(dp3592
g82
I3
ssg83
Nsg76
(lp3593
g69
(g85
g71
NtRp3594
(dp3595
g74
(dp3596
sg83
g3590
sg76
(lp3597
g69
(g90
g71
NtRp3598
(dp3599
g74
(dp3600
g94
g95
ssg83
g3594
sg76
(lp3601
S'email'
p3602
asbag69
(g90
g71
NtRp3603
(dp3604
g74
(dp3605
g101
g102
ssg83
g3594
sg76
(lp3606
S':'
asbag69
(g90
g71
NtRp3607
(dp3608
g74
(dp3609
sg83
g3594
sg76
(lp3610
g69
(g70
g71
NtRp3611
(dp3612
g74
(dp3613
g82
I3
ssg83
g3607
sg76
(lp3614
S'fernando@ad2.com.br'
p3615
asbasbasbag69
(g85
g71
NtRp3616
(dp3617
g74
(dp3618
sg83
g3590
sg76
(lp3619
g69
(g90
g71
NtRp3620
(dp3621
g74
(dp3622
g94
g95
ssg83
g3616
sg76
(lp3623
S'first_name'
p3624
asbag69
(g90
g71
NtRp3625
(dp3626
g74
(dp3627
g101
g102
ssg83
g3616
sg76
(lp3628
S':'
asbag69
(g90
g71
NtRp3629
(dp3630
g74
(dp3631
sg83
g3616
sg76
(lp3632
g69
(g70
g71
NtRp3633
(dp3634
g74
(dp3635
g82
I3
ssg83
g3629
sg76
(lp3636
S'Fernando'
p3637
asbasbasbag69
(g85
g71
NtRp3638
(dp3639
g74
(dp3640
sg83
g3590
sg76
(lp3641
g69
(g90
g71
NtRp3642
(dp3643
g74
(dp3644
g94
g95
ssg83
g3638
sg76
(lp3645
S'id'
p3646
asbag69
(g90
g71
NtRp3647
(dp3648
g74
(dp3649
g101
g102
ssg83
g3638
sg76
(lp3650
S':'
asbag69
(g90
g71
NtRp3651
(dp3652
g74
(dp3653
sg83
g3638
sg76
(lp3654
g69
(g70
g71
NtRp3655
(dp3656
g74
(dp3657
g82
I3
ssg83
g3651
sg76
(lp3658
S'1'
asbasbasbag69
(g85
g71
NtRp3659
(dp3660
g74
(dp3661
sg83
g3590
sg76
(lp3662
g69
(g90
g71
NtRp3663
(dp3664
g74
(dp3665
g94
g95
ssg83
g3659
sg76
(lp3666
S'last_name'
p3667
asbag69
(g90
g71
NtRp3668
(dp3669
g74
(dp3670
g101
g102
ssg83
g3659
sg76
(lp3671
S':'
asbag69
(g90
g71
NtRp3672
(dp3673
g74
(dp3674
sg83
g3659
sg76
(lp3675
g69
(g70
g71
NtRp3676
(dp3677
g74
(dp3678
g82
I3
ssg83
g3672
sg76
(lp3679
S'Vieira'
p3680
asbasbasbag69
(g85
g71
NtRp3681
(dp3682
g74
(dp3683
sg83
g3590
sg76
(lp3684
g69
(g90
g71
NtRp3685
(dp3686
g74
(dp3687
g94
g95
ssg83
g3681
sg76
(lp3688
S'registration_id'
p3689
asbag69
(g90
g71
NtRp3690
(dp3691
g74
(dp3692
g101
g102
ssg83
g3681
sg76
(lp3693
S':'
asbag69
(g90
g71
NtRp3694
(dp3695
g74
(dp3696
sg83
g3681
sg76
(lp3697
g69
(g70
g71
NtRp3698
(dp3699
g74
(dp3700
g82
I3
ssg83
g3694
sg76
(lp3701
S''
asbasbasbag69
(g85
g71
NtRp3702
(dp3703
g74
(dp3704
sg83
g3590
sg76
(lp3705
g69
(g90
g71
NtRp3706
(dp3707
g74
(dp3708
g94
g95
ssg83
g3702
sg76
(lp3709
S'registration_key'
p3710
asbag69
(g90
g71
NtRp3711
(dp3712
g74
(dp3713
g101
g102
ssg83
g3702
sg76
(lp3714
S':'
asbag69
(g90
g71
NtRp3715
(dp3716
g74
(dp3717
sg83
g3702
sg76
(lp3718
g69
(g70
g71
NtRp3719
(dp3720
g74
(dp3721
g82
I3
ssg83
g3715
sg76
(lp3722
S''
asbasbasbag69
(g85
g71
NtRp3723
(dp3724
g74
(dp3725
sg83
g3590
sg76
(lp3726
g69
(g90
g71
NtRp3727
(dp3728
g74
(dp3729
g94
g95
ssg83
g3723
sg76
(lp3730
S'reset_password_key'
p3731
asbag69
(g90
g71
NtRp3732
(dp3733
g74
(dp3734
g101
g102
ssg83
g3723
sg76
(lp3735
S':'
asbag69
(g90
g71
NtRp3736
(dp3737
g74
(dp3738
sg83
g3723
sg76
(lp3739
g69
(g70
g71
NtRp3740
(dp3741
g74
(dp3742
g82
I3
ssg83
g3736
sg76
(lp3743
S''
asbasbasbasbasbasbasbag69
(g85
g71
NtRp3744
(dp3745
g74
(dp3746
sg83
g3478
sg76
(lp3747
g69
(g90
g71
NtRp3748
(dp3749
g74
(dp3750
g94
g95
ssg83
g3744
sg76
(lp3751
S'user_groups'
p3752
asbag69
(g90
g71
NtRp3753
(dp3754
g74
(dp3755
g101
g102
ssg83
g3744
sg76
(lp3756
S':'
asbag69
(g90
g71
NtRp3757
(dp3758
g74
(dp3759
sg83
g3744
sg76
(lp3760
g69
(g70
g71
NtRp3761
(dp3762
g74
(dp3763
g82
I4
ssg83
g3757
sg76
(lp3764
g69
(g78
g71
NtRp3765
(dp3766
g74
(dp3767
g82
I3
ssg83
Nsg76
(lp3768
g69
(g85
g71
NtRp3769
(dp3770
g74
(dp3771
sg83
g3765
sg76
(lp3772
g69
(g90
g71
NtRp3773
(dp3774
g74
(dp3775
g94
g95
ssg83
g3769
sg76
(lp3776
S'1'
asbag69
(g90
g71
NtRp3777
(dp3778
g74
(dp3779
g101
g102
ssg83
g3769
sg76
(lp3780
S':'
asbag69
(g90
g71
NtRp3781
(dp3782
g74
(dp3783
sg83
g3769
sg76
(lp3784
g69
(g70
g71
NtRp3785
(dp3786
g74
(dp3787
g82
I3
ssg83
g3781
sg76
(lp3788
S'group1'
p3789
asbasbasbag69
(g85
g71
NtRp3790
(dp3791
g74
(dp3792
sg83
g3765
sg76
(lp3793
g69
(g90
g71
NtRp3794
(dp3795
g74
(dp3796
g94
g95
ssg83
g3790
sg76
(lp3797
S'99'
p3798
asbag69
(g90
g71
NtRp3799
(dp3800
g74
(dp3801
g101
g102
ssg83
g3790
sg76
(lp3802
S':'
asbag69
(g90
g71
NtRp3803
(dp3804
g74
(dp3805
sg83
g3790
sg76
(lp3806
g69
(g70
g71
NtRp3807
(dp3808
g74
(dp3809
g82
I3
ssg83
g3803
sg76
(lp3810
S'admin'
p3811
asbasbasbasbasbasbasbasbasbasbasbag69
(g85
g71
NtRp3812
(dp3813
g74
(dp3814
sg83
g3453
sg76
(lp3815
g69
(g90
g71
NtRp3816
(dp3817
g74
(dp3818
g94
g95
ssg83
g3812
sg76
(lp3819
S'flash'
p3820
asbag69
(g90
g71
NtRp3821
(dp3822
g74
(dp3823
g101
g102
ssg83
g3812
sg76
(lp3824
S':'
asbag69
(g90
g71
NtRp3825
(dp3826
g74
(dp3827
sg83
g3812
sg76
(lp3828
g69
(g70
g71
NtRp3829
(dp3830
g74
(dp3831
g82
I5
ssg83
g3825
sg76
(lp3832
S'None'
p3833
asbasbasbasbasbsS'etype'
p3834
S"<type 'exceptions.IndentationError'>"
p3835
sS'date'
p3836
S'Tue Mar  5 10:49:53 2013'
p3837
sS'response'
p3838
g69
(g70
g71
NtRp3839
(dp3840
g74
(dp3841
sg76
(lp3842
g69
(g78
g71
NtRp3843
(dp3844
g74
(dp3845
g82
I5
ssg83
Nsg76
(lp3846
g69
(g85
g71
NtRp3847
(dp3848
g74
(dp3849
sg83
g3843
sg76
(lp3850
g69
(g90
g71
NtRp3851
(dp3852
g74
(dp3853
g94
g95
ssg83
g3847
sg76
(lp3854
g167
asbag69
(g90
g71
NtRp3855
(dp3856
g74
(dp3857
g101
g102
ssg83
g3847
sg76
(lp3858
S':'
asbag69
(g90
g71
NtRp3859
(dp3860
g74
(dp3861
sg83
g3847
sg76
(lp3862
g69
(g70
g71
NtRp3863
(dp3864
g74
(dp3865
g82
I5
ssg83
g3859
sg76
(lp3866
S'<cStringIO.StringO object at 0x7fcfac301148>'
p3867
asbasbasbag69
(g85
g71
NtRp3868
(dp3869
g74
(dp3870
sg83
g3843
sg76
(lp3871
g69
(g90
g71
NtRp3872
(dp3873
g74
(dp3874
g94
g95
ssg83
g3868
sg76
(lp3875
g255
asbag69
(g90
g71
NtRp3876
(dp3877
g74
(dp3878
g101
g102
ssg83
g3868
sg76
(lp3879
S':'
asbag69
(g90
g71
NtRp3880
(dp3881
g74
(dp3882
sg83
g3868
sg76
(lp3883
g69
(g70
g71
NtRp3884
(dp3885
g74
(dp3886
g82
I5
ssg83
g3880
sg76
(lp3887
g69
(g78
g71
NtRp3888
(dp3889
g74
(dp3890
g82
I4
ssg83
Nsg76
(lp3891
g69
(g85
g71
NtRp3892
(dp3893
g74
(dp3894
sg83
g3888
sg76
(lp3895
g69
(g90
g71
NtRp3896
(dp3897
g74
(dp3898
g94
g95
ssg83
g3892
sg76
(lp3899
S'session_id_projeto'
p3900
asbag69
(g90
g71
NtRp3901
(dp3902
g74
(dp3903
g101
g102
ssg83
g3892
sg76
(lp3904
S':'
asbag69
(g90
g71
NtRp3905
(dp3906
g74
(dp3907
sg83
g3892
sg76
(lp3908
g69
(g70
g71
NtRp3909
(dp3910
g74
(dp3911
g82
I4
ssg83
g3905
sg76
(lp3912
g857
ag69
(g78
g71
NtRp3913
(dp3914
g74
(dp3915
g82
I3
ssg83
Nsg76
(lp3916
g69
(g85
g71
NtRp3917
(dp3918
g74
(dp3919
sg83
g3913
sg76
(lp3920
g69
(g90
g71
NtRp3921
(dp3922
g74
(dp3923
g94
g95
ssg83
g3917
sg76
(lp3924
g305
asbag69
(g90
g71
NtRp3925
(dp3926
g74
(dp3927
g101
g102
ssg83
g3917
sg76
(lp3928
S':'
asbag69
(g90
g71
NtRp3929
(dp3930
g74
(dp3931
sg83
g3917
sg76
(lp3932
g69
(g70
g71
NtRp3933
(dp3934
g74
(dp3935
g82
I3
ssg83
g3929
sg76
(lp3936
S''
asbasbasbag69
(g85
g71
NtRp3937
(dp3938
g74
(dp3939
sg83
g3913
sg76
(lp3940
g69
(g90
g71
NtRp3941
(dp3942
g74
(dp3943
g94
g95
ssg83
g3937
sg76
(lp3944
g326
asbag69
(g90
g71
NtRp3945
(dp3946
g74
(dp3947
g101
g102
ssg83
g3937
sg76
(lp3948
S':'
asbag69
(g90
g71
NtRp3949
(dp3950
g74
(dp3951
sg83
g3937
sg76
(lp3952
g69
(g70
g71
NtRp3953
(dp3954
g74
(dp3955
g82
I3
ssg83
g3949
sg76
(lp3956
S''
asbasbasbag69
(g85
g71
NtRp3957
(dp3958
g74
(dp3959
sg83
g3913
sg76
(lp3960
g69
(g90
g71
NtRp3961
(dp3962
g74
(dp3963
g94
g95
ssg83
g3957
sg76
(lp3964
g347
asbag69
(g90
g71
NtRp3965
(dp3966
g74
(dp3967
g101
g102
ssg83
g3957
sg76
(lp3968
S':'
asbag69
(g90
g71
NtRp3969
(dp3970
g74
(dp3971
sg83
g3957
sg76
(lp3972
g69
(g70
g71
NtRp3973
(dp3974
g74
(dp3975
g82
I3
ssg83
g3969
sg76
(lp3976
S''
asbasbasbag69
(g85
g71
NtRp3977
(dp3978
g74
(dp3979
sg83
g3913
sg76
(lp3980
g69
(g90
g71
NtRp3981
(dp3982
g74
(dp3983
g94
g95
ssg83
g3977
sg76
(lp3984
g368
asbag69
(g90
g71
NtRp3985
(dp3986
g74
(dp3987
g101
g102
ssg83
g3977
sg76
(lp3988
S':'
asbag69
(g90
g71
NtRp3989
(dp3990
g74
(dp3991
sg83
g3977
sg76
(lp3992
g69
(g70
g71
NtRp3993
(dp3994
g74
(dp3995
g82
I3
ssg83
g3989
sg76
(lp3996
S''
asbasbasbag69
(g85
g71
NtRp3997
(dp3998
g74
(dp3999
sg83
g3913
sg76
(lp4000
g69
(g90
g71
NtRp4001
(dp4002
g74
(dp4003
g94
g95
ssg83
g3997
sg76
(lp4004
g389
asbag69
(g90
g71
NtRp4005
(dp4006
g74
(dp4007
g101
g102
ssg83
g3997
sg76
(lp4008
S':'
asbag69
(g90
g71
NtRp4009
(dp4010
g74
(dp4011
sg83
g3997
sg76
(lp4012
g69
(g70
g71
NtRp4013
(dp4014
g74
(dp4015
g82
I3
ssg83
g4009
sg76
(lp4016
S''
asbasbasbag69
(g85
g71
NtRp4017
(dp4018
g74
(dp4019
sg83
g3913
sg76
(lp4020
g69
(g90
g71
NtRp4021
(dp4022
g74
(dp4023
g94
g95
ssg83
g4017
sg76
(lp4024
g410
asbag69
(g90
g71
NtRp4025
(dp4026
g74
(dp4027
g101
g102
ssg83
g4017
sg76
(lp4028
S':'
asbag69
(g90
g71
NtRp4029
(dp4030
g74
(dp4031
sg83
g4017
sg76
(lp4032
g69
(g70
g71
NtRp4033
(dp4034
g74
(dp4035
g82
I3
ssg83
g4029
sg76
(lp4036
S'/'
asbasbasbag69
(g85
g71
NtRp4037
(dp4038
g74
(dp4039
sg83
g3913
sg76
(lp4040
g69
(g90
g71
NtRp4041
(dp4042
g74
(dp4043
g94
g95
ssg83
g4037
sg76
(lp4044
g431
asbag69
(g90
g71
NtRp4045
(dp4046
g74
(dp4047
g101
g102
ssg83
g4037
sg76
(lp4048
S':'
asbag69
(g90
g71
NtRp4049
(dp4050
g74
(dp4051
sg83
g4037
sg76
(lp4052
g69
(g70
g71
NtRp4053
(dp4054
g74
(dp4055
g82
I3
ssg83
g4049
sg76
(lp4056
S''
asbasbasbag69
(g85
g71
NtRp4057
(dp4058
g74
(dp4059
sg83
g3913
sg76
(lp4060
g69
(g90
g71
NtRp4061
(dp4062
g74
(dp4063
g94
g95
ssg83
g4057
sg76
(lp4064
g452
asbag69
(g90
g71
NtRp4065
(dp4066
g74
(dp4067
g101
g102
ssg83
g4057
sg76
(lp4068
S':'
asbag69
(g90
g71
NtRp4069
(dp4070
g74
(dp4071
sg83
g4057
sg76
(lp4072
g69
(g70
g71
NtRp4073
(dp4074
g74
(dp4075
g82
I3
ssg83
g4069
sg76
(lp4076
S''
asbasbasbasbasbasbasbasbasbasbasbag69
(g85
g71
NtRp4077
(dp4078
g74
(dp4079
sg83
g3843
sg76
(lp4080
g69
(g90
g71
NtRp4081
(dp4082
g74
(dp4083
g94
g95
ssg83
g4077
sg76
(lp4084
S'delimiters'
p4085
asbag69
(g90
g71
NtRp4086
(dp4087
g74
(dp4088
g101
g102
ssg83
g4077
sg76
(lp4089
S':'
asbag69
(g90
g71
NtRp4090
(dp4091
g74
(dp4092
sg83
g4077
sg76
(lp4093
g69
(g70
g71
NtRp4094
(dp4095
g74
(dp4096
g82
I5
ssg83
g4090
sg76
(lp4097
g69
(g78
g71
NtRp4098
(dp4099
g74
(dp4100
g82
I4
ssg83
Nsg76
(lp4101
g69
(g85
g71
NtRp4102
(dp4103
g74
(dp4104
sg83
g4098
sg76
(lp4105
g69
(g90
g71
NtRp4106
(dp4107
g74
(dp4108
sg83
g4102
sg76
(lp4109
g69
(g70
g71
NtRp4110
(dp4111
g74
(dp4112
g82
I4
ssg83
g4106
sg76
(lp4113
S'{{'
p4114
asbasbasbag69
(g85
g71
NtRp4115
(dp4116
g74
(dp4117
sg83
g4098
sg76
(lp4118
g69
(g90
g71
NtRp4119
(dp4120
g74
(dp4121
sg83
g4115
sg76
(lp4122
g69
(g70
g71
NtRp4123
(dp4124
g74
(dp4125
g82
I4
ssg83
g4119
sg76
(lp4126
S'}}'
p4127
asbasbasbasbasbasbasbag69
(g85
g71
NtRp4128
(dp4129
g74
(dp4130
sg83
g3843
sg76
(lp4131
g69
(g90
g71
NtRp4132
(dp4133
g74
(dp4134
g94
g95
ssg83
g4128
sg76
(lp4135
S'files'
p4136
asbag69
(g90
g71
NtRp4137
(dp4138
g74
(dp4139
g101
g102
ssg83
g4128
sg76
(lp4140
S':'
asbag69
(g90
g71
NtRp4141
(dp4142
g74
(dp4143
sg83
g4128
sg76
(lp4144
g69
(g70
g71
NtRp4145
(dp4146
g74
(dp4147
g82
I5
ssg83
g4141
sg76
(lp4148
g69
(g78
g71
NtRp4149
(dp4150
g74
(dp4151
g82
I4
ssg83
Nsg76
(lp4152
sbasbasbasbag69
(g85
g71
NtRp4153
(dp4154
g74
(dp4155
sg83
g3843
sg76
(lp4156
g69
(g90
g71
NtRp4157
(dp4158
g74
(dp4159
g94
g95
ssg83
g4153
sg76
(lp4160
S'flash'
p4161
asbag69
(g90
g71
NtRp4162
(dp4163
g74
(dp4164
g101
g102
ssg83
g4153
sg76
(lp4165
S':'
asbag69
(g90
g71
NtRp4166
(dp4167
g74
(dp4168
sg83
g4153
sg76
(lp4169
g69
(g70
g71
NtRp4170
(dp4171
g74
(dp4172
g82
I5
ssg83
g4166
sg76
(lp4173
S''
asbasbasbag69
(g85
g71
NtRp4174
(dp4175
g74
(dp4176
sg83
g3843
sg76
(lp4177
g69
(g90
g71
NtRp4178
(dp4179
g74
(dp4180
g94
g95
ssg83
g4174
sg76
(lp4181
S'generic_patterns'
p4182
asbag69
(g90
g71
NtRp4183
(dp4184
g74
(dp4185
g101
g102
ssg83
g4174
sg76
(lp4186
S':'
asbag69
(g90
g71
NtRp4187
(dp4188
g74
(dp4189
sg83
g4174
sg76
(lp4190
g69
(g70
g71
NtRp4191
(dp4192
g74
(dp4193
g82
I5
ssg83
g4187
sg76
(lp4194
g69
(g78
g71
NtRp4195
(dp4196
g74
(dp4197
g82
I4
ssg83
Nsg76
(lp4198
g69
(g85
g71
NtRp4199
(dp4200
g74
(dp4201
sg83
g4195
sg76
(lp4202
g69
(g90
g71
NtRp4203
(dp4204
g74
(dp4205
sg83
g4199
sg76
(lp4206
g69
(g70
g71
NtRp4207
(dp4208
g74
(dp4209
g82
I4
ssg83
g4203
sg76
(lp4210
S'*'
asbasbasbasbasbasbasbag69
(g85
g71
NtRp4211
(dp4212
g74
(dp4213
sg83
g3843
sg76
(lp4214
g69
(g90
g71
NtRp4215
(dp4216
g74
(dp4217
g94
g95
ssg83
g4211
sg76
(lp4218
S'google_analytics_id'
p4219
asbag69
(g90
g71
NtRp4220
(dp4221
g74
(dp4222
g101
g102
ssg83
g4211
sg76
(lp4223
S':'
asbag69
(g90
g71
NtRp4224
(dp4225
g74
(dp4226
sg83
g4211
sg76
(lp4227
g69
(g70
g71
NtRp4228
(dp4229
g74
(dp4230
g82
I5
ssg83
g4224
sg76
(lp4231
S'None'
p4232
asbasbasbag69
(g85
g71
NtRp4233
(dp4234
g74
(dp4235
sg83
g3843
sg76
(lp4236
g69
(g90
g71
NtRp4237
(dp4238
g74
(dp4239
g94
g95
ssg83
g4233
sg76
(lp4240
S'headers'
p4241
asbag69
(g90
g71
NtRp4242
(dp4243
g74
(dp4244
g101
g102
ssg83
g4233
sg76
(lp4245
S':'
asbag69
(g90
g71
NtRp4246
(dp4247
g74
(dp4248
sg83
g4233
sg76
(lp4249
g69
(g70
g71
NtRp4250
(dp4251
g74
(dp4252
g82
I5
ssg83
g4246
sg76
(lp4253
g69
(g78
g71
NtRp4254
(dp4255
g74
(dp4256
g82
I4
ssg83
Nsg76
(lp4257
g69
(g85
g71
NtRp4258
(dp4259
g74
(dp4260
sg83
g4254
sg76
(lp4261
g69
(g90
g71
NtRp4262
(dp4263
g74
(dp4264
g94
g95
ssg83
g4258
sg76
(lp4265
S'X-Powered-By'
p4266
asbag69
(g90
g71
NtRp4267
(dp4268
g74
(dp4269
g101
g102
ssg83
g4258
sg76
(lp4270
S':'
asbag69
(g90
g71
NtRp4271
(dp4272
g74
(dp4273
sg83
g4258
sg76
(lp4274
g69
(g70
g71
NtRp4275
(dp4276
g74
(dp4277
g82
I4
ssg83
g4271
sg76
(lp4278
S'web2py'
p4279
asbasbasbasbasbasbasbag69
(g85
g71
NtRp4280
(dp4281
g74
(dp4282
sg83
g3843
sg76
(lp4283
g69
(g90
g71
NtRp4284
(dp4285
g74
(dp4286
g94
g95
ssg83
g4280
sg76
(lp4287
S'logo'
p4288
asbag69
(g90
g71
NtRp4289
(dp4290
g74
(dp4291
g101
g102
ssg83
g4280
sg76
(lp4292
S':'
asbag69
(g90
g71
NtRp4293
(dp4294
g74
(dp4295
sg83
g4280
sg76
(lp4296
g69
(g70
g71
NtRp4297
(dp4298
g74
(dp4299
g82
I5
ssg83
g4293
sg76
(lp4300
g69
(cgluon.html
A
p4301
g71
NtRp4302
(dp4303
g74
(dp4304
S'_class'
p4305
S'brand'
p4306
sS'_href'
p4307
S''
ssg83
Nsg76
(lp4308
g69
(cgluon.html
B
p4309
g71
NtRp4310
(dp4311
g74
(dp4312
sg83
g4302
sg76
(lp4313
S'hosts'
p4314
ag69
(cgluon.html
SPAN
p4315
g71
NtRp4316
(dp4317
g74
(dp4318
sg83
g4310
sg76
(lp4319
S'3'
asbaS''
asbacgluon.html
XML_unpickle
p4320
(S's\r\x00\x00\x00&trade;&nbsp;'
tRp4321
asbasbasbasbag69
(g85
g71
NtRp4322
(dp4323
g74
(dp4324
sg83
g3843
sg76
(lp4325
g69
(g90
g71
NtRp4326
(dp4327
g74
(dp4328
g94
g95
ssg83
g4322
sg76
(lp4329
S'menu'
p4330
asbag69
(g90
g71
NtRp4331
(dp4332
g74
(dp4333
g101
g102
ssg83
g4322
sg76
(lp4334
S':'
asbag69
(g90
g71
NtRp4335
(dp4336
g74
(dp4337
sg83
g4322
sg76
(lp4338
g69
(g70
g71
NtRp4339
(dp4340
g74
(dp4341
g82
I5
ssg83
g4335
sg76
(lp4342
g69
(g78
g71
NtRp4343
(dp4344
g74
(dp4345
g82
I4
ssg83
Nsg76
(lp4346
g69
(g85
g71
NtRp4347
(dp4348
g74
(dp4349
sg83
g4343
sg76
(lp4350
g69
(g90
g71
NtRp4351
(dp4352
g74
(dp4353
sg83
g4347
sg76
(lp4354
g69
(g70
g71
NtRp4355
(dp4356
g74
(dp4357
g82
I4
ssg83
g4351
sg76
(lp4358
g69
(g78
g71
NtRp4359
(dp4360
g74
(dp4361
g82
I3
ssg83
Nsg76
(lp4362
g69
(g85
g71
NtRp4363
(dp4364
g74
(dp4365
sg83
g4359
sg76
(lp4366
g69
(g90
g71
NtRp4367
(dp4368
g74
(dp4369
sg83
g4363
sg76
(lp4370
g69
(g70
g71
NtRp4371
(dp4372
g74
(dp4373
g82
I3
ssg83
g4367
sg76
(lp4374
cgluon.languages
lazyT_unpickle
p4375
(S't\x08\x00\x00\x00Clientes'
tRp4376
asbasbasbag69
(g85
g71
NtRp4377
(dp4378
g74
(dp4379
sg83
g4359
sg76
(lp4380
g69
(g90
g71
NtRp4381
(dp4382
g74
(dp4383
sg83
g4377
sg76
(lp4384
g69
(g70
g71
NtRp4385
(dp4386
g74
(dp4387
g82
I3
ssg83
g4381
sg76
(lp4388
g112
asbasbasbag69
(g85
g71
NtRp4389
(dp4390
g74
(dp4391
sg83
g4359
sg76
(lp4392
g69
(g90
g71
NtRp4393
(dp4394
g74
(dp4395
sg83
g4389
sg76
(lp4396
g69
(g70
g71
NtRp4397
(dp4398
g74
(dp4399
g82
I3
ssg83
g4393
sg76
(lp4400
S'/'
asbasbasbag69
(g85
g71
NtRp4401
(dp4402
g74
(dp4403
sg83
g4359
sg76
(lp4404
g69
(g90
g71
NtRp4405
(dp4406
g74
(dp4407
sg83
g4401
sg76
(lp4408
g69
(g70
g71
NtRp4409
(dp4410
g74
(dp4411
g82
I3
ssg83
g4405
sg76
(lp4412
g69
(g78
g71
NtRp4413
(dp4414
g74
(dp4415
g82
I2
ssg83
Nsg76
(lp4416
sbasbasbasbasbasbasbasbag69
(g85
g71
NtRp4417
(dp4418
g74
(dp4419
sg83
g4343
sg76
(lp4420
g69
(g90
g71
NtRp4421
(dp4422
g74
(dp4423
sg83
g4417
sg76
(lp4424
g69
(g70
g71
NtRp4425
(dp4426
g74
(dp4427
g82
I4
ssg83
g4421
sg76
(lp4428
g69
(g78
g71
NtRp4429
(dp4430
g74
(dp4431
g82
I3
ssg83
Nsg76
(lp4432
g69
(g85
g71
NtRp4433
(dp4434
g74
(dp4435
sg83
g4429
sg76
(lp4436
g69
(g90
g71
NtRp4437
(dp4438
g74
(dp4439
sg83
g4433
sg76
(lp4440
g69
(g70
g71
NtRp4441
(dp4442
g74
(dp4443
g82
I3
ssg83
g4437
sg76
(lp4444
g4375
(S't\n\x00\x00\x00Servidores'
tRp4445
asbasbasbag69
(g85
g71
NtRp4446
(dp4447
g74
(dp4448
sg83
g4429
sg76
(lp4449
g69
(g90
g71
NtRp4450
(dp4451
g74
(dp4452
sg83
g4446
sg76
(lp4453
g69
(g70
g71
NtRp4454
(dp4455
g74
(dp4456
g82
I3
ssg83
g4450
sg76
(lp4457
g112
asbasbasbag69
(g85
g71
NtRp4458
(dp4459
g74
(dp4460
sg83
g4429
sg76
(lp4461
g69
(g90
g71
NtRp4462
(dp4463
g74
(dp4464
sg83
g4458
sg76
(lp4465
g69
(g70
g71
NtRp4466
(dp4467
g74
(dp4468
g82
I3
ssg83
g4462
sg76
(lp4469
S'/show_servidor'
p4470
asbasbasbag69
(g85
g71
NtRp4471
(dp4472
g74
(dp4473
sg83
g4429
sg76
(lp4474
g69
(g90
g71
NtRp4475
(dp4476
g74
(dp4477
sg83
g4471
sg76
(lp4478
g69
(g70
g71
NtRp4479
(dp4480
g74
(dp4481
g82
I3
ssg83
g4475
sg76
(lp4482
g69
(g78
g71
NtRp4483
(dp4484
g74
(dp4485
g82
I2
ssg83
Nsg76
(lp4486
sbasbasbasbasbasbasbasbag69
(g85
g71
NtRp4487
(dp4488
g74
(dp4489
sg83
g4343
sg76
(lp4490
g69
(g90
g71
NtRp4491
(dp4492
g74
(dp4493
sg83
g4487
sg76
(lp4494
g69
(g70
g71
NtRp4495
(dp4496
g74
(dp4497
g82
I4
ssg83
g4491
sg76
(lp4498
g69
(g78
g71
NtRp4499
(dp4500
g74
(dp4501
g82
I3
ssg83
Nsg76
(lp4502
g69
(g85
g71
NtRp4503
(dp4504
g74
(dp4505
sg83
g4499
sg76
(lp4506
g69
(g90
g71
NtRp4507
(dp4508
g74
(dp4509
sg83
g4503
sg76
(lp4510
g69
(g70
g71
NtRp4511
(dp4512
g74
(dp4513
g82
I3
ssg83
g4507
sg76
(lp4514
g4375
(S't\x07\x00\x00\x00Distros'
tRp4515
asbasbasbag69
(g85
g71
NtRp4516
(dp4517
g74
(dp4518
sg83
g4499
sg76
(lp4519
g69
(g90
g71
NtRp4520
(dp4521
g74
(dp4522
sg83
g4516
sg76
(lp4523
g69
(g70
g71
NtRp4524
(dp4525
g74
(dp4526
g82
I3
ssg83
g4520
sg76
(lp4527
g112
asbasbasbag69
(g85
g71
NtRp4528
(dp4529
g74
(dp4530
sg83
g4499
sg76
(lp4531
g69
(g90
g71
NtRp4532
(dp4533
g74
(dp4534
sg83
g4528
sg76
(lp4535
g69
(g70
g71
NtRp4536
(dp4537
g74
(dp4538
g82
I3
ssg83
g4532
sg76
(lp4539
S'/show_distro'
p4540
asbasbasbag69
(g85
g71
NtRp4541
(dp4542
g74
(dp4543
sg83
g4499
sg76
(lp4544
g69
(g90
g71
NtRp4545
(dp4546
g74
(dp4547
sg83
g4541
sg76
(lp4548
g69
(g70
g71
NtRp4549
(dp4550
g74
(dp4551
g82
I3
ssg83
g4545
sg76
(lp4552
g69
(g78
g71
NtRp4553
(dp4554
g74
(dp4555
g82
I2
ssg83
Nsg76
(lp4556
sbasbasbasbasbasbasbasbag69
(g85
g71
NtRp4557
(dp4558
g74
(dp4559
sg83
g4343
sg76
(lp4560
g69
(g90
g71
NtRp4561
(dp4562
g74
(dp4563
sg83
g4557
sg76
(lp4564
g69
(g70
g71
NtRp4565
(dp4566
g74
(dp4567
g82
I4
ssg83
g4561
sg76
(lp4568
g69
(g78
g71
NtRp4569
(dp4570
g74
(dp4571
g82
I3
ssg83
Nsg76
(lp4572
g69
(g85
g71
NtRp4573
(dp4574
g74
(dp4575
sg83
g4569
sg76
(lp4576
g69
(g90
g71
NtRp4577
(dp4578
g74
(dp4579
sg83
g4573
sg76
(lp4580
g69
(g70
g71
NtRp4581
(dp4582
g74
(dp4583
g82
I3
ssg83
g4577
sg76
(lp4584
g4375
(S's\x05\x00\x00\x00+host'
tRp4585
asbasbasbag69
(g85
g71
NtRp4586
(dp4587
g74
(dp4588
sg83
g4569
sg76
(lp4589
g69
(g90
g71
NtRp4590
(dp4591
g74
(dp4592
sg83
g4586
sg76
(lp4593
g69
(g70
g71
NtRp4594
(dp4595
g74
(dp4596
g82
I3
ssg83
g4590
sg76
(lp4597
g112
asbasbasbag69
(g85
g71
NtRp4598
(dp4599
g74
(dp4600
sg83
g4569
sg76
(lp4601
g69
(g90
g71
NtRp4602
(dp4603
g74
(dp4604
sg83
g4598
sg76
(lp4605
g69
(g70
g71
NtRp4606
(dp4607
g74
(dp4608
g82
I3
ssg83
g4602
sg76
(lp4609
S'/interface'
p4610
asbasbasbag69
(g85
g71
NtRp4611
(dp4612
g74
(dp4613
sg83
g4569
sg76
(lp4614
g69
(g90
g71
NtRp4615
(dp4616
g74
(dp4617
sg83
g4611
sg76
(lp4618
g69
(g70
g71
NtRp4619
(dp4620
g74
(dp4621
g82
I3
ssg83
g4615
sg76
(lp4622
g69
(g78
g71
NtRp4623
(dp4624
g74
(dp4625
g82
I2
ssg83
Nsg76
(lp4626
sbasbasbasbasbasbasbasbasbasbasbasbag69
(g85
g71
NtRp4627
(dp4628
g74
(dp4629
sg83
g3843
sg76
(lp4630
g69
(g90
g71
NtRp4631
(dp4632
g74
(dp4633
g94
g95
ssg83
g4627
sg76
(lp4634
S'menu2'
p4635
asbag69
(g90
g71
NtRp4636
(dp4637
g74
(dp4638
g101
g102
ssg83
g4627
sg76
(lp4639
S':'
asbag69
(g90
g71
NtRp4640
(dp4641
g74
(dp4642
sg83
g4627
sg76
(lp4643
g69
(g70
g71
NtRp4644
(dp4645
g74
(dp4646
g82
I5
ssg83
g4640
sg76
(lp4647
g69
(g78
g71
NtRp4648
(dp4649
g74
(dp4650
g82
I4
ssg83
Nsg76
(lp4651
g69
(g85
g71
NtRp4652
(dp4653
g74
(dp4654
sg83
g4648
sg76
(lp4655
g69
(g90
g71
NtRp4656
(dp4657
g74
(dp4658
sg83
g4652
sg76
(lp4659
g69
(g70
g71
NtRp4660
(dp4661
g74
(dp4662
g82
I4
ssg83
g4656
sg76
(lp4663
g69
(g78
g71
NtRp4664
(dp4665
g74
(dp4666
g82
I3
ssg83
Nsg76
(lp4667
g69
(g85
g71
NtRp4668
(dp4669
g74
(dp4670
sg83
g4664
sg76
(lp4671
g69
(g90
g71
NtRp4672
(dp4673
g74
(dp4674
sg83
g4668
sg76
(lp4675
g69
(g70
g71
NtRp4676
(dp4677
g74
(dp4678
g82
I3
ssg83
g4672
sg76
(lp4679
g69
(g4315
g71
NtRp4680
(dp4681
g74
(dp4682
g4305
S'dropdown-toggle'
p4683
ssg83
Nsg76
(lp4684
S'Admin'
p4685
asbasbasbasbag69
(g85
g71
NtRp4686
(dp4687
g74
(dp4688
sg83
g4664
sg76
(lp4689
g69
(g90
g71
NtRp4690
(dp4691
g74
(dp4692
sg83
g4686
sg76
(lp4693
g69
(g70
g71
NtRp4694
(dp4695
g74
(dp4696
g82
I3
ssg83
g4690
sg76
(lp4697
g112
asbasbasbag69
(g85
g71
NtRp4698
(dp4699
g74
(dp4700
sg83
g4664
sg76
(lp4701
g69
(g90
g71
NtRp4702
(dp4703
g74
(dp4704
sg83
g4698
sg76
(lp4705
g69
(g70
g71
NtRp4706
(dp4707
g74
(dp4708
g82
I3
ssg83
g4702
sg76
(lp4709
S'#'
asbasbasbag69
(g85
g71
NtRp4710
(dp4711
g74
(dp4712
sg83
g4664
sg76
(lp4713
g69
(g90
g71
NtRp4714
(dp4715
g74
(dp4716
sg83
g4710
sg76
(lp4717
g69
(g70
g71
NtRp4718
(dp4719
g74
(dp4720
g82
I3
ssg83
g4714
sg76
(lp4721
g69
(g78
g71
NtRp4722
(dp4723
g74
(dp4724
g82
I2
ssg83
Nsg76
(lp4725
g69
(g85
g71
NtRp4726
(dp4727
g74
(dp4728
sg83
g4722
sg76
(lp4729
g69
(g90
g71
NtRp4730
(dp4731
g74
(dp4732
sg83
g4726
sg76
(lp4733
g69
(g70
g71
NtRp4734
(dp4735
g74
(dp4736
g82
I2
ssg83
g4730
sg76
(lp4737
g69
(g78
g71
NtRp4738
(dp4739
g74
(dp4740
g82
I1
ssg83
Nsg76
(lp4741
g69
(g85
g71
NtRp4742
(dp4743
g74
(dp4744
sg83
g4738
sg76
(lp4745
g69
(g90
g71
NtRp4746
(dp4747
g74
(dp4748
sg83
g4742
sg76
(lp4749
g69
(g70
g71
NtRp4750
(dp4751
g74
(dp4752
g82
I1
ssg83
g4746
sg76
(lp4753
g4375
(S's\t\x00\x00\x00Usu\xc3\xa1rios'
tRp4754
asbasbasbag69
(g85
g71
NtRp4755
(dp4756
g74
(dp4757
sg83
g4738
sg76
(lp4758
g69
(g90
g71
NtRp4759
(dp4760
g74
(dp4761
sg83
g4755
sg76
(lp4762
g69
(g70
g71
NtRp4763
(dp4764
g74
(dp4765
g82
I1
ssg83
g4759
sg76
(lp4766
I00
asbasbasbag69
(g85
g71
NtRp4767
(dp4768
g74
(dp4769
sg83
g4738
sg76
(lp4770
g69
(g90
g71
NtRp4771
(dp4772
g74
(dp4773
sg83
g4767
sg76
(lp4774
g69
(g70
g71
NtRp4775
(dp4776
g74
(dp4777
g82
I1
ssg83
g4771
sg76
(lp4778
S'/manager/users'
p4779
asbasbasbasbasbasbasbag69
(g85
g71
NtRp4780
(dp4781
g74
(dp4782
sg83
g4722
sg76
(lp4783
g69
(g90
g71
NtRp4784
(dp4785
g74
(dp4786
sg83
g4780
sg76
(lp4787
g69
(g70
g71
NtRp4788
(dp4789
g74
(dp4790
g82
I2
ssg83
g4784
sg76
(lp4791
g69
(g78
g71
NtRp4792
(dp4793
g74
(dp4794
g82
I1
ssg83
Nsg76
(lp4795
g69
(g85
g71
NtRp4796
(dp4797
g74
(dp4798
sg83
g4792
sg76
(lp4799
g69
(g90
g71
NtRp4800
(dp4801
g74
(dp4802
sg83
g4796
sg76
(lp4803
g69
(g70
g71
NtRp4804
(dp4805
g74
(dp4806
g82
I1
ssg83
g4800
sg76
(lp4807
g4375
(S't\x06\x00\x00\x00Grupos'
tRp4808
asbasbasbag69
(g85
g71
NtRp4809
(dp4810
g74
(dp4811
sg83
g4792
sg76
(lp4812
g69
(g90
g71
NtRp4813
(dp4814
g74
(dp4815
sg83
g4809
sg76
(lp4816
g69
(g70
g71
NtRp4817
(dp4818
g74
(dp4819
g82
I1
ssg83
g4813
sg76
(lp4820
I00
asbasbasbag69
(g85
g71
NtRp4821
(dp4822
g74
(dp4823
sg83
g4792
sg76
(lp4824
g69
(g90
g71
NtRp4825
(dp4826
g74
(dp4827
sg83
g4821
sg76
(lp4828
g69
(g70
g71
NtRp4829
(dp4830
g74
(dp4831
g82
I1
ssg83
g4825
sg76
(lp4832
S'/manager/groups'
p4833
asbasbasbasbasbasbasbag69
(g85
g71
NtRp4834
(dp4835
g74
(dp4836
sg83
g4722
sg76
(lp4837
g69
(g90
g71
NtRp4838
(dp4839
g74
(dp4840
sg83
g4834
sg76
(lp4841
g69
(g70
g71
NtRp4842
(dp4843
g74
(dp4844
g82
I2
ssg83
g4838
sg76
(lp4845
g69
(g78
g71
NtRp4846
(dp4847
g74
(dp4848
g82
I1
ssg83
Nsg76
(lp4849
g69
(g85
g71
NtRp4850
(dp4851
g74
(dp4852
sg83
g4846
sg76
(lp4853
g69
(g90
g71
NtRp4854
(dp4855
g74
(dp4856
sg83
g4850
sg76
(lp4857
g69
(g70
g71
NtRp4858
(dp4859
g74
(dp4860
g82
I1
ssg83
g4854
sg76
(lp4861
g4375
(S't\x07\x00\x00\x00Membros'
tRp4862
asbasbasbag69
(g85
g71
NtRp4863
(dp4864
g74
(dp4865
sg83
g4846
sg76
(lp4866
g69
(g90
g71
NtRp4867
(dp4868
g74
(dp4869
sg83
g4863
sg76
(lp4870
g69
(g70
g71
NtRp4871
(dp4872
g74
(dp4873
g82
I1
ssg83
g4867
sg76
(lp4874
I00
asbasbasbag69
(g85
g71
NtRp4875
(dp4876
g74
(dp4877
sg83
g4846
sg76
(lp4878
g69
(g90
g71
NtRp4879
(dp4880
g74
(dp4881
sg83
g4875
sg76
(lp4882
g69
(g70
g71
NtRp4883
(dp4884
g74
(dp4885
g82
I1
ssg83
g4879
sg76
(lp4886
S'/manager/membership'
p4887
asbasbasbasbasbasbasbasbasbasbasbasbasbasbasbag69
(g85
g71
NtRp4888
(dp4889
g74
(dp4890
sg83
g4648
sg76
(lp4891
g69
(g90
g71
NtRp4892
(dp4893
g74
(dp4894
sg83
g4888
sg76
(lp4895
g69
(g70
g71
NtRp4896
(dp4897
g74
(dp4898
g82
I4
ssg83
g4892
sg76
(lp4899
g69
(g78
g71
NtRp4900
(dp4901
g74
(dp4902
g82
I3
ssg83
Nsg76
(lp4903
g69
(g85
g71
NtRp4904
(dp4905
g74
(dp4906
sg83
g4900
sg76
(lp4907
g69
(g90
g71
NtRp4908
(dp4909
g74
(dp4910
sg83
g4904
sg76
(lp4911
g69
(g70
g71
NtRp4912
(dp4913
g74
(dp4914
g82
I3
ssg83
g4908
sg76
(lp4915
g69
(g4315
g71
NtRp4916
(dp4917
g74
(dp4918
g4305
g4683
ssg83
Nsg76
(lp4919
S'Login'
p4920
asbasbasbasbag69
(g85
g71
NtRp4921
(dp4922
g74
(dp4923
sg83
g4900
sg76
(lp4924
g69
(g90
g71
NtRp4925
(dp4926
g74
(dp4927
sg83
g4921
sg76
(lp4928
g69
(g70
g71
NtRp4929
(dp4930
g74
(dp4931
g82
I3
ssg83
g4925
sg76
(lp4932
g112
asbasbasbag69
(g85
g71
NtRp4933
(dp4934
g74
(dp4935
sg83
g4900
sg76
(lp4936
g69
(g90
g71
NtRp4937
(dp4938
g74
(dp4939
sg83
g4933
sg76
(lp4940
g69
(g70
g71
NtRp4941
(dp4942
g74
(dp4943
g82
I3
ssg83
g4937
sg76
(lp4944
S'#'
asbasbasbag69
(g85
g71
NtRp4945
(dp4946
g74
(dp4947
sg83
g4900
sg76
(lp4948
g69
(g90
g71
NtRp4949
(dp4950
g74
(dp4951
sg83
g4945
sg76
(lp4952
g69
(g70
g71
NtRp4953
(dp4954
g74
(dp4955
g82
I3
ssg83
g4949
sg76
(lp4956
g69
(g78
g71
NtRp4957
(dp4958
g74
(dp4959
g82
I2
ssg83
Nsg76
(lp4960
g69
(g85
g71
NtRp4961
(dp4962
g74
(dp4963
sg83
g4957
sg76
(lp4964
g69
(g90
g71
NtRp4965
(dp4966
g74
(dp4967
sg83
g4961
sg76
(lp4968
g69
(g70
g71
NtRp4969
(dp4970
g74
(dp4971
g82
I2
ssg83
g4965
sg76
(lp4972
g69
(g78
g71
NtRp4973
(dp4974
g74
(dp4975
g82
I1
ssg83
Nsg76
(lp4976
g69
(g85
g71
NtRp4977
(dp4978
g74
(dp4979
sg83
g4973
sg76
(lp4980
g69
(g90
g71
NtRp4981
(dp4982
g74
(dp4983
sg83
g4977
sg76
(lp4984
g69
(g70
g71
NtRp4985
(dp4986
g74
(dp4987
g82
I1
ssg83
g4981
sg76
(lp4988
g4375
(S't\x06\x00\x00\x00Logout'
tRp4989
asbasbasbag69
(g85
g71
NtRp4990
(dp4991
g74
(dp4992
sg83
g4973
sg76
(lp4993
g69
(g90
g71
NtRp4994
(dp4995
g74
(dp4996
sg83
g4990
sg76
(lp4997
g69
(g70
g71
NtRp4998
(dp4999
g74
(dp5000
g82
I1
ssg83
g4994
sg76
(lp5001
I00
asbasbasbag69
(g85
g71
NtRp5002
(dp5003
g74
(dp5004
sg83
g4973
sg76
(lp5005
g69
(g90
g71
NtRp5006
(dp5007
g74
(dp5008
sg83
g5002
sg76
(lp5009
g69
(g70
g71
NtRp5010
(dp5011
g74
(dp5012
g82
I1
ssg83
g5006
sg76
(lp5013
S'/initial/user/logout'
p5014
asbasbasbasbasbasbasbasbasbasbasbasbasbasbasbasbasbasbasbag69
(g85
g71
NtRp5015
(dp5016
g74
(dp5017
sg83
g3843
sg76
(lp5018
g69
(g90
g71
NtRp5019
(dp5020
g74
(dp5021
g94
g95
ssg83
g5015
sg76
(lp5022
S'meta'
p5023
asbag69
(g90
g71
NtRp5024
(dp5025
g74
(dp5026
g101
g102
ssg83
g5015
sg76
(lp5027
S':'
asbag69
(g90
g71
NtRp5028
(dp5029
g74
(dp5030
sg83
g5015
sg76
(lp5031
g69
(g70
g71
NtRp5032
(dp5033
g74
(dp5034
g82
I5
ssg83
g5028
sg76
(lp5035
g69
(g78
g71
NtRp5036
(dp5037
g74
(dp5038
g82
I4
ssg83
Nsg76
(lp5039
g69
(g85
g71
NtRp5040
(dp5041
g74
(dp5042
sg83
g5036
sg76
(lp5043
g69
(g90
g71
NtRp5044
(dp5045
g74
(dp5046
g94
g95
ssg83
g5040
sg76
(lp5047
S'author'
p5048
asbag69
(g90
g71
NtRp5049
(dp5050
g74
(dp5051
g101
g102
ssg83
g5040
sg76
(lp5052
S':'
asbag69
(g90
g71
NtRp5053
(dp5054
g74
(dp5055
sg83
g5040
sg76
(lp5056
g69
(g70
g71
NtRp5057
(dp5058
g74
(dp5059
g82
I4
ssg83
g5053
sg76
(lp5060
S'Your Name <you@example.com>'
p5061
asbasbasbag69
(g85
g71
NtRp5062
(dp5063
g74
(dp5064
sg83
g5036
sg76
(lp5065
g69
(g90
g71
NtRp5066
(dp5067
g74
(dp5068
g94
g95
ssg83
g5062
sg76
(lp5069
S'description'
p5070
asbag69
(g90
g71
NtRp5071
(dp5072
g74
(dp5073
g101
g102
ssg83
g5062
sg76
(lp5074
S':'
asbag69
(g90
g71
NtRp5075
(dp5076
g74
(dp5077
sg83
g5062
sg76
(lp5078
g69
(g70
g71
NtRp5079
(dp5080
g74
(dp5081
g82
I4
ssg83
g5075
sg76
(lp5082
S'a cool new app'
p5083
asbasbasbag69
(g85
g71
NtRp5084
(dp5085
g74
(dp5086
sg83
g5036
sg76
(lp5087
g69
(g90
g71
NtRp5088
(dp5089
g74
(dp5090
g94
g95
ssg83
g5084
sg76
(lp5091
S'generator'
p5092
asbag69
(g90
g71
NtRp5093
(dp5094
g74
(dp5095
g101
g102
ssg83
g5084
sg76
(lp5096
S':'
asbag69
(g90
g71
NtRp5097
(dp5098
g74
(dp5099
sg83
g5084
sg76
(lp5100
g69
(g70
g71
NtRp5101
(dp5102
g74
(dp5103
g82
I4
ssg83
g5097
sg76
(lp5104
S'Web2py Web Framework'
p5105
asbasbasbag69
(g85
g71
NtRp5106
(dp5107
g74
(dp5108
sg83
g5036
sg76
(lp5109
g69
(g90
g71
NtRp5110
(dp5111
g74
(dp5112
g94
g95
ssg83
g5106
sg76
(lp5113
S'keywords'
p5114
asbag69
(g90
g71
NtRp5115
(dp5116
g74
(dp5117
g101
g102
ssg83
g5106
sg76
(lp5118
S':'
asbag69
(g90
g71
NtRp5119
(dp5120
g74
(dp5121
sg83
g5106
sg76
(lp5122
g69
(g70
g71
NtRp5123
(dp5124
g74
(dp5125
g82
I4
ssg83
g5119
sg76
(lp5126
S'web2py, python, framework'
p5127
asbasbasbasbasbasbasbag69
(g85
g71
NtRp5128
(dp5129
g74
(dp5130
sg83
g3843
sg76
(lp5131
g69
(g90
g71
NtRp5132
(dp5133
g74
(dp5134
g94
g95
ssg83
g5128
sg76
(lp5135
S'models_to_run'
p5136
asbag69
(g90
g71
NtRp5137
(dp5138
g74
(dp5139
g101
g102
ssg83
g5128
sg76
(lp5140
S':'
asbag69
(g90
g71
NtRp5141
(dp5142
g74
(dp5143
sg83
g5128
sg76
(lp5144
g69
(g70
g71
NtRp5145
(dp5146
g74
(dp5147
g82
I5
ssg83
g5141
sg76
(lp5148
g69
(g78
g71
NtRp5149
(dp5150
g74
(dp5151
g82
I4
ssg83
Nsg76
(lp5152
g69
(g85
g71
NtRp5153
(dp5154
g74
(dp5155
sg83
g5149
sg76
(lp5156
g69
(g90
g71
NtRp5157
(dp5158
g74
(dp5159
sg83
g5153
sg76
(lp5160
g69
(g70
g71
NtRp5161
(dp5162
g74
(dp5163
g82
I4
ssg83
g5157
sg76
(lp5164
S'^\\w+\\.py$'
p5165
asbasbasbag69
(g85
g71
NtRp5166
(dp5167
g74
(dp5168
sg83
g5149
sg76
(lp5169
g69
(g90
g71
NtRp5170
(dp5171
g74
(dp5172
sg83
g5166
sg76
(lp5173
g69
(g70
g71
NtRp5174
(dp5175
g74
(dp5176
g82
I4
ssg83
g5170
sg76
(lp5177
S'^initial/\\w+\\.py$'
p5178
asbasbasbag69
(g85
g71
NtRp5179
(dp5180
g74
(dp5181
sg83
g5149
sg76
(lp5182
g69
(g90
g71
NtRp5183
(dp5184
g74
(dp5185
sg83
g5179
sg76
(lp5186
g69
(g70
g71
NtRp5187
(dp5188
g74
(dp5189
g82
I4
ssg83
g5183
sg76
(lp5190
S'^initial/show_cliente/\\w+\\.py$'
p5191
asbasbasbasbasbasbasbag69
(g85
g71
NtRp5192
(dp5193
g74
(dp5194
sg83
g3843
sg76
(lp5195
g69
(g90
g71
NtRp5196
(dp5197
g74
(dp5198
g94
g95
ssg83
g5192
sg76
(lp5199
S'postprocessing'
p5200
asbag69
(g90
g71
NtRp5201
(dp5202
g74
(dp5203
g101
g102
ssg83
g5192
sg76
(lp5204
S':'
asbag69
(g90
g71
NtRp5205
(dp5206
g74
(dp5207
sg83
g5192
sg76
(lp5208
g69
(g70
g71
NtRp5209
(dp5210
g74
(dp5211
g82
I5
ssg83
g5205
sg76
(lp5212
g69
(g78
g71
NtRp5213
(dp5214
g74
(dp5215
g82
I4
ssg83
Nsg76
(lp5216
sbasbasbasbag69
(g85
g71
NtRp5217
(dp5218
g74
(dp5219
sg83
g3843
sg76
(lp5220
g69
(g90
g71
NtRp5221
(dp5222
g74
(dp5223
g94
g95
ssg83
g5217
sg76
(lp5224
S'session_cookie_expires'
p5225
asbag69
(g90
g71
NtRp5226
(dp5227
g74
(dp5228
g101
g102
ssg83
g5217
sg76
(lp5229
S':'
asbag69
(g90
g71
NtRp5230
(dp5231
g74
(dp5232
sg83
g5217
sg76
(lp5233
g69
(g70
g71
NtRp5234
(dp5235
g74
(dp5236
g82
I5
ssg83
g5230
sg76
(lp5237
S'None'
p5238
asbasbasbag69
(g85
g71
NtRp5239
(dp5240
g74
(dp5241
sg83
g3843
sg76
(lp5242
g69
(g90
g71
NtRp5243
(dp5244
g74
(dp5245
g94
g95
ssg83
g5239
sg76
(lp5246
S'session_data_name'
p5247
asbag69
(g90
g71
NtRp5248
(dp5249
g74
(dp5250
g101
g102
ssg83
g5239
sg76
(lp5251
S':'
asbag69
(g90
g71
NtRp5252
(dp5253
g74
(dp5254
sg83
g5239
sg76
(lp5255
g69
(g70
g71
NtRp5256
(dp5257
g74
(dp5258
g82
I5
ssg83
g5252
sg76
(lp5259
S'session_data_projeto'
p5260
asbasbasbag69
(g85
g71
NtRp5261
(dp5262
g74
(dp5263
sg83
g3843
sg76
(lp5264
g69
(g90
g71
NtRp5265
(dp5266
g74
(dp5267
g94
g95
ssg83
g5261
sg76
(lp5268
S'session_file'
p5269
asbag69
(g90
g71
NtRp5270
(dp5271
g74
(dp5272
g101
g102
ssg83
g5261
sg76
(lp5273
S':'
asbag69
(g90
g71
NtRp5274
(dp5275
g74
(dp5276
sg83
g5261
sg76
(lp5277
g69
(g70
g71
NtRp5278
(dp5279
g74
(dp5280
g82
I5
ssg83
g5274
sg76
(lp5281
S"<open file '/var/www/hosts3/applications/projeto/sessions/127.0.0.1-2593ca5a-9aaf-4468-bbd5-27e4709e54ae', mode 'rb+' at 0x7fcfb0798ed0>"
p5282
asbasbasbag69
(g85
g71
NtRp5283
(dp5284
g74
(dp5285
sg83
g3843
sg76
(lp5286
g69
(g90
g71
NtRp5287
(dp5288
g74
(dp5289
g94
g95
ssg83
g5283
sg76
(lp5290
S'session_filename'
p5291
asbag69
(g90
g71
NtRp5292
(dp5293
g74
(dp5294
g101
g102
ssg83
g5283
sg76
(lp5295
S':'
asbag69
(g90
g71
NtRp5296
(dp5297
g74
(dp5298
sg83
g5283
sg76
(lp5299
g69
(g70
g71
NtRp5300
(dp5301
g74
(dp5302
g82
I5
ssg83
g5296
sg76
(lp5303
S'/var/www/hosts3/applications/projeto/sessions/127.0.0.1-2593ca5a-9aaf-4468-bbd5-27e4709e54ae'
p5304
asbasbasbag69
(g85
g71
NtRp5305
(dp5306
g74
(dp5307
sg83
g3843
sg76
(lp5308
g69
(g90
g71
NtRp5309
(dp5310
g74
(dp5311
g94
g95
ssg83
g5305
sg76
(lp5312
S'session_id'
p5313
asbag69
(g90
g71
NtRp5314
(dp5315
g74
(dp5316
g101
g102
ssg83
g5305
sg76
(lp5317
S':'
asbag69
(g90
g71
NtRp5318
(dp5319
g74
(dp5320
sg83
g5305
sg76
(lp5321
g69
(g70
g71
NtRp5322
(dp5323
g74
(dp5324
g82
I5
ssg83
g5318
sg76
(lp5325
g857
asbasbasbag69
(g85
g71
NtRp5326
(dp5327
g74
(dp5328
sg83
g3843
sg76
(lp5329
g69
(g90
g71
NtRp5330
(dp5331
g74
(dp5332
g94
g95
ssg83
g5326
sg76
(lp5333
S'session_id_name'
p5334
asbag69
(g90
g71
NtRp5335
(dp5336
g74
(dp5337
g101
g102
ssg83
g5326
sg76
(lp5338
S':'
asbag69
(g90
g71
NtRp5339
(dp5340
g74
(dp5341
sg83
g5326
sg76
(lp5342
g69
(g70
g71
NtRp5343
(dp5344
g74
(dp5345
g82
I5
ssg83
g5339
sg76
(lp5346
g3900
asbasbasbag69
(g85
g71
NtRp5347
(dp5348
g74
(dp5349
sg83
g3843
sg76
(lp5350
g69
(g90
g71
NtRp5351
(dp5352
g74
(dp5353
g94
g95
ssg83
g5347
sg76
(lp5354
S'session_locked'
p5355
asbag69
(g90
g71
NtRp5356
(dp5357
g74
(dp5358
g101
g102
ssg83
g5347
sg76
(lp5359
S':'
asbag69
(g90
g71
NtRp5360
(dp5361
g74
(dp5362
sg83
g5347
sg76
(lp5363
g69
(g70
g71
NtRp5364
(dp5365
g74
(dp5366
g82
I5
ssg83
g5360
sg76
(lp5367
g1986
asbasbasbag69
(g85
g71
NtRp5368
(dp5369
g74
(dp5370
sg83
g3843
sg76
(lp5371
g69
(g90
g71
NtRp5372
(dp5373
g74
(dp5374
g94
g95
ssg83
g5368
sg76
(lp5375
S'session_new'
p5376
asbag69
(g90
g71
NtRp5377
(dp5378
g74
(dp5379
g101
g102
ssg83
g5368
sg76
(lp5380
S':'
asbag69
(g90
g71
NtRp5381
(dp5382
g74
(dp5383
sg83
g5368
sg76
(lp5384
g69
(g70
g71
NtRp5385
(dp5386
g74
(dp5387
g82
I5
ssg83
g5381
sg76
(lp5388
g112
asbasbasbag69
(g85
g71
NtRp5389
(dp5390
g74
(dp5391
sg83
g3843
sg76
(lp5392
g69
(g90
g71
NtRp5393
(dp5394
g74
(dp5395
g94
g95
ssg83
g5389
sg76
(lp5396
S'session_storage_type'
p5397
asbag69
(g90
g71
NtRp5398
(dp5399
g74
(dp5400
g101
g102
ssg83
g5389
sg76
(lp5401
S':'
asbag69
(g90
g71
NtRp5402
(dp5403
g74
(dp5404
sg83
g5389
sg76
(lp5405
g69
(g70
g71
NtRp5406
(dp5407
g74
(dp5408
g82
I5
ssg83
g5402
sg76
(lp5409
g3395
asbasbasbag69
(g85
g71
NtRp5410
(dp5411
g74
(dp5412
sg83
g3843
sg76
(lp5413
g69
(g90
g71
NtRp5414
(dp5415
g74
(dp5416
g94
g95
ssg83
g5410
sg76
(lp5417
S'status'
p5418
asbag69
(g90
g71
NtRp5419
(dp5420
g74
(dp5421
g101
g102
ssg83
g5410
sg76
(lp5422
S':'
asbag69
(g90
g71
NtRp5423
(dp5424
g74
(dp5425
sg83
g5410
sg76
(lp5426
g69
(g70
g71
NtRp5427
(dp5428
g74
(dp5429
g82
I5
ssg83
g5423
sg76
(lp5430
S'200'
p5431
asbasbasbag69
(g85
g71
NtRp5432
(dp5433
g74
(dp5434
sg83
g3843
sg76
(lp5435
g69
(g90
g71
NtRp5436
(dp5437
g74
(dp5438
g94
g95
ssg83
g5432
sg76
(lp5439
S'subtitle'
p5440
asbag69
(g90
g71
NtRp5441
(dp5442
g74
(dp5443
g101
g102
ssg83
g5432
sg76
(lp5444
S':'
asbag69
(g90
g71
NtRp5445
(dp5446
g74
(dp5447
sg83
g5432
sg76
(lp5448
g69
(g70
g71
NtRp5449
(dp5450
g74
(dp5451
g82
I5
ssg83
g5445
sg76
(lp5452
g4375
(S's\r\x00\x00\x00customize me!'
tRp5453
asbasbasbag69
(g85
g71
NtRp5454
(dp5455
g74
(dp5456
sg83
g3843
sg76
(lp5457
g69
(g90
g71
NtRp5458
(dp5459
g74
(dp5460
g94
g95
ssg83
g5454
sg76
(lp5461
S'title'
p5462
asbag69
(g90
g71
NtRp5463
(dp5464
g74
(dp5465
g101
g102
ssg83
g5454
sg76
(lp5466
S':'
asbag69
(g90
g71
NtRp5467
(dp5468
g74
(dp5469
sg83
g5454
sg76
(lp5470
g69
(g70
g71
NtRp5471
(dp5472
g74
(dp5473
g82
I5
ssg83
g5467
sg76
(lp5474
S'Projeto'
p5475
asbasbasbag69
(g85
g71
NtRp5476
(dp5477
g74
(dp5478
sg83
g3843
sg76
(lp5479
g69
(g90
g71
NtRp5480
(dp5481
g74
(dp5482
g94
g95
ssg83
g5476
sg76
(lp5483
S'view'
p5484
asbag69
(g90
g71
NtRp5485
(dp5486
g74
(dp5487
g101
g102
ssg83
g5476
sg76
(lp5488
S':'
asbag69
(g90
g71
NtRp5489
(dp5490
g74
(dp5491
sg83
g5476
sg76
(lp5492
g69
(g70
g71
NtRp5493
(dp5494
g74
(dp5495
g82
I5
ssg83
g5489
sg76
(lp5496
S'initial/show_cliente.html'
p5497
asbasbasbasbasbsS'locals'
p5498
(dp5499
g4
S"'/var/www/hosts3/applications/projeto/controllers/initial.py'"
p5500
sg6
S"'# coding: utf-8\\n\\n@auth.requires_login()\\ndef show... \\n\\nresponse._vars=response._caller(show_cliente)\\n'"
p5501
sssS'traceback'
p5502
S'Traceback (most recent call last):\n  File "/var/www/hosts3/gluon/restricted.py", line 211, in restricted\n    ccode = compile2(code, layer)\n  File "/var/www/hosts3/gluon/restricted.py", line 194, in compile2\n    return compile(code.rstrip().replace(\'\\r\\n\', \'\\n\') + \'\\n\', layer, \'exec\')\n  File "/var/www/hosts3/applications/projeto/controllers/initial.py", line 233\n    ptests = "a"\n         ^\nIndentationError: expected an indented block\n'
p5503
s.