(dp1
S'output'
p2
S"<type 'exceptions.IndentationError'> unindent does not match any outer indentation level (initial.py, line 253)"
p3
sS'layer'
p4
S'/var/www/hosts3/applications/projeto/controllers/initial.py'
p5
sS'code'
p6
S'# coding: utf-8\n\n@auth.requires_login()\ndef show_cliente():\n\tresponse.title="Clientes"\n\n\tdb.args=Cliente.id.readable=False\n\tgrid = SQLFORM.grid(Cliente,\n\t\tuser_signature=True, searchable=True, csv=False, \n\t\tpaginate=50, details=False, \n\t\tignore_rw = True, maxtextlength=26,\n\t\tcreate=auth.has_membership("admin"),\n\t\teditable=auth.has_membership("admin"),\n\t\tdeletable=auth.has_membership("admin"),  \n    \tlinks = [lambda row: A(\'hosts\', _class=\'btn\', \n\t\t\t_title=\'ver servidores\', \n\t\t\t_href=URL("initial", "/cliente_host", \n\t\t\tvars=dict(f=row.id, n1=\'Clientes\', p1=\'show_cliente\')))]\n    \t)\n\treturn response.render("initial/show_grid.html", grid=grid)\n\n@auth.requires_login()\ndef show_servidor():\n\tresponse.title="Servidores"\n\n\tdb.args=Servidor.id.readable=False\n\tgrid = SQLFORM.grid(Servidor,\n\t\tuser_signature=True, searchable=True, csv=False,\n\t\tpaginate=50, details=False, \n\t\tignore_rw = True, maxtextlength=26,\n\t\tcreate=auth.has_membership("admin"),\n\t\teditable=auth.has_membership("admin"),\n\t\tdeletable=auth.has_membership("admin"),  \n    \tlinks = [lambda row: A(\'hosts\', _class=\'btn\', \n    \t\t_title=\'ver servidores\', \n    \t\t_href=URL("initial", "/servidor_host", \n    \t\tvars=dict(f=row.id, n1=\'Servidores\', p1=\'show_servidor\')))]\n\t\t)\n\treturn response.render("initial/show_grid.html", grid=grid)\n\n@auth.requires_login()\ndef show_distro():\n\tresponse.title="Distribui\xc3\xa7\xc3\xb5es"\n\n\tdb.args=Distro.id.readable=False\n\tdb.args=Distro.img.readable=False\n\tgrid = SQLFORM.grid(Distro,\n\t\tuser_signature=True, searchable=True, csv=False,\n\t\tpaginate=50, details=False, ignore_rw = True, \n\t\tmaxtextlength=26, links_placement=\'left\',\n\t\tcreate=auth.has_membership("admin"),\n\t\teditable=auth.has_membership("admin"),\n\t\tdeletable=auth.has_membership("admin"),  \n    \tlinks = [lambda row: A(\'hosts\', \n    \t\t_class=\'btn\', \n    \t\t_title=\'ver servidores\', \n    \t\t_href=URL("initial", "/distro_host", \n    \t\tvars=dict(f=row.id, n1=\'Distros\', p1=\'show_distro\'))), \n    \tdict(header=\'\',body=lambda row: A( IMG(_src=URL("static", "images", args=(row.img) ))))]\n\t\t)\n\treturn response.render("initial/show_grid.html", grid=grid)\n\n\n@auth.requires_login()\ndef cliente_host():\n\tfiltro = request.vars[\'f\']\n\tqueryset = db(db.cliente.id == filtro)\n\trows = queryset.select()\n\tcliente = rows[0]\n\tresponse.title = cliente.nome\n\tprint cliente\n\n\tnome_ant1 = request.vars[\'n1\']\n\tfuncao_ant1 = request.vars[\'p1\']\n\tnome_atual = cliente.nome\n\n\tquery = ((db.hosts.id_cliente == filtro) & (db.distro.id == db.hosts.id_distro))\n\tlinks = [dict(header=\'\',body=lambda row: A( IMG(_src=URL("static", "images", args=(row.distro.img)) ))), \n\t lambda row: A(\'Detalhes\', \n    \t\t      _class=\'btn\', \n    \t\t      _title=\'Detalhes\', \n    \t\t      _href=URL("initial", "/exemplo", \n    \t\t      vars=dict(f=row.hosts.id, c=filtro, n=cliente.nome, \n    \t\t      \t\t\tn1=\'Clientes\', p1=\'show_cliente\', p=\'cliente_host\'))),\n\t lambda row: A(\'Editar\', \n    \t\t      _class=\'btn\', \n    \t\t      _title=\'Editar\', \n    \t\t      _href=URL("initial", "/edit_host", \n    \t\t      vars=dict(f=row.hosts.id, c=filtro, n=cliente.nome, \n    \t\t      \t\tn1=\'Clientes\', p1=\'show_cliente\', p=\'cliente_host\')))]\n\tdb.hosts.id.readable=False\n\tdb.distro.img.readable=False\n\t\n\tfields = (db.hosts.id, db.hosts.id_servidor, db.hosts.id_distro, db.distro.img, \n\t\t\t  db.hosts.ip_chegada, db.hosts.porta_ssh, db.hosts.gateway)\n\theaders = {\'hosts.id\':   \'ID\',\n\t\t\t   \'hosts.id_cliente\': \'Cliente\',\n               \'hosts.id_servidor\': \'Servidor\',\n               \'hosts.id_distro\': \'Distro\',\n               \'hosts.nome\': \'Nome\',\n\t           \'hosts.servicos\': \'Servicos\'}\n\tgrid = SQLFORM.grid(query=query, fields=fields, headers=headers, csv=False,\n\t\t\t\t\t\tdetails=False, searchable=False, maxtextlength=23, links=links, \n\t\t\t\t\t\tlinks_placement=\'left\', editable=False, create=False)\n\n\treturn response.render("initial/show_grid2.html", grid=grid, nome_ant1=nome_ant1, \n\t\t\t\t\t\tfuncao_ant1=funcao_ant1, nome_atual=nome_atual)\n\n@auth.requires_login()\ndef servidor_host():\n\tfiltro = request.vars[\'f\']\n\tqueryset = db(db.servidor.id == filtro)\n\trows = queryset.select()\n\tservidor = rows[0]\n\tresponse.title = servidor.nome\n\n\tnome_ant1 = request.vars[\'n1\']\n\tfuncao_ant1 = request.vars[\'p1\']\n\tnome_atual = servidor.nome\t\n\n\tdb.distro.img.readable=False\n\tdb.hosts.id.readable=False\n\tquery = ((db.hosts.id_servidor == filtro) & (db.distro.id == db.hosts.id_distro))\n\n\tlinks = [dict(header=\'\',body=lambda row: A( IMG(_src=URL("static", "images", args=(row.distro.img)) ))), \n\t lambda row: A(\'Detalhes\', \n    \t\t      _class=\'btn\', \n    \t\t      _title=\'Detalhes\', \n    \t\t      _href=URL("initial", "/exemplo", \n    \t\t      vars=dict(f=row.hosts.id, c=filtro, n=servidor.nome, \n    \t\t      \t\tn1=\'Servidores\', p1=\'show_servidor\', p=\'servidor_host\'))),\n\t lambda row: A(\'Editar\', \n    \t\t      _class=\'btn\', \n    \t\t      _title=\'Editar\', \n    \t\t      _href=URL("initial", "/edit_host", \n    \t\t      vars=dict(f=row.hosts.id, c=filtro, n=servidor.nome, \n    \t\t      \t\tn1=\'Servidores\', p1=\'show_servidor\', p=\'servidor_host\')))]\n\n\tfields = (db.hosts.id, db.hosts.id_cliente, db.hosts.id_distro, db.distro.img, \n\t\t\t\tdb.hosts.ip_chegada, db.hosts.porta_ssh, db.hosts.gateway)\n\theaders = {\'hosts.id\':   \'ID\',\n\t\t\t   \'hosts.id_cliente\': \'Cliente\',\n               \'hosts.id_servidor\': \'Servidor\',\n               \'hosts.id_distro\': \'Distro\',\n               \'hosts.nome\': \'Nome\',\n\t           \'hosts.servicos\': \'Servicos\'}\n\tgrid = SQLFORM.grid(query=query, fields=fields, headers=headers, csv=False,\n\t\t\t\t\t\tdetails=False, searchable=False, maxtextlength=23, links=links, \n\t\t\t\t\t\tlinks_placement=\'left\', editable=False, create=False)\n\n\treturn response.render("initial/show_grid2.html", grid=grid, nome_ant1=nome_ant1, \n\t\t\t\t\t\tfuncao_ant1=funcao_ant1, nome_atual=nome_atual)\n\n@auth.requires_login()\ndef distro_host():\n\tfiltro = request.vars[\'f\']\n\tqueryset = db(db.distro.id == filtro)\n\trows = queryset.select()\n\tdistro = rows[0]\n\tresponse.title = distro.nome\n\n\tnome_ant1 = request.vars[\'n1\']\n\tfuncao_ant1 = request.vars[\'p1\']\n\tnome_atual = distro.nome\t\n\t\n\tdb.hosts.id.readable=False\n\tdb.distro.img.readable=False\n\tquery = ((db.hosts.id_distro == filtro) & (db.distro.id == db.hosts.id_distro))\n\tlinks = [dict(header=\'\',body=lambda row: A( IMG(_src=URL("static", "images", args=(row.distro.img)) ))), \n\t lambda row: A(\'Detalhes\', \n    \t\t      _class=\'btn\', \n    \t\t      _title=\'Detalhes\', \n    \t\t      _href=URL("initial", "/exemplo", \n    \t\t      vars=dict(f=row.hosts.id, c=filtro, n=distro.nome, \n    \t\t      \t\tn1=\'Distros\', p1=\'show_distro\', p=\'distro_host\'))),\n\t lambda row: A(\'Editar\', \n    \t\t      _class=\'btn\', \n    \t\t      _title=\'Editar\', \n    \t\t      _href=URL("initial", "/edit_host", \n    \t\t      vars=dict(f=row.hosts.id, c=filtro, n=distro.nome, \n    \t\t      \t\tn1=\'Distros\', p1=\'show_distro\', p=\'distro_host\')))]\n\n\tfields = (db.hosts.id, db.hosts.id_cliente, db.hosts.id_servidor, db.distro.img, \n\t\t\t  db.hosts.ip_chegada, db.hosts.porta_ssh, db.hosts.gateway)\n\theaders = {\'hosts.id\':   \'ID\',\n\t\t\t\t\'hosts.id_cliente\': \'Cliente\',\n               \'hosts.id_servidor\': \'Servidor\',\n               \'hosts.id_distro\': \'Distro\',\n               \'hosts.nome\': \'Nome\',\n\t           \'hosts.servicos\': \'Servicos\'}\n\tgrid = SQLFORM.grid(query=query, fields=fields, headers=headers, csv=False,\n\t\t\t\t\t\tdetails=False, searchable=False, maxtextlength=23, links=links, \n\t\t\t\t\t\tlinks_placement=\'left\', editable=False, create=False)\n\n\treturn response.render("initial/show_grid2.html", grid=grid, nome_ant1=nome_ant1, \n\t\t\t\t\t\tfuncao_ant1=funcao_ant1, nome_atual=nome_atual)\n\ndef exemplo():\n\tfiltro = request.vars[\'f\'] #id_host\n\tid_cliente = request.vars[\'c\'] #id_cliente\n\tnome_ant = request.vars[\'n\'] #nome (asterisk ou agronelli ou debian)\n\tnome_ant1 = request.vars[\'n1\'] #nome (servidores ou clientes ou distros)\n\tfuncao_ant = request.vars[\'p\'] #funcao(host_servidores)\n\tfuncao_ant1 = request.vars[\'p1\'] #funcao(show_servidores)\n\t\n\n\tquery = ((db.hosts.id == filtro) & (db.hosts.id_cliente == db.cliente.id)\n\t \t    & (db.hosts.id_servidor == db.servidor.id) \n\t \t    & (db.hosts.id_distro == db.distro.id)) \n\tdetalhes = db.hosts(query)\n\t\n\t\n\treturn response.render("initial/detalhes_host.html", detalhes=detalhes, \n\t\t\t\tid_cliente=id_cliente, funcao_ant=funcao_ant, funcao_ant1=funcao_ant1, \n\t\t\t\tnome_ant=nome_ant, nome_ant1=nome_ant1, filtro=filtro)\n\ndef edit_host():\n\tid_cliente = request.vars[\'c\']\n\tnome_ant = request.vars[\'n\']\n\tnome_ant1 = request.vars[\'n1\']\n\tfuncao_ant = request.vars[\'p\']\n\tfuncao_ant1 = request.vars[\'p1\']\n\n\tresponse.view = \'initial/show_form.html\'\n\tfields = [\'id_cliente\', \'id_servidor\', \'id_distro\', \'servicos\',\n\t\t\t\t\'if1\', \'ip1\', \'masc1\', \'obs1\', \'if2\', \'ip2\', \'masc2\', \'obs2\',\n\t\t\t\t\'if3\', \'ip3\', \'masc3\', \'obs3\', \'if4\', \'ip4\', \'masc4\', \'obs4\',\n\t\t\t\t\'nome\', \'ip_chegada\', \'porta_ssh\', \'gateway\', \'rotas\', \'obs_gerais\']\n\tlabels = {\'id_cliente\':\'Cliente\', \'id_servidor\':\'Servidor\', \'id_distro\':\'Distro\',\n\t\t\t\t\'if1\':\'Interface 1\', \'ip1\':\'IP\', \'masc1\':\'M\xc3\xa1scara\', \'obs1\':\'Obs\',\n\t\t\t\t\'if2\':\'Interface 2\', \'ip2\':\'IP\', \'masc2\':\'M\xc3\xa1scara\', \'obs2\':\'Obs\',\n\t\t\t\t\'if3\':\'Interface 3\', \'ip3\':\'IP\', \'masc3\':\'M\xc3\xa1scara\', \'obs3\':\'Obs\',\n\t\t\t\t\'if4\':\'Interface 4\', \'ip4\':\'IP\', \'masc4\':\'M\xc3\xa1scara\', \'obs4\':\'Obs\'}\n\treturn dict(form=SQLFORM(db.hosts, request.vars[\'f\'], fields=fields, labels=labels, \n\t\t\t\t\t\tsubmit_button=\'Editar\', showid=False).process(), \n\tid_cliente=id_cliente, funcao_ant=funcao_ant, funcao_ant1=funcao_ant1, nome_ant=nome_ant, nome_ant1=nome_ant1)\n\n\n@auth.requires_login()\ndef interface():\n\tresponse.view = \'initial/show_form2.html\'\n\tfields = [\'id_cliente\', \'id_servidor\', \'id_distro\', \'servicos\',\n\t\t\t\t\'if1\', \'ip1\', \'masc1\', \'obs1\', \'if2\', \'ip2\', \'masc2\', \'obs2\',\n\t\t\t\t\'if3\', \'ip3\', \'masc3\', \'obs3\', \'if4\', \'ip4\', \'masc4\', \'obs4\',\n\t\t\t\t\'nome\', \'ip_chegada\', \'porta_ssh\', \'gateway\', \'rotas\', \'obs_gerais\']\n\tlabels = {\'id_cliente\':\'Cliente\', \'id_servidor\':\'Servidor\', \'id_distro\':\'Distro\',\n\t\t\t\t\'if1\':\'Interface 1\', \'ip1\':\'IP\', \'masc1\':\'M\xc3\xa1scara\', \'obs1\':\'Obs\',\n\t\t\t\t\'if2\':\'Interface 2\', \'ip2\':\'IP\', \'masc2\':\'M\xc3\xa1scara\', \'obs2\':\'Obs\',\n\t\t\t\t\'if3\':\'Interface 3\', \'ip3\':\'IP\', \'masc3\':\'M\xc3\xa1scara\', \'obs3\':\'Obs\',\n\t\t\t\t\'if4\':\'Interface 4\', \'ip4\':\'IP\', \'masc4\':\'M\xc3\xa1scara\', \'obs4\':\'Obs\'}\n\tform = SQLFORM(db.hosts, record, fields=fields, labels=labels, submit_button=\'Adicionar\')\n\tif form.process().accepted:\n       response.flash = \'uauauauauu\'\n    elif form.errors:\n       response.flash = \'form has errors\'\n\t#return dict(form=SQLFORM(db.hosts, fields=fields, labels=labels, submit_button=\'Adicionar\').process())\n\n\ndef interfaceee():\n\tresponse.view = \'initial/show_form2.html\'\n\treturn dict(form=SQLFORM(db.hosts, request.vars[\'f\']).process())\n\n\ndef home():\n\tnome = "Fernando"\n\tresponse.title = "Titulo home"\n\treturn dict(nome=nome)\n\ndef contact():\n\treturn "form"\n\ndef about():\n\tfiltro = request.vars[\'f\']\n\tquery = ((db.hosts.id_servidor == filtro) & (db.distro.id == db.hosts.id_distro))\n\tfields = (db.hosts.id, db.hosts.id_cliente, db.hosts.id_distro, db.distro.img, \n\t\t\t\tdb.hosts.ip_chegada, db.hosts.porta_ssh, db.hosts.gateway)\n\theaders = {\'host.id\':   \'ID\',\n               \'host.id_servidor\': \'Servidor\',\n               \'host.id_distro\': \'Distro\',\n               \'host.nome\': \'Nome\',\n\t           \'host.servicos\': \'Servicos\'}\n\tgrid = SQLFORM.grid(query=query, fields=fields, headers=headers, csv=False,\n\t\t\t\t\t\tdetails=False, maxtextlength=23, searchable=True, editable=False, create=False)\n\n\treturn response.render("initial/teste.html", grid=grid,)\n\ndef user():\n\tif request.args(0) == \'register\':\n        \tdb.auth_user.bio.writable = db.auth_user.bio.readable = False\n\treturn response.render("initial/user.html", user=auth())\n\ndef register():\n\treturn auth.register()\n\ndef login():\n        return auth.login()\n\ndef account():\n    return dict(register=auth.register(),\n                login=auth.login())\n\t\ndef download():\n\treturn response.download(request, db)\n\ndef exemploo():\n#\treturn "teste"\n\treturn response.render("default/teste.html", nome="fernando", \n\t\tsobrenome="vieira", lista=["item1", "item2", "item3"])\n\ndef teste11():\n\tprint "Action index"\n\tprint request.args\n\tprint request.vars \t\n\tprint request.post_vars #somente entradas de formul\xc3\xa1rio\n    \tprint request.get_vars  #somente entradas de url\n    \t#nome = request.vars[\'nome\']\n        mensagem = "Bem Vindo"\n        form = "<form action=\'\' method=\'POST\'><input name=\'nome\' id=\'nome\'/><input type=\'Submit\'></form><br>"\n        if \'nome\' in request.vars:\n\t\tform = "<p>Bem vindo %(nome)s</p>" % request.vars + form\t\t\n\t\t#mensagem = mensagem + " usu\xc3\xa1rio %(nome)s" % request.vars\t#mostrando variavel da url\n        \t#mensagem = mensagem + " usu\xc3\xa1rio %s" %str(nome)\t\t\t#mostrando uma variavel local    \n\treturn form\n\ndef teste2():\n\treturn "<form><label>Nome</label><input /></form><br><a href=\'http://www.w3schools.com\'>Visit W3Schools</a>"\n\t#return dict(nome="fernando")\n\t#return response.render("teste.html", dict(nome="fernando"))\n\ndef soma(x, y):\n\treturn x + y\n\ndef product():\n    grid = SQLFORM(db.product)\n    return response.render("initial/show_grid.html", grid=grid)\n\n\n \n\nresponse._vars=response._caller(show_cliente)\n'
p7
sS'snapshot'
p8
(dp9
S'exception'
p10
(dp11
S'__getslice__'
p12
S"<method-wrapper '__getslice__' of exceptions.IndentationError object>"
p13
sS'text'
p14
S'"       response.flash = \'uauauauauu\'\\n"'
p15
sS'__str__'
p16
S"<method-wrapper '__str__' of exceptions.IndentationError object>"
p17
sS'__reduce__'
p18
S'<built-in method __reduce__ of exceptions.IndentationError object>'
p19
sS'__dict__'
p20
S'{}'
p21
sS'__sizeof__'
p22
S'<built-in method __sizeof__ of exceptions.IndentationError object>'
p23
sS'__init__'
p24
S"<method-wrapper '__init__' of exceptions.IndentationError object>"
p25
sS'__setattr__'
p26
S"<method-wrapper '__setattr__' of exceptions.IndentationError object>"
p27
sS'__reduce_ex__'
p28
S'<built-in method __reduce_ex__ of exceptions.IndentationError object>'
p29
sS'__new__'
p30
S'<built-in method __new__ of type object>'
p31
sS'__format__'
p32
S'<built-in method __format__ of exceptions.IndentationError object>'
p33
sS'__class__'
p34
S"<type 'exceptions.IndentationError'>"
p35
sS'filename'
p36
S"'/var/www/hosts3/applications/projeto/controllers/initial.py'"
p37
sS'lineno'
p38
S'253'
p39
sS'msg'
p40
S"'unindent does not match any outer indentation level'"
p41
sS'__doc__'
p42
S"'Improper indentation.'"
p43
sS'__getitem__'
p44
S"<method-wrapper '__getitem__' of exceptions.IndentationError object>"
p45
sS'__setstate__'
p46
S'<built-in method __setstate__ of exceptions.IndentationError object>'
p47
sS'__getattribute__'
p48
S"<method-wrapper '__getattribute__' of exceptions.IndentationError object>"
p49
sS'print_file_and_line'
p50
S'None'
p51
sS'args'
p52
S'(\'unindent does not match any outer indentation level\', (\'/var/www/hosts3/applications/projeto/controllers/initial.py\', 253, 37, "       response.flash = \'uauauauauu\'\\n"))'
p53
sS'__subclasshook__'
p54
S'<built-in method __subclasshook__ of type object>'
p55
sS'offset'
p56
S'37'
p57
sS'__unicode__'
p58
S'<built-in method __unicode__ of exceptions.IndentationError object>'
p59
sS'__delattr__'
p60
S"<method-wrapper '__delattr__' of exceptions.IndentationError object>"
p61
sS'__repr__'
p62
S"<method-wrapper '__repr__' of exceptions.IndentationError object>"
p63
sS'__hash__'
p64
S"<method-wrapper '__hash__' of exceptions.IndentationError object>"
p65
ssS'evalue'
p66
S'unindent does not match any outer indentation level (initial.py, line 253)'
p67
sS'request'
p68
ccopy_reg
_reconstructor
p69
(cgluon.html
BEAUTIFY
p70
c__builtin__
object
p71
NtRp72
(dp73
S'attributes'
p74
(dp75
sS'components'
p76
(lp77
g69
(cgluon.html
TABLE
p78
g71
NtRp79
(dp80
g74
(dp81
S'level'
p82
I5
ssS'parent'
p83
Nsg76
(lp84
g69
(cgluon.html
TR
p85
g71
NtRp86
(dp87
g74
(dp88
sg83
g79
sg76
(lp89
g69
(cgluon.html
TD
p90
g71
NtRp91
(dp92
g74
(dp93
S'_style'
p94
S'font-weight:bold;vertical-align:top'
p95
ssg83
g86
sg76
(lp96
S'ajax'
p97
asbag69
(g90
g71
NtRp98
(dp99
g74
(dp100
S'_valign'
p101
S'top'
p102
ssg83
g86
sg76
(lp103
S':'
asbag69
(g90
g71
NtRp104
(dp105
g74
(dp106
sg83
g86
sg76
(lp107
g69
(g70
g71
NtRp108
(dp109
g74
(dp110
g82
I5
ssg83
g104
sg76
(lp111
S'False'
p112
asbasbasbag69
(g85
g71
NtRp113
(dp114
g74
(dp115
sg83
g79
sg76
(lp116
g69
(g90
g71
NtRp117
(dp118
g74
(dp119
g94
g95
ssg83
g113
sg76
(lp120
S'application'
p121
asbag69
(g90
g71
NtRp122
(dp123
g74
(dp124
g101
g102
ssg83
g113
sg76
(lp125
S':'
asbag69
(g90
g71
NtRp126
(dp127
g74
(dp128
sg83
g113
sg76
(lp129
g69
(g70
g71
NtRp130
(dp131
g74
(dp132
g82
I5
ssg83
g126
sg76
(lp133
S'projeto'
p134
asbasbasbag69
(g85
g71
NtRp135
(dp136
g74
(dp137
sg83
g79
sg76
(lp138
g69
(g90
g71
NtRp139
(dp140
g74
(dp141
g94
g95
ssg83
g135
sg76
(lp142
g52
asbag69
(g90
g71
NtRp143
(dp144
g74
(dp145
g101
g102
ssg83
g135
sg76
(lp146
S':'
asbag69
(g90
g71
NtRp147
(dp148
g74
(dp149
sg83
g135
sg76
(lp150
g69
(g70
g71
NtRp151
(dp152
g74
(dp153
g82
I5
ssg83
g147
sg76
(lp154
g69
(g78
g71
NtRp155
(dp156
g74
(dp157
g82
I4
ssg83
Nsg76
(lp158
g69
(g85
g71
NtRp159
(dp160
g74
(dp161
sg83
g155
sg76
(lp162
g69
(g90
g71
NtRp163
(dp164
g74
(dp165
sg83
g159
sg76
(lp166
g69
(g70
g71
NtRp167
(dp168
g74
(dp169
g82
I4
ssg83
g163
sg76
(lp170
S'u'
asbasbasbasbasbasbasbag69
(g85
g71
NtRp171
(dp172
g74
(dp173
sg83
g79
sg76
(lp174
g69
(g90
g71
NtRp175
(dp176
g74
(dp177
g94
g95
ssg83
g171
sg76
(lp178
S'body'
p179
asbag69
(g90
g71
NtRp180
(dp181
g74
(dp182
g101
g102
ssg83
g171
sg76
(lp183
S':'
asbag69
(g90
g71
NtRp184
(dp185
g74
(dp186
sg83
g171
sg76
(lp187
g69
(g70
g71
NtRp188
(dp189
g74
(dp190
g82
I5
ssg83
g184
sg76
(lp191
S'<cStringIO.StringO object at 0x7f9adc8963e8>'
p192
asbasbasbag69
(g85
g71
NtRp193
(dp194
g74
(dp195
sg83
g79
sg76
(lp196
g69
(g90
g71
NtRp197
(dp198
g74
(dp199
g94
g95
ssg83
g193
sg76
(lp200
S'cid'
p201
asbag69
(g90
g71
NtRp202
(dp203
g74
(dp204
g101
g102
ssg83
g193
sg76
(lp205
S':'
asbag69
(g90
g71
NtRp206
(dp207
g74
(dp208
sg83
g193
sg76
(lp209
g69
(g70
g71
NtRp210
(dp211
g74
(dp212
g82
I5
ssg83
g206
sg76
(lp213
S'None'
p214
asbasbasbag69
(g85
g71
NtRp215
(dp216
g74
(dp217
sg83
g79
sg76
(lp218
g69
(g90
g71
NtRp219
(dp220
g74
(dp221
g94
g95
ssg83
g215
sg76
(lp222
S'client'
p223
asbag69
(g90
g71
NtRp224
(dp225
g74
(dp226
g101
g102
ssg83
g215
sg76
(lp227
S':'
asbag69
(g90
g71
NtRp228
(dp229
g74
(dp230
sg83
g215
sg76
(lp231
g69
(g70
g71
NtRp232
(dp233
g74
(dp234
g82
I5
ssg83
g228
sg76
(lp235
S'127.0.0.1'
p236
asbasbasbag69
(g85
g71
NtRp237
(dp238
g74
(dp239
sg83
g79
sg76
(lp240
g69
(g90
g71
NtRp241
(dp242
g74
(dp243
g94
g95
ssg83
g237
sg76
(lp244
S'controller'
p245
asbag69
(g90
g71
NtRp246
(dp247
g74
(dp248
g101
g102
ssg83
g237
sg76
(lp249
S':'
asbag69
(g90
g71
NtRp250
(dp251
g74
(dp252
sg83
g237
sg76
(lp253
g69
(g70
g71
NtRp254
(dp255
g74
(dp256
g82
I5
ssg83
g250
sg76
(lp257
S'initial'
p258
asbasbasbag69
(g85
g71
NtRp259
(dp260
g74
(dp261
sg83
g79
sg76
(lp262
g69
(g90
g71
NtRp263
(dp264
g74
(dp265
g94
g95
ssg83
g259
sg76
(lp266
S'cookies'
p267
asbag69
(g90
g71
NtRp268
(dp269
g74
(dp270
g101
g102
ssg83
g259
sg76
(lp271
S':'
asbag69
(g90
g71
NtRp272
(dp273
g74
(dp274
sg83
g259
sg76
(lp275
g69
(g70
g71
NtRp276
(dp277
g74
(dp278
g82
I5
ssg83
g272
sg76
(lp279
g69
(g78
g71
NtRp280
(dp281
g74
(dp282
g82
I4
ssg83
Nsg76
(lp283
g69
(g85
g71
NtRp284
(dp285
g74
(dp286
sg83
g280
sg76
(lp287
g69
(g90
g71
NtRp288
(dp289
g74
(dp290
g94
g95
ssg83
g284
sg76
(lp291
S'language'
p292
asbag69
(g90
g71
NtRp293
(dp294
g74
(dp295
g101
g102
ssg83
g284
sg76
(lp296
S':'
asbag69
(g90
g71
NtRp297
(dp298
g74
(dp299
sg83
g284
sg76
(lp300
g69
(g70
g71
NtRp301
(dp302
g74
(dp303
g82
I4
ssg83
g297
sg76
(lp304
S'1'
ag69
(g78
g71
NtRp305
(dp306
g74
(dp307
g82
I3
ssg83
Nsg76
(lp308
g69
(g85
g71
NtRp309
(dp310
g74
(dp311
sg83
g305
sg76
(lp312
g69
(g90
g71
NtRp313
(dp314
g74
(dp315
g94
g95
ssg83
g309
sg76
(lp316
S'comment'
p317
asbag69
(g90
g71
NtRp318
(dp319
g74
(dp320
g101
g102
ssg83
g309
sg76
(lp321
S':'
asbag69
(g90
g71
NtRp322
(dp323
g74
(dp324
sg83
g309
sg76
(lp325
g69
(g70
g71
NtRp326
(dp327
g74
(dp328
g82
I3
ssg83
g322
sg76
(lp329
S''
asbasbasbag69
(g85
g71
NtRp330
(dp331
g74
(dp332
sg83
g305
sg76
(lp333
g69
(g90
g71
NtRp334
(dp335
g74
(dp336
g94
g95
ssg83
g330
sg76
(lp337
S'domain'
p338
asbag69
(g90
g71
NtRp339
(dp340
g74
(dp341
g101
g102
ssg83
g330
sg76
(lp342
S':'
asbag69
(g90
g71
NtRp343
(dp344
g74
(dp345
sg83
g330
sg76
(lp346
g69
(g70
g71
NtRp347
(dp348
g74
(dp349
g82
I3
ssg83
g343
sg76
(lp350
S''
asbasbasbag69
(g85
g71
NtRp351
(dp352
g74
(dp353
sg83
g305
sg76
(lp354
g69
(g90
g71
NtRp355
(dp356
g74
(dp357
g94
g95
ssg83
g351
sg76
(lp358
S'expires'
p359
asbag69
(g90
g71
NtRp360
(dp361
g74
(dp362
g101
g102
ssg83
g351
sg76
(lp363
S':'
asbag69
(g90
g71
NtRp364
(dp365
g74
(dp366
sg83
g351
sg76
(lp367
g69
(g70
g71
NtRp368
(dp369
g74
(dp370
g82
I3
ssg83
g364
sg76
(lp371
S''
asbasbasbag69
(g85
g71
NtRp372
(dp373
g74
(dp374
sg83
g305
sg76
(lp375
g69
(g90
g71
NtRp376
(dp377
g74
(dp378
g94
g95
ssg83
g372
sg76
(lp379
S'httponly'
p380
asbag69
(g90
g71
NtRp381
(dp382
g74
(dp383
g101
g102
ssg83
g372
sg76
(lp384
S':'
asbag69
(g90
g71
NtRp385
(dp386
g74
(dp387
sg83
g372
sg76
(lp388
g69
(g70
g71
NtRp389
(dp390
g74
(dp391
g82
I3
ssg83
g385
sg76
(lp392
S''
asbasbasbag69
(g85
g71
NtRp393
(dp394
g74
(dp395
sg83
g305
sg76
(lp396
g69
(g90
g71
NtRp397
(dp398
g74
(dp399
g94
g95
ssg83
g393
sg76
(lp400
S'max-age'
p401
asbag69
(g90
g71
NtRp402
(dp403
g74
(dp404
g101
g102
ssg83
g393
sg76
(lp405
S':'
asbag69
(g90
g71
NtRp406
(dp407
g74
(dp408
sg83
g393
sg76
(lp409
g69
(g70
g71
NtRp410
(dp411
g74
(dp412
g82
I3
ssg83
g406
sg76
(lp413
S''
asbasbasbag69
(g85
g71
NtRp414
(dp415
g74
(dp416
sg83
g305
sg76
(lp417
g69
(g90
g71
NtRp418
(dp419
g74
(dp420
g94
g95
ssg83
g414
sg76
(lp421
S'path'
p422
asbag69
(g90
g71
NtRp423
(dp424
g74
(dp425
g101
g102
ssg83
g414
sg76
(lp426
S':'
asbag69
(g90
g71
NtRp427
(dp428
g74
(dp429
sg83
g414
sg76
(lp430
g69
(g70
g71
NtRp431
(dp432
g74
(dp433
g82
I3
ssg83
g427
sg76
(lp434
S''
asbasbasbag69
(g85
g71
NtRp435
(dp436
g74
(dp437
sg83
g305
sg76
(lp438
g69
(g90
g71
NtRp439
(dp440
g74
(dp441
g94
g95
ssg83
g435
sg76
(lp442
S'secure'
p443
asbag69
(g90
g71
NtRp444
(dp445
g74
(dp446
g101
g102
ssg83
g435
sg76
(lp447
S':'
asbag69
(g90
g71
NtRp448
(dp449
g74
(dp450
sg83
g435
sg76
(lp451
g69
(g70
g71
NtRp452
(dp453
g74
(dp454
g82
I3
ssg83
g448
sg76
(lp455
S''
asbasbasbag69
(g85
g71
NtRp456
(dp457
g74
(dp458
sg83
g305
sg76
(lp459
g69
(g90
g71
NtRp460
(dp461
g74
(dp462
g94
g95
ssg83
g456
sg76
(lp463
S'version'
p464
asbag69
(g90
g71
NtRp465
(dp466
g74
(dp467
g101
g102
ssg83
g456
sg76
(lp468
S':'
asbag69
(g90
g71
NtRp469
(dp470
g74
(dp471
sg83
g456
sg76
(lp472
g69
(g70
g71
NtRp473
(dp474
g74
(dp475
g82
I3
ssg83
g469
sg76
(lp476
S''
asbasbasbasbasbasbasbag69
(g85
g71
NtRp477
(dp478
g74
(dp479
sg83
g280
sg76
(lp480
g69
(g90
g71
NtRp481
(dp482
g74
(dp483
g94
g95
ssg83
g477
sg76
(lp484
S'nr'
p485
asbag69
(g90
g71
NtRp486
(dp487
g74
(dp488
g101
g102
ssg83
g477
sg76
(lp489
S':'
asbag69
(g90
g71
NtRp490
(dp491
g74
(dp492
sg83
g477
sg76
(lp493
g69
(g70
g71
NtRp494
(dp495
g74
(dp496
g82
I4
ssg83
g490
sg76
(lp497
S'1'
ag69
(g78
g71
NtRp498
(dp499
g74
(dp500
g82
I3
ssg83
Nsg76
(lp501
g69
(g85
g71
NtRp502
(dp503
g74
(dp504
sg83
g498
sg76
(lp505
g69
(g90
g71
NtRp506
(dp507
g74
(dp508
g94
g95
ssg83
g502
sg76
(lp509
g317
asbag69
(g90
g71
NtRp510
(dp511
g74
(dp512
g101
g102
ssg83
g502
sg76
(lp513
S':'
asbag69
(g90
g71
NtRp514
(dp515
g74
(dp516
sg83
g502
sg76
(lp517
g69
(g70
g71
NtRp518
(dp519
g74
(dp520
g82
I3
ssg83
g514
sg76
(lp521
S''
asbasbasbag69
(g85
g71
NtRp522
(dp523
g74
(dp524
sg83
g498
sg76
(lp525
g69
(g90
g71
NtRp526
(dp527
g74
(dp528
g94
g95
ssg83
g522
sg76
(lp529
g338
asbag69
(g90
g71
NtRp530
(dp531
g74
(dp532
g101
g102
ssg83
g522
sg76
(lp533
S':'
asbag69
(g90
g71
NtRp534
(dp535
g74
(dp536
sg83
g522
sg76
(lp537
g69
(g70
g71
NtRp538
(dp539
g74
(dp540
g82
I3
ssg83
g534
sg76
(lp541
S''
asbasbasbag69
(g85
g71
NtRp542
(dp543
g74
(dp544
sg83
g498
sg76
(lp545
g69
(g90
g71
NtRp546
(dp547
g74
(dp548
g94
g95
ssg83
g542
sg76
(lp549
g359
asbag69
(g90
g71
NtRp550
(dp551
g74
(dp552
g101
g102
ssg83
g542
sg76
(lp553
S':'
asbag69
(g90
g71
NtRp554
(dp555
g74
(dp556
sg83
g542
sg76
(lp557
g69
(g70
g71
NtRp558
(dp559
g74
(dp560
g82
I3
ssg83
g554
sg76
(lp561
S''
asbasbasbag69
(g85
g71
NtRp562
(dp563
g74
(dp564
sg83
g498
sg76
(lp565
g69
(g90
g71
NtRp566
(dp567
g74
(dp568
g94
g95
ssg83
g562
sg76
(lp569
g380
asbag69
(g90
g71
NtRp570
(dp571
g74
(dp572
g101
g102
ssg83
g562
sg76
(lp573
S':'
asbag69
(g90
g71
NtRp574
(dp575
g74
(dp576
sg83
g562
sg76
(lp577
g69
(g70
g71
NtRp578
(dp579
g74
(dp580
g82
I3
ssg83
g574
sg76
(lp581
S''
asbasbasbag69
(g85
g71
NtRp582
(dp583
g74
(dp584
sg83
g498
sg76
(lp585
g69
(g90
g71
NtRp586
(dp587
g74
(dp588
g94
g95
ssg83
g582
sg76
(lp589
g401
asbag69
(g90
g71
NtRp590
(dp591
g74
(dp592
g101
g102
ssg83
g582
sg76
(lp593
S':'
asbag69
(g90
g71
NtRp594
(dp595
g74
(dp596
sg83
g582
sg76
(lp597
g69
(g70
g71
NtRp598
(dp599
g74
(dp600
g82
I3
ssg83
g594
sg76
(lp601
S''
asbasbasbag69
(g85
g71
NtRp602
(dp603
g74
(dp604
sg83
g498
sg76
(lp605
g69
(g90
g71
NtRp606
(dp607
g74
(dp608
g94
g95
ssg83
g602
sg76
(lp609
g422
asbag69
(g90
g71
NtRp610
(dp611
g74
(dp612
g101
g102
ssg83
g602
sg76
(lp613
S':'
asbag69
(g90
g71
NtRp614
(dp615
g74
(dp616
sg83
g602
sg76
(lp617
g69
(g70
g71
NtRp618
(dp619
g74
(dp620
g82
I3
ssg83
g614
sg76
(lp621
S''
asbasbasbag69
(g85
g71
NtRp622
(dp623
g74
(dp624
sg83
g498
sg76
(lp625
g69
(g90
g71
NtRp626
(dp627
g74
(dp628
g94
g95
ssg83
g622
sg76
(lp629
g443
asbag69
(g90
g71
NtRp630
(dp631
g74
(dp632
g101
g102
ssg83
g622
sg76
(lp633
S':'
asbag69
(g90
g71
NtRp634
(dp635
g74
(dp636
sg83
g622
sg76
(lp637
g69
(g70
g71
NtRp638
(dp639
g74
(dp640
g82
I3
ssg83
g634
sg76
(lp641
S''
asbasbasbag69
(g85
g71
NtRp642
(dp643
g74
(dp644
sg83
g498
sg76
(lp645
g69
(g90
g71
NtRp646
(dp647
g74
(dp648
g94
g95
ssg83
g642
sg76
(lp649
g464
asbag69
(g90
g71
NtRp650
(dp651
g74
(dp652
g101
g102
ssg83
g642
sg76
(lp653
S':'
asbag69
(g90
g71
NtRp654
(dp655
g74
(dp656
sg83
g642
sg76
(lp657
g69
(g70
g71
NtRp658
(dp659
g74
(dp660
g82
I3
ssg83
g654
sg76
(lp661
S''
asbasbasbasbasbasbasbag69
(g85
g71
NtRp662
(dp663
g74
(dp664
sg83
g280
sg76
(lp665
g69
(g90
g71
NtRp666
(dp667
g74
(dp668
g94
g95
ssg83
g662
sg76
(lp669
S'session_id_admin'
p670
asbag69
(g90
g71
NtRp671
(dp672
g74
(dp673
g101
g102
ssg83
g662
sg76
(lp674
S':'
asbag69
(g90
g71
NtRp675
(dp676
g74
(dp677
sg83
g662
sg76
(lp678
g69
(g70
g71
NtRp679
(dp680
g74
(dp681
g82
I4
ssg83
g675
sg76
(lp682
S'127.0.0.1-a33ced35-545c-414c-9ba1-4a74d8dd63b0'
p683
ag69
(g78
g71
NtRp684
(dp685
g74
(dp686
g82
I3
ssg83
Nsg76
(lp687
g69
(g85
g71
NtRp688
(dp689
g74
(dp690
sg83
g684
sg76
(lp691
g69
(g90
g71
NtRp692
(dp693
g74
(dp694
g94
g95
ssg83
g688
sg76
(lp695
g317
asbag69
(g90
g71
NtRp696
(dp697
g74
(dp698
g101
g102
ssg83
g688
sg76
(lp699
S':'
asbag69
(g90
g71
NtRp700
(dp701
g74
(dp702
sg83
g688
sg76
(lp703
g69
(g70
g71
NtRp704
(dp705
g74
(dp706
g82
I3
ssg83
g700
sg76
(lp707
S''
asbasbasbag69
(g85
g71
NtRp708
(dp709
g74
(dp710
sg83
g684
sg76
(lp711
g69
(g90
g71
NtRp712
(dp713
g74
(dp714
g94
g95
ssg83
g708
sg76
(lp715
g338
asbag69
(g90
g71
NtRp716
(dp717
g74
(dp718
g101
g102
ssg83
g708
sg76
(lp719
S':'
asbag69
(g90
g71
NtRp720
(dp721
g74
(dp722
sg83
g708
sg76
(lp723
g69
(g70
g71
NtRp724
(dp725
g74
(dp726
g82
I3
ssg83
g720
sg76
(lp727
S''
asbasbasbag69
(g85
g71
NtRp728
(dp729
g74
(dp730
sg83
g684
sg76
(lp731
g69
(g90
g71
NtRp732
(dp733
g74
(dp734
g94
g95
ssg83
g728
sg76
(lp735
g359
asbag69
(g90
g71
NtRp736
(dp737
g74
(dp738
g101
g102
ssg83
g728
sg76
(lp739
S':'
asbag69
(g90
g71
NtRp740
(dp741
g74
(dp742
sg83
g728
sg76
(lp743
g69
(g70
g71
NtRp744
(dp745
g74
(dp746
g82
I3
ssg83
g740
sg76
(lp747
S''
asbasbasbag69
(g85
g71
NtRp748
(dp749
g74
(dp750
sg83
g684
sg76
(lp751
g69
(g90
g71
NtRp752
(dp753
g74
(dp754
g94
g95
ssg83
g748
sg76
(lp755
g380
asbag69
(g90
g71
NtRp756
(dp757
g74
(dp758
g101
g102
ssg83
g748
sg76
(lp759
S':'
asbag69
(g90
g71
NtRp760
(dp761
g74
(dp762
sg83
g748
sg76
(lp763
g69
(g70
g71
NtRp764
(dp765
g74
(dp766
g82
I3
ssg83
g760
sg76
(lp767
S''
asbasbasbag69
(g85
g71
NtRp768
(dp769
g74
(dp770
sg83
g684
sg76
(lp771
g69
(g90
g71
NtRp772
(dp773
g74
(dp774
g94
g95
ssg83
g768
sg76
(lp775
g401
asbag69
(g90
g71
NtRp776
(dp777
g74
(dp778
g101
g102
ssg83
g768
sg76
(lp779
S':'
asbag69
(g90
g71
NtRp780
(dp781
g74
(dp782
sg83
g768
sg76
(lp783
g69
(g70
g71
NtRp784
(dp785
g74
(dp786
g82
I3
ssg83
g780
sg76
(lp787
S''
asbasbasbag69
(g85
g71
NtRp788
(dp789
g74
(dp790
sg83
g684
sg76
(lp791
g69
(g90
g71
NtRp792
(dp793
g74
(dp794
g94
g95
ssg83
g788
sg76
(lp795
g422
asbag69
(g90
g71
NtRp796
(dp797
g74
(dp798
g101
g102
ssg83
g788
sg76
(lp799
S':'
asbag69
(g90
g71
NtRp800
(dp801
g74
(dp802
sg83
g788
sg76
(lp803
g69
(g70
g71
NtRp804
(dp805
g74
(dp806
g82
I3
ssg83
g800
sg76
(lp807
S''
asbasbasbag69
(g85
g71
NtRp808
(dp809
g74
(dp810
sg83
g684
sg76
(lp811
g69
(g90
g71
NtRp812
(dp813
g74
(dp814
g94
g95
ssg83
g808
sg76
(lp815
g443
asbag69
(g90
g71
NtRp816
(dp817
g74
(dp818
g101
g102
ssg83
g808
sg76
(lp819
S':'
asbag69
(g90
g71
NtRp820
(dp821
g74
(dp822
sg83
g808
sg76
(lp823
g69
(g70
g71
NtRp824
(dp825
g74
(dp826
g82
I3
ssg83
g820
sg76
(lp827
S''
asbasbasbag69
(g85
g71
NtRp828
(dp829
g74
(dp830
sg83
g684
sg76
(lp831
g69
(g90
g71
NtRp832
(dp833
g74
(dp834
g94
g95
ssg83
g828
sg76
(lp835
g464
asbag69
(g90
g71
NtRp836
(dp837
g74
(dp838
g101
g102
ssg83
g828
sg76
(lp839
S':'
asbag69
(g90
g71
NtRp840
(dp841
g74
(dp842
sg83
g828
sg76
(lp843
g69
(g70
g71
NtRp844
(dp845
g74
(dp846
g82
I3
ssg83
g840
sg76
(lp847
S''
asbasbasbasbasbasbasbag69
(g85
g71
NtRp848
(dp849
g74
(dp850
sg83
g280
sg76
(lp851
g69
(g90
g71
NtRp852
(dp853
g74
(dp854
g94
g95
ssg83
g848
sg76
(lp855
S'session_id_projeto'
p856
asbag69
(g90
g71
NtRp857
(dp858
g74
(dp859
g101
g102
ssg83
g848
sg76
(lp860
S':'
asbag69
(g90
g71
NtRp861
(dp862
g74
(dp863
sg83
g848
sg76
(lp864
g69
(g70
g71
NtRp865
(dp866
g74
(dp867
g82
I4
ssg83
g861
sg76
(lp868
S'127.0.0.1-691450d9-0478-4d7f-a716-be4ace49b6f4'
p869
ag69
(g78
g71
NtRp870
(dp871
g74
(dp872
g82
I3
ssg83
Nsg76
(lp873
g69
(g85
g71
NtRp874
(dp875
g74
(dp876
sg83
g870
sg76
(lp877
g69
(g90
g71
NtRp878
(dp879
g74
(dp880
g94
g95
ssg83
g874
sg76
(lp881
g317
asbag69
(g90
g71
NtRp882
(dp883
g74
(dp884
g101
g102
ssg83
g874
sg76
(lp885
S':'
asbag69
(g90
g71
NtRp886
(dp887
g74
(dp888
sg83
g874
sg76
(lp889
g69
(g70
g71
NtRp890
(dp891
g74
(dp892
g82
I3
ssg83
g886
sg76
(lp893
S''
asbasbasbag69
(g85
g71
NtRp894
(dp895
g74
(dp896
sg83
g870
sg76
(lp897
g69
(g90
g71
NtRp898
(dp899
g74
(dp900
g94
g95
ssg83
g894
sg76
(lp901
g338
asbag69
(g90
g71
NtRp902
(dp903
g74
(dp904
g101
g102
ssg83
g894
sg76
(lp905
S':'
asbag69
(g90
g71
NtRp906
(dp907
g74
(dp908
sg83
g894
sg76
(lp909
g69
(g70
g71
NtRp910
(dp911
g74
(dp912
g82
I3
ssg83
g906
sg76
(lp913
S''
asbasbasbag69
(g85
g71
NtRp914
(dp915
g74
(dp916
sg83
g870
sg76
(lp917
g69
(g90
g71
NtRp918
(dp919
g74
(dp920
g94
g95
ssg83
g914
sg76
(lp921
g359
asbag69
(g90
g71
NtRp922
(dp923
g74
(dp924
g101
g102
ssg83
g914
sg76
(lp925
S':'
asbag69
(g90
g71
NtRp926
(dp927
g74
(dp928
sg83
g914
sg76
(lp929
g69
(g70
g71
NtRp930
(dp931
g74
(dp932
g82
I3
ssg83
g926
sg76
(lp933
S''
asbasbasbag69
(g85
g71
NtRp934
(dp935
g74
(dp936
sg83
g870
sg76
(lp937
g69
(g90
g71
NtRp938
(dp939
g74
(dp940
g94
g95
ssg83
g934
sg76
(lp941
g380
asbag69
(g90
g71
NtRp942
(dp943
g74
(dp944
g101
g102
ssg83
g934
sg76
(lp945
S':'
asbag69
(g90
g71
NtRp946
(dp947
g74
(dp948
sg83
g934
sg76
(lp949
g69
(g70
g71
NtRp950
(dp951
g74
(dp952
g82
I3
ssg83
g946
sg76
(lp953
S''
asbasbasbag69
(g85
g71
NtRp954
(dp955
g74
(dp956
sg83
g870
sg76
(lp957
g69
(g90
g71
NtRp958
(dp959
g74
(dp960
g94
g95
ssg83
g954
sg76
(lp961
g401
asbag69
(g90
g71
NtRp962
(dp963
g74
(dp964
g101
g102
ssg83
g954
sg76
(lp965
S':'
asbag69
(g90
g71
NtRp966
(dp967
g74
(dp968
sg83
g954
sg76
(lp969
g69
(g70
g71
NtRp970
(dp971
g74
(dp972
g82
I3
ssg83
g966
sg76
(lp973
S''
asbasbasbag69
(g85
g71
NtRp974
(dp975
g74
(dp976
sg83
g870
sg76
(lp977
g69
(g90
g71
NtRp978
(dp979
g74
(dp980
g94
g95
ssg83
g974
sg76
(lp981
g422
asbag69
(g90
g71
NtRp982
(dp983
g74
(dp984
g101
g102
ssg83
g974
sg76
(lp985
S':'
asbag69
(g90
g71
NtRp986
(dp987
g74
(dp988
sg83
g974
sg76
(lp989
g69
(g70
g71
NtRp990
(dp991
g74
(dp992
g82
I3
ssg83
g986
sg76
(lp993
S''
asbasbasbag69
(g85
g71
NtRp994
(dp995
g74
(dp996
sg83
g870
sg76
(lp997
g69
(g90
g71
NtRp998
(dp999
g74
(dp1000
g94
g95
ssg83
g994
sg76
(lp1001
g443
asbag69
(g90
g71
NtRp1002
(dp1003
g74
(dp1004
g101
g102
ssg83
g994
sg76
(lp1005
S':'
asbag69
(g90
g71
NtRp1006
(dp1007
g74
(dp1008
sg83
g994
sg76
(lp1009
g69
(g70
g71
NtRp1010
(dp1011
g74
(dp1012
g82
I3
ssg83
g1006
sg76
(lp1013
S''
asbasbasbag69
(g85
g71
NtRp1014
(dp1015
g74
(dp1016
sg83
g870
sg76
(lp1017
g69
(g90
g71
NtRp1018
(dp1019
g74
(dp1020
g94
g95
ssg83
g1014
sg76
(lp1021
g464
asbag69
(g90
g71
NtRp1022
(dp1023
g74
(dp1024
g101
g102
ssg83
g1014
sg76
(lp1025
S':'
asbag69
(g90
g71
NtRp1026
(dp1027
g74
(dp1028
sg83
g1014
sg76
(lp1029
g69
(g70
g71
NtRp1030
(dp1031
g74
(dp1032
g82
I3
ssg83
g1026
sg76
(lp1033
S''
asbasbasbasbasbasbasbasbasbasbasbag69
(g85
g71
NtRp1034
(dp1035
g74
(dp1036
sg83
g79
sg76
(lp1037
g69
(g90
g71
NtRp1038
(dp1039
g74
(dp1040
g94
g95
ssg83
g1034
sg76
(lp1041
S'env'
p1042
asbag69
(g90
g71
NtRp1043
(dp1044
g74
(dp1045
g101
g102
ssg83
g1034
sg76
(lp1046
S':'
asbag69
(g90
g71
NtRp1047
(dp1048
g74
(dp1049
sg83
g1034
sg76
(lp1050
g69
(g70
g71
NtRp1051
(dp1052
g74
(dp1053
g82
I5
ssg83
g1047
sg76
(lp1054
g69
(g78
g71
NtRp1055
(dp1056
g74
(dp1057
g82
I4
ssg83
Nsg76
(lp1058
g69
(g85
g71
NtRp1059
(dp1060
g74
(dp1061
sg83
g1055
sg76
(lp1062
g69
(g90
g71
NtRp1063
(dp1064
g74
(dp1065
g94
g95
ssg83
g1059
sg76
(lp1066
S'app_folders'
p1067
asbag69
(g90
g71
NtRp1068
(dp1069
g74
(dp1070
g101
g102
ssg83
g1059
sg76
(lp1071
S':'
asbag69
(g90
g71
NtRp1072
(dp1073
g74
(dp1074
sg83
g1059
sg76
(lp1075
g69
(g70
g71
NtRp1076
(dp1077
g74
(dp1078
g82
I4
ssg83
g1072
sg76
(lp1079
S"set(['/var/www/hosts3/applications/admin/', '/var/www/hosts3/applications/projeto/'])"
p1080
asbasbasbag69
(g85
g71
NtRp1081
(dp1082
g74
(dp1083
sg83
g1055
sg76
(lp1084
g69
(g90
g71
NtRp1085
(dp1086
g74
(dp1087
g94
g95
ssg83
g1081
sg76
(lp1088
S'applications_parent'
p1089
asbag69
(g90
g71
NtRp1090
(dp1091
g74
(dp1092
g101
g102
ssg83
g1081
sg76
(lp1093
S':'
asbag69
(g90
g71
NtRp1094
(dp1095
g74
(dp1096
sg83
g1081
sg76
(lp1097
g69
(g70
g71
NtRp1098
(dp1099
g74
(dp1100
g82
I4
ssg83
g1094
sg76
(lp1101
S'/var/www/hosts3'
p1102
asbasbasbag69
(g85
g71
NtRp1103
(dp1104
g74
(dp1105
sg83
g1055
sg76
(lp1106
g69
(g90
g71
NtRp1107
(dp1108
g74
(dp1109
g94
g95
ssg83
g1103
sg76
(lp1110
S'cmd_args'
p1111
asbag69
(g90
g71
NtRp1112
(dp1113
g74
(dp1114
g101
g102
ssg83
g1103
sg76
(lp1115
S':'
asbag69
(g90
g71
NtRp1116
(dp1117
g74
(dp1118
sg83
g1103
sg76
(lp1119
g69
(g70
g71
NtRp1120
(dp1121
g74
(dp1122
g82
I4
ssg83
g1116
sg76
(lp1123
g69
(g78
g71
NtRp1124
(dp1125
g74
(dp1126
g82
I3
ssg83
Nsg76
(lp1127
sbasbasbasbag69
(g85
g71
NtRp1128
(dp1129
g74
(dp1130
sg83
g1055
sg76
(lp1131
g69
(g90
g71
NtRp1132
(dp1133
g74
(dp1134
g94
g95
ssg83
g1128
sg76
(lp1135
S'cmd_options'
p1136
asbag69
(g90
g71
NtRp1137
(dp1138
g74
(dp1139
g101
g102
ssg83
g1128
sg76
(lp1140
S':'
asbag69
(g90
g71
NtRp1141
(dp1142
g74
(dp1143
sg83
g1128
sg76
(lp1144
g69
(g70
g71
NtRp1145
(dp1146
g74
(dp1147
g82
I4
ssg83
g1141
sg76
(lp1148
S"<Values at 0x27b56c8: {'verbose': False, 'ip': '127.0.0.1', 'with_scheduler': False, 'ips': [], 'shutdown_timeout': 5, 'taskbar': False, 'port': 8000, 'maxthreads': None, 'softcron': False, 'server_name': 'fernando-workstation', 'bpython': False, 'nogui': False, 'pid_filename': 'httpserver.pid', 'extcron': False, 'runcron': False, 'run_system_tests': False, 'test': None, 'folder': '/var/www/hosts3', 'config': '', 'minthreads': None, 'winservice': '', 'shell': None, 'run': '', 'log_filename': 'httpserver.log', 'debuglevel': 30, 'args': [''], 'socket_timeout': 5, 'ssl_ca_certificate': None, 'scheduler': None, 'profiler_filename': None, 'ssl_private_key': '', 'scheduler_groups': None, 'password': '123456', 'request_queue_size': 5, 'ssl_certificate': '', 'cronjob': False, 'numthreads': None, 'quiet': False, 'interfaces': None, 'import_models': False, 'timeout': 10, 'plain': False, 'nobanner': False}>"
p1149
asbasbasbag69
(g85
g71
NtRp1150
(dp1151
g74
(dp1152
sg83
g1055
sg76
(lp1153
g69
(g90
g71
NtRp1154
(dp1155
g74
(dp1156
g94
g95
ssg83
g1150
sg76
(lp1157
S'db_sessions'
p1158
asbag69
(g90
g71
NtRp1159
(dp1160
g74
(dp1161
g101
g102
ssg83
g1150
sg76
(lp1162
S':'
asbag69
(g90
g71
NtRp1163
(dp1164
g74
(dp1165
sg83
g1150
sg76
(lp1166
g69
(g70
g71
NtRp1167
(dp1168
g74
(dp1169
g82
I4
ssg83
g1163
sg76
(lp1170
S'set([])'
p1171
asbasbasbag69
(g85
g71
NtRp1172
(dp1173
g74
(dp1174
sg83
g1055
sg76
(lp1175
g69
(g90
g71
NtRp1176
(dp1177
g74
(dp1178
g94
g95
ssg83
g1172
sg76
(lp1179
S'debugging'
p1180
asbag69
(g90
g71
NtRp1181
(dp1182
g74
(dp1183
g101
g102
ssg83
g1172
sg76
(lp1184
S':'
asbag69
(g90
g71
NtRp1185
(dp1186
g74
(dp1187
sg83
g1172
sg76
(lp1188
g69
(g70
g71
NtRp1189
(dp1190
g74
(dp1191
g82
I4
ssg83
g1185
sg76
(lp1192
g112
asbasbasbag69
(g85
g71
NtRp1193
(dp1194
g74
(dp1195
sg83
g1055
sg76
(lp1196
g69
(g90
g71
NtRp1197
(dp1198
g74
(dp1199
g94
g95
ssg83
g1193
sg76
(lp1200
S'gluon_parent'
p1201
asbag69
(g90
g71
NtRp1202
(dp1203
g74
(dp1204
g101
g102
ssg83
g1193
sg76
(lp1205
S':'
asbag69
(g90
g71
NtRp1206
(dp1207
g74
(dp1208
sg83
g1193
sg76
(lp1209
g69
(g70
g71
NtRp1210
(dp1211
g74
(dp1212
g82
I4
ssg83
g1206
sg76
(lp1213
S'/var/www/hosts3'
p1214
asbasbasbag69
(g85
g71
NtRp1215
(dp1216
g74
(dp1217
sg83
g1055
sg76
(lp1218
g69
(g90
g71
NtRp1219
(dp1220
g74
(dp1221
g94
g95
ssg83
g1215
sg76
(lp1222
S'http_accept'
p1223
asbag69
(g90
g71
NtRp1224
(dp1225
g74
(dp1226
g101
g102
ssg83
g1215
sg76
(lp1227
S':'
asbag69
(g90
g71
NtRp1228
(dp1229
g74
(dp1230
sg83
g1215
sg76
(lp1231
g69
(g70
g71
NtRp1232
(dp1233
g74
(dp1234
g82
I4
ssg83
g1228
sg76
(lp1235
S'text/html,application/xhtml+xml,application/xml;q=0.9,*/*;q=0.8'
p1236
asbasbasbag69
(g85
g71
NtRp1237
(dp1238
g74
(dp1239
sg83
g1055
sg76
(lp1240
g69
(g90
g71
NtRp1241
(dp1242
g74
(dp1243
g94
g95
ssg83
g1237
sg76
(lp1244
S'http_accept_charset'
p1245
asbag69
(g90
g71
NtRp1246
(dp1247
g74
(dp1248
g101
g102
ssg83
g1237
sg76
(lp1249
S':'
asbag69
(g90
g71
NtRp1250
(dp1251
g74
(dp1252
sg83
g1237
sg76
(lp1253
g69
(g70
g71
NtRp1254
(dp1255
g74
(dp1256
g82
I4
ssg83
g1250
sg76
(lp1257
S'ISO-8859-1,utf-8;q=0.7,*;q=0.3'
p1258
asbasbasbag69
(g85
g71
NtRp1259
(dp1260
g74
(dp1261
sg83
g1055
sg76
(lp1262
g69
(g90
g71
NtRp1263
(dp1264
g74
(dp1265
g94
g95
ssg83
g1259
sg76
(lp1266
S'http_accept_encoding'
p1267
asbag69
(g90
g71
NtRp1268
(dp1269
g74
(dp1270
g101
g102
ssg83
g1259
sg76
(lp1271
S':'
asbag69
(g90
g71
NtRp1272
(dp1273
g74
(dp1274
sg83
g1259
sg76
(lp1275
g69
(g70
g71
NtRp1276
(dp1277
g74
(dp1278
g82
I4
ssg83
g1272
sg76
(lp1279
S'gzip,deflate,sdch'
p1280
asbasbasbag69
(g85
g71
NtRp1281
(dp1282
g74
(dp1283
sg83
g1055
sg76
(lp1284
g69
(g90
g71
NtRp1285
(dp1286
g74
(dp1287
g94
g95
ssg83
g1281
sg76
(lp1288
S'http_accept_language'
p1289
asbag69
(g90
g71
NtRp1290
(dp1291
g74
(dp1292
g101
g102
ssg83
g1281
sg76
(lp1293
S':'
asbag69
(g90
g71
NtRp1294
(dp1295
g74
(dp1296
sg83
g1281
sg76
(lp1297
g69
(g70
g71
NtRp1298
(dp1299
g74
(dp1300
g82
I4
ssg83
g1294
sg76
(lp1301
S'pt-BR,pt;q=0.8,en-US;q=0.6,en;q=0.4'
p1302
asbasbasbag69
(g85
g71
NtRp1303
(dp1304
g74
(dp1305
sg83
g1055
sg76
(lp1306
g69
(g90
g71
NtRp1307
(dp1308
g74
(dp1309
g94
g95
ssg83
g1303
sg76
(lp1310
S'http_connection'
p1311
asbag69
(g90
g71
NtRp1312
(dp1313
g74
(dp1314
g101
g102
ssg83
g1303
sg76
(lp1315
S':'
asbag69
(g90
g71
NtRp1316
(dp1317
g74
(dp1318
sg83
g1303
sg76
(lp1319
g69
(g70
g71
NtRp1320
(dp1321
g74
(dp1322
g82
I4
ssg83
g1316
sg76
(lp1323
S'keep-alive'
p1324
asbasbasbag69
(g85
g71
NtRp1325
(dp1326
g74
(dp1327
sg83
g1055
sg76
(lp1328
g69
(g90
g71
NtRp1329
(dp1330
g74
(dp1331
g94
g95
ssg83
g1325
sg76
(lp1332
S'http_cookie'
p1333
asbag69
(g90
g71
NtRp1334
(dp1335
g74
(dp1336
g101
g102
ssg83
g1325
sg76
(lp1337
S':'
asbag69
(g90
g71
NtRp1338
(dp1339
g74
(dp1340
sg83
g1325
sg76
(lp1341
g69
(g70
g71
NtRp1342
(dp1343
g74
(dp1344
g82
I4
ssg83
g1338
sg76
(lp1345
S'nr=1; language=1; session_id_admin=127.0.0.1-a33ced35-545c-414c-9ba1-4a74d8dd63b0; session_id_projeto=127.0.0.1-691450d9-0478-4d7f-a716-be4ace49b6f4'
p1346
asbasbasbag69
(g85
g71
NtRp1347
(dp1348
g74
(dp1349
sg83
g1055
sg76
(lp1350
g69
(g90
g71
NtRp1351
(dp1352
g74
(dp1353
g94
g95
ssg83
g1347
sg76
(lp1354
S'http_host'
p1355
asbag69
(g90
g71
NtRp1356
(dp1357
g74
(dp1358
g101
g102
ssg83
g1347
sg76
(lp1359
S':'
asbag69
(g90
g71
NtRp1360
(dp1361
g74
(dp1362
sg83
g1347
sg76
(lp1363
g69
(g70
g71
NtRp1364
(dp1365
g74
(dp1366
g82
I4
ssg83
g1360
sg76
(lp1367
S'127.0.0.1:8000'
p1368
asbasbasbag69
(g85
g71
NtRp1369
(dp1370
g74
(dp1371
sg83
g1055
sg76
(lp1372
g69
(g90
g71
NtRp1373
(dp1374
g74
(dp1375
g94
g95
ssg83
g1369
sg76
(lp1376
S'http_user_agent'
p1377
asbag69
(g90
g71
NtRp1378
(dp1379
g74
(dp1380
g101
g102
ssg83
g1369
sg76
(lp1381
S':'
asbag69
(g90
g71
NtRp1382
(dp1383
g74
(dp1384
sg83
g1369
sg76
(lp1385
g69
(g70
g71
NtRp1386
(dp1387
g74
(dp1388
g82
I4
ssg83
g1382
sg76
(lp1389
S'Mozilla/5.0 (X11; Linux x86_64) AppleWebKit/537.4 (KHTML, like Gecko) Ubuntu/12.10 Chromium/22.0.1229.94 Chrome/22.0.1229.94 Safari/537.4'
p1390
asbasbasbag69
(g85
g71
NtRp1391
(dp1392
g74
(dp1393
sg83
g1055
sg76
(lp1394
g69
(g90
g71
NtRp1395
(dp1396
g74
(dp1397
g94
g95
ssg83
g1391
sg76
(lp1398
S'is_jython'
p1399
asbag69
(g90
g71
NtRp1400
(dp1401
g74
(dp1402
g101
g102
ssg83
g1391
sg76
(lp1403
S':'
asbag69
(g90
g71
NtRp1404
(dp1405
g74
(dp1406
sg83
g1391
sg76
(lp1407
g69
(g70
g71
NtRp1408
(dp1409
g74
(dp1410
g82
I4
ssg83
g1404
sg76
(lp1411
g112
asbasbasbag69
(g85
g71
NtRp1412
(dp1413
g74
(dp1414
sg83
g1055
sg76
(lp1415
g69
(g90
g71
NtRp1416
(dp1417
g74
(dp1418
g94
g95
ssg83
g1412
sg76
(lp1419
S'is_pypy'
p1420
asbag69
(g90
g71
NtRp1421
(dp1422
g74
(dp1423
g101
g102
ssg83
g1412
sg76
(lp1424
S':'
asbag69
(g90
g71
NtRp1425
(dp1426
g74
(dp1427
sg83
g1412
sg76
(lp1428
g69
(g70
g71
NtRp1429
(dp1430
g74
(dp1431
g82
I4
ssg83
g1425
sg76
(lp1432
g112
asbasbasbag69
(g85
g71
NtRp1433
(dp1434
g74
(dp1435
sg83
g1055
sg76
(lp1436
g69
(g90
g71
NtRp1437
(dp1438
g74
(dp1439
g94
g95
ssg83
g1433
sg76
(lp1440
S'local_hosts'
p1441
asbag69
(g90
g71
NtRp1442
(dp1443
g74
(dp1444
g101
g102
ssg83
g1433
sg76
(lp1445
S':'
asbag69
(g90
g71
NtRp1446
(dp1447
g74
(dp1448
sg83
g1433
sg76
(lp1449
g69
(g70
g71
NtRp1450
(dp1451
g74
(dp1452
g82
I4
ssg83
g1446
sg76
(lp1453
g69
(g78
g71
NtRp1454
(dp1455
g74
(dp1456
g82
I3
ssg83
Nsg76
(lp1457
g69
(g85
g71
NtRp1458
(dp1459
g74
(dp1460
sg83
g1454
sg76
(lp1461
g69
(g90
g71
NtRp1462
(dp1463
g74
(dp1464
sg83
g1458
sg76
(lp1465
g69
(g70
g71
NtRp1466
(dp1467
g74
(dp1468
g82
I3
ssg83
g1462
sg76
(lp1469
S'::1'
p1470
asbasbasbag69
(g85
g71
NtRp1471
(dp1472
g74
(dp1473
sg83
g1454
sg76
(lp1474
g69
(g90
g71
NtRp1475
(dp1476
g74
(dp1477
sg83
g1471
sg76
(lp1478
g69
(g70
g71
NtRp1479
(dp1480
g74
(dp1481
g82
I3
ssg83
g1475
sg76
(lp1482
S'::ffff:127.0.0.1'
p1483
asbasbasbag69
(g85
g71
NtRp1484
(dp1485
g74
(dp1486
sg83
g1454
sg76
(lp1487
g69
(g90
g71
NtRp1488
(dp1489
g74
(dp1490
sg83
g1484
sg76
(lp1491
g69
(g70
g71
NtRp1492
(dp1493
g74
(dp1494
g82
I3
ssg83
g1488
sg76
(lp1495
S'127.0.0.1'
p1496
asbasbasbag69
(g85
g71
NtRp1497
(dp1498
g74
(dp1499
sg83
g1454
sg76
(lp1500
g69
(g90
g71
NtRp1501
(dp1502
g74
(dp1503
sg83
g1497
sg76
(lp1504
g69
(g70
g71
NtRp1505
(dp1506
g74
(dp1507
g82
I3
ssg83
g1501
sg76
(lp1508
S'fernando-workstation'
p1509
asbasbasbasbasbasbasbag69
(g85
g71
NtRp1510
(dp1511
g74
(dp1512
sg83
g1055
sg76
(lp1513
g69
(g90
g71
NtRp1514
(dp1515
g74
(dp1516
g94
g95
ssg83
g1510
sg76
(lp1517
S'path_info'
p1518
asbag69
(g90
g71
NtRp1519
(dp1520
g74
(dp1521
g101
g102
ssg83
g1510
sg76
(lp1522
S':'
asbag69
(g90
g71
NtRp1523
(dp1524
g74
(dp1525
sg83
g1510
sg76
(lp1526
g69
(g70
g71
NtRp1527
(dp1528
g74
(dp1529
g82
I4
ssg83
g1523
sg76
(lp1530
S'/u'
p1531
asbasbasbag69
(g85
g71
NtRp1532
(dp1533
g74
(dp1534
sg83
g1055
sg76
(lp1535
g69
(g90
g71
NtRp1536
(dp1537
g74
(dp1538
g94
g95
ssg83
g1532
sg76
(lp1539
S'query_string'
p1540
asbag69
(g90
g71
NtRp1541
(dp1542
g74
(dp1543
g101
g102
ssg83
g1532
sg76
(lp1544
S':'
asbag69
(g90
g71
NtRp1545
(dp1546
g74
(dp1547
sg83
g1532
sg76
(lp1548
g69
(g70
g71
NtRp1549
(dp1550
g74
(dp1551
g82
I4
ssg83
g1545
sg76
(lp1552
S''
asbasbasbag69
(g85
g71
NtRp1553
(dp1554
g74
(dp1555
sg83
g1055
sg76
(lp1556
g69
(g90
g71
NtRp1557
(dp1558
g74
(dp1559
g94
g95
ssg83
g1553
sg76
(lp1560
S'remote_addr'
p1561
asbag69
(g90
g71
NtRp1562
(dp1563
g74
(dp1564
g101
g102
ssg83
g1553
sg76
(lp1565
S':'
asbag69
(g90
g71
NtRp1566
(dp1567
g74
(dp1568
sg83
g1553
sg76
(lp1569
g69
(g70
g71
NtRp1570
(dp1571
g74
(dp1572
g82
I4
ssg83
g1566
sg76
(lp1573
g236
asbasbasbag69
(g85
g71
NtRp1574
(dp1575
g74
(dp1576
sg83
g1055
sg76
(lp1577
g69
(g90
g71
NtRp1578
(dp1579
g74
(dp1580
g94
g95
ssg83
g1574
sg76
(lp1581
S'remote_port'
p1582
asbag69
(g90
g71
NtRp1583
(dp1584
g74
(dp1585
g101
g102
ssg83
g1574
sg76
(lp1586
S':'
asbag69
(g90
g71
NtRp1587
(dp1588
g74
(dp1589
sg83
g1574
sg76
(lp1590
g69
(g70
g71
NtRp1591
(dp1592
g74
(dp1593
g82
I4
ssg83
g1587
sg76
(lp1594
S'57457'
p1595
asbasbasbag69
(g85
g71
NtRp1596
(dp1597
g74
(dp1598
sg83
g1055
sg76
(lp1599
g69
(g90
g71
NtRp1600
(dp1601
g74
(dp1602
g94
g95
ssg83
g1596
sg76
(lp1603
S'request_method'
p1604
asbag69
(g90
g71
NtRp1605
(dp1606
g74
(dp1607
g101
g102
ssg83
g1596
sg76
(lp1608
S':'
asbag69
(g90
g71
NtRp1609
(dp1610
g74
(dp1611
sg83
g1596
sg76
(lp1612
g69
(g70
g71
NtRp1613
(dp1614
g74
(dp1615
g82
I4
ssg83
g1609
sg76
(lp1616
S'GET'
p1617
asbasbasbag69
(g85
g71
NtRp1618
(dp1619
g74
(dp1620
sg83
g1055
sg76
(lp1621
g69
(g90
g71
NtRp1622
(dp1623
g74
(dp1624
g94
g95
ssg83
g1618
sg76
(lp1625
S'request_uri'
p1626
asbag69
(g90
g71
NtRp1627
(dp1628
g74
(dp1629
g101
g102
ssg83
g1618
sg76
(lp1630
S':'
asbag69
(g90
g71
NtRp1631
(dp1632
g74
(dp1633
sg83
g1618
sg76
(lp1634
g69
(g70
g71
NtRp1635
(dp1636
g74
(dp1637
g82
I4
ssg83
g1631
sg76
(lp1638
S'/projeto/initial/show_cliente/u'
p1639
asbasbasbag69
(g85
g71
NtRp1640
(dp1641
g74
(dp1642
sg83
g1055
sg76
(lp1643
g69
(g90
g71
NtRp1644
(dp1645
g74
(dp1646
g94
g95
ssg83
g1640
sg76
(lp1647
S'script_name'
p1648
asbag69
(g90
g71
NtRp1649
(dp1650
g74
(dp1651
g101
g102
ssg83
g1640
sg76
(lp1652
S':'
asbag69
(g90
g71
NtRp1653
(dp1654
g74
(dp1655
sg83
g1640
sg76
(lp1656
g69
(g70
g71
NtRp1657
(dp1658
g74
(dp1659
g82
I4
ssg83
g1653
sg76
(lp1660
S''
asbasbasbag69
(g85
g71
NtRp1661
(dp1662
g74
(dp1663
sg83
g1055
sg76
(lp1664
g69
(g90
g71
NtRp1665
(dp1666
g74
(dp1667
g94
g95
ssg83
g1661
sg76
(lp1668
S'server_name'
p1669
asbag69
(g90
g71
NtRp1670
(dp1671
g74
(dp1672
g101
g102
ssg83
g1661
sg76
(lp1673
S':'
asbag69
(g90
g71
NtRp1674
(dp1675
g74
(dp1676
sg83
g1661
sg76
(lp1677
g69
(g70
g71
NtRp1678
(dp1679
g74
(dp1680
g82
I4
ssg83
g1674
sg76
(lp1681
S'fernando-workstation'
p1682
asbasbasbag69
(g85
g71
NtRp1683
(dp1684
g74
(dp1685
sg83
g1055
sg76
(lp1686
g69
(g90
g71
NtRp1687
(dp1688
g74
(dp1689
g94
g95
ssg83
g1683
sg76
(lp1690
S'server_port'
p1691
asbag69
(g90
g71
NtRp1692
(dp1693
g74
(dp1694
g101
g102
ssg83
g1683
sg76
(lp1695
S':'
asbag69
(g90
g71
NtRp1696
(dp1697
g74
(dp1698
sg83
g1683
sg76
(lp1699
g69
(g70
g71
NtRp1700
(dp1701
g74
(dp1702
g82
I4
ssg83
g1696
sg76
(lp1703
S'8000'
p1704
asbasbasbag69
(g85
g71
NtRp1705
(dp1706
g74
(dp1707
sg83
g1055
sg76
(lp1708
g69
(g90
g71
NtRp1709
(dp1710
g74
(dp1711
g94
g95
ssg83
g1705
sg76
(lp1712
S'server_protocol'
p1713
asbag69
(g90
g71
NtRp1714
(dp1715
g74
(dp1716
g101
g102
ssg83
g1705
sg76
(lp1717
S':'
asbag69
(g90
g71
NtRp1718
(dp1719
g74
(dp1720
sg83
g1705
sg76
(lp1721
g69
(g70
g71
NtRp1722
(dp1723
g74
(dp1724
g82
I4
ssg83
g1718
sg76
(lp1725
S'HTTP/1.1'
p1726
asbasbasbag69
(g85
g71
NtRp1727
(dp1728
g74
(dp1729
sg83
g1055
sg76
(lp1730
g69
(g90
g71
NtRp1731
(dp1732
g74
(dp1733
g94
g95
ssg83
g1727
sg76
(lp1734
S'server_software'
p1735
asbag69
(g90
g71
NtRp1736
(dp1737
g74
(dp1738
g101
g102
ssg83
g1727
sg76
(lp1739
S':'
asbag69
(g90
g71
NtRp1740
(dp1741
g74
(dp1742
sg83
g1727
sg76
(lp1743
g69
(g70
g71
NtRp1744
(dp1745
g74
(dp1746
g82
I4
ssg83
g1740
sg76
(lp1747
S'Rocket 1.2.6'
p1748
asbasbasbag69
(g85
g71
NtRp1749
(dp1750
g74
(dp1751
sg83
g1055
sg76
(lp1752
g69
(g90
g71
NtRp1753
(dp1754
g74
(dp1755
g94
g95
ssg83
g1749
sg76
(lp1756
S'web2py_original_uri'
p1757
asbag69
(g90
g71
NtRp1758
(dp1759
g74
(dp1760
g101
g102
ssg83
g1749
sg76
(lp1761
S':'
asbag69
(g90
g71
NtRp1762
(dp1763
g74
(dp1764
sg83
g1749
sg76
(lp1765
g69
(g70
g71
NtRp1766
(dp1767
g74
(dp1768
g82
I4
ssg83
g1762
sg76
(lp1769
g1531
asbasbasbag69
(g85
g71
NtRp1770
(dp1771
g74
(dp1772
sg83
g1055
sg76
(lp1773
g69
(g90
g71
NtRp1774
(dp1775
g74
(dp1776
g94
g95
ssg83
g1770
sg76
(lp1777
S'web2py_path'
p1778
asbag69
(g90
g71
NtRp1779
(dp1780
g74
(dp1781
g101
g102
ssg83
g1770
sg76
(lp1782
S':'
asbag69
(g90
g71
NtRp1783
(dp1784
g74
(dp1785
sg83
g1770
sg76
(lp1786
g69
(g70
g71
NtRp1787
(dp1788
g74
(dp1789
g82
I4
ssg83
g1783
sg76
(lp1790
g1102
asbasbasbag69
(g85
g71
NtRp1791
(dp1792
g74
(dp1793
sg83
g1055
sg76
(lp1794
g69
(g90
g71
NtRp1795
(dp1796
g74
(dp1797
g94
g95
ssg83
g1791
sg76
(lp1798
S'web2py_version'
p1799
asbag69
(g90
g71
NtRp1800
(dp1801
g74
(dp1802
g101
g102
ssg83
g1791
sg76
(lp1803
S':'
asbag69
(g90
g71
NtRp1804
(dp1805
g74
(dp1806
sg83
g1791
sg76
(lp1807
g69
(g70
g71
NtRp1808
(dp1809
g74
(dp1810
g82
I4
ssg83
g1804
sg76
(lp1811
g69
(g78
g71
NtRp1812
(dp1813
g74
(dp1814
g82
I3
ssg83
Nsg76
(lp1815
g69
(g85
g71
NtRp1816
(dp1817
g74
(dp1818
sg83
g1812
sg76
(lp1819
g69
(g90
g71
NtRp1820
(dp1821
g74
(dp1822
sg83
g1816
sg76
(lp1823
g69
(g70
g71
NtRp1824
(dp1825
g74
(dp1826
g82
I3
ssg83
g1820
sg76
(lp1827
S'2'
asbasbasbag69
(g85
g71
NtRp1828
(dp1829
g74
(dp1830
sg83
g1812
sg76
(lp1831
g69
(g90
g71
NtRp1832
(dp1833
g74
(dp1834
sg83
g1828
sg76
(lp1835
g69
(g70
g71
NtRp1836
(dp1837
g74
(dp1838
g82
I3
ssg83
g1832
sg76
(lp1839
S'3'
asbasbasbag69
(g85
g71
NtRp1840
(dp1841
g74
(dp1842
sg83
g1812
sg76
(lp1843
g69
(g90
g71
NtRp1844
(dp1845
g74
(dp1846
sg83
g1840
sg76
(lp1847
g69
(g70
g71
NtRp1848
(dp1849
g74
(dp1850
g82
I3
ssg83
g1844
sg76
(lp1851
S'2'
asbasbasbag69
(g85
g71
NtRp1852
(dp1853
g74
(dp1854
sg83
g1812
sg76
(lp1855
g69
(g90
g71
NtRp1856
(dp1857
g74
(dp1858
sg83
g1852
sg76
(lp1859
g69
(g70
g71
NtRp1860
(dp1861
g74
(dp1862
g82
I3
ssg83
g1856
sg76
(lp1863
S'datetime.datetime(2012, 12, 17, 15, 3, 30)'
p1864
asbasbasbag69
(g85
g71
NtRp1865
(dp1866
g74
(dp1867
sg83
g1812
sg76
(lp1868
g69
(g90
g71
NtRp1869
(dp1870
g74
(dp1871
sg83
g1865
sg76
(lp1872
g69
(g70
g71
NtRp1873
(dp1874
g74
(dp1875
g82
I3
ssg83
g1869
sg76
(lp1876
S'stable'
p1877
asbasbasbasbasbasbasbag69
(g85
g71
NtRp1878
(dp1879
g74
(dp1880
sg83
g1055
sg76
(lp1881
g69
(g90
g71
NtRp1882
(dp1883
g74
(dp1884
g94
g95
ssg83
g1878
sg76
(lp1885
S'wsgi_errors'
p1886
asbag69
(g90
g71
NtRp1887
(dp1888
g74
(dp1889
g101
g102
ssg83
g1878
sg76
(lp1890
S':'
asbag69
(g90
g71
NtRp1891
(dp1892
g74
(dp1893
sg83
g1878
sg76
(lp1894
g69
(g70
g71
NtRp1895
(dp1896
g74
(dp1897
g82
I4
ssg83
g1891
sg76
(lp1898
S"<open file '<stderr>', mode 'w' at 0x7f9af6051270>"
p1899
asbasbasbag69
(g85
g71
NtRp1900
(dp1901
g74
(dp1902
sg83
g1055
sg76
(lp1903
g69
(g90
g71
NtRp1904
(dp1905
g74
(dp1906
g94
g95
ssg83
g1900
sg76
(lp1907
S'wsgi_file_wrapper'
p1908
asbag69
(g90
g71
NtRp1909
(dp1910
g74
(dp1911
g101
g102
ssg83
g1900
sg76
(lp1912
S':'
asbag69
(g90
g71
NtRp1913
(dp1914
g74
(dp1915
sg83
g1900
sg76
(lp1916
g69
(g70
g71
NtRp1917
(dp1918
g74
(dp1919
g82
I4
ssg83
g1913
sg76
(lp1920
S'<class wsgiref.util.FileWrapper at 0x272d460>'
p1921
asbasbasbag69
(g85
g71
NtRp1922
(dp1923
g74
(dp1924
sg83
g1055
sg76
(lp1925
g69
(g90
g71
NtRp1926
(dp1927
g74
(dp1928
g94
g95
ssg83
g1922
sg76
(lp1929
S'wsgi_input'
p1930
asbag69
(g90
g71
NtRp1931
(dp1932
g74
(dp1933
g101
g102
ssg83
g1922
sg76
(lp1934
S':'
asbag69
(g90
g71
NtRp1935
(dp1936
g74
(dp1937
sg83
g1922
sg76
(lp1938
g69
(g70
g71
NtRp1939
(dp1940
g74
(dp1941
g82
I4
ssg83
g1935
sg76
(lp1942
S'<socket._fileobject object at 0x7f9adc6f0dd0>'
p1943
asbasbasbag69
(g85
g71
NtRp1944
(dp1945
g74
(dp1946
sg83
g1055
sg76
(lp1947
g69
(g90
g71
NtRp1948
(dp1949
g74
(dp1950
g94
g95
ssg83
g1944
sg76
(lp1951
S'wsgi_multiprocess'
p1952
asbag69
(g90
g71
NtRp1953
(dp1954
g74
(dp1955
g101
g102
ssg83
g1944
sg76
(lp1956
S':'
asbag69
(g90
g71
NtRp1957
(dp1958
g74
(dp1959
sg83
g1944
sg76
(lp1960
g69
(g70
g71
NtRp1961
(dp1962
g74
(dp1963
g82
I4
ssg83
g1957
sg76
(lp1964
g112
asbasbasbag69
(g85
g71
NtRp1965
(dp1966
g74
(dp1967
sg83
g1055
sg76
(lp1968
g69
(g90
g71
NtRp1969
(dp1970
g74
(dp1971
g94
g95
ssg83
g1965
sg76
(lp1972
S'wsgi_multithread'
p1973
asbag69
(g90
g71
NtRp1974
(dp1975
g74
(dp1976
g101
g102
ssg83
g1965
sg76
(lp1977
S':'
asbag69
(g90
g71
NtRp1978
(dp1979
g74
(dp1980
sg83
g1965
sg76
(lp1981
g69
(g70
g71
NtRp1982
(dp1983
g74
(dp1984
g82
I4
ssg83
g1978
sg76
(lp1985
S'True'
p1986
asbasbasbag69
(g85
g71
NtRp1987
(dp1988
g74
(dp1989
sg83
g1055
sg76
(lp1990
g69
(g90
g71
NtRp1991
(dp1992
g74
(dp1993
g94
g95
ssg83
g1987
sg76
(lp1994
S'wsgi_run_once'
p1995
asbag69
(g90
g71
NtRp1996
(dp1997
g74
(dp1998
g101
g102
ssg83
g1987
sg76
(lp1999
S':'
asbag69
(g90
g71
NtRp2000
(dp2001
g74
(dp2002
sg83
g1987
sg76
(lp2003
g69
(g70
g71
NtRp2004
(dp2005
g74
(dp2006
g82
I4
ssg83
g2000
sg76
(lp2007
g112
asbasbasbag69
(g85
g71
NtRp2008
(dp2009
g74
(dp2010
sg83
g1055
sg76
(lp2011
g69
(g90
g71
NtRp2012
(dp2013
g74
(dp2014
g94
g95
ssg83
g2008
sg76
(lp2015
S'wsgi_url_scheme'
p2016
asbag69
(g90
g71
NtRp2017
(dp2018
g74
(dp2019
g101
g102
ssg83
g2008
sg76
(lp2020
S':'
asbag69
(g90
g71
NtRp2021
(dp2022
g74
(dp2023
sg83
g2008
sg76
(lp2024
g69
(g70
g71
NtRp2025
(dp2026
g74
(dp2027
g82
I4
ssg83
g2021
sg76
(lp2028
S'http'
p2029
asbasbasbag69
(g85
g71
NtRp2030
(dp2031
g74
(dp2032
sg83
g1055
sg76
(lp2033
g69
(g90
g71
NtRp2034
(dp2035
g74
(dp2036
g94
g95
ssg83
g2030
sg76
(lp2037
S'wsgi_version'
p2038
asbag69
(g90
g71
NtRp2039
(dp2040
g74
(dp2041
g101
g102
ssg83
g2030
sg76
(lp2042
S':'
asbag69
(g90
g71
NtRp2043
(dp2044
g74
(dp2045
sg83
g2030
sg76
(lp2046
g69
(g70
g71
NtRp2047
(dp2048
g74
(dp2049
g82
I4
ssg83
g2043
sg76
(lp2050
g69
(g78
g71
NtRp2051
(dp2052
g74
(dp2053
g82
I3
ssg83
Nsg76
(lp2054
g69
(g85
g71
NtRp2055
(dp2056
g74
(dp2057
sg83
g2051
sg76
(lp2058
g69
(g90
g71
NtRp2059
(dp2060
g74
(dp2061
sg83
g2055
sg76
(lp2062
g69
(g70
g71
NtRp2063
(dp2064
g74
(dp2065
g82
I3
ssg83
g2059
sg76
(lp2066
S'1'
asbasbasbag69
(g85
g71
NtRp2067
(dp2068
g74
(dp2069
sg83
g2051
sg76
(lp2070
g69
(g90
g71
NtRp2071
(dp2072
g74
(dp2073
sg83
g2067
sg76
(lp2074
g69
(g70
g71
NtRp2075
(dp2076
g74
(dp2077
g82
I3
ssg83
g2071
sg76
(lp2078
S'0'
asbasbasbasbasbasbasbasbasbasbasbag69
(g85
g71
NtRp2079
(dp2080
g74
(dp2081
sg83
g79
sg76
(lp2082
g69
(g90
g71
NtRp2083
(dp2084
g74
(dp2085
g94
g95
ssg83
g2079
sg76
(lp2086
S'extension'
p2087
asbag69
(g90
g71
NtRp2088
(dp2089
g74
(dp2090
g101
g102
ssg83
g2079
sg76
(lp2091
S':'
asbag69
(g90
g71
NtRp2092
(dp2093
g74
(dp2094
sg83
g2079
sg76
(lp2095
g69
(g70
g71
NtRp2096
(dp2097
g74
(dp2098
g82
I5
ssg83
g2092
sg76
(lp2099
S'html'
p2100
asbasbasbag69
(g85
g71
NtRp2101
(dp2102
g74
(dp2103
sg83
g79
sg76
(lp2104
g69
(g90
g71
NtRp2105
(dp2106
g74
(dp2107
g94
g95
ssg83
g2101
sg76
(lp2108
S'folder'
p2109
asbag69
(g90
g71
NtRp2110
(dp2111
g74
(dp2112
g101
g102
ssg83
g2101
sg76
(lp2113
S':'
asbag69
(g90
g71
NtRp2114
(dp2115
g74
(dp2116
sg83
g2101
sg76
(lp2117
g69
(g70
g71
NtRp2118
(dp2119
g74
(dp2120
g82
I5
ssg83
g2114
sg76
(lp2121
S'/var/www/hosts3/applications/projeto/'
p2122
asbasbasbag69
(g85
g71
NtRp2123
(dp2124
g74
(dp2125
sg83
g79
sg76
(lp2126
g69
(g90
g71
NtRp2127
(dp2128
g74
(dp2129
g94
g95
ssg83
g2123
sg76
(lp2130
S'function'
p2131
asbag69
(g90
g71
NtRp2132
(dp2133
g74
(dp2134
g101
g102
ssg83
g2123
sg76
(lp2135
S':'
asbag69
(g90
g71
NtRp2136
(dp2137
g74
(dp2138
sg83
g2123
sg76
(lp2139
g69
(g70
g71
NtRp2140
(dp2141
g74
(dp2142
g82
I5
ssg83
g2136
sg76
(lp2143
S'show_cliente'
p2144
asbasbasbag69
(g85
g71
NtRp2145
(dp2146
g74
(dp2147
sg83
g79
sg76
(lp2148
g69
(g90
g71
NtRp2149
(dp2150
g74
(dp2151
g94
g95
ssg83
g2145
sg76
(lp2152
S'get_vars'
p2153
asbag69
(g90
g71
NtRp2154
(dp2155
g74
(dp2156
g101
g102
ssg83
g2145
sg76
(lp2157
S':'
asbag69
(g90
g71
NtRp2158
(dp2159
g74
(dp2160
sg83
g2145
sg76
(lp2161
g69
(g70
g71
NtRp2162
(dp2163
g74
(dp2164
g82
I5
ssg83
g2158
sg76
(lp2165
g69
(g78
g71
NtRp2166
(dp2167
g74
(dp2168
g82
I4
ssg83
Nsg76
(lp2169
sbasbasbasbag69
(g85
g71
NtRp2170
(dp2171
g74
(dp2172
sg83
g79
sg76
(lp2173
g69
(g90
g71
NtRp2174
(dp2175
g74
(dp2176
g94
g95
ssg83
g2170
sg76
(lp2177
S'global_settings'
p2178
asbag69
(g90
g71
NtRp2179
(dp2180
g74
(dp2181
g101
g102
ssg83
g2170
sg76
(lp2182
S':'
asbag69
(g90
g71
NtRp2183
(dp2184
g74
(dp2185
sg83
g2170
sg76
(lp2186
g69
(g70
g71
NtRp2187
(dp2188
g74
(dp2189
g82
I5
ssg83
g2183
sg76
(lp2190
g69
(g78
g71
NtRp2191
(dp2192
g74
(dp2193
g82
I4
ssg83
Nsg76
(lp2194
g69
(g85
g71
NtRp2195
(dp2196
g74
(dp2197
sg83
g2191
sg76
(lp2198
g69
(g90
g71
NtRp2199
(dp2200
g74
(dp2201
g94
g95
ssg83
g2195
sg76
(lp2202
g1067
asbag69
(g90
g71
NtRp2203
(dp2204
g74
(dp2205
g101
g102
ssg83
g2195
sg76
(lp2206
S':'
asbag69
(g90
g71
NtRp2207
(dp2208
g74
(dp2209
sg83
g2195
sg76
(lp2210
g69
(g70
g71
NtRp2211
(dp2212
g74
(dp2213
g82
I4
ssg83
g2207
sg76
(lp2214
S"set(['/var/www/hosts3/applications/admin/', '/var/www/hosts3/applications/projeto/'])"
p2215
asbasbasbag69
(g85
g71
NtRp2216
(dp2217
g74
(dp2218
sg83
g2191
sg76
(lp2219
g69
(g90
g71
NtRp2220
(dp2221
g74
(dp2222
g94
g95
ssg83
g2216
sg76
(lp2223
g1089
asbag69
(g90
g71
NtRp2224
(dp2225
g74
(dp2226
g101
g102
ssg83
g2216
sg76
(lp2227
S':'
asbag69
(g90
g71
NtRp2228
(dp2229
g74
(dp2230
sg83
g2216
sg76
(lp2231
g69
(g70
g71
NtRp2232
(dp2233
g74
(dp2234
g82
I4
ssg83
g2228
sg76
(lp2235
g1102
asbasbasbag69
(g85
g71
NtRp2236
(dp2237
g74
(dp2238
sg83
g2191
sg76
(lp2239
g69
(g90
g71
NtRp2240
(dp2241
g74
(dp2242
g94
g95
ssg83
g2236
sg76
(lp2243
g1111
asbag69
(g90
g71
NtRp2244
(dp2245
g74
(dp2246
g101
g102
ssg83
g2236
sg76
(lp2247
S':'
asbag69
(g90
g71
NtRp2248
(dp2249
g74
(dp2250
sg83
g2236
sg76
(lp2251
g69
(g70
g71
NtRp2252
(dp2253
g74
(dp2254
g82
I4
ssg83
g2248
sg76
(lp2255
g69
(g78
g71
NtRp2256
(dp2257
g74
(dp2258
g82
I3
ssg83
Nsg76
(lp2259
sbasbasbasbag69
(g85
g71
NtRp2260
(dp2261
g74
(dp2262
sg83
g2191
sg76
(lp2263
g69
(g90
g71
NtRp2264
(dp2265
g74
(dp2266
g94
g95
ssg83
g2260
sg76
(lp2267
g1136
asbag69
(g90
g71
NtRp2268
(dp2269
g74
(dp2270
g101
g102
ssg83
g2260
sg76
(lp2271
S':'
asbag69
(g90
g71
NtRp2272
(dp2273
g74
(dp2274
sg83
g2260
sg76
(lp2275
g69
(g70
g71
NtRp2276
(dp2277
g74
(dp2278
g82
I4
ssg83
g2272
sg76
(lp2279
S"<Values at 0x27b56c8: {'verbose': False, 'ip': '127.0.0.1', 'with_scheduler': False, 'ips': [], 'shutdown_timeout': 5, 'taskbar': False, 'port': 8000, 'maxthreads': None, 'softcron': False, 'server_name': 'fernando-workstation', 'bpython': False, 'nogui': False, 'pid_filename': 'httpserver.pid', 'extcron': False, 'runcron': False, 'run_system_tests': False, 'test': None, 'folder': '/var/www/hosts3', 'config': '', 'minthreads': None, 'winservice': '', 'shell': None, 'run': '', 'log_filename': 'httpserver.log', 'debuglevel': 30, 'args': [''], 'socket_timeout': 5, 'ssl_ca_certificate': None, 'scheduler': None, 'profiler_filename': None, 'ssl_private_key': '', 'scheduler_groups': None, 'password': '123456', 'request_queue_size': 5, 'ssl_certificate': '', 'cronjob': False, 'numthreads': None, 'quiet': False, 'interfaces': None, 'import_models': False, 'timeout': 10, 'plain': False, 'nobanner': False}>"
p2280
asbasbasbag69
(g85
g71
NtRp2281
(dp2282
g74
(dp2283
sg83
g2191
sg76
(lp2284
g69
(g90
g71
NtRp2285
(dp2286
g74
(dp2287
g94
g95
ssg83
g2281
sg76
(lp2288
g1158
asbag69
(g90
g71
NtRp2289
(dp2290
g74
(dp2291
g101
g102
ssg83
g2281
sg76
(lp2292
S':'
asbag69
(g90
g71
NtRp2293
(dp2294
g74
(dp2295
sg83
g2281
sg76
(lp2296
g69
(g70
g71
NtRp2297
(dp2298
g74
(dp2299
g82
I4
ssg83
g2293
sg76
(lp2300
S'set([])'
p2301
asbasbasbag69
(g85
g71
NtRp2302
(dp2303
g74
(dp2304
sg83
g2191
sg76
(lp2305
g69
(g90
g71
NtRp2306
(dp2307
g74
(dp2308
g94
g95
ssg83
g2302
sg76
(lp2309
g1180
asbag69
(g90
g71
NtRp2310
(dp2311
g74
(dp2312
g101
g102
ssg83
g2302
sg76
(lp2313
S':'
asbag69
(g90
g71
NtRp2314
(dp2315
g74
(dp2316
sg83
g2302
sg76
(lp2317
g69
(g70
g71
NtRp2318
(dp2319
g74
(dp2320
g82
I4
ssg83
g2314
sg76
(lp2321
g112
asbasbasbag69
(g85
g71
NtRp2322
(dp2323
g74
(dp2324
sg83
g2191
sg76
(lp2325
g69
(g90
g71
NtRp2326
(dp2327
g74
(dp2328
g94
g95
ssg83
g2322
sg76
(lp2329
g1201
asbag69
(g90
g71
NtRp2330
(dp2331
g74
(dp2332
g101
g102
ssg83
g2322
sg76
(lp2333
S':'
asbag69
(g90
g71
NtRp2334
(dp2335
g74
(dp2336
sg83
g2322
sg76
(lp2337
g69
(g70
g71
NtRp2338
(dp2339
g74
(dp2340
g82
I4
ssg83
g2334
sg76
(lp2341
g1214
asbasbasbag69
(g85
g71
NtRp2342
(dp2343
g74
(dp2344
sg83
g2191
sg76
(lp2345
g69
(g90
g71
NtRp2346
(dp2347
g74
(dp2348
g94
g95
ssg83
g2342
sg76
(lp2349
g1399
asbag69
(g90
g71
NtRp2350
(dp2351
g74
(dp2352
g101
g102
ssg83
g2342
sg76
(lp2353
S':'
asbag69
(g90
g71
NtRp2354
(dp2355
g74
(dp2356
sg83
g2342
sg76
(lp2357
g69
(g70
g71
NtRp2358
(dp2359
g74
(dp2360
g82
I4
ssg83
g2354
sg76
(lp2361
g112
asbasbasbag69
(g85
g71
NtRp2362
(dp2363
g74
(dp2364
sg83
g2191
sg76
(lp2365
g69
(g90
g71
NtRp2366
(dp2367
g74
(dp2368
g94
g95
ssg83
g2362
sg76
(lp2369
g1420
asbag69
(g90
g71
NtRp2370
(dp2371
g74
(dp2372
g101
g102
ssg83
g2362
sg76
(lp2373
S':'
asbag69
(g90
g71
NtRp2374
(dp2375
g74
(dp2376
sg83
g2362
sg76
(lp2377
g69
(g70
g71
NtRp2378
(dp2379
g74
(dp2380
g82
I4
ssg83
g2374
sg76
(lp2381
g112
asbasbasbag69
(g85
g71
NtRp2382
(dp2383
g74
(dp2384
sg83
g2191
sg76
(lp2385
g69
(g90
g71
NtRp2386
(dp2387
g74
(dp2388
g94
g95
ssg83
g2382
sg76
(lp2389
g1441
asbag69
(g90
g71
NtRp2390
(dp2391
g74
(dp2392
g101
g102
ssg83
g2382
sg76
(lp2393
S':'
asbag69
(g90
g71
NtRp2394
(dp2395
g74
(dp2396
sg83
g2382
sg76
(lp2397
g69
(g70
g71
NtRp2398
(dp2399
g74
(dp2400
g82
I4
ssg83
g2394
sg76
(lp2401
g69
(g78
g71
NtRp2402
(dp2403
g74
(dp2404
g82
I3
ssg83
Nsg76
(lp2405
g69
(g85
g71
NtRp2406
(dp2407
g74
(dp2408
sg83
g2402
sg76
(lp2409
g69
(g90
g71
NtRp2410
(dp2411
g74
(dp2412
sg83
g2406
sg76
(lp2413
g69
(g70
g71
NtRp2414
(dp2415
g74
(dp2416
g82
I3
ssg83
g2410
sg76
(lp2417
g1470
asbasbasbag69
(g85
g71
NtRp2418
(dp2419
g74
(dp2420
sg83
g2402
sg76
(lp2421
g69
(g90
g71
NtRp2422
(dp2423
g74
(dp2424
sg83
g2418
sg76
(lp2425
g69
(g70
g71
NtRp2426
(dp2427
g74
(dp2428
g82
I3
ssg83
g2422
sg76
(lp2429
g1483
asbasbasbag69
(g85
g71
NtRp2430
(dp2431
g74
(dp2432
sg83
g2402
sg76
(lp2433
g69
(g90
g71
NtRp2434
(dp2435
g74
(dp2436
sg83
g2430
sg76
(lp2437
g69
(g70
g71
NtRp2438
(dp2439
g74
(dp2440
g82
I3
ssg83
g2434
sg76
(lp2441
g1496
asbasbasbag69
(g85
g71
NtRp2442
(dp2443
g74
(dp2444
sg83
g2402
sg76
(lp2445
g69
(g90
g71
NtRp2446
(dp2447
g74
(dp2448
sg83
g2442
sg76
(lp2449
g69
(g70
g71
NtRp2450
(dp2451
g74
(dp2452
g82
I3
ssg83
g2446
sg76
(lp2453
g1509
asbasbasbasbasbasbasbag69
(g85
g71
NtRp2454
(dp2455
g74
(dp2456
sg83
g2191
sg76
(lp2457
g69
(g90
g71
NtRp2458
(dp2459
g74
(dp2460
g94
g95
ssg83
g2454
sg76
(lp2461
g1799
asbag69
(g90
g71
NtRp2462
(dp2463
g74
(dp2464
g101
g102
ssg83
g2454
sg76
(lp2465
S':'
asbag69
(g90
g71
NtRp2466
(dp2467
g74
(dp2468
sg83
g2454
sg76
(lp2469
g69
(g70
g71
NtRp2470
(dp2471
g74
(dp2472
g82
I4
ssg83
g2466
sg76
(lp2473
g69
(g78
g71
NtRp2474
(dp2475
g74
(dp2476
g82
I3
ssg83
Nsg76
(lp2477
g69
(g85
g71
NtRp2478
(dp2479
g74
(dp2480
sg83
g2474
sg76
(lp2481
g69
(g90
g71
NtRp2482
(dp2483
g74
(dp2484
sg83
g2478
sg76
(lp2485
g69
(g70
g71
NtRp2486
(dp2487
g74
(dp2488
g82
I3
ssg83
g2482
sg76
(lp2489
S'2'
asbasbasbag69
(g85
g71
NtRp2490
(dp2491
g74
(dp2492
sg83
g2474
sg76
(lp2493
g69
(g90
g71
NtRp2494
(dp2495
g74
(dp2496
sg83
g2490
sg76
(lp2497
g69
(g70
g71
NtRp2498
(dp2499
g74
(dp2500
g82
I3
ssg83
g2494
sg76
(lp2501
S'3'
asbasbasbag69
(g85
g71
NtRp2502
(dp2503
g74
(dp2504
sg83
g2474
sg76
(lp2505
g69
(g90
g71
NtRp2506
(dp2507
g74
(dp2508
sg83
g2502
sg76
(lp2509
g69
(g70
g71
NtRp2510
(dp2511
g74
(dp2512
g82
I3
ssg83
g2506
sg76
(lp2513
S'2'
asbasbasbag69
(g85
g71
NtRp2514
(dp2515
g74
(dp2516
sg83
g2474
sg76
(lp2517
g69
(g90
g71
NtRp2518
(dp2519
g74
(dp2520
sg83
g2514
sg76
(lp2521
g69
(g70
g71
NtRp2522
(dp2523
g74
(dp2524
g82
I3
ssg83
g2518
sg76
(lp2525
S'datetime.datetime(2012, 12, 17, 15, 3, 30)'
p2526
asbasbasbag69
(g85
g71
NtRp2527
(dp2528
g74
(dp2529
sg83
g2474
sg76
(lp2530
g69
(g90
g71
NtRp2531
(dp2532
g74
(dp2533
sg83
g2527
sg76
(lp2534
g69
(g70
g71
NtRp2535
(dp2536
g74
(dp2537
g82
I3
ssg83
g2531
sg76
(lp2538
g1877
asbasbasbasbasbasbasbasbasbasbasbag69
(g85
g71
NtRp2539
(dp2540
g74
(dp2541
sg83
g79
sg76
(lp2542
g69
(g90
g71
NtRp2543
(dp2544
g74
(dp2545
g94
g95
ssg83
g2539
sg76
(lp2546
S'is_https'
p2547
asbag69
(g90
g71
NtRp2548
(dp2549
g74
(dp2550
g101
g102
ssg83
g2539
sg76
(lp2551
S':'
asbag69
(g90
g71
NtRp2552
(dp2553
g74
(dp2554
sg83
g2539
sg76
(lp2555
g69
(g70
g71
NtRp2556
(dp2557
g74
(dp2558
g82
I5
ssg83
g2552
sg76
(lp2559
g112
asbasbasbag69
(g85
g71
NtRp2560
(dp2561
g74
(dp2562
sg83
g79
sg76
(lp2563
g69
(g90
g71
NtRp2564
(dp2565
g74
(dp2566
g94
g95
ssg83
g2560
sg76
(lp2567
S'is_local'
p2568
asbag69
(g90
g71
NtRp2569
(dp2570
g74
(dp2571
g101
g102
ssg83
g2560
sg76
(lp2572
S':'
asbag69
(g90
g71
NtRp2573
(dp2574
g74
(dp2575
sg83
g2560
sg76
(lp2576
g69
(g70
g71
NtRp2577
(dp2578
g74
(dp2579
g82
I5
ssg83
g2573
sg76
(lp2580
g1986
asbasbasbag69
(g85
g71
NtRp2581
(dp2582
g74
(dp2583
sg83
g79
sg76
(lp2584
g69
(g90
g71
NtRp2585
(dp2586
g74
(dp2587
g94
g95
ssg83
g2581
sg76
(lp2588
S'is_restful'
p2589
asbag69
(g90
g71
NtRp2590
(dp2591
g74
(dp2592
g101
g102
ssg83
g2581
sg76
(lp2593
S':'
asbag69
(g90
g71
NtRp2594
(dp2595
g74
(dp2596
sg83
g2581
sg76
(lp2597
g69
(g70
g71
NtRp2598
(dp2599
g74
(dp2600
g82
I5
ssg83
g2594
sg76
(lp2601
g112
asbasbasbag69
(g85
g71
NtRp2602
(dp2603
g74
(dp2604
sg83
g79
sg76
(lp2605
g69
(g90
g71
NtRp2606
(dp2607
g74
(dp2608
g94
g95
ssg83
g2602
sg76
(lp2609
S'now'
p2610
asbag69
(g90
g71
NtRp2611
(dp2612
g74
(dp2613
g101
g102
ssg83
g2602
sg76
(lp2614
S':'
asbag69
(g90
g71
NtRp2615
(dp2616
g74
(dp2617
sg83
g2602
sg76
(lp2618
g69
(g70
g71
NtRp2619
(dp2620
g74
(dp2621
g82
I5
ssg83
g2615
sg76
(lp2622
S'datetime.datetime(2013, 3, 7, 15, 17, 14, 764234)'
p2623
asbasbasbag69
(g85
g71
NtRp2624
(dp2625
g74
(dp2626
sg83
g79
sg76
(lp2627
g69
(g90
g71
NtRp2628
(dp2629
g74
(dp2630
g94
g95
ssg83
g2624
sg76
(lp2631
S'post_vars'
p2632
asbag69
(g90
g71
NtRp2633
(dp2634
g74
(dp2635
g101
g102
ssg83
g2624
sg76
(lp2636
S':'
asbag69
(g90
g71
NtRp2637
(dp2638
g74
(dp2639
sg83
g2624
sg76
(lp2640
g69
(g70
g71
NtRp2641
(dp2642
g74
(dp2643
g82
I5
ssg83
g2637
sg76
(lp2644
g69
(g78
g71
NtRp2645
(dp2646
g74
(dp2647
g82
I4
ssg83
Nsg76
(lp2648
sbasbasbasbag69
(g85
g71
NtRp2649
(dp2650
g74
(dp2651
sg83
g79
sg76
(lp2652
g69
(g90
g71
NtRp2653
(dp2654
g74
(dp2655
g94
g95
ssg83
g2649
sg76
(lp2656
S'url'
p2657
asbag69
(g90
g71
NtRp2658
(dp2659
g74
(dp2660
g101
g102
ssg83
g2649
sg76
(lp2661
S':'
asbag69
(g90
g71
NtRp2662
(dp2663
g74
(dp2664
sg83
g2649
sg76
(lp2665
g69
(g70
g71
NtRp2666
(dp2667
g74
(dp2668
g82
I5
ssg83
g2662
sg76
(lp2669
g1531
asbasbasbag69
(g85
g71
NtRp2670
(dp2671
g74
(dp2672
sg83
g79
sg76
(lp2673
g69
(g90
g71
NtRp2674
(dp2675
g74
(dp2676
g94
g95
ssg83
g2670
sg76
(lp2677
S'utcnow'
p2678
asbag69
(g90
g71
NtRp2679
(dp2680
g74
(dp2681
g101
g102
ssg83
g2670
sg76
(lp2682
S':'
asbag69
(g90
g71
NtRp2683
(dp2684
g74
(dp2685
sg83
g2670
sg76
(lp2686
g69
(g70
g71
NtRp2687
(dp2688
g74
(dp2689
g82
I5
ssg83
g2683
sg76
(lp2690
S'datetime.datetime(2013, 3, 7, 18, 17, 14, 764287)'
p2691
asbasbasbag69
(g85
g71
NtRp2692
(dp2693
g74
(dp2694
sg83
g79
sg76
(lp2695
g69
(g90
g71
NtRp2696
(dp2697
g74
(dp2698
g94
g95
ssg83
g2692
sg76
(lp2699
S'uuid'
p2700
asbag69
(g90
g71
NtRp2701
(dp2702
g74
(dp2703
g101
g102
ssg83
g2692
sg76
(lp2704
S':'
asbag69
(g90
g71
NtRp2705
(dp2706
g74
(dp2707
sg83
g2692
sg76
(lp2708
g69
(g70
g71
NtRp2709
(dp2710
g74
(dp2711
g82
I5
ssg83
g2705
sg76
(lp2712
S'projeto/127.0.0.1.2013-03-07.15-17-14.704b17ee-1b8e-4a01-88d7-485901410efb'
p2713
asbasbasbag69
(g85
g71
NtRp2714
(dp2715
g74
(dp2716
sg83
g79
sg76
(lp2717
g69
(g90
g71
NtRp2718
(dp2719
g74
(dp2720
g94
g95
ssg83
g2714
sg76
(lp2721
S'vars'
p2722
asbag69
(g90
g71
NtRp2723
(dp2724
g74
(dp2725
g101
g102
ssg83
g2714
sg76
(lp2726
S':'
asbag69
(g90
g71
NtRp2727
(dp2728
g74
(dp2729
sg83
g2714
sg76
(lp2730
g69
(g70
g71
NtRp2731
(dp2732
g74
(dp2733
g82
I5
ssg83
g2727
sg76
(lp2734
g69
(g78
g71
NtRp2735
(dp2736
g74
(dp2737
g82
I4
ssg83
Nsg76
(lp2738
sbasbasbasbag69
(g85
g71
NtRp2739
(dp2740
g74
(dp2741
sg83
g79
sg76
(lp2742
g69
(g90
g71
NtRp2743
(dp2744
g74
(dp2745
g94
g95
ssg83
g2739
sg76
(lp2746
S'wsgi'
p2747
asbag69
(g90
g71
NtRp2748
(dp2749
g74
(dp2750
g101
g102
ssg83
g2739
sg76
(lp2751
S':'
asbag69
(g90
g71
NtRp2752
(dp2753
g74
(dp2754
sg83
g2739
sg76
(lp2755
g69
(g70
g71
NtRp2756
(dp2757
g74
(dp2758
g82
I5
ssg83
g2752
sg76
(lp2759
g69
(g78
g71
NtRp2760
(dp2761
g74
(dp2762
g82
I4
ssg83
Nsg76
(lp2763
g69
(g85
g71
NtRp2764
(dp2765
g74
(dp2766
sg83
g2760
sg76
(lp2767
g69
(g90
g71
NtRp2768
(dp2769
g74
(dp2770
g94
g95
ssg83
g2764
sg76
(lp2771
S'environ'
p2772
asbag69
(g90
g71
NtRp2773
(dp2774
g74
(dp2775
g101
g102
ssg83
g2764
sg76
(lp2776
S':'
asbag69
(g90
g71
NtRp2777
(dp2778
g74
(dp2779
sg83
g2764
sg76
(lp2780
g69
(g70
g71
NtRp2781
(dp2782
g74
(dp2783
g82
I4
ssg83
g2777
sg76
(lp2784
g69
(g78
g71
NtRp2785
(dp2786
g74
(dp2787
g82
I3
ssg83
Nsg76
(lp2788
g69
(g85
g71
NtRp2789
(dp2790
g74
(dp2791
sg83
g2785
sg76
(lp2792
g69
(g90
g71
NtRp2793
(dp2794
g74
(dp2795
g94
g95
ssg83
g2789
sg76
(lp2796
S'HTTP_ACCEPT'
p2797
asbag69
(g90
g71
NtRp2798
(dp2799
g74
(dp2800
g101
g102
ssg83
g2789
sg76
(lp2801
S':'
asbag69
(g90
g71
NtRp2802
(dp2803
g74
(dp2804
sg83
g2789
sg76
(lp2805
g69
(g70
g71
NtRp2806
(dp2807
g74
(dp2808
g82
I3
ssg83
g2802
sg76
(lp2809
g1236
asbasbasbag69
(g85
g71
NtRp2810
(dp2811
g74
(dp2812
sg83
g2785
sg76
(lp2813
g69
(g90
g71
NtRp2814
(dp2815
g74
(dp2816
g94
g95
ssg83
g2810
sg76
(lp2817
S'HTTP_ACCEPT_CHARSET'
p2818
asbag69
(g90
g71
NtRp2819
(dp2820
g74
(dp2821
g101
g102
ssg83
g2810
sg76
(lp2822
S':'
asbag69
(g90
g71
NtRp2823
(dp2824
g74
(dp2825
sg83
g2810
sg76
(lp2826
g69
(g70
g71
NtRp2827
(dp2828
g74
(dp2829
g82
I3
ssg83
g2823
sg76
(lp2830
g1258
asbasbasbag69
(g85
g71
NtRp2831
(dp2832
g74
(dp2833
sg83
g2785
sg76
(lp2834
g69
(g90
g71
NtRp2835
(dp2836
g74
(dp2837
g94
g95
ssg83
g2831
sg76
(lp2838
S'HTTP_ACCEPT_ENCODING'
p2839
asbag69
(g90
g71
NtRp2840
(dp2841
g74
(dp2842
g101
g102
ssg83
g2831
sg76
(lp2843
S':'
asbag69
(g90
g71
NtRp2844
(dp2845
g74
(dp2846
sg83
g2831
sg76
(lp2847
g69
(g70
g71
NtRp2848
(dp2849
g74
(dp2850
g82
I3
ssg83
g2844
sg76
(lp2851
g1280
asbasbasbag69
(g85
g71
NtRp2852
(dp2853
g74
(dp2854
sg83
g2785
sg76
(lp2855
g69
(g90
g71
NtRp2856
(dp2857
g74
(dp2858
g94
g95
ssg83
g2852
sg76
(lp2859
S'HTTP_ACCEPT_LANGUAGE'
p2860
asbag69
(g90
g71
NtRp2861
(dp2862
g74
(dp2863
g101
g102
ssg83
g2852
sg76
(lp2864
S':'
asbag69
(g90
g71
NtRp2865
(dp2866
g74
(dp2867
sg83
g2852
sg76
(lp2868
g69
(g70
g71
NtRp2869
(dp2870
g74
(dp2871
g82
I3
ssg83
g2865
sg76
(lp2872
g1302
asbasbasbag69
(g85
g71
NtRp2873
(dp2874
g74
(dp2875
sg83
g2785
sg76
(lp2876
g69
(g90
g71
NtRp2877
(dp2878
g74
(dp2879
g94
g95
ssg83
g2873
sg76
(lp2880
S'HTTP_CONNECTION'
p2881
asbag69
(g90
g71
NtRp2882
(dp2883
g74
(dp2884
g101
g102
ssg83
g2873
sg76
(lp2885
S':'
asbag69
(g90
g71
NtRp2886
(dp2887
g74
(dp2888
sg83
g2873
sg76
(lp2889
g69
(g70
g71
NtRp2890
(dp2891
g74
(dp2892
g82
I3
ssg83
g2886
sg76
(lp2893
g1324
asbasbasbag69
(g85
g71
NtRp2894
(dp2895
g74
(dp2896
sg83
g2785
sg76
(lp2897
g69
(g90
g71
NtRp2898
(dp2899
g74
(dp2900
g94
g95
ssg83
g2894
sg76
(lp2901
S'HTTP_COOKIE'
p2902
asbag69
(g90
g71
NtRp2903
(dp2904
g74
(dp2905
g101
g102
ssg83
g2894
sg76
(lp2906
S':'
asbag69
(g90
g71
NtRp2907
(dp2908
g74
(dp2909
sg83
g2894
sg76
(lp2910
g69
(g70
g71
NtRp2911
(dp2912
g74
(dp2913
g82
I3
ssg83
g2907
sg76
(lp2914
g1346
asbasbasbag69
(g85
g71
NtRp2915
(dp2916
g74
(dp2917
sg83
g2785
sg76
(lp2918
g69
(g90
g71
NtRp2919
(dp2920
g74
(dp2921
g94
g95
ssg83
g2915
sg76
(lp2922
S'HTTP_HOST'
p2923
asbag69
(g90
g71
NtRp2924
(dp2925
g74
(dp2926
g101
g102
ssg83
g2915
sg76
(lp2927
S':'
asbag69
(g90
g71
NtRp2928
(dp2929
g74
(dp2930
sg83
g2915
sg76
(lp2931
g69
(g70
g71
NtRp2932
(dp2933
g74
(dp2934
g82
I3
ssg83
g2928
sg76
(lp2935
g1368
asbasbasbag69
(g85
g71
NtRp2936
(dp2937
g74
(dp2938
sg83
g2785
sg76
(lp2939
g69
(g90
g71
NtRp2940
(dp2941
g74
(dp2942
g94
g95
ssg83
g2936
sg76
(lp2943
S'HTTP_USER_AGENT'
p2944
asbag69
(g90
g71
NtRp2945
(dp2946
g74
(dp2947
g101
g102
ssg83
g2936
sg76
(lp2948
S':'
asbag69
(g90
g71
NtRp2949
(dp2950
g74
(dp2951
sg83
g2936
sg76
(lp2952
g69
(g70
g71
NtRp2953
(dp2954
g74
(dp2955
g82
I3
ssg83
g2949
sg76
(lp2956
g1390
asbasbasbag69
(g85
g71
NtRp2957
(dp2958
g74
(dp2959
sg83
g2785
sg76
(lp2960
g69
(g90
g71
NtRp2961
(dp2962
g74
(dp2963
g94
g95
ssg83
g2957
sg76
(lp2964
S'PATH_INFO'
p2965
asbag69
(g90
g71
NtRp2966
(dp2967
g74
(dp2968
g101
g102
ssg83
g2957
sg76
(lp2969
S':'
asbag69
(g90
g71
NtRp2970
(dp2971
g74
(dp2972
sg83
g2957
sg76
(lp2973
g69
(g70
g71
NtRp2974
(dp2975
g74
(dp2976
g82
I3
ssg83
g2970
sg76
(lp2977
g1531
asbasbasbag69
(g85
g71
NtRp2978
(dp2979
g74
(dp2980
sg83
g2785
sg76
(lp2981
g69
(g90
g71
NtRp2982
(dp2983
g74
(dp2984
g94
g95
ssg83
g2978
sg76
(lp2985
S'QUERY_STRING'
p2986
asbag69
(g90
g71
NtRp2987
(dp2988
g74
(dp2989
g101
g102
ssg83
g2978
sg76
(lp2990
S':'
asbag69
(g90
g71
NtRp2991
(dp2992
g74
(dp2993
sg83
g2978
sg76
(lp2994
g69
(g70
g71
NtRp2995
(dp2996
g74
(dp2997
g82
I3
ssg83
g2991
sg76
(lp2998
S''
asbasbasbag69
(g85
g71
NtRp2999
(dp3000
g74
(dp3001
sg83
g2785
sg76
(lp3002
g69
(g90
g71
NtRp3003
(dp3004
g74
(dp3005
g94
g95
ssg83
g2999
sg76
(lp3006
S'REMOTE_ADDR'
p3007
asbag69
(g90
g71
NtRp3008
(dp3009
g74
(dp3010
g101
g102
ssg83
g2999
sg76
(lp3011
S':'
asbag69
(g90
g71
NtRp3012
(dp3013
g74
(dp3014
sg83
g2999
sg76
(lp3015
g69
(g70
g71
NtRp3016
(dp3017
g74
(dp3018
g82
I3
ssg83
g3012
sg76
(lp3019
g236
asbasbasbag69
(g85
g71
NtRp3020
(dp3021
g74
(dp3022
sg83
g2785
sg76
(lp3023
g69
(g90
g71
NtRp3024
(dp3025
g74
(dp3026
g94
g95
ssg83
g3020
sg76
(lp3027
S'REMOTE_PORT'
p3028
asbag69
(g90
g71
NtRp3029
(dp3030
g74
(dp3031
g101
g102
ssg83
g3020
sg76
(lp3032
S':'
asbag69
(g90
g71
NtRp3033
(dp3034
g74
(dp3035
sg83
g3020
sg76
(lp3036
g69
(g70
g71
NtRp3037
(dp3038
g74
(dp3039
g82
I3
ssg83
g3033
sg76
(lp3040
g1595
asbasbasbag69
(g85
g71
NtRp3041
(dp3042
g74
(dp3043
sg83
g2785
sg76
(lp3044
g69
(g90
g71
NtRp3045
(dp3046
g74
(dp3047
g94
g95
ssg83
g3041
sg76
(lp3048
S'REQUEST_METHOD'
p3049
asbag69
(g90
g71
NtRp3050
(dp3051
g74
(dp3052
g101
g102
ssg83
g3041
sg76
(lp3053
S':'
asbag69
(g90
g71
NtRp3054
(dp3055
g74
(dp3056
sg83
g3041
sg76
(lp3057
g69
(g70
g71
NtRp3058
(dp3059
g74
(dp3060
g82
I3
ssg83
g3054
sg76
(lp3061
g1617
asbasbasbag69
(g85
g71
NtRp3062
(dp3063
g74
(dp3064
sg83
g2785
sg76
(lp3065
g69
(g90
g71
NtRp3066
(dp3067
g74
(dp3068
g94
g95
ssg83
g3062
sg76
(lp3069
S'REQUEST_URI'
p3070
asbag69
(g90
g71
NtRp3071
(dp3072
g74
(dp3073
g101
g102
ssg83
g3062
sg76
(lp3074
S':'
asbag69
(g90
g71
NtRp3075
(dp3076
g74
(dp3077
sg83
g3062
sg76
(lp3078
g69
(g70
g71
NtRp3079
(dp3080
g74
(dp3081
g82
I3
ssg83
g3075
sg76
(lp3082
g1639
asbasbasbag69
(g85
g71
NtRp3083
(dp3084
g74
(dp3085
sg83
g2785
sg76
(lp3086
g69
(g90
g71
NtRp3087
(dp3088
g74
(dp3089
g94
g95
ssg83
g3083
sg76
(lp3090
S'SCRIPT_NAME'
p3091
asbag69
(g90
g71
NtRp3092
(dp3093
g74
(dp3094
g101
g102
ssg83
g3083
sg76
(lp3095
S':'
asbag69
(g90
g71
NtRp3096
(dp3097
g74
(dp3098
sg83
g3083
sg76
(lp3099
g69
(g70
g71
NtRp3100
(dp3101
g74
(dp3102
g82
I3
ssg83
g3096
sg76
(lp3103
S''
asbasbasbag69
(g85
g71
NtRp3104
(dp3105
g74
(dp3106
sg83
g2785
sg76
(lp3107
g69
(g90
g71
NtRp3108
(dp3109
g74
(dp3110
g94
g95
ssg83
g3104
sg76
(lp3111
S'SERVER_NAME'
p3112
asbag69
(g90
g71
NtRp3113
(dp3114
g74
(dp3115
g101
g102
ssg83
g3104
sg76
(lp3116
S':'
asbag69
(g90
g71
NtRp3117
(dp3118
g74
(dp3119
sg83
g3104
sg76
(lp3120
g69
(g70
g71
NtRp3121
(dp3122
g74
(dp3123
g82
I3
ssg83
g3117
sg76
(lp3124
g1682
asbasbasbag69
(g85
g71
NtRp3125
(dp3126
g74
(dp3127
sg83
g2785
sg76
(lp3128
g69
(g90
g71
NtRp3129
(dp3130
g74
(dp3131
g94
g95
ssg83
g3125
sg76
(lp3132
S'SERVER_PORT'
p3133
asbag69
(g90
g71
NtRp3134
(dp3135
g74
(dp3136
g101
g102
ssg83
g3125
sg76
(lp3137
S':'
asbag69
(g90
g71
NtRp3138
(dp3139
g74
(dp3140
sg83
g3125
sg76
(lp3141
g69
(g70
g71
NtRp3142
(dp3143
g74
(dp3144
g82
I3
ssg83
g3138
sg76
(lp3145
g1704
asbasbasbag69
(g85
g71
NtRp3146
(dp3147
g74
(dp3148
sg83
g2785
sg76
(lp3149
g69
(g90
g71
NtRp3150
(dp3151
g74
(dp3152
g94
g95
ssg83
g3146
sg76
(lp3153
S'SERVER_PROTOCOL'
p3154
asbag69
(g90
g71
NtRp3155
(dp3156
g74
(dp3157
g101
g102
ssg83
g3146
sg76
(lp3158
S':'
asbag69
(g90
g71
NtRp3159
(dp3160
g74
(dp3161
sg83
g3146
sg76
(lp3162
g69
(g70
g71
NtRp3163
(dp3164
g74
(dp3165
g82
I3
ssg83
g3159
sg76
(lp3166
g1726
asbasbasbag69
(g85
g71
NtRp3167
(dp3168
g74
(dp3169
sg83
g2785
sg76
(lp3170
g69
(g90
g71
NtRp3171
(dp3172
g74
(dp3173
g94
g95
ssg83
g3167
sg76
(lp3174
S'SERVER_SOFTWARE'
p3175
asbag69
(g90
g71
NtRp3176
(dp3177
g74
(dp3178
g101
g102
ssg83
g3167
sg76
(lp3179
S':'
asbag69
(g90
g71
NtRp3180
(dp3181
g74
(dp3182
sg83
g3167
sg76
(lp3183
g69
(g70
g71
NtRp3184
(dp3185
g74
(dp3186
g82
I3
ssg83
g3180
sg76
(lp3187
g1748
asbasbasbag69
(g85
g71
NtRp3188
(dp3189
g74
(dp3190
sg83
g2785
sg76
(lp3191
g69
(g90
g71
NtRp3192
(dp3193
g74
(dp3194
g94
g95
ssg83
g3188
sg76
(lp3195
S'WEB2PY_ORIGINAL_URI'
p3196
asbag69
(g90
g71
NtRp3197
(dp3198
g74
(dp3199
g101
g102
ssg83
g3188
sg76
(lp3200
S':'
asbag69
(g90
g71
NtRp3201
(dp3202
g74
(dp3203
sg83
g3188
sg76
(lp3204
g69
(g70
g71
NtRp3205
(dp3206
g74
(dp3207
g82
I3
ssg83
g3201
sg76
(lp3208
g1531
asbasbasbag69
(g85
g71
NtRp3209
(dp3210
g74
(dp3211
sg83
g2785
sg76
(lp3212
g69
(g90
g71
NtRp3213
(dp3214
g74
(dp3215
g94
g95
ssg83
g3209
sg76
(lp3216
S'wsgi.errors'
p3217
asbag69
(g90
g71
NtRp3218
(dp3219
g74
(dp3220
g101
g102
ssg83
g3209
sg76
(lp3221
S':'
asbag69
(g90
g71
NtRp3222
(dp3223
g74
(dp3224
sg83
g3209
sg76
(lp3225
g69
(g70
g71
NtRp3226
(dp3227
g74
(dp3228
g82
I3
ssg83
g3222
sg76
(lp3229
S"<open file '<stderr>', mode 'w' at 0x7f9af6051270>"
p3230
asbasbasbag69
(g85
g71
NtRp3231
(dp3232
g74
(dp3233
sg83
g2785
sg76
(lp3234
g69
(g90
g71
NtRp3235
(dp3236
g74
(dp3237
g94
g95
ssg83
g3231
sg76
(lp3238
S'wsgi.file_wrapper'
p3239
asbag69
(g90
g71
NtRp3240
(dp3241
g74
(dp3242
g101
g102
ssg83
g3231
sg76
(lp3243
S':'
asbag69
(g90
g71
NtRp3244
(dp3245
g74
(dp3246
sg83
g3231
sg76
(lp3247
g69
(g70
g71
NtRp3248
(dp3249
g74
(dp3250
g82
I3
ssg83
g3244
sg76
(lp3251
S'<class wsgiref.util.FileWrapper at 0x272d460>'
p3252
asbasbasbag69
(g85
g71
NtRp3253
(dp3254
g74
(dp3255
sg83
g2785
sg76
(lp3256
g69
(g90
g71
NtRp3257
(dp3258
g74
(dp3259
g94
g95
ssg83
g3253
sg76
(lp3260
S'wsgi.input'
p3261
asbag69
(g90
g71
NtRp3262
(dp3263
g74
(dp3264
g101
g102
ssg83
g3253
sg76
(lp3265
S':'
asbag69
(g90
g71
NtRp3266
(dp3267
g74
(dp3268
sg83
g3253
sg76
(lp3269
g69
(g70
g71
NtRp3270
(dp3271
g74
(dp3272
g82
I3
ssg83
g3266
sg76
(lp3273
S'<cStringIO.StringO object at 0x7f9adc8963e8>'
p3274
asbasbasbag69
(g85
g71
NtRp3275
(dp3276
g74
(dp3277
sg83
g2785
sg76
(lp3278
g69
(g90
g71
NtRp3279
(dp3280
g74
(dp3281
g94
g95
ssg83
g3275
sg76
(lp3282
S'wsgi.multiprocess'
p3283
asbag69
(g90
g71
NtRp3284
(dp3285
g74
(dp3286
g101
g102
ssg83
g3275
sg76
(lp3287
S':'
asbag69
(g90
g71
NtRp3288
(dp3289
g74
(dp3290
sg83
g3275
sg76
(lp3291
g69
(g70
g71
NtRp3292
(dp3293
g74
(dp3294
g82
I3
ssg83
g3288
sg76
(lp3295
g112
asbasbasbag69
(g85
g71
NtRp3296
(dp3297
g74
(dp3298
sg83
g2785
sg76
(lp3299
g69
(g90
g71
NtRp3300
(dp3301
g74
(dp3302
g94
g95
ssg83
g3296
sg76
(lp3303
S'wsgi.multithread'
p3304
asbag69
(g90
g71
NtRp3305
(dp3306
g74
(dp3307
g101
g102
ssg83
g3296
sg76
(lp3308
S':'
asbag69
(g90
g71
NtRp3309
(dp3310
g74
(dp3311
sg83
g3296
sg76
(lp3312
g69
(g70
g71
NtRp3313
(dp3314
g74
(dp3315
g82
I3
ssg83
g3309
sg76
(lp3316
g1986
asbasbasbag69
(g85
g71
NtRp3317
(dp3318
g74
(dp3319
sg83
g2785
sg76
(lp3320
g69
(g90
g71
NtRp3321
(dp3322
g74
(dp3323
g94
g95
ssg83
g3317
sg76
(lp3324
S'wsgi.run_once'
p3325
asbag69
(g90
g71
NtRp3326
(dp3327
g74
(dp3328
g101
g102
ssg83
g3317
sg76
(lp3329
S':'
asbag69
(g90
g71
NtRp3330
(dp3331
g74
(dp3332
sg83
g3317
sg76
(lp3333
g69
(g70
g71
NtRp3334
(dp3335
g74
(dp3336
g82
I3
ssg83
g3330
sg76
(lp3337
g112
asbasbasbag69
(g85
g71
NtRp3338
(dp3339
g74
(dp3340
sg83
g2785
sg76
(lp3341
g69
(g90
g71
NtRp3342
(dp3343
g74
(dp3344
g94
g95
ssg83
g3338
sg76
(lp3345
S'wsgi.url_scheme'
p3346
asbag69
(g90
g71
NtRp3347
(dp3348
g74
(dp3349
g101
g102
ssg83
g3338
sg76
(lp3350
S':'
asbag69
(g90
g71
NtRp3351
(dp3352
g74
(dp3353
sg83
g3338
sg76
(lp3354
g69
(g70
g71
NtRp3355
(dp3356
g74
(dp3357
g82
I3
ssg83
g3351
sg76
(lp3358
g2029
asbasbasbag69
(g85
g71
NtRp3359
(dp3360
g74
(dp3361
sg83
g2785
sg76
(lp3362
g69
(g90
g71
NtRp3363
(dp3364
g74
(dp3365
g94
g95
ssg83
g3359
sg76
(lp3366
S'wsgi.version'
p3367
asbag69
(g90
g71
NtRp3368
(dp3369
g74
(dp3370
g101
g102
ssg83
g3359
sg76
(lp3371
S':'
asbag69
(g90
g71
NtRp3372
(dp3373
g74
(dp3374
sg83
g3359
sg76
(lp3375
g69
(g70
g71
NtRp3376
(dp3377
g74
(dp3378
g82
I3
ssg83
g3372
sg76
(lp3379
S'1'
asbasbasbasbasbasbasbasbasbasbasbasbasbsS'frames'
p3380
(lp3381
(dp3382
S'file'
p3383
S'/var/www/hosts3/gluon/restricted.py'
p3384
sS'dump'
p3385
(dp3386
S'code'
p3387
S"'# coding: utf-8\\n\\n@auth.requires_login()\\ndef show... \\n\\nresponse._vars=response._caller(show_cliente)\\n'"
p3388
sS'layer'
p3389
S"'/var/www/hosts3/applications/projeto/controllers/initial.py'"
p3390
sS'global compile2'
p3391
S'<function compile2>'
p3392
sS'ccode'
p3393
S'undefined'
p3394
ssS'lnum'
p3395
I211
sS'lines'
p3396
(dp3397
I206
S"    environment['__name__'] = '__restricted__'"
p3398
sI207
S'    try:'
p3399
sI208
S'        if isinstance(code, types.CodeType):'
p3400
sI209
S'            ccode = code'
p3401
sI210
S'        else:'
p3402
sI211
S'            ccode = compile2(code, layer)'
p3403
sI212
S'        exec ccode in environment'
p3404
sI213
S'    except HTTP:'
p3405
sI214
S'        raise'
p3406
sI215
S'    except RestrictedError:'
p3407
ssS'call'
p3408
S"(code='# coding: utf-8\\n\\n@auth.requires_login()\\ndef show... \\n\\nresponse._vars=response._caller(show_cliente)\\n', environment={'A': <class 'gluon.html.A'>, 'Auth': <class 'gluon.tools.Auth'>, 'B': <class 'gluon.html.B'>, 'BEAUTIFY': <class 'gluon.html.BEAUTIFY'>, 'BODY': <class 'gluon.html.BODY'>, 'BR': <class 'gluon.html.BR'>, 'BUTTON': <class 'gluon.html.BUTTON'>, 'CAT': <class 'gluon.html.CAT'>, 'CENTER': <class 'gluon.html.CENTER'>, 'CLEANUP': <class 'gluon.validators.CLEANUP'>, ...}, layer='/var/www/hosts3/applications/projeto/controllers/initial.py')"
p3409
sS'func'
p3410
S'restricted'
p3411
sa(dp3412
g3383
S'/var/www/hosts3/gluon/restricted.py'
p3413
sg3385
(dp3414
S'builtincompile'
p3415
S'<built-in function compile>'
p3416
sS'code'
p3417
S"'# coding: utf-8\\n\\n@auth.requires_login()\\ndef show... \\n\\nresponse._vars=response._caller(show_cliente)\\n'"
p3418
sS'code.rstrip'
p3419
S'<built-in method rstrip of str object>'
p3420
sS').replace'
p3421
g3394
sS'layer'
p3422
S"'/var/www/hosts3/applications/projeto/controllers/initial.py'"
p3423
ssg3395
I194
sg3396
(dp3424
I192
S"    The +'\\n' is necessary else compile fails when code ends in a comment."
p3425
sI193
S'    """'
p3426
sI194
S"    return compile(code.rstrip().replace('\\r\\n', '\\n') + '\\n', layer, 'exec')"
p3427
sI195
S''
sI196
S''
sI197
S"def restricted(code, environment=None, layer='Unknown'):"
p3428
sI198
S'    """'
p3429
sI189
S''
sI190
S'def compile2(code, layer):'
p3430
sI191
S'    """'
p3431
ssg3408
S"(code='# coding: utf-8\\n\\n@auth.requires_login()\\ndef show... \\n\\nresponse._vars=response._caller(show_cliente)\\n', layer='/var/www/hosts3/applications/projeto/controllers/initial.py')"
p3432
sg3410
S'compile2'
p3433
sasS'pyver'
p3434
S'Python 2.7.3: /usr/bin/python'
p3435
sS'session'
p3436
g69
(g70
g71
NtRp3437
(dp3438
g74
(dp3439
sg76
(lp3440
g69
(g78
g71
NtRp3441
(dp3442
g74
(dp3443
g82
I5
ssg83
Nsg76
(lp3444
g69
(g85
g71
NtRp3445
(dp3446
g74
(dp3447
sg83
g3441
sg76
(lp3448
g69
(g90
g71
NtRp3449
(dp3450
g74
(dp3451
g94
g95
ssg83
g3445
sg76
(lp3452
S'auth'
p3453
asbag69
(g90
g71
NtRp3454
(dp3455
g74
(dp3456
g101
g102
ssg83
g3445
sg76
(lp3457
S':'
asbag69
(g90
g71
NtRp3458
(dp3459
g74
(dp3460
sg83
g3445
sg76
(lp3461
g69
(g70
g71
NtRp3462
(dp3463
g74
(dp3464
g82
I5
ssg83
g3458
sg76
(lp3465
g69
(g78
g71
NtRp3466
(dp3467
g74
(dp3468
g82
I4
ssg83
Nsg76
(lp3469
g69
(g85
g71
NtRp3470
(dp3471
g74
(dp3472
sg83
g3466
sg76
(lp3473
g69
(g90
g71
NtRp3474
(dp3475
g74
(dp3476
g94
g95
ssg83
g3470
sg76
(lp3477
S'expiration'
p3478
asbag69
(g90
g71
NtRp3479
(dp3480
g74
(dp3481
g101
g102
ssg83
g3470
sg76
(lp3482
S':'
asbag69
(g90
g71
NtRp3483
(dp3484
g74
(dp3485
sg83
g3470
sg76
(lp3486
g69
(g70
g71
NtRp3487
(dp3488
g74
(dp3489
g82
I4
ssg83
g3483
sg76
(lp3490
S'3600'
p3491
asbasbasbag69
(g85
g71
NtRp3492
(dp3493
g74
(dp3494
sg83
g3466
sg76
(lp3495
g69
(g90
g71
NtRp3496
(dp3497
g74
(dp3498
g94
g95
ssg83
g3492
sg76
(lp3499
S'hmac_key'
p3500
asbag69
(g90
g71
NtRp3501
(dp3502
g74
(dp3503
g101
g102
ssg83
g3492
sg76
(lp3504
S':'
asbag69
(g90
g71
NtRp3505
(dp3506
g74
(dp3507
sg83
g3492
sg76
(lp3508
g69
(g70
g71
NtRp3509
(dp3510
g74
(dp3511
g82
I4
ssg83
g3505
sg76
(lp3512
S'3ef480ba-710e-4059-9afe-3fa6099355fb'
p3513
asbasbasbag69
(g85
g71
NtRp3514
(dp3515
g74
(dp3516
sg83
g3466
sg76
(lp3517
g69
(g90
g71
NtRp3518
(dp3519
g74
(dp3520
g94
g95
ssg83
g3514
sg76
(lp3521
S'last_visit'
p3522
asbag69
(g90
g71
NtRp3523
(dp3524
g74
(dp3525
g101
g102
ssg83
g3514
sg76
(lp3526
S':'
asbag69
(g90
g71
NtRp3527
(dp3528
g74
(dp3529
sg83
g3514
sg76
(lp3530
g69
(g70
g71
NtRp3531
(dp3532
g74
(dp3533
g82
I4
ssg83
g3527
sg76
(lp3534
S'datetime.datetime(2013, 3, 7, 15, 17, 14, 764234)'
p3535
asbasbasbag69
(g85
g71
NtRp3536
(dp3537
g74
(dp3538
sg83
g3466
sg76
(lp3539
g69
(g90
g71
NtRp3540
(dp3541
g74
(dp3542
g94
g95
ssg83
g3536
sg76
(lp3543
S'remember'
p3544
asbag69
(g90
g71
NtRp3545
(dp3546
g74
(dp3547
g101
g102
ssg83
g3536
sg76
(lp3548
S':'
asbag69
(g90
g71
NtRp3549
(dp3550
g74
(dp3551
sg83
g3536
sg76
(lp3552
g69
(g70
g71
NtRp3553
(dp3554
g74
(dp3555
g82
I4
ssg83
g3549
sg76
(lp3556
g112
asbasbasbag69
(g85
g71
NtRp3557
(dp3558
g74
(dp3559
sg83
g3466
sg76
(lp3560
g69
(g90
g71
NtRp3561
(dp3562
g74
(dp3563
g94
g95
ssg83
g3557
sg76
(lp3564
S'user'
p3565
asbag69
(g90
g71
NtRp3566
(dp3567
g74
(dp3568
g101
g102
ssg83
g3557
sg76
(lp3569
S':'
asbag69
(g90
g71
NtRp3570
(dp3571
g74
(dp3572
sg83
g3557
sg76
(lp3573
g69
(g70
g71
NtRp3574
(dp3575
g74
(dp3576
g82
I4
ssg83
g3570
sg76
(lp3577
g69
(g78
g71
NtRp3578
(dp3579
g74
(dp3580
g82
I3
ssg83
Nsg76
(lp3581
g69
(g85
g71
NtRp3582
(dp3583
g74
(dp3584
sg83
g3578
sg76
(lp3585
g69
(g90
g71
NtRp3586
(dp3587
g74
(dp3588
g94
g95
ssg83
g3582
sg76
(lp3589
S'email'
p3590
asbag69
(g90
g71
NtRp3591
(dp3592
g74
(dp3593
g101
g102
ssg83
g3582
sg76
(lp3594
S':'
asbag69
(g90
g71
NtRp3595
(dp3596
g74
(dp3597
sg83
g3582
sg76
(lp3598
g69
(g70
g71
NtRp3599
(dp3600
g74
(dp3601
g82
I3
ssg83
g3595
sg76
(lp3602
S'fernando@ad2.com.br'
p3603
asbasbasbag69
(g85
g71
NtRp3604
(dp3605
g74
(dp3606
sg83
g3578
sg76
(lp3607
g69
(g90
g71
NtRp3608
(dp3609
g74
(dp3610
g94
g95
ssg83
g3604
sg76
(lp3611
S'first_name'
p3612
asbag69
(g90
g71
NtRp3613
(dp3614
g74
(dp3615
g101
g102
ssg83
g3604
sg76
(lp3616
S':'
asbag69
(g90
g71
NtRp3617
(dp3618
g74
(dp3619
sg83
g3604
sg76
(lp3620
g69
(g70
g71
NtRp3621
(dp3622
g74
(dp3623
g82
I3
ssg83
g3617
sg76
(lp3624
S'Fernando'
p3625
asbasbasbag69
(g85
g71
NtRp3626
(dp3627
g74
(dp3628
sg83
g3578
sg76
(lp3629
g69
(g90
g71
NtRp3630
(dp3631
g74
(dp3632
g94
g95
ssg83
g3626
sg76
(lp3633
S'id'
p3634
asbag69
(g90
g71
NtRp3635
(dp3636
g74
(dp3637
g101
g102
ssg83
g3626
sg76
(lp3638
S':'
asbag69
(g90
g71
NtRp3639
(dp3640
g74
(dp3641
sg83
g3626
sg76
(lp3642
g69
(g70
g71
NtRp3643
(dp3644
g74
(dp3645
g82
I3
ssg83
g3639
sg76
(lp3646
S'1'
asbasbasbag69
(g85
g71
NtRp3647
(dp3648
g74
(dp3649
sg83
g3578
sg76
(lp3650
g69
(g90
g71
NtRp3651
(dp3652
g74
(dp3653
g94
g95
ssg83
g3647
sg76
(lp3654
S'last_name'
p3655
asbag69
(g90
g71
NtRp3656
(dp3657
g74
(dp3658
g101
g102
ssg83
g3647
sg76
(lp3659
S':'
asbag69
(g90
g71
NtRp3660
(dp3661
g74
(dp3662
sg83
g3647
sg76
(lp3663
g69
(g70
g71
NtRp3664
(dp3665
g74
(dp3666
g82
I3
ssg83
g3660
sg76
(lp3667
S'Vieira'
p3668
asbasbasbag69
(g85
g71
NtRp3669
(dp3670
g74
(dp3671
sg83
g3578
sg76
(lp3672
g69
(g90
g71
NtRp3673
(dp3674
g74
(dp3675
g94
g95
ssg83
g3669
sg76
(lp3676
S'registration_id'
p3677
asbag69
(g90
g71
NtRp3678
(dp3679
g74
(dp3680
g101
g102
ssg83
g3669
sg76
(lp3681
S':'
asbag69
(g90
g71
NtRp3682
(dp3683
g74
(dp3684
sg83
g3669
sg76
(lp3685
g69
(g70
g71
NtRp3686
(dp3687
g74
(dp3688
g82
I3
ssg83
g3682
sg76
(lp3689
S''
asbasbasbag69
(g85
g71
NtRp3690
(dp3691
g74
(dp3692
sg83
g3578
sg76
(lp3693
g69
(g90
g71
NtRp3694
(dp3695
g74
(dp3696
g94
g95
ssg83
g3690
sg76
(lp3697
S'registration_key'
p3698
asbag69
(g90
g71
NtRp3699
(dp3700
g74
(dp3701
g101
g102
ssg83
g3690
sg76
(lp3702
S':'
asbag69
(g90
g71
NtRp3703
(dp3704
g74
(dp3705
sg83
g3690
sg76
(lp3706
g69
(g70
g71
NtRp3707
(dp3708
g74
(dp3709
g82
I3
ssg83
g3703
sg76
(lp3710
S''
asbasbasbag69
(g85
g71
NtRp3711
(dp3712
g74
(dp3713
sg83
g3578
sg76
(lp3714
g69
(g90
g71
NtRp3715
(dp3716
g74
(dp3717
g94
g95
ssg83
g3711
sg76
(lp3718
S'reset_password_key'
p3719
asbag69
(g90
g71
NtRp3720
(dp3721
g74
(dp3722
g101
g102
ssg83
g3711
sg76
(lp3723
S':'
asbag69
(g90
g71
NtRp3724
(dp3725
g74
(dp3726
sg83
g3711
sg76
(lp3727
g69
(g70
g71
NtRp3728
(dp3729
g74
(dp3730
g82
I3
ssg83
g3724
sg76
(lp3731
S''
asbasbasbasbasbasbasbag69
(g85
g71
NtRp3732
(dp3733
g74
(dp3734
sg83
g3466
sg76
(lp3735
g69
(g90
g71
NtRp3736
(dp3737
g74
(dp3738
g94
g95
ssg83
g3732
sg76
(lp3739
S'user_groups'
p3740
asbag69
(g90
g71
NtRp3741
(dp3742
g74
(dp3743
g101
g102
ssg83
g3732
sg76
(lp3744
S':'
asbag69
(g90
g71
NtRp3745
(dp3746
g74
(dp3747
sg83
g3732
sg76
(lp3748
g69
(g70
g71
NtRp3749
(dp3750
g74
(dp3751
g82
I4
ssg83
g3745
sg76
(lp3752
g69
(g78
g71
NtRp3753
(dp3754
g74
(dp3755
g82
I3
ssg83
Nsg76
(lp3756
g69
(g85
g71
NtRp3757
(dp3758
g74
(dp3759
sg83
g3753
sg76
(lp3760
g69
(g90
g71
NtRp3761
(dp3762
g74
(dp3763
g94
g95
ssg83
g3757
sg76
(lp3764
S'1'
asbag69
(g90
g71
NtRp3765
(dp3766
g74
(dp3767
g101
g102
ssg83
g3757
sg76
(lp3768
S':'
asbag69
(g90
g71
NtRp3769
(dp3770
g74
(dp3771
sg83
g3757
sg76
(lp3772
g69
(g70
g71
NtRp3773
(dp3774
g74
(dp3775
g82
I3
ssg83
g3769
sg76
(lp3776
S'group1'
p3777
asbasbasbag69
(g85
g71
NtRp3778
(dp3779
g74
(dp3780
sg83
g3753
sg76
(lp3781
g69
(g90
g71
NtRp3782
(dp3783
g74
(dp3784
g94
g95
ssg83
g3778
sg76
(lp3785
S'99'
p3786
asbag69
(g90
g71
NtRp3787
(dp3788
g74
(dp3789
g101
g102
ssg83
g3778
sg76
(lp3790
S':'
asbag69
(g90
g71
NtRp3791
(dp3792
g74
(dp3793
sg83
g3778
sg76
(lp3794
g69
(g70
g71
NtRp3795
(dp3796
g74
(dp3797
g82
I3
ssg83
g3791
sg76
(lp3798
S'admin'
p3799
asbasbasbasbasbasbasbasbasbasbasbag69
(g85
g71
NtRp3800
(dp3801
g74
(dp3802
sg83
g3441
sg76
(lp3803
g69
(g90
g71
NtRp3804
(dp3805
g74
(dp3806
g94
g95
ssg83
g3800
sg76
(lp3807
S'flash'
p3808
asbag69
(g90
g71
NtRp3809
(dp3810
g74
(dp3811
g101
g102
ssg83
g3800
sg76
(lp3812
S':'
asbag69
(g90
g71
NtRp3813
(dp3814
g74
(dp3815
sg83
g3800
sg76
(lp3816
g69
(g70
g71
NtRp3817
(dp3818
g74
(dp3819
g82
I5
ssg83
g3813
sg76
(lp3820
S'None'
p3821
asbasbasbasbasbsS'etype'
p3822
S"<type 'exceptions.IndentationError'>"
p3823
sS'date'
p3824
S'Thu Mar  7 15:17:14 2013'
p3825
sS'response'
p3826
g69
(g70
g71
NtRp3827
(dp3828
g74
(dp3829
sg76
(lp3830
g69
(g78
g71
NtRp3831
(dp3832
g74
(dp3833
g82
I5
ssg83
Nsg76
(lp3834
g69
(g85
g71
NtRp3835
(dp3836
g74
(dp3837
sg83
g3831
sg76
(lp3838
g69
(g90
g71
NtRp3839
(dp3840
g74
(dp3841
g94
g95
ssg83
g3835
sg76
(lp3842
g179
asbag69
(g90
g71
NtRp3843
(dp3844
g74
(dp3845
g101
g102
ssg83
g3835
sg76
(lp3846
S':'
asbag69
(g90
g71
NtRp3847
(dp3848
g74
(dp3849
sg83
g3835
sg76
(lp3850
g69
(g70
g71
NtRp3851
(dp3852
g74
(dp3853
g82
I5
ssg83
g3847
sg76
(lp3854
S'<cStringIO.StringO object at 0x7f9adc884848>'
p3855
asbasbasbag69
(g85
g71
NtRp3856
(dp3857
g74
(dp3858
sg83
g3831
sg76
(lp3859
g69
(g90
g71
NtRp3860
(dp3861
g74
(dp3862
g94
g95
ssg83
g3856
sg76
(lp3863
g267
asbag69
(g90
g71
NtRp3864
(dp3865
g74
(dp3866
g101
g102
ssg83
g3856
sg76
(lp3867
S':'
asbag69
(g90
g71
NtRp3868
(dp3869
g74
(dp3870
sg83
g3856
sg76
(lp3871
g69
(g70
g71
NtRp3872
(dp3873
g74
(dp3874
g82
I5
ssg83
g3868
sg76
(lp3875
g69
(g78
g71
NtRp3876
(dp3877
g74
(dp3878
g82
I4
ssg83
Nsg76
(lp3879
g69
(g85
g71
NtRp3880
(dp3881
g74
(dp3882
sg83
g3876
sg76
(lp3883
g69
(g90
g71
NtRp3884
(dp3885
g74
(dp3886
g94
g95
ssg83
g3880
sg76
(lp3887
S'session_id_projeto'
p3888
asbag69
(g90
g71
NtRp3889
(dp3890
g74
(dp3891
g101
g102
ssg83
g3880
sg76
(lp3892
S':'
asbag69
(g90
g71
NtRp3893
(dp3894
g74
(dp3895
sg83
g3880
sg76
(lp3896
g69
(g70
g71
NtRp3897
(dp3898
g74
(dp3899
g82
I4
ssg83
g3893
sg76
(lp3900
g869
ag69
(g78
g71
NtRp3901
(dp3902
g74
(dp3903
g82
I3
ssg83
Nsg76
(lp3904
g69
(g85
g71
NtRp3905
(dp3906
g74
(dp3907
sg83
g3901
sg76
(lp3908
g69
(g90
g71
NtRp3909
(dp3910
g74
(dp3911
g94
g95
ssg83
g3905
sg76
(lp3912
g317
asbag69
(g90
g71
NtRp3913
(dp3914
g74
(dp3915
g101
g102
ssg83
g3905
sg76
(lp3916
S':'
asbag69
(g90
g71
NtRp3917
(dp3918
g74
(dp3919
sg83
g3905
sg76
(lp3920
g69
(g70
g71
NtRp3921
(dp3922
g74
(dp3923
g82
I3
ssg83
g3917
sg76
(lp3924
S''
asbasbasbag69
(g85
g71
NtRp3925
(dp3926
g74
(dp3927
sg83
g3901
sg76
(lp3928
g69
(g90
g71
NtRp3929
(dp3930
g74
(dp3931
g94
g95
ssg83
g3925
sg76
(lp3932
g338
asbag69
(g90
g71
NtRp3933
(dp3934
g74
(dp3935
g101
g102
ssg83
g3925
sg76
(lp3936
S':'
asbag69
(g90
g71
NtRp3937
(dp3938
g74
(dp3939
sg83
g3925
sg76
(lp3940
g69
(g70
g71
NtRp3941
(dp3942
g74
(dp3943
g82
I3
ssg83
g3937
sg76
(lp3944
S''
asbasbasbag69
(g85
g71
NtRp3945
(dp3946
g74
(dp3947
sg83
g3901
sg76
(lp3948
g69
(g90
g71
NtRp3949
(dp3950
g74
(dp3951
g94
g95
ssg83
g3945
sg76
(lp3952
g359
asbag69
(g90
g71
NtRp3953
(dp3954
g74
(dp3955
g101
g102
ssg83
g3945
sg76
(lp3956
S':'
asbag69
(g90
g71
NtRp3957
(dp3958
g74
(dp3959
sg83
g3945
sg76
(lp3960
g69
(g70
g71
NtRp3961
(dp3962
g74
(dp3963
g82
I3
ssg83
g3957
sg76
(lp3964
S''
asbasbasbag69
(g85
g71
NtRp3965
(dp3966
g74
(dp3967
sg83
g3901
sg76
(lp3968
g69
(g90
g71
NtRp3969
(dp3970
g74
(dp3971
g94
g95
ssg83
g3965
sg76
(lp3972
g380
asbag69
(g90
g71
NtRp3973
(dp3974
g74
(dp3975
g101
g102
ssg83
g3965
sg76
(lp3976
S':'
asbag69
(g90
g71
NtRp3977
(dp3978
g74
(dp3979
sg83
g3965
sg76
(lp3980
g69
(g70
g71
NtRp3981
(dp3982
g74
(dp3983
g82
I3
ssg83
g3977
sg76
(lp3984
S''
asbasbasbag69
(g85
g71
NtRp3985
(dp3986
g74
(dp3987
sg83
g3901
sg76
(lp3988
g69
(g90
g71
NtRp3989
(dp3990
g74
(dp3991
g94
g95
ssg83
g3985
sg76
(lp3992
g401
asbag69
(g90
g71
NtRp3993
(dp3994
g74
(dp3995
g101
g102
ssg83
g3985
sg76
(lp3996
S':'
asbag69
(g90
g71
NtRp3997
(dp3998
g74
(dp3999
sg83
g3985
sg76
(lp4000
g69
(g70
g71
NtRp4001
(dp4002
g74
(dp4003
g82
I3
ssg83
g3997
sg76
(lp4004
S''
asbasbasbag69
(g85
g71
NtRp4005
(dp4006
g74
(dp4007
sg83
g3901
sg76
(lp4008
g69
(g90
g71
NtRp4009
(dp4010
g74
(dp4011
g94
g95
ssg83
g4005
sg76
(lp4012
g422
asbag69
(g90
g71
NtRp4013
(dp4014
g74
(dp4015
g101
g102
ssg83
g4005
sg76
(lp4016
S':'
asbag69
(g90
g71
NtRp4017
(dp4018
g74
(dp4019
sg83
g4005
sg76
(lp4020
g69
(g70
g71
NtRp4021
(dp4022
g74
(dp4023
g82
I3
ssg83
g4017
sg76
(lp4024
S'/'
asbasbasbag69
(g85
g71
NtRp4025
(dp4026
g74
(dp4027
sg83
g3901
sg76
(lp4028
g69
(g90
g71
NtRp4029
(dp4030
g74
(dp4031
g94
g95
ssg83
g4025
sg76
(lp4032
g443
asbag69
(g90
g71
NtRp4033
(dp4034
g74
(dp4035
g101
g102
ssg83
g4025
sg76
(lp4036
S':'
asbag69
(g90
g71
NtRp4037
(dp4038
g74
(dp4039
sg83
g4025
sg76
(lp4040
g69
(g70
g71
NtRp4041
(dp4042
g74
(dp4043
g82
I3
ssg83
g4037
sg76
(lp4044
S''
asbasbasbag69
(g85
g71
NtRp4045
(dp4046
g74
(dp4047
sg83
g3901
sg76
(lp4048
g69
(g90
g71
NtRp4049
(dp4050
g74
(dp4051
g94
g95
ssg83
g4045
sg76
(lp4052
g464
asbag69
(g90
g71
NtRp4053
(dp4054
g74
(dp4055
g101
g102
ssg83
g4045
sg76
(lp4056
S':'
asbag69
(g90
g71
NtRp4057
(dp4058
g74
(dp4059
sg83
g4045
sg76
(lp4060
g69
(g70
g71
NtRp4061
(dp4062
g74
(dp4063
g82
I3
ssg83
g4057
sg76
(lp4064
S''
asbasbasbasbasbasbasbasbasbasbasbag69
(g85
g71
NtRp4065
(dp4066
g74
(dp4067
sg83
g3831
sg76
(lp4068
g69
(g90
g71
NtRp4069
(dp4070
g74
(dp4071
g94
g95
ssg83
g4065
sg76
(lp4072
S'delimiters'
p4073
asbag69
(g90
g71
NtRp4074
(dp4075
g74
(dp4076
g101
g102
ssg83
g4065
sg76
(lp4077
S':'
asbag69
(g90
g71
NtRp4078
(dp4079
g74
(dp4080
sg83
g4065
sg76
(lp4081
g69
(g70
g71
NtRp4082
(dp4083
g74
(dp4084
g82
I5
ssg83
g4078
sg76
(lp4085
g69
(g78
g71
NtRp4086
(dp4087
g74
(dp4088
g82
I4
ssg83
Nsg76
(lp4089
g69
(g85
g71
NtRp4090
(dp4091
g74
(dp4092
sg83
g4086
sg76
(lp4093
g69
(g90
g71
NtRp4094
(dp4095
g74
(dp4096
sg83
g4090
sg76
(lp4097
g69
(g70
g71
NtRp4098
(dp4099
g74
(dp4100
g82
I4
ssg83
g4094
sg76
(lp4101
S'{{'
p4102
asbasbasbag69
(g85
g71
NtRp4103
(dp4104
g74
(dp4105
sg83
g4086
sg76
(lp4106
g69
(g90
g71
NtRp4107
(dp4108
g74
(dp4109
sg83
g4103
sg76
(lp4110
g69
(g70
g71
NtRp4111
(dp4112
g74
(dp4113
g82
I4
ssg83
g4107
sg76
(lp4114
S'}}'
p4115
asbasbasbasbasbasbasbag69
(g85
g71
NtRp4116
(dp4117
g74
(dp4118
sg83
g3831
sg76
(lp4119
g69
(g90
g71
NtRp4120
(dp4121
g74
(dp4122
g94
g95
ssg83
g4116
sg76
(lp4123
S'files'
p4124
asbag69
(g90
g71
NtRp4125
(dp4126
g74
(dp4127
g101
g102
ssg83
g4116
sg76
(lp4128
S':'
asbag69
(g90
g71
NtRp4129
(dp4130
g74
(dp4131
sg83
g4116
sg76
(lp4132
g69
(g70
g71
NtRp4133
(dp4134
g74
(dp4135
g82
I5
ssg83
g4129
sg76
(lp4136
g69
(g78
g71
NtRp4137
(dp4138
g74
(dp4139
g82
I4
ssg83
Nsg76
(lp4140
sbasbasbasbag69
(g85
g71
NtRp4141
(dp4142
g74
(dp4143
sg83
g3831
sg76
(lp4144
g69
(g90
g71
NtRp4145
(dp4146
g74
(dp4147
g94
g95
ssg83
g4141
sg76
(lp4148
S'flash'
p4149
asbag69
(g90
g71
NtRp4150
(dp4151
g74
(dp4152
g101
g102
ssg83
g4141
sg76
(lp4153
S':'
asbag69
(g90
g71
NtRp4154
(dp4155
g74
(dp4156
sg83
g4141
sg76
(lp4157
g69
(g70
g71
NtRp4158
(dp4159
g74
(dp4160
g82
I5
ssg83
g4154
sg76
(lp4161
S''
asbasbasbag69
(g85
g71
NtRp4162
(dp4163
g74
(dp4164
sg83
g3831
sg76
(lp4165
g69
(g90
g71
NtRp4166
(dp4167
g74
(dp4168
g94
g95
ssg83
g4162
sg76
(lp4169
S'generic_patterns'
p4170
asbag69
(g90
g71
NtRp4171
(dp4172
g74
(dp4173
g101
g102
ssg83
g4162
sg76
(lp4174
S':'
asbag69
(g90
g71
NtRp4175
(dp4176
g74
(dp4177
sg83
g4162
sg76
(lp4178
g69
(g70
g71
NtRp4179
(dp4180
g74
(dp4181
g82
I5
ssg83
g4175
sg76
(lp4182
g69
(g78
g71
NtRp4183
(dp4184
g74
(dp4185
g82
I4
ssg83
Nsg76
(lp4186
g69
(g85
g71
NtRp4187
(dp4188
g74
(dp4189
sg83
g4183
sg76
(lp4190
g69
(g90
g71
NtRp4191
(dp4192
g74
(dp4193
sg83
g4187
sg76
(lp4194
g69
(g70
g71
NtRp4195
(dp4196
g74
(dp4197
g82
I4
ssg83
g4191
sg76
(lp4198
S'*'
asbasbasbasbasbasbasbag69
(g85
g71
NtRp4199
(dp4200
g74
(dp4201
sg83
g3831
sg76
(lp4202
g69
(g90
g71
NtRp4203
(dp4204
g74
(dp4205
g94
g95
ssg83
g4199
sg76
(lp4206
S'google_analytics_id'
p4207
asbag69
(g90
g71
NtRp4208
(dp4209
g74
(dp4210
g101
g102
ssg83
g4199
sg76
(lp4211
S':'
asbag69
(g90
g71
NtRp4212
(dp4213
g74
(dp4214
sg83
g4199
sg76
(lp4215
g69
(g70
g71
NtRp4216
(dp4217
g74
(dp4218
g82
I5
ssg83
g4212
sg76
(lp4219
S'None'
p4220
asbasbasbag69
(g85
g71
NtRp4221
(dp4222
g74
(dp4223
sg83
g3831
sg76
(lp4224
g69
(g90
g71
NtRp4225
(dp4226
g74
(dp4227
g94
g95
ssg83
g4221
sg76
(lp4228
S'headers'
p4229
asbag69
(g90
g71
NtRp4230
(dp4231
g74
(dp4232
g101
g102
ssg83
g4221
sg76
(lp4233
S':'
asbag69
(g90
g71
NtRp4234
(dp4235
g74
(dp4236
sg83
g4221
sg76
(lp4237
g69
(g70
g71
NtRp4238
(dp4239
g74
(dp4240
g82
I5
ssg83
g4234
sg76
(lp4241
g69
(g78
g71
NtRp4242
(dp4243
g74
(dp4244
g82
I4
ssg83
Nsg76
(lp4245
g69
(g85
g71
NtRp4246
(dp4247
g74
(dp4248
sg83
g4242
sg76
(lp4249
g69
(g90
g71
NtRp4250
(dp4251
g74
(dp4252
g94
g95
ssg83
g4246
sg76
(lp4253
S'X-Powered-By'
p4254
asbag69
(g90
g71
NtRp4255
(dp4256
g74
(dp4257
g101
g102
ssg83
g4246
sg76
(lp4258
S':'
asbag69
(g90
g71
NtRp4259
(dp4260
g74
(dp4261
sg83
g4246
sg76
(lp4262
g69
(g70
g71
NtRp4263
(dp4264
g74
(dp4265
g82
I4
ssg83
g4259
sg76
(lp4266
S'web2py'
p4267
asbasbasbasbasbasbasbag69
(g85
g71
NtRp4268
(dp4269
g74
(dp4270
sg83
g3831
sg76
(lp4271
g69
(g90
g71
NtRp4272
(dp4273
g74
(dp4274
g94
g95
ssg83
g4268
sg76
(lp4275
S'logo'
p4276
asbag69
(g90
g71
NtRp4277
(dp4278
g74
(dp4279
g101
g102
ssg83
g4268
sg76
(lp4280
S':'
asbag69
(g90
g71
NtRp4281
(dp4282
g74
(dp4283
sg83
g4268
sg76
(lp4284
g69
(g70
g71
NtRp4285
(dp4286
g74
(dp4287
g82
I5
ssg83
g4281
sg76
(lp4288
g69
(cgluon.html
A
p4289
g71
NtRp4290
(dp4291
g74
(dp4292
S'_class'
p4293
S'brand'
p4294
sS'_href'
p4295
S''
ssg83
Nsg76
(lp4296
g69
(cgluon.html
B
p4297
g71
NtRp4298
(dp4299
g74
(dp4300
sg83
g4290
sg76
(lp4301
S'hosts'
p4302
ag69
(cgluon.html
SPAN
p4303
g71
NtRp4304
(dp4305
g74
(dp4306
sg83
g4298
sg76
(lp4307
S'3'
asbaS''
asbacgluon.html
XML_unpickle
p4308
(S's\r\x00\x00\x00&trade;&nbsp;'
tRp4309
asbasbasbasbag69
(g85
g71
NtRp4310
(dp4311
g74
(dp4312
sg83
g3831
sg76
(lp4313
g69
(g90
g71
NtRp4314
(dp4315
g74
(dp4316
g94
g95
ssg83
g4310
sg76
(lp4317
S'menu'
p4318
asbag69
(g90
g71
NtRp4319
(dp4320
g74
(dp4321
g101
g102
ssg83
g4310
sg76
(lp4322
S':'
asbag69
(g90
g71
NtRp4323
(dp4324
g74
(dp4325
sg83
g4310
sg76
(lp4326
g69
(g70
g71
NtRp4327
(dp4328
g74
(dp4329
g82
I5
ssg83
g4323
sg76
(lp4330
g69
(g78
g71
NtRp4331
(dp4332
g74
(dp4333
g82
I4
ssg83
Nsg76
(lp4334
g69
(g85
g71
NtRp4335
(dp4336
g74
(dp4337
sg83
g4331
sg76
(lp4338
g69
(g90
g71
NtRp4339
(dp4340
g74
(dp4341
sg83
g4335
sg76
(lp4342
g69
(g70
g71
NtRp4343
(dp4344
g74
(dp4345
g82
I4
ssg83
g4339
sg76
(lp4346
g69
(g78
g71
NtRp4347
(dp4348
g74
(dp4349
g82
I3
ssg83
Nsg76
(lp4350
g69
(g85
g71
NtRp4351
(dp4352
g74
(dp4353
sg83
g4347
sg76
(lp4354
g69
(g90
g71
NtRp4355
(dp4356
g74
(dp4357
sg83
g4351
sg76
(lp4358
g69
(g70
g71
NtRp4359
(dp4360
g74
(dp4361
g82
I3
ssg83
g4355
sg76
(lp4362
cgluon.languages
lazyT_unpickle
p4363
(S't\x08\x00\x00\x00Clientes'
tRp4364
asbasbasbag69
(g85
g71
NtRp4365
(dp4366
g74
(dp4367
sg83
g4347
sg76
(lp4368
g69
(g90
g71
NtRp4369
(dp4370
g74
(dp4371
sg83
g4365
sg76
(lp4372
g69
(g70
g71
NtRp4373
(dp4374
g74
(dp4375
g82
I3
ssg83
g4369
sg76
(lp4376
g112
asbasbasbag69
(g85
g71
NtRp4377
(dp4378
g74
(dp4379
sg83
g4347
sg76
(lp4380
g69
(g90
g71
NtRp4381
(dp4382
g74
(dp4383
sg83
g4377
sg76
(lp4384
g69
(g70
g71
NtRp4385
(dp4386
g74
(dp4387
g82
I3
ssg83
g4381
sg76
(lp4388
S'/'
asbasbasbag69
(g85
g71
NtRp4389
(dp4390
g74
(dp4391
sg83
g4347
sg76
(lp4392
g69
(g90
g71
NtRp4393
(dp4394
g74
(dp4395
sg83
g4389
sg76
(lp4396
g69
(g70
g71
NtRp4397
(dp4398
g74
(dp4399
g82
I3
ssg83
g4393
sg76
(lp4400
g69
(g78
g71
NtRp4401
(dp4402
g74
(dp4403
g82
I2
ssg83
Nsg76
(lp4404
sbasbasbasbasbasbasbasbag69
(g85
g71
NtRp4405
(dp4406
g74
(dp4407
sg83
g4331
sg76
(lp4408
g69
(g90
g71
NtRp4409
(dp4410
g74
(dp4411
sg83
g4405
sg76
(lp4412
g69
(g70
g71
NtRp4413
(dp4414
g74
(dp4415
g82
I4
ssg83
g4409
sg76
(lp4416
g69
(g78
g71
NtRp4417
(dp4418
g74
(dp4419
g82
I3
ssg83
Nsg76
(lp4420
g69
(g85
g71
NtRp4421
(dp4422
g74
(dp4423
sg83
g4417
sg76
(lp4424
g69
(g90
g71
NtRp4425
(dp4426
g74
(dp4427
sg83
g4421
sg76
(lp4428
g69
(g70
g71
NtRp4429
(dp4430
g74
(dp4431
g82
I3
ssg83
g4425
sg76
(lp4432
g4363
(S't\n\x00\x00\x00Servidores'
tRp4433
asbasbasbag69
(g85
g71
NtRp4434
(dp4435
g74
(dp4436
sg83
g4417
sg76
(lp4437
g69
(g90
g71
NtRp4438
(dp4439
g74
(dp4440
sg83
g4434
sg76
(lp4441
g69
(g70
g71
NtRp4442
(dp4443
g74
(dp4444
g82
I3
ssg83
g4438
sg76
(lp4445
g112
asbasbasbag69
(g85
g71
NtRp4446
(dp4447
g74
(dp4448
sg83
g4417
sg76
(lp4449
g69
(g90
g71
NtRp4450
(dp4451
g74
(dp4452
sg83
g4446
sg76
(lp4453
g69
(g70
g71
NtRp4454
(dp4455
g74
(dp4456
g82
I3
ssg83
g4450
sg76
(lp4457
S'/show_servidor'
p4458
asbasbasbag69
(g85
g71
NtRp4459
(dp4460
g74
(dp4461
sg83
g4417
sg76
(lp4462
g69
(g90
g71
NtRp4463
(dp4464
g74
(dp4465
sg83
g4459
sg76
(lp4466
g69
(g70
g71
NtRp4467
(dp4468
g74
(dp4469
g82
I3
ssg83
g4463
sg76
(lp4470
g69
(g78
g71
NtRp4471
(dp4472
g74
(dp4473
g82
I2
ssg83
Nsg76
(lp4474
sbasbasbasbasbasbasbasbag69
(g85
g71
NtRp4475
(dp4476
g74
(dp4477
sg83
g4331
sg76
(lp4478
g69
(g90
g71
NtRp4479
(dp4480
g74
(dp4481
sg83
g4475
sg76
(lp4482
g69
(g70
g71
NtRp4483
(dp4484
g74
(dp4485
g82
I4
ssg83
g4479
sg76
(lp4486
g69
(g78
g71
NtRp4487
(dp4488
g74
(dp4489
g82
I3
ssg83
Nsg76
(lp4490
g69
(g85
g71
NtRp4491
(dp4492
g74
(dp4493
sg83
g4487
sg76
(lp4494
g69
(g90
g71
NtRp4495
(dp4496
g74
(dp4497
sg83
g4491
sg76
(lp4498
g69
(g70
g71
NtRp4499
(dp4500
g74
(dp4501
g82
I3
ssg83
g4495
sg76
(lp4502
g4363
(S't\x07\x00\x00\x00Distros'
tRp4503
asbasbasbag69
(g85
g71
NtRp4504
(dp4505
g74
(dp4506
sg83
g4487
sg76
(lp4507
g69
(g90
g71
NtRp4508
(dp4509
g74
(dp4510
sg83
g4504
sg76
(lp4511
g69
(g70
g71
NtRp4512
(dp4513
g74
(dp4514
g82
I3
ssg83
g4508
sg76
(lp4515
g112
asbasbasbag69
(g85
g71
NtRp4516
(dp4517
g74
(dp4518
sg83
g4487
sg76
(lp4519
g69
(g90
g71
NtRp4520
(dp4521
g74
(dp4522
sg83
g4516
sg76
(lp4523
g69
(g70
g71
NtRp4524
(dp4525
g74
(dp4526
g82
I3
ssg83
g4520
sg76
(lp4527
S'/show_distro'
p4528
asbasbasbag69
(g85
g71
NtRp4529
(dp4530
g74
(dp4531
sg83
g4487
sg76
(lp4532
g69
(g90
g71
NtRp4533
(dp4534
g74
(dp4535
sg83
g4529
sg76
(lp4536
g69
(g70
g71
NtRp4537
(dp4538
g74
(dp4539
g82
I3
ssg83
g4533
sg76
(lp4540
g69
(g78
g71
NtRp4541
(dp4542
g74
(dp4543
g82
I2
ssg83
Nsg76
(lp4544
sbasbasbasbasbasbasbasbag69
(g85
g71
NtRp4545
(dp4546
g74
(dp4547
sg83
g4331
sg76
(lp4548
g69
(g90
g71
NtRp4549
(dp4550
g74
(dp4551
sg83
g4545
sg76
(lp4552
g69
(g70
g71
NtRp4553
(dp4554
g74
(dp4555
g82
I4
ssg83
g4549
sg76
(lp4556
g69
(g78
g71
NtRp4557
(dp4558
g74
(dp4559
g82
I3
ssg83
Nsg76
(lp4560
g69
(g85
g71
NtRp4561
(dp4562
g74
(dp4563
sg83
g4557
sg76
(lp4564
g69
(g90
g71
NtRp4565
(dp4566
g74
(dp4567
sg83
g4561
sg76
(lp4568
g69
(g70
g71
NtRp4569
(dp4570
g74
(dp4571
g82
I3
ssg83
g4565
sg76
(lp4572
g4363
(S's\x05\x00\x00\x00+host'
tRp4573
asbasbasbag69
(g85
g71
NtRp4574
(dp4575
g74
(dp4576
sg83
g4557
sg76
(lp4577
g69
(g90
g71
NtRp4578
(dp4579
g74
(dp4580
sg83
g4574
sg76
(lp4581
g69
(g70
g71
NtRp4582
(dp4583
g74
(dp4584
g82
I3
ssg83
g4578
sg76
(lp4585
g112
asbasbasbag69
(g85
g71
NtRp4586
(dp4587
g74
(dp4588
sg83
g4557
sg76
(lp4589
g69
(g90
g71
NtRp4590
(dp4591
g74
(dp4592
sg83
g4586
sg76
(lp4593
g69
(g70
g71
NtRp4594
(dp4595
g74
(dp4596
g82
I3
ssg83
g4590
sg76
(lp4597
S'/interface'
p4598
asbasbasbag69
(g85
g71
NtRp4599
(dp4600
g74
(dp4601
sg83
g4557
sg76
(lp4602
g69
(g90
g71
NtRp4603
(dp4604
g74
(dp4605
sg83
g4599
sg76
(lp4606
g69
(g70
g71
NtRp4607
(dp4608
g74
(dp4609
g82
I3
ssg83
g4603
sg76
(lp4610
g69
(g78
g71
NtRp4611
(dp4612
g74
(dp4613
g82
I2
ssg83
Nsg76
(lp4614
sbasbasbasbasbasbasbasbasbasbasbasbag69
(g85
g71
NtRp4615
(dp4616
g74
(dp4617
sg83
g3831
sg76
(lp4618
g69
(g90
g71
NtRp4619
(dp4620
g74
(dp4621
g94
g95
ssg83
g4615
sg76
(lp4622
S'menu2'
p4623
asbag69
(g90
g71
NtRp4624
(dp4625
g74
(dp4626
g101
g102
ssg83
g4615
sg76
(lp4627
S':'
asbag69
(g90
g71
NtRp4628
(dp4629
g74
(dp4630
sg83
g4615
sg76
(lp4631
g69
(g70
g71
NtRp4632
(dp4633
g74
(dp4634
g82
I5
ssg83
g4628
sg76
(lp4635
g69
(g78
g71
NtRp4636
(dp4637
g74
(dp4638
g82
I4
ssg83
Nsg76
(lp4639
g69
(g85
g71
NtRp4640
(dp4641
g74
(dp4642
sg83
g4636
sg76
(lp4643
g69
(g90
g71
NtRp4644
(dp4645
g74
(dp4646
sg83
g4640
sg76
(lp4647
g69
(g70
g71
NtRp4648
(dp4649
g74
(dp4650
g82
I4
ssg83
g4644
sg76
(lp4651
g69
(g78
g71
NtRp4652
(dp4653
g74
(dp4654
g82
I3
ssg83
Nsg76
(lp4655
g69
(g85
g71
NtRp4656
(dp4657
g74
(dp4658
sg83
g4652
sg76
(lp4659
g69
(g90
g71
NtRp4660
(dp4661
g74
(dp4662
sg83
g4656
sg76
(lp4663
g69
(g70
g71
NtRp4664
(dp4665
g74
(dp4666
g82
I3
ssg83
g4660
sg76
(lp4667
g69
(g4303
g71
NtRp4668
(dp4669
g74
(dp4670
g4293
S'dropdown-toggle'
p4671
ssg83
Nsg76
(lp4672
S'Admin'
p4673
asbasbasbasbag69
(g85
g71
NtRp4674
(dp4675
g74
(dp4676
sg83
g4652
sg76
(lp4677
g69
(g90
g71
NtRp4678
(dp4679
g74
(dp4680
sg83
g4674
sg76
(lp4681
g69
(g70
g71
NtRp4682
(dp4683
g74
(dp4684
g82
I3
ssg83
g4678
sg76
(lp4685
g112
asbasbasbag69
(g85
g71
NtRp4686
(dp4687
g74
(dp4688
sg83
g4652
sg76
(lp4689
g69
(g90
g71
NtRp4690
(dp4691
g74
(dp4692
sg83
g4686
sg76
(lp4693
g69
(g70
g71
NtRp4694
(dp4695
g74
(dp4696
g82
I3
ssg83
g4690
sg76
(lp4697
S'#'
asbasbasbag69
(g85
g71
NtRp4698
(dp4699
g74
(dp4700
sg83
g4652
sg76
(lp4701
g69
(g90
g71
NtRp4702
(dp4703
g74
(dp4704
sg83
g4698
sg76
(lp4705
g69
(g70
g71
NtRp4706
(dp4707
g74
(dp4708
g82
I3
ssg83
g4702
sg76
(lp4709
g69
(g78
g71
NtRp4710
(dp4711
g74
(dp4712
g82
I2
ssg83
Nsg76
(lp4713
g69
(g85
g71
NtRp4714
(dp4715
g74
(dp4716
sg83
g4710
sg76
(lp4717
g69
(g90
g71
NtRp4718
(dp4719
g74
(dp4720
sg83
g4714
sg76
(lp4721
g69
(g70
g71
NtRp4722
(dp4723
g74
(dp4724
g82
I2
ssg83
g4718
sg76
(lp4725
g69
(g78
g71
NtRp4726
(dp4727
g74
(dp4728
g82
I1
ssg83
Nsg76
(lp4729
g69
(g85
g71
NtRp4730
(dp4731
g74
(dp4732
sg83
g4726
sg76
(lp4733
g69
(g90
g71
NtRp4734
(dp4735
g74
(dp4736
sg83
g4730
sg76
(lp4737
g69
(g70
g71
NtRp4738
(dp4739
g74
(dp4740
g82
I1
ssg83
g4734
sg76
(lp4741
g4363
(S's\t\x00\x00\x00Usu\xc3\xa1rios'
tRp4742
asbasbasbag69
(g85
g71
NtRp4743
(dp4744
g74
(dp4745
sg83
g4726
sg76
(lp4746
g69
(g90
g71
NtRp4747
(dp4748
g74
(dp4749
sg83
g4743
sg76
(lp4750
g69
(g70
g71
NtRp4751
(dp4752
g74
(dp4753
g82
I1
ssg83
g4747
sg76
(lp4754
I00
asbasbasbag69
(g85
g71
NtRp4755
(dp4756
g74
(dp4757
sg83
g4726
sg76
(lp4758
g69
(g90
g71
NtRp4759
(dp4760
g74
(dp4761
sg83
g4755
sg76
(lp4762
g69
(g70
g71
NtRp4763
(dp4764
g74
(dp4765
g82
I1
ssg83
g4759
sg76
(lp4766
S'/manager/users'
p4767
asbasbasbasbasbasbasbag69
(g85
g71
NtRp4768
(dp4769
g74
(dp4770
sg83
g4710
sg76
(lp4771
g69
(g90
g71
NtRp4772
(dp4773
g74
(dp4774
sg83
g4768
sg76
(lp4775
g69
(g70
g71
NtRp4776
(dp4777
g74
(dp4778
g82
I2
ssg83
g4772
sg76
(lp4779
g69
(g78
g71
NtRp4780
(dp4781
g74
(dp4782
g82
I1
ssg83
Nsg76
(lp4783
g69
(g85
g71
NtRp4784
(dp4785
g74
(dp4786
sg83
g4780
sg76
(lp4787
g69
(g90
g71
NtRp4788
(dp4789
g74
(dp4790
sg83
g4784
sg76
(lp4791
g69
(g70
g71
NtRp4792
(dp4793
g74
(dp4794
g82
I1
ssg83
g4788
sg76
(lp4795
g4363
(S't\x06\x00\x00\x00Grupos'
tRp4796
asbasbasbag69
(g85
g71
NtRp4797
(dp4798
g74
(dp4799
sg83
g4780
sg76
(lp4800
g69
(g90
g71
NtRp4801
(dp4802
g74
(dp4803
sg83
g4797
sg76
(lp4804
g69
(g70
g71
NtRp4805
(dp4806
g74
(dp4807
g82
I1
ssg83
g4801
sg76
(lp4808
I00
asbasbasbag69
(g85
g71
NtRp4809
(dp4810
g74
(dp4811
sg83
g4780
sg76
(lp4812
g69
(g90
g71
NtRp4813
(dp4814
g74
(dp4815
sg83
g4809
sg76
(lp4816
g69
(g70
g71
NtRp4817
(dp4818
g74
(dp4819
g82
I1
ssg83
g4813
sg76
(lp4820
S'/manager/groups'
p4821
asbasbasbasbasbasbasbag69
(g85
g71
NtRp4822
(dp4823
g74
(dp4824
sg83
g4710
sg76
(lp4825
g69
(g90
g71
NtRp4826
(dp4827
g74
(dp4828
sg83
g4822
sg76
(lp4829
g69
(g70
g71
NtRp4830
(dp4831
g74
(dp4832
g82
I2
ssg83
g4826
sg76
(lp4833
g69
(g78
g71
NtRp4834
(dp4835
g74
(dp4836
g82
I1
ssg83
Nsg76
(lp4837
g69
(g85
g71
NtRp4838
(dp4839
g74
(dp4840
sg83
g4834
sg76
(lp4841
g69
(g90
g71
NtRp4842
(dp4843
g74
(dp4844
sg83
g4838
sg76
(lp4845
g69
(g70
g71
NtRp4846
(dp4847
g74
(dp4848
g82
I1
ssg83
g4842
sg76
(lp4849
g4363
(S't\x07\x00\x00\x00Membros'
tRp4850
asbasbasbag69
(g85
g71
NtRp4851
(dp4852
g74
(dp4853
sg83
g4834
sg76
(lp4854
g69
(g90
g71
NtRp4855
(dp4856
g74
(dp4857
sg83
g4851
sg76
(lp4858
g69
(g70
g71
NtRp4859
(dp4860
g74
(dp4861
g82
I1
ssg83
g4855
sg76
(lp4862
I00
asbasbasbag69
(g85
g71
NtRp4863
(dp4864
g74
(dp4865
sg83
g4834
sg76
(lp4866
g69
(g90
g71
NtRp4867
(dp4868
g74
(dp4869
sg83
g4863
sg76
(lp4870
g69
(g70
g71
NtRp4871
(dp4872
g74
(dp4873
g82
I1
ssg83
g4867
sg76
(lp4874
S'/manager/membership'
p4875
asbasbasbasbasbasbasbasbasbasbasbasbasbasbasbag69
(g85
g71
NtRp4876
(dp4877
g74
(dp4878
sg83
g4636
sg76
(lp4879
g69
(g90
g71
NtRp4880
(dp4881
g74
(dp4882
sg83
g4876
sg76
(lp4883
g69
(g70
g71
NtRp4884
(dp4885
g74
(dp4886
g82
I4
ssg83
g4880
sg76
(lp4887
g69
(g78
g71
NtRp4888
(dp4889
g74
(dp4890
g82
I3
ssg83
Nsg76
(lp4891
g69
(g85
g71
NtRp4892
(dp4893
g74
(dp4894
sg83
g4888
sg76
(lp4895
g69
(g90
g71
NtRp4896
(dp4897
g74
(dp4898
sg83
g4892
sg76
(lp4899
g69
(g70
g71
NtRp4900
(dp4901
g74
(dp4902
g82
I3
ssg83
g4896
sg76
(lp4903
g69
(g4303
g71
NtRp4904
(dp4905
g74
(dp4906
g4293
g4671
ssg83
Nsg76
(lp4907
S'Login'
p4908
asbasbasbasbag69
(g85
g71
NtRp4909
(dp4910
g74
(dp4911
sg83
g4888
sg76
(lp4912
g69
(g90
g71
NtRp4913
(dp4914
g74
(dp4915
sg83
g4909
sg76
(lp4916
g69
(g70
g71
NtRp4917
(dp4918
g74
(dp4919
g82
I3
ssg83
g4913
sg76
(lp4920
g112
asbasbasbag69
(g85
g71
NtRp4921
(dp4922
g74
(dp4923
sg83
g4888
sg76
(lp4924
g69
(g90
g71
NtRp4925
(dp4926
g74
(dp4927
sg83
g4921
sg76
(lp4928
g69
(g70
g71
NtRp4929
(dp4930
g74
(dp4931
g82
I3
ssg83
g4925
sg76
(lp4932
S'#'
asbasbasbag69
(g85
g71
NtRp4933
(dp4934
g74
(dp4935
sg83
g4888
sg76
(lp4936
g69
(g90
g71
NtRp4937
(dp4938
g74
(dp4939
sg83
g4933
sg76
(lp4940
g69
(g70
g71
NtRp4941
(dp4942
g74
(dp4943
g82
I3
ssg83
g4937
sg76
(lp4944
g69
(g78
g71
NtRp4945
(dp4946
g74
(dp4947
g82
I2
ssg83
Nsg76
(lp4948
g69
(g85
g71
NtRp4949
(dp4950
g74
(dp4951
sg83
g4945
sg76
(lp4952
g69
(g90
g71
NtRp4953
(dp4954
g74
(dp4955
sg83
g4949
sg76
(lp4956
g69
(g70
g71
NtRp4957
(dp4958
g74
(dp4959
g82
I2
ssg83
g4953
sg76
(lp4960
g69
(g78
g71
NtRp4961
(dp4962
g74
(dp4963
g82
I1
ssg83
Nsg76
(lp4964
g69
(g85
g71
NtRp4965
(dp4966
g74
(dp4967
sg83
g4961
sg76
(lp4968
g69
(g90
g71
NtRp4969
(dp4970
g74
(dp4971
sg83
g4965
sg76
(lp4972
g69
(g70
g71
NtRp4973
(dp4974
g74
(dp4975
g82
I1
ssg83
g4969
sg76
(lp4976
g4363
(S't\x06\x00\x00\x00Logout'
tRp4977
asbasbasbag69
(g85
g71
NtRp4978
(dp4979
g74
(dp4980
sg83
g4961
sg76
(lp4981
g69
(g90
g71
NtRp4982
(dp4983
g74
(dp4984
sg83
g4978
sg76
(lp4985
g69
(g70
g71
NtRp4986
(dp4987
g74
(dp4988
g82
I1
ssg83
g4982
sg76
(lp4989
I00
asbasbasbag69
(g85
g71
NtRp4990
(dp4991
g74
(dp4992
sg83
g4961
sg76
(lp4993
g69
(g90
g71
NtRp4994
(dp4995
g74
(dp4996
sg83
g4990
sg76
(lp4997
g69
(g70
g71
NtRp4998
(dp4999
g74
(dp5000
g82
I1
ssg83
g4994
sg76
(lp5001
S'/initial/user/logout'
p5002
asbasbasbasbasbasbasbasbasbasbasbasbasbasbasbasbasbasbasbag69
(g85
g71
NtRp5003
(dp5004
g74
(dp5005
sg83
g3831
sg76
(lp5006
g69
(g90
g71
NtRp5007
(dp5008
g74
(dp5009
g94
g95
ssg83
g5003
sg76
(lp5010
S'meta'
p5011
asbag69
(g90
g71
NtRp5012
(dp5013
g74
(dp5014
g101
g102
ssg83
g5003
sg76
(lp5015
S':'
asbag69
(g90
g71
NtRp5016
(dp5017
g74
(dp5018
sg83
g5003
sg76
(lp5019
g69
(g70
g71
NtRp5020
(dp5021
g74
(dp5022
g82
I5
ssg83
g5016
sg76
(lp5023
g69
(g78
g71
NtRp5024
(dp5025
g74
(dp5026
g82
I4
ssg83
Nsg76
(lp5027
g69
(g85
g71
NtRp5028
(dp5029
g74
(dp5030
sg83
g5024
sg76
(lp5031
g69
(g90
g71
NtRp5032
(dp5033
g74
(dp5034
g94
g95
ssg83
g5028
sg76
(lp5035
S'author'
p5036
asbag69
(g90
g71
NtRp5037
(dp5038
g74
(dp5039
g101
g102
ssg83
g5028
sg76
(lp5040
S':'
asbag69
(g90
g71
NtRp5041
(dp5042
g74
(dp5043
sg83
g5028
sg76
(lp5044
g69
(g70
g71
NtRp5045
(dp5046
g74
(dp5047
g82
I4
ssg83
g5041
sg76
(lp5048
S'Your Name <you@example.com>'
p5049
asbasbasbag69
(g85
g71
NtRp5050
(dp5051
g74
(dp5052
sg83
g5024
sg76
(lp5053
g69
(g90
g71
NtRp5054
(dp5055
g74
(dp5056
g94
g95
ssg83
g5050
sg76
(lp5057
S'description'
p5058
asbag69
(g90
g71
NtRp5059
(dp5060
g74
(dp5061
g101
g102
ssg83
g5050
sg76
(lp5062
S':'
asbag69
(g90
g71
NtRp5063
(dp5064
g74
(dp5065
sg83
g5050
sg76
(lp5066
g69
(g70
g71
NtRp5067
(dp5068
g74
(dp5069
g82
I4
ssg83
g5063
sg76
(lp5070
S'a cool new app'
p5071
asbasbasbag69
(g85
g71
NtRp5072
(dp5073
g74
(dp5074
sg83
g5024
sg76
(lp5075
g69
(g90
g71
NtRp5076
(dp5077
g74
(dp5078
g94
g95
ssg83
g5072
sg76
(lp5079
S'generator'
p5080
asbag69
(g90
g71
NtRp5081
(dp5082
g74
(dp5083
g101
g102
ssg83
g5072
sg76
(lp5084
S':'
asbag69
(g90
g71
NtRp5085
(dp5086
g74
(dp5087
sg83
g5072
sg76
(lp5088
g69
(g70
g71
NtRp5089
(dp5090
g74
(dp5091
g82
I4
ssg83
g5085
sg76
(lp5092
S'Web2py Web Framework'
p5093
asbasbasbag69
(g85
g71
NtRp5094
(dp5095
g74
(dp5096
sg83
g5024
sg76
(lp5097
g69
(g90
g71
NtRp5098
(dp5099
g74
(dp5100
g94
g95
ssg83
g5094
sg76
(lp5101
S'keywords'
p5102
asbag69
(g90
g71
NtRp5103
(dp5104
g74
(dp5105
g101
g102
ssg83
g5094
sg76
(lp5106
S':'
asbag69
(g90
g71
NtRp5107
(dp5108
g74
(dp5109
sg83
g5094
sg76
(lp5110
g69
(g70
g71
NtRp5111
(dp5112
g74
(dp5113
g82
I4
ssg83
g5107
sg76
(lp5114
S'web2py, python, framework'
p5115
asbasbasbasbasbasbasbag69
(g85
g71
NtRp5116
(dp5117
g74
(dp5118
sg83
g3831
sg76
(lp5119
g69
(g90
g71
NtRp5120
(dp5121
g74
(dp5122
g94
g95
ssg83
g5116
sg76
(lp5123
S'models_to_run'
p5124
asbag69
(g90
g71
NtRp5125
(dp5126
g74
(dp5127
g101
g102
ssg83
g5116
sg76
(lp5128
S':'
asbag69
(g90
g71
NtRp5129
(dp5130
g74
(dp5131
sg83
g5116
sg76
(lp5132
g69
(g70
g71
NtRp5133
(dp5134
g74
(dp5135
g82
I5
ssg83
g5129
sg76
(lp5136
g69
(g78
g71
NtRp5137
(dp5138
g74
(dp5139
g82
I4
ssg83
Nsg76
(lp5140
g69
(g85
g71
NtRp5141
(dp5142
g74
(dp5143
sg83
g5137
sg76
(lp5144
g69
(g90
g71
NtRp5145
(dp5146
g74
(dp5147
sg83
g5141
sg76
(lp5148
g69
(g70
g71
NtRp5149
(dp5150
g74
(dp5151
g82
I4
ssg83
g5145
sg76
(lp5152
S'^\\w+\\.py$'
p5153
asbasbasbag69
(g85
g71
NtRp5154
(dp5155
g74
(dp5156
sg83
g5137
sg76
(lp5157
g69
(g90
g71
NtRp5158
(dp5159
g74
(dp5160
sg83
g5154
sg76
(lp5161
g69
(g70
g71
NtRp5162
(dp5163
g74
(dp5164
g82
I4
ssg83
g5158
sg76
(lp5165
S'^initial/\\w+\\.py$'
p5166
asbasbasbag69
(g85
g71
NtRp5167
(dp5168
g74
(dp5169
sg83
g5137
sg76
(lp5170
g69
(g90
g71
NtRp5171
(dp5172
g74
(dp5173
sg83
g5167
sg76
(lp5174
g69
(g70
g71
NtRp5175
(dp5176
g74
(dp5177
g82
I4
ssg83
g5171
sg76
(lp5178
S'^initial/show_cliente/\\w+\\.py$'
p5179
asbasbasbasbasbasbasbag69
(g85
g71
NtRp5180
(dp5181
g74
(dp5182
sg83
g3831
sg76
(lp5183
g69
(g90
g71
NtRp5184
(dp5185
g74
(dp5186
g94
g95
ssg83
g5180
sg76
(lp5187
S'postprocessing'
p5188
asbag69
(g90
g71
NtRp5189
(dp5190
g74
(dp5191
g101
g102
ssg83
g5180
sg76
(lp5192
S':'
asbag69
(g90
g71
NtRp5193
(dp5194
g74
(dp5195
sg83
g5180
sg76
(lp5196
g69
(g70
g71
NtRp5197
(dp5198
g74
(dp5199
g82
I5
ssg83
g5193
sg76
(lp5200
g69
(g78
g71
NtRp5201
(dp5202
g74
(dp5203
g82
I4
ssg83
Nsg76
(lp5204
sbasbasbasbag69
(g85
g71
NtRp5205
(dp5206
g74
(dp5207
sg83
g3831
sg76
(lp5208
g69
(g90
g71
NtRp5209
(dp5210
g74
(dp5211
g94
g95
ssg83
g5205
sg76
(lp5212
S'session_cookie_expires'
p5213
asbag69
(g90
g71
NtRp5214
(dp5215
g74
(dp5216
g101
g102
ssg83
g5205
sg76
(lp5217
S':'
asbag69
(g90
g71
NtRp5218
(dp5219
g74
(dp5220
sg83
g5205
sg76
(lp5221
g69
(g70
g71
NtRp5222
(dp5223
g74
(dp5224
g82
I5
ssg83
g5218
sg76
(lp5225
S'None'
p5226
asbasbasbag69
(g85
g71
NtRp5227
(dp5228
g74
(dp5229
sg83
g3831
sg76
(lp5230
g69
(g90
g71
NtRp5231
(dp5232
g74
(dp5233
g94
g95
ssg83
g5227
sg76
(lp5234
S'session_data_name'
p5235
asbag69
(g90
g71
NtRp5236
(dp5237
g74
(dp5238
g101
g102
ssg83
g5227
sg76
(lp5239
S':'
asbag69
(g90
g71
NtRp5240
(dp5241
g74
(dp5242
sg83
g5227
sg76
(lp5243
g69
(g70
g71
NtRp5244
(dp5245
g74
(dp5246
g82
I5
ssg83
g5240
sg76
(lp5247
S'session_data_projeto'
p5248
asbasbasbag69
(g85
g71
NtRp5249
(dp5250
g74
(dp5251
sg83
g3831
sg76
(lp5252
g69
(g90
g71
NtRp5253
(dp5254
g74
(dp5255
g94
g95
ssg83
g5249
sg76
(lp5256
S'session_file'
p5257
asbag69
(g90
g71
NtRp5258
(dp5259
g74
(dp5260
g101
g102
ssg83
g5249
sg76
(lp5261
S':'
asbag69
(g90
g71
NtRp5262
(dp5263
g74
(dp5264
sg83
g5249
sg76
(lp5265
g69
(g70
g71
NtRp5266
(dp5267
g74
(dp5268
g82
I5
ssg83
g5262
sg76
(lp5269
S"<open file '/var/www/hosts3/applications/projeto/sessions/127.0.0.1-691450d9-0478-4d7f-a716-be4ace49b6f4', mode 'rb+' at 0x7f9acc35e030>"
p5270
asbasbasbag69
(g85
g71
NtRp5271
(dp5272
g74
(dp5273
sg83
g3831
sg76
(lp5274
g69
(g90
g71
NtRp5275
(dp5276
g74
(dp5277
g94
g95
ssg83
g5271
sg76
(lp5278
S'session_filename'
p5279
asbag69
(g90
g71
NtRp5280
(dp5281
g74
(dp5282
g101
g102
ssg83
g5271
sg76
(lp5283
S':'
asbag69
(g90
g71
NtRp5284
(dp5285
g74
(dp5286
sg83
g5271
sg76
(lp5287
g69
(g70
g71
NtRp5288
(dp5289
g74
(dp5290
g82
I5
ssg83
g5284
sg76
(lp5291
S'/var/www/hosts3/applications/projeto/sessions/127.0.0.1-691450d9-0478-4d7f-a716-be4ace49b6f4'
p5292
asbasbasbag69
(g85
g71
NtRp5293
(dp5294
g74
(dp5295
sg83
g3831
sg76
(lp5296
g69
(g90
g71
NtRp5297
(dp5298
g74
(dp5299
g94
g95
ssg83
g5293
sg76
(lp5300
S'session_id'
p5301
asbag69
(g90
g71
NtRp5302
(dp5303
g74
(dp5304
g101
g102
ssg83
g5293
sg76
(lp5305
S':'
asbag69
(g90
g71
NtRp5306
(dp5307
g74
(dp5308
sg83
g5293
sg76
(lp5309
g69
(g70
g71
NtRp5310
(dp5311
g74
(dp5312
g82
I5
ssg83
g5306
sg76
(lp5313
g869
asbasbasbag69
(g85
g71
NtRp5314
(dp5315
g74
(dp5316
sg83
g3831
sg76
(lp5317
g69
(g90
g71
NtRp5318
(dp5319
g74
(dp5320
g94
g95
ssg83
g5314
sg76
(lp5321
S'session_id_name'
p5322
asbag69
(g90
g71
NtRp5323
(dp5324
g74
(dp5325
g101
g102
ssg83
g5314
sg76
(lp5326
S':'
asbag69
(g90
g71
NtRp5327
(dp5328
g74
(dp5329
sg83
g5314
sg76
(lp5330
g69
(g70
g71
NtRp5331
(dp5332
g74
(dp5333
g82
I5
ssg83
g5327
sg76
(lp5334
g3888
asbasbasbag69
(g85
g71
NtRp5335
(dp5336
g74
(dp5337
sg83
g3831
sg76
(lp5338
g69
(g90
g71
NtRp5339
(dp5340
g74
(dp5341
g94
g95
ssg83
g5335
sg76
(lp5342
S'session_locked'
p5343
asbag69
(g90
g71
NtRp5344
(dp5345
g74
(dp5346
g101
g102
ssg83
g5335
sg76
(lp5347
S':'
asbag69
(g90
g71
NtRp5348
(dp5349
g74
(dp5350
sg83
g5335
sg76
(lp5351
g69
(g70
g71
NtRp5352
(dp5353
g74
(dp5354
g82
I5
ssg83
g5348
sg76
(lp5355
g1986
asbasbasbag69
(g85
g71
NtRp5356
(dp5357
g74
(dp5358
sg83
g3831
sg76
(lp5359
g69
(g90
g71
NtRp5360
(dp5361
g74
(dp5362
g94
g95
ssg83
g5356
sg76
(lp5363
S'session_new'
p5364
asbag69
(g90
g71
NtRp5365
(dp5366
g74
(dp5367
g101
g102
ssg83
g5356
sg76
(lp5368
S':'
asbag69
(g90
g71
NtRp5369
(dp5370
g74
(dp5371
sg83
g5356
sg76
(lp5372
g69
(g70
g71
NtRp5373
(dp5374
g74
(dp5375
g82
I5
ssg83
g5369
sg76
(lp5376
g112
asbasbasbag69
(g85
g71
NtRp5377
(dp5378
g74
(dp5379
sg83
g3831
sg76
(lp5380
g69
(g90
g71
NtRp5381
(dp5382
g74
(dp5383
g94
g95
ssg83
g5377
sg76
(lp5384
S'session_storage_type'
p5385
asbag69
(g90
g71
NtRp5386
(dp5387
g74
(dp5388
g101
g102
ssg83
g5377
sg76
(lp5389
S':'
asbag69
(g90
g71
NtRp5390
(dp5391
g74
(dp5392
sg83
g5377
sg76
(lp5393
g69
(g70
g71
NtRp5394
(dp5395
g74
(dp5396
g82
I5
ssg83
g5390
sg76
(lp5397
g3383
asbasbasbag69
(g85
g71
NtRp5398
(dp5399
g74
(dp5400
sg83
g3831
sg76
(lp5401
g69
(g90
g71
NtRp5402
(dp5403
g74
(dp5404
g94
g95
ssg83
g5398
sg76
(lp5405
S'status'
p5406
asbag69
(g90
g71
NtRp5407
(dp5408
g74
(dp5409
g101
g102
ssg83
g5398
sg76
(lp5410
S':'
asbag69
(g90
g71
NtRp5411
(dp5412
g74
(dp5413
sg83
g5398
sg76
(lp5414
g69
(g70
g71
NtRp5415
(dp5416
g74
(dp5417
g82
I5
ssg83
g5411
sg76
(lp5418
S'200'
p5419
asbasbasbag69
(g85
g71
NtRp5420
(dp5421
g74
(dp5422
sg83
g3831
sg76
(lp5423
g69
(g90
g71
NtRp5424
(dp5425
g74
(dp5426
g94
g95
ssg83
g5420
sg76
(lp5427
S'subtitle'
p5428
asbag69
(g90
g71
NtRp5429
(dp5430
g74
(dp5431
g101
g102
ssg83
g5420
sg76
(lp5432
S':'
asbag69
(g90
g71
NtRp5433
(dp5434
g74
(dp5435
sg83
g5420
sg76
(lp5436
g69
(g70
g71
NtRp5437
(dp5438
g74
(dp5439
g82
I5
ssg83
g5433
sg76
(lp5440
g4363
(S's\r\x00\x00\x00customize me!'
tRp5441
asbasbasbag69
(g85
g71
NtRp5442
(dp5443
g74
(dp5444
sg83
g3831
sg76
(lp5445
g69
(g90
g71
NtRp5446
(dp5447
g74
(dp5448
g94
g95
ssg83
g5442
sg76
(lp5449
S'title'
p5450
asbag69
(g90
g71
NtRp5451
(dp5452
g74
(dp5453
g101
g102
ssg83
g5442
sg76
(lp5454
S':'
asbag69
(g90
g71
NtRp5455
(dp5456
g74
(dp5457
sg83
g5442
sg76
(lp5458
g69
(g70
g71
NtRp5459
(dp5460
g74
(dp5461
g82
I5
ssg83
g5455
sg76
(lp5462
S'Projeto'
p5463
asbasbasbag69
(g85
g71
NtRp5464
(dp5465
g74
(dp5466
sg83
g3831
sg76
(lp5467
g69
(g90
g71
NtRp5468
(dp5469
g74
(dp5470
g94
g95
ssg83
g5464
sg76
(lp5471
S'view'
p5472
asbag69
(g90
g71
NtRp5473
(dp5474
g74
(dp5475
g101
g102
ssg83
g5464
sg76
(lp5476
S':'
asbag69
(g90
g71
NtRp5477
(dp5478
g74
(dp5479
sg83
g5464
sg76
(lp5480
g69
(g70
g71
NtRp5481
(dp5482
g74
(dp5483
g82
I5
ssg83
g5477
sg76
(lp5484
S'initial/show_cliente.html'
p5485
asbasbasbasbasbsS'locals'
p5486
(dp5487
g4
S"'/var/www/hosts3/applications/projeto/controllers/initial.py'"
p5488
sg6
S"'# coding: utf-8\\n\\n@auth.requires_login()\\ndef show... \\n\\nresponse._vars=response._caller(show_cliente)\\n'"
p5489
sssS'traceback'
p5490
S'Traceback (most recent call last):\n  File "/var/www/hosts3/gluon/restricted.py", line 211, in restricted\n    ccode = compile2(code, layer)\n  File "/var/www/hosts3/gluon/restricted.py", line 194, in compile2\n    return compile(code.rstrip().replace(\'\\r\\n\', \'\\n\') + \'\\n\', layer, \'exec\')\n  File "/var/www/hosts3/applications/projeto/controllers/initial.py", line 253\n    response.flash = \'uauauauauu\'\n                                ^\nIndentationError: unindent does not match any outer indentation level\n'
p5491
s.