(dp1
S'output'
p2
S"<type 'exceptions.TypeError'> grid() got an unexpected keyword argument 'edit'"
p3
sS'layer'
p4
S'/var/www/hosts3/applications/projeto/controllers/initial.py'
p5
sS'code'
p6
S'# coding: utf-8\n\ndef home():\n\tnome = "Fernando"\n\tresponse.title = "Titulo home"\n\treturn dict(nome=nome)\n\ndef contact():\n\treturn "form"\n\ndef about():\n\treturn "sobre"\n\ndef user():\n\tif request.args(0) == \'register\':\n        \tdb.auth_user.bio.writable = db.auth_user.bio.readable = False\n\treturn dict(user=auth())\n\ndef register():\n\treturn auth.register()\n\ndef login():\n        return auth.login()\n\ndef account():\n    return dict(register=auth.register(),\n                login=auth.login())\n\t\ndef download():\n\treturn response.download(request, db)\n\n\n@auth.requires_login()\ndef show_cliente():\n\tresponse.title="Clientes"\n\tdb.args=Cliente.id.readable=False\n\tgrid = SQLFORM.grid(Cliente,\n\t\tuser_signature=True, searchable=True, csv=False, \n\t\tpaginate=50, deletable=True, editable=True, \n\t\tdetails=False, ignore_rw = True, maxtextlength=26,\n\t\tcreate=auth.has_membership("admin"),\n\t\tedit=auth.has_membership("admin"),  \n    \tlinks = [lambda row: A(\'hosts\', _class=\'btn\', \n\t\t\t_title=\'ver servidores\', \n\t\t\t_href=URL("initial", "/cliente_host", \n\t\t\tvars=dict(f=row.id)))]\n    \t)\n\treturn response.render("initial/show_grid.html", grid=grid)\n\n@auth.requires_login()\ndef show_servidor():\n\tresponse.title="Servidores"\n\tdb.args=Servidor.id.readable=False\n\tgrid = SQLFORM.grid(Servidor,\n\t\tuser_signature=True, searchable=True, csv=False,\n\t\tpaginate=50, deletable=True, editable=True, \n\t\tdetails=False, ignore_rw = True, maxtextlength=26,  \n    \tlinks = [lambda row: A(\'hosts\', _class=\'btn\', \n    \t\t_title=\'ver servidores\', _href=URL("initial", "/servidor_host", vars=dict(f=row.id)))]\n\t\t)\n\treturn response.render("initial/show_grid.html", grid=grid)\n\n@auth.requires_login()\ndef show_distro():\n\tresponse.title="Distribui\xc3\xa7\xc3\xb5es"\n\tteste = 1\n\tprint teste\n\tdb.args=Distro.id.readable=False\n\tdb.args=Distro.img.readable=False\n\tgrid = SQLFORM.grid(Distro,\n\t\tuser_signature=True, searchable=True, csv=False,\n\t\tpaginate=50, deletable=True, editable=True, \n\t\tdetails=False, ignore_rw = True, maxtextlength=26, links_placement=\'left\',  \n    \tlinks = [lambda row: A(\'hosts\', \n    \t\t_class=\'btn\', \n    \t\t_title=\'ver servidores\', \n    \t\t_href=URL("initial", "/distro_host", \n    \t\tvars=dict(f=row.id))), \n    \tdict(header=\'\',body=lambda row: A( IMG(_src=URL("static", "images", args=(row.img) ))))]\n\t\t)\n\treturn response.render("initial/show_grid.html", grid=grid)\n\n@auth.requires_login()\ndef cliente_host():\n\tfiltro = request.vars[\'f\']\n\tcliente = db.executesql(\'SELECT nome FROM cliente WHERE id = %s;\' %str(filtro))\n\tresponse.title = cliente[0][0]\t\n\t\n\n\tquery = ((db.hosts.id_cliente == filtro) & (db.distro.id == db.hosts.id_distro))\n\tlinks = [dict(header=\'\',body=lambda row: A( IMG(_src=URL("static", "images", args=(row.distro.img)) )))]\n\tdb.hosts.id.readable=False\n\tdb.distro.img.readable=False\n\t\n\tfields = (db.hosts.id, db.hosts.id_servidor, db.hosts.id_distro, db.distro.img, \n\t\t\t\tdb.hosts.servicos, db.hosts.nome)\n\theaders = {\'host.id\':   \'ID\',\n           \'host.id_servidor\': \'Servidor\',\n           \'host.id_distro\': \'Distro\',\n          \'host.nome\': \'Nome\',\n\t   \'host.servicos\': \'Servicos\'}\n\tgrid = SQLFORM.grid(query=query, fields=fields, headers=headers, csv=False,\n\t\t\t\t\t\tdetails=False, maxtextlength=23, links=links, links_placement=\'left\')\n\n\treturn response.render("initial/show_grid.html", grid=grid)\n\n@auth.requires_login()\ndef servidor_host():\n\tfiltro = request.vars[\'f\']\n\tservidor = db.executesql(\'SELECT nome FROM servidor WHERE id = %s;\' %str(filtro))\n\tresponse.title = servidor[0][0]\t\n\n\tdb.distro.img.readable=False\n\tdb.hosts.id.readable=False\n\tquery = ((db.hosts.id_servidor == filtro) & (db.distro.id == db.hosts.id_distro))\n\t#query=((db.hosts.id_servidor == filtro))\n\t#query= db().select(db.hosts.ALL, db.distro.ALL,\n\t#\tleft=db.hosts.on(db.hosts.id_servidor == filtro)) # recupera dados select\n\tprint query\n\n\tlinks = [dict(header=\'\',body=lambda row: A( IMG(_src=URL("static", "images", args=(row.distro.img)) )))]\n\n\tfields = (db.hosts.id, db.hosts.id_servidor, db.hosts.id_distro, db.distro.img, \n\t\t\t\tdb.hosts.servicos, db.hosts.nome)\n\theaders = {\'host.id\':   \'ID\',\n           \'host.id_servidor\': \'Servidor\',\n           \'host.id_distro\': \'Distro\',\n          \'host.nome\': \'Nome\',\n\t   \'host.servicos\': \'Servicos\'}\n\tgrid = SQLFORM.grid(query=query, fields=fields, headers=headers, csv=False,\n\t\t\t\t\t\tdetails=False, maxtextlength=23, links=links, links_placement=\'left\')\n\n\treturn response.render("initial/show_grid.html", grid=grid)\n\n@auth.requires_login()\ndef distro_host():\n\tfiltro = request.vars[\'f\']\n\tdistro = db.executesql(\'SELECT nome FROM distro WHERE id = %s;\' %str(filtro))\n\tresponse.title = distro[0][0]\t\n\t\n\tdb.hosts.id.readable=False\n\tdb.distro.img.readable=False\n\tquery = ((db.hosts.id_distro == filtro) & (db.distro.id == db.hosts.id_distro))\n\tlinks = [dict(header=\'\',body=lambda row: A( IMG(_src=URL("static", "images", args=(row.distro.img)) )))]\n\n\tfields = (db.hosts.id, db.hosts.id_servidor, db.hosts.id_distro, db.distro.img, \n\t\t\t\tdb.hosts.servicos, db.hosts.nome)\n\theaders = {\'host.id\':   \'ID\',\n           \'host.id_servidor\': \'Servidor\',\n           \'host.id_distro\': \'Distro\',\n          \'host.nome\': \'Nome\',\n\t   \'host.servicos\': \'Servicos\'}\n\tgrid = SQLFORM.grid(query=query, fields=fields, headers=headers, csv=False,\n\t\t\t\t\t\tdetails=False, maxtextlength=23, links=links, links_placement=\'left\')\n\n\treturn response.render("initial/show_grid.html", grid=grid)\n\n\n\n\ndef exemplo():\n#\treturn "teste"\n\treturn response.render("default/teste.html", nome="fernando", \n\t\tsobrenome="vieira", lista=["item1", "item2", "item3"])\n\ndef teste1():\n\tprint "Action index"\n\tprint request.args\n\tprint request.vars \t\n\tprint request.post_vars #somente entradas de formul\xc3\xa1rio\n    \tprint request.get_vars  #somente entradas de url\n    \t#nome = request.vars[\'nome\']\n        mensagem = "Bem Vindo"\n        form = "<form action=\'\' method=\'POST\'><input name=\'nome\' id=\'nome\'/><input type=\'Submit\'></form><br>"\n        if \'nome\' in request.vars:\n\t\tform = "<p>Bem vindo %(nome)s</p>" % request.vars + form\t\t\n\t\t#mensagem = mensagem + " usu\xc3\xa1rio %(nome)s" % request.vars\t#mostrando variavel da url\n        \t#mensagem = mensagem + " usu\xc3\xa1rio %s" %str(nome)\t\t\t#mostrando uma variavel local    \n\treturn form\n\ndef teste2():\n\treturn "<form><label>Nome</label><input /></form><br><a href=\'http://www.w3schools.com\'>Visit W3Schools</a>"\n\t#return dict(nome="fernando")\n\t#return response.render("teste.html", dict(nome="fernando"))\n\ndef soma(x, y):\n\treturn x + y\n\ndef product():\n    grid = SQLFORM(db.product)\n    return response.render("initial/show_grid.html", grid=grid)\n\n\n \n\nresponse._vars=response._caller(show_cliente)\n'
p7
sS'snapshot'
p8
(dp9
S'exception'
p10
(dp11
S'__hash__'
p12
S"<method-wrapper '__hash__' of exceptions.TypeError object>"
p13
sS'__setattr__'
p14
S"<method-wrapper '__setattr__' of exceptions.TypeError object>"
p15
sS'__reduce_ex__'
p16
S'<built-in method __reduce_ex__ of exceptions.TypeError object>'
p17
sS'__getslice__'
p18
S"<method-wrapper '__getslice__' of exceptions.TypeError object>"
p19
sS'__getitem__'
p20
S"<method-wrapper '__getitem__' of exceptions.TypeError object>"
p21
sS'__setstate__'
p22
S'<built-in method __setstate__ of exceptions.TypeError object>'
p23
sS'args'
p24
S'("grid() got an unexpected keyword argument \'edit\'",)'
p25
sS'__reduce__'
p26
S'<built-in method __reduce__ of exceptions.TypeError object>'
p27
sS'__str__'
p28
S"<method-wrapper '__str__' of exceptions.TypeError object>"
p29
sS'__format__'
p30
S'<built-in method __format__ of exceptions.TypeError object>'
p31
sS'__getattribute__'
p32
S"<method-wrapper '__getattribute__' of exceptions.TypeError object>"
p33
sS'__class__'
p34
S"<type 'exceptions.TypeError'>"
p35
sS'__unicode__'
p36
S'<built-in method __unicode__ of exceptions.TypeError object>'
p37
sS'__delattr__'
p38
S"<method-wrapper '__delattr__' of exceptions.TypeError object>"
p39
sS'__subclasshook__'
p40
S'<built-in method __subclasshook__ of type object>'
p41
sS'__repr__'
p42
S"<method-wrapper '__repr__' of exceptions.TypeError object>"
p43
sS'__dict__'
p44
S'{}'
p45
sS'__sizeof__'
p46
S'<built-in method __sizeof__ of exceptions.TypeError object>'
p47
sS'__doc__'
p48
S"'Inappropriate argument type.'"
p49
sS'__init__'
p50
S"<method-wrapper '__init__' of exceptions.TypeError object>"
p51
sS'__new__'
p52
S'<built-in method __new__ of type object>'
p53
ssS'evalue'
p54
S"grid() got an unexpected keyword argument 'edit'"
p55
sS'request'
p56
ccopy_reg
_reconstructor
p57
(cgluon.html
BEAUTIFY
p58
c__builtin__
object
p59
NtRp60
(dp61
S'attributes'
p62
(dp63
sS'components'
p64
(lp65
g57
(cgluon.html
TABLE
p66
g59
NtRp67
(dp68
g62
(dp69
S'level'
p70
I5
ssS'parent'
p71
Nsg64
(lp72
g57
(cgluon.html
TR
p73
g59
NtRp74
(dp75
g62
(dp76
sg71
g67
sg64
(lp77
g57
(cgluon.html
TD
p78
g59
NtRp79
(dp80
g62
(dp81
S'_style'
p82
S'font-weight:bold;vertical-align:top'
p83
ssg71
g74
sg64
(lp84
S'ajax'
p85
asbag57
(g78
g59
NtRp86
(dp87
g62
(dp88
S'_valign'
p89
S'top'
p90
ssg71
g74
sg64
(lp91
S':'
asbag57
(g78
g59
NtRp92
(dp93
g62
(dp94
sg71
g74
sg64
(lp95
g57
(g58
g59
NtRp96
(dp97
g62
(dp98
g70
I5
ssg71
g92
sg64
(lp99
S'False'
p100
asbasbasbag57
(g73
g59
NtRp101
(dp102
g62
(dp103
sg71
g67
sg64
(lp104
g57
(g78
g59
NtRp105
(dp106
g62
(dp107
g82
g83
ssg71
g101
sg64
(lp108
S'application'
p109
asbag57
(g78
g59
NtRp110
(dp111
g62
(dp112
g89
g90
ssg71
g101
sg64
(lp113
S':'
asbag57
(g78
g59
NtRp114
(dp115
g62
(dp116
sg71
g101
sg64
(lp117
g57
(g58
g59
NtRp118
(dp119
g62
(dp120
g70
I5
ssg71
g114
sg64
(lp121
S'projeto'
p122
asbasbasbag57
(g73
g59
NtRp123
(dp124
g62
(dp125
sg71
g67
sg64
(lp126
g57
(g78
g59
NtRp127
(dp128
g62
(dp129
g82
g83
ssg71
g123
sg64
(lp130
g24
asbag57
(g78
g59
NtRp131
(dp132
g62
(dp133
g89
g90
ssg71
g123
sg64
(lp134
S':'
asbag57
(g78
g59
NtRp135
(dp136
g62
(dp137
sg71
g123
sg64
(lp138
g57
(g58
g59
NtRp139
(dp140
g62
(dp141
g70
I5
ssg71
g135
sg64
(lp142
g57
(g66
g59
NtRp143
(dp144
g62
(dp145
g70
I4
ssg71
Nsg64
(lp146
sbasbasbasbag57
(g73
g59
NtRp147
(dp148
g62
(dp149
sg71
g67
sg64
(lp150
g57
(g78
g59
NtRp151
(dp152
g62
(dp153
g82
g83
ssg71
g147
sg64
(lp154
S'body'
p155
asbag57
(g78
g59
NtRp156
(dp157
g62
(dp158
g89
g90
ssg71
g147
sg64
(lp159
S':'
asbag57
(g78
g59
NtRp160
(dp161
g62
(dp162
sg71
g147
sg64
(lp163
g57
(g58
g59
NtRp164
(dp165
g62
(dp166
g70
I5
ssg71
g160
sg64
(lp167
S'<cStringIO.StringO object at 0x293f228>'
p168
asbasbasbag57
(g73
g59
NtRp169
(dp170
g62
(dp171
sg71
g67
sg64
(lp172
g57
(g78
g59
NtRp173
(dp174
g62
(dp175
g82
g83
ssg71
g169
sg64
(lp176
S'cid'
p177
asbag57
(g78
g59
NtRp178
(dp179
g62
(dp180
g89
g90
ssg71
g169
sg64
(lp181
S':'
asbag57
(g78
g59
NtRp182
(dp183
g62
(dp184
sg71
g169
sg64
(lp185
g57
(g58
g59
NtRp186
(dp187
g62
(dp188
g70
I5
ssg71
g182
sg64
(lp189
S'None'
p190
asbasbasbag57
(g73
g59
NtRp191
(dp192
g62
(dp193
sg71
g67
sg64
(lp194
g57
(g78
g59
NtRp195
(dp196
g62
(dp197
g82
g83
ssg71
g191
sg64
(lp198
S'client'
p199
asbag57
(g78
g59
NtRp200
(dp201
g62
(dp202
g89
g90
ssg71
g191
sg64
(lp203
S':'
asbag57
(g78
g59
NtRp204
(dp205
g62
(dp206
sg71
g191
sg64
(lp207
g57
(g58
g59
NtRp208
(dp209
g62
(dp210
g70
I5
ssg71
g204
sg64
(lp211
S'127.0.0.1'
p212
asbasbasbag57
(g73
g59
NtRp213
(dp214
g62
(dp215
sg71
g67
sg64
(lp216
g57
(g78
g59
NtRp217
(dp218
g62
(dp219
g82
g83
ssg71
g213
sg64
(lp220
S'controller'
p221
asbag57
(g78
g59
NtRp222
(dp223
g62
(dp224
g89
g90
ssg71
g213
sg64
(lp225
S':'
asbag57
(g78
g59
NtRp226
(dp227
g62
(dp228
sg71
g213
sg64
(lp229
g57
(g58
g59
NtRp230
(dp231
g62
(dp232
g70
I5
ssg71
g226
sg64
(lp233
S'initial'
p234
asbasbasbag57
(g73
g59
NtRp235
(dp236
g62
(dp237
sg71
g67
sg64
(lp238
g57
(g78
g59
NtRp239
(dp240
g62
(dp241
g82
g83
ssg71
g235
sg64
(lp242
S'cookies'
p243
asbag57
(g78
g59
NtRp244
(dp245
g62
(dp246
g89
g90
ssg71
g235
sg64
(lp247
S':'
asbag57
(g78
g59
NtRp248
(dp249
g62
(dp250
sg71
g235
sg64
(lp251
g57
(g58
g59
NtRp252
(dp253
g62
(dp254
g70
I5
ssg71
g248
sg64
(lp255
g57
(g66
g59
NtRp256
(dp257
g62
(dp258
g70
I4
ssg71
Nsg64
(lp259
g57
(g73
g59
NtRp260
(dp261
g62
(dp262
sg71
g256
sg64
(lp263
g57
(g78
g59
NtRp264
(dp265
g62
(dp266
g82
g83
ssg71
g260
sg64
(lp267
S'admin'
p268
asbag57
(g78
g59
NtRp269
(dp270
g62
(dp271
g89
g90
ssg71
g260
sg64
(lp272
S':'
asbag57
(g78
g59
NtRp273
(dp274
g62
(dp275
sg71
g260
sg64
(lp276
g57
(g58
g59
NtRp277
(dp278
g62
(dp279
g70
I4
ssg71
g273
sg64
(lp280
S'admin'
p281
ag57
(g66
g59
NtRp282
(dp283
g62
(dp284
g70
I3
ssg71
Nsg64
(lp285
g57
(g73
g59
NtRp286
(dp287
g62
(dp288
sg71
g282
sg64
(lp289
g57
(g78
g59
NtRp290
(dp291
g62
(dp292
g82
g83
ssg71
g286
sg64
(lp293
S'comment'
p294
asbag57
(g78
g59
NtRp295
(dp296
g62
(dp297
g89
g90
ssg71
g286
sg64
(lp298
S':'
asbag57
(g78
g59
NtRp299
(dp300
g62
(dp301
sg71
g286
sg64
(lp302
g57
(g58
g59
NtRp303
(dp304
g62
(dp305
g70
I3
ssg71
g299
sg64
(lp306
S''
asbasbasbag57
(g73
g59
NtRp307
(dp308
g62
(dp309
sg71
g282
sg64
(lp310
g57
(g78
g59
NtRp311
(dp312
g62
(dp313
g82
g83
ssg71
g307
sg64
(lp314
S'domain'
p315
asbag57
(g78
g59
NtRp316
(dp317
g62
(dp318
g89
g90
ssg71
g307
sg64
(lp319
S':'
asbag57
(g78
g59
NtRp320
(dp321
g62
(dp322
sg71
g307
sg64
(lp323
g57
(g58
g59
NtRp324
(dp325
g62
(dp326
g70
I3
ssg71
g320
sg64
(lp327
S''
asbasbasbag57
(g73
g59
NtRp328
(dp329
g62
(dp330
sg71
g282
sg64
(lp331
g57
(g78
g59
NtRp332
(dp333
g62
(dp334
g82
g83
ssg71
g328
sg64
(lp335
S'expires'
p336
asbag57
(g78
g59
NtRp337
(dp338
g62
(dp339
g89
g90
ssg71
g328
sg64
(lp340
S':'
asbag57
(g78
g59
NtRp341
(dp342
g62
(dp343
sg71
g328
sg64
(lp344
g57
(g58
g59
NtRp345
(dp346
g62
(dp347
g70
I3
ssg71
g341
sg64
(lp348
S''
asbasbasbag57
(g73
g59
NtRp349
(dp350
g62
(dp351
sg71
g282
sg64
(lp352
g57
(g78
g59
NtRp353
(dp354
g62
(dp355
g82
g83
ssg71
g349
sg64
(lp356
S'httponly'
p357
asbag57
(g78
g59
NtRp358
(dp359
g62
(dp360
g89
g90
ssg71
g349
sg64
(lp361
S':'
asbag57
(g78
g59
NtRp362
(dp363
g62
(dp364
sg71
g349
sg64
(lp365
g57
(g58
g59
NtRp366
(dp367
g62
(dp368
g70
I3
ssg71
g362
sg64
(lp369
S''
asbasbasbag57
(g73
g59
NtRp370
(dp371
g62
(dp372
sg71
g282
sg64
(lp373
g57
(g78
g59
NtRp374
(dp375
g62
(dp376
g82
g83
ssg71
g370
sg64
(lp377
S'max-age'
p378
asbag57
(g78
g59
NtRp379
(dp380
g62
(dp381
g89
g90
ssg71
g370
sg64
(lp382
S':'
asbag57
(g78
g59
NtRp383
(dp384
g62
(dp385
sg71
g370
sg64
(lp386
g57
(g58
g59
NtRp387
(dp388
g62
(dp389
g70
I3
ssg71
g383
sg64
(lp390
S''
asbasbasbag57
(g73
g59
NtRp391
(dp392
g62
(dp393
sg71
g282
sg64
(lp394
g57
(g78
g59
NtRp395
(dp396
g62
(dp397
g82
g83
ssg71
g391
sg64
(lp398
S'path'
p399
asbag57
(g78
g59
NtRp400
(dp401
g62
(dp402
g89
g90
ssg71
g391
sg64
(lp403
S':'
asbag57
(g78
g59
NtRp404
(dp405
g62
(dp406
sg71
g391
sg64
(lp407
g57
(g58
g59
NtRp408
(dp409
g62
(dp410
g70
I3
ssg71
g404
sg64
(lp411
S''
asbasbasbag57
(g73
g59
NtRp412
(dp413
g62
(dp414
sg71
g282
sg64
(lp415
g57
(g78
g59
NtRp416
(dp417
g62
(dp418
g82
g83
ssg71
g412
sg64
(lp419
S'secure'
p420
asbag57
(g78
g59
NtRp421
(dp422
g62
(dp423
g89
g90
ssg71
g412
sg64
(lp424
S':'
asbag57
(g78
g59
NtRp425
(dp426
g62
(dp427
sg71
g412
sg64
(lp428
g57
(g58
g59
NtRp429
(dp430
g62
(dp431
g70
I3
ssg71
g425
sg64
(lp432
S''
asbasbasbag57
(g73
g59
NtRp433
(dp434
g62
(dp435
sg71
g282
sg64
(lp436
g57
(g78
g59
NtRp437
(dp438
g62
(dp439
g82
g83
ssg71
g433
sg64
(lp440
S'version'
p441
asbag57
(g78
g59
NtRp442
(dp443
g62
(dp444
g89
g90
ssg71
g433
sg64
(lp445
S':'
asbag57
(g78
g59
NtRp446
(dp447
g62
(dp448
sg71
g433
sg64
(lp449
g57
(g58
g59
NtRp450
(dp451
g62
(dp452
g70
I3
ssg71
g446
sg64
(lp453
S''
asbasbasbasbasbasbasbag57
(g73
g59
NtRp454
(dp455
g62
(dp456
sg71
g256
sg64
(lp457
g57
(g78
g59
NtRp458
(dp459
g62
(dp460
g82
g83
ssg71
g454
sg64
(lp461
S'cookie'
p462
asbag57
(g78
g59
NtRp463
(dp464
g62
(dp465
g89
g90
ssg71
g454
sg64
(lp466
S':'
asbag57
(g78
g59
NtRp467
(dp468
g62
(dp469
sg71
g454
sg64
(lp470
g57
(g58
g59
NtRp471
(dp472
g62
(dp473
g70
I4
ssg71
g467
sg64
(lp474
S'1649423593'
p475
ag57
(g66
g59
NtRp476
(dp477
g62
(dp478
g70
I3
ssg71
Nsg64
(lp479
g57
(g73
g59
NtRp480
(dp481
g62
(dp482
sg71
g476
sg64
(lp483
g57
(g78
g59
NtRp484
(dp485
g62
(dp486
g82
g83
ssg71
g480
sg64
(lp487
g294
asbag57
(g78
g59
NtRp488
(dp489
g62
(dp490
g89
g90
ssg71
g480
sg64
(lp491
S':'
asbag57
(g78
g59
NtRp492
(dp493
g62
(dp494
sg71
g480
sg64
(lp495
g57
(g58
g59
NtRp496
(dp497
g62
(dp498
g70
I3
ssg71
g492
sg64
(lp499
S''
asbasbasbag57
(g73
g59
NtRp500
(dp501
g62
(dp502
sg71
g476
sg64
(lp503
g57
(g78
g59
NtRp504
(dp505
g62
(dp506
g82
g83
ssg71
g500
sg64
(lp507
g315
asbag57
(g78
g59
NtRp508
(dp509
g62
(dp510
g89
g90
ssg71
g500
sg64
(lp511
S':'
asbag57
(g78
g59
NtRp512
(dp513
g62
(dp514
sg71
g500
sg64
(lp515
g57
(g58
g59
NtRp516
(dp517
g62
(dp518
g70
I3
ssg71
g512
sg64
(lp519
S''
asbasbasbag57
(g73
g59
NtRp520
(dp521
g62
(dp522
sg71
g476
sg64
(lp523
g57
(g78
g59
NtRp524
(dp525
g62
(dp526
g82
g83
ssg71
g520
sg64
(lp527
g336
asbag57
(g78
g59
NtRp528
(dp529
g62
(dp530
g89
g90
ssg71
g520
sg64
(lp531
S':'
asbag57
(g78
g59
NtRp532
(dp533
g62
(dp534
sg71
g520
sg64
(lp535
g57
(g58
g59
NtRp536
(dp537
g62
(dp538
g70
I3
ssg71
g532
sg64
(lp539
S''
asbasbasbag57
(g73
g59
NtRp540
(dp541
g62
(dp542
sg71
g476
sg64
(lp543
g57
(g78
g59
NtRp544
(dp545
g62
(dp546
g82
g83
ssg71
g540
sg64
(lp547
g357
asbag57
(g78
g59
NtRp548
(dp549
g62
(dp550
g89
g90
ssg71
g540
sg64
(lp551
S':'
asbag57
(g78
g59
NtRp552
(dp553
g62
(dp554
sg71
g540
sg64
(lp555
g57
(g58
g59
NtRp556
(dp557
g62
(dp558
g70
I3
ssg71
g552
sg64
(lp559
S''
asbasbasbag57
(g73
g59
NtRp560
(dp561
g62
(dp562
sg71
g476
sg64
(lp563
g57
(g78
g59
NtRp564
(dp565
g62
(dp566
g82
g83
ssg71
g560
sg64
(lp567
g378
asbag57
(g78
g59
NtRp568
(dp569
g62
(dp570
g89
g90
ssg71
g560
sg64
(lp571
S':'
asbag57
(g78
g59
NtRp572
(dp573
g62
(dp574
sg71
g560
sg64
(lp575
g57
(g58
g59
NtRp576
(dp577
g62
(dp578
g70
I3
ssg71
g572
sg64
(lp579
S''
asbasbasbag57
(g73
g59
NtRp580
(dp581
g62
(dp582
sg71
g476
sg64
(lp583
g57
(g78
g59
NtRp584
(dp585
g62
(dp586
g82
g83
ssg71
g580
sg64
(lp587
g399
asbag57
(g78
g59
NtRp588
(dp589
g62
(dp590
g89
g90
ssg71
g580
sg64
(lp591
S':'
asbag57
(g78
g59
NtRp592
(dp593
g62
(dp594
sg71
g580
sg64
(lp595
g57
(g58
g59
NtRp596
(dp597
g62
(dp598
g70
I3
ssg71
g592
sg64
(lp599
S''
asbasbasbag57
(g73
g59
NtRp600
(dp601
g62
(dp602
sg71
g476
sg64
(lp603
g57
(g78
g59
NtRp604
(dp605
g62
(dp606
g82
g83
ssg71
g600
sg64
(lp607
g420
asbag57
(g78
g59
NtRp608
(dp609
g62
(dp610
g89
g90
ssg71
g600
sg64
(lp611
S':'
asbag57
(g78
g59
NtRp612
(dp613
g62
(dp614
sg71
g600
sg64
(lp615
g57
(g58
g59
NtRp616
(dp617
g62
(dp618
g70
I3
ssg71
g612
sg64
(lp619
S''
asbasbasbag57
(g73
g59
NtRp620
(dp621
g62
(dp622
sg71
g476
sg64
(lp623
g57
(g78
g59
NtRp624
(dp625
g62
(dp626
g82
g83
ssg71
g620
sg64
(lp627
g441
asbag57
(g78
g59
NtRp628
(dp629
g62
(dp630
g89
g90
ssg71
g620
sg64
(lp631
S':'
asbag57
(g78
g59
NtRp632
(dp633
g62
(dp634
sg71
g620
sg64
(lp635
g57
(g58
g59
NtRp636
(dp637
g62
(dp638
g70
I3
ssg71
g632
sg64
(lp639
S''
asbasbasbasbasbasbasbag57
(g73
g59
NtRp640
(dp641
g62
(dp642
sg71
g256
sg64
(lp643
g57
(g78
g59
NtRp644
(dp645
g62
(dp646
g82
g83
ssg71
g640
sg64
(lp647
S'hw_type'
p648
asbag57
(g78
g59
NtRp649
(dp650
g62
(dp651
g89
g90
ssg71
g640
sg64
(lp652
S':'
asbag57
(g78
g59
NtRp653
(dp654
g62
(dp655
sg71
g640
sg64
(lp656
g57
(g58
g59
NtRp657
(dp658
g62
(dp659
g70
I4
ssg71
g653
sg64
(lp660
S'MX60'
p661
ag57
(g66
g59
NtRp662
(dp663
g62
(dp664
g70
I3
ssg71
Nsg64
(lp665
g57
(g73
g59
NtRp666
(dp667
g62
(dp668
sg71
g662
sg64
(lp669
g57
(g78
g59
NtRp670
(dp671
g62
(dp672
g82
g83
ssg71
g666
sg64
(lp673
g294
asbag57
(g78
g59
NtRp674
(dp675
g62
(dp676
g89
g90
ssg71
g666
sg64
(lp677
S':'
asbag57
(g78
g59
NtRp678
(dp679
g62
(dp680
sg71
g666
sg64
(lp681
g57
(g58
g59
NtRp682
(dp683
g62
(dp684
g70
I3
ssg71
g678
sg64
(lp685
S''
asbasbasbag57
(g73
g59
NtRp686
(dp687
g62
(dp688
sg71
g662
sg64
(lp689
g57
(g78
g59
NtRp690
(dp691
g62
(dp692
g82
g83
ssg71
g686
sg64
(lp693
g315
asbag57
(g78
g59
NtRp694
(dp695
g62
(dp696
g89
g90
ssg71
g686
sg64
(lp697
S':'
asbag57
(g78
g59
NtRp698
(dp699
g62
(dp700
sg71
g686
sg64
(lp701
g57
(g58
g59
NtRp702
(dp703
g62
(dp704
g70
I3
ssg71
g698
sg64
(lp705
S''
asbasbasbag57
(g73
g59
NtRp706
(dp707
g62
(dp708
sg71
g662
sg64
(lp709
g57
(g78
g59
NtRp710
(dp711
g62
(dp712
g82
g83
ssg71
g706
sg64
(lp713
g336
asbag57
(g78
g59
NtRp714
(dp715
g62
(dp716
g89
g90
ssg71
g706
sg64
(lp717
S':'
asbag57
(g78
g59
NtRp718
(dp719
g62
(dp720
sg71
g706
sg64
(lp721
g57
(g58
g59
NtRp722
(dp723
g62
(dp724
g70
I3
ssg71
g718
sg64
(lp725
S''
asbasbasbag57
(g73
g59
NtRp726
(dp727
g62
(dp728
sg71
g662
sg64
(lp729
g57
(g78
g59
NtRp730
(dp731
g62
(dp732
g82
g83
ssg71
g726
sg64
(lp733
g357
asbag57
(g78
g59
NtRp734
(dp735
g62
(dp736
g89
g90
ssg71
g726
sg64
(lp737
S':'
asbag57
(g78
g59
NtRp738
(dp739
g62
(dp740
sg71
g726
sg64
(lp741
g57
(g58
g59
NtRp742
(dp743
g62
(dp744
g70
I3
ssg71
g738
sg64
(lp745
S''
asbasbasbag57
(g73
g59
NtRp746
(dp747
g62
(dp748
sg71
g662
sg64
(lp749
g57
(g78
g59
NtRp750
(dp751
g62
(dp752
g82
g83
ssg71
g746
sg64
(lp753
g378
asbag57
(g78
g59
NtRp754
(dp755
g62
(dp756
g89
g90
ssg71
g746
sg64
(lp757
S':'
asbag57
(g78
g59
NtRp758
(dp759
g62
(dp760
sg71
g746
sg64
(lp761
g57
(g58
g59
NtRp762
(dp763
g62
(dp764
g70
I3
ssg71
g758
sg64
(lp765
S''
asbasbasbag57
(g73
g59
NtRp766
(dp767
g62
(dp768
sg71
g662
sg64
(lp769
g57
(g78
g59
NtRp770
(dp771
g62
(dp772
g82
g83
ssg71
g766
sg64
(lp773
g399
asbag57
(g78
g59
NtRp774
(dp775
g62
(dp776
g89
g90
ssg71
g766
sg64
(lp777
S':'
asbag57
(g78
g59
NtRp778
(dp779
g62
(dp780
sg71
g766
sg64
(lp781
g57
(g58
g59
NtRp782
(dp783
g62
(dp784
g70
I3
ssg71
g778
sg64
(lp785
S''
asbasbasbag57
(g73
g59
NtRp786
(dp787
g62
(dp788
sg71
g662
sg64
(lp789
g57
(g78
g59
NtRp790
(dp791
g62
(dp792
g82
g83
ssg71
g786
sg64
(lp793
g420
asbag57
(g78
g59
NtRp794
(dp795
g62
(dp796
g89
g90
ssg71
g786
sg64
(lp797
S':'
asbag57
(g78
g59
NtRp798
(dp799
g62
(dp800
sg71
g786
sg64
(lp801
g57
(g58
g59
NtRp802
(dp803
g62
(dp804
g70
I3
ssg71
g798
sg64
(lp805
S''
asbasbasbag57
(g73
g59
NtRp806
(dp807
g62
(dp808
sg71
g662
sg64
(lp809
g57
(g78
g59
NtRp810
(dp811
g62
(dp812
g82
g83
ssg71
g806
sg64
(lp813
g441
asbag57
(g78
g59
NtRp814
(dp815
g62
(dp816
g89
g90
ssg71
g806
sg64
(lp817
S':'
asbag57
(g78
g59
NtRp818
(dp819
g62
(dp820
sg71
g806
sg64
(lp821
g57
(g58
g59
NtRp822
(dp823
g62
(dp824
g70
I3
ssg71
g818
sg64
(lp825
S''
asbasbasbasbasbasbasbag57
(g73
g59
NtRp826
(dp827
g62
(dp828
sg71
g256
sg64
(lp829
g57
(g78
g59
NtRp830
(dp831
g62
(dp832
g82
g83
ssg71
g826
sg64
(lp833
S'hw_version'
p834
asbag57
(g78
g59
NtRp835
(dp836
g62
(dp837
g89
g90
ssg71
g826
sg64
(lp838
S':'
asbag57
(g78
g59
NtRp839
(dp840
g62
(dp841
sg71
g826
sg64
(lp842
g57
(g58
g59
NtRp843
(dp844
g62
(dp845
g70
I4
ssg71
g839
sg64
(lp846
S'Rev%201.9.82.316'
p847
ag57
(g66
g59
NtRp848
(dp849
g62
(dp850
g70
I3
ssg71
Nsg64
(lp851
g57
(g73
g59
NtRp852
(dp853
g62
(dp854
sg71
g848
sg64
(lp855
g57
(g78
g59
NtRp856
(dp857
g62
(dp858
g82
g83
ssg71
g852
sg64
(lp859
g294
asbag57
(g78
g59
NtRp860
(dp861
g62
(dp862
g89
g90
ssg71
g852
sg64
(lp863
S':'
asbag57
(g78
g59
NtRp864
(dp865
g62
(dp866
sg71
g852
sg64
(lp867
g57
(g58
g59
NtRp868
(dp869
g62
(dp870
g70
I3
ssg71
g864
sg64
(lp871
S''
asbasbasbag57
(g73
g59
NtRp872
(dp873
g62
(dp874
sg71
g848
sg64
(lp875
g57
(g78
g59
NtRp876
(dp877
g62
(dp878
g82
g83
ssg71
g872
sg64
(lp879
g315
asbag57
(g78
g59
NtRp880
(dp881
g62
(dp882
g89
g90
ssg71
g872
sg64
(lp883
S':'
asbag57
(g78
g59
NtRp884
(dp885
g62
(dp886
sg71
g872
sg64
(lp887
g57
(g58
g59
NtRp888
(dp889
g62
(dp890
g70
I3
ssg71
g884
sg64
(lp891
S''
asbasbasbag57
(g73
g59
NtRp892
(dp893
g62
(dp894
sg71
g848
sg64
(lp895
g57
(g78
g59
NtRp896
(dp897
g62
(dp898
g82
g83
ssg71
g892
sg64
(lp899
g336
asbag57
(g78
g59
NtRp900
(dp901
g62
(dp902
g89
g90
ssg71
g892
sg64
(lp903
S':'
asbag57
(g78
g59
NtRp904
(dp905
g62
(dp906
sg71
g892
sg64
(lp907
g57
(g58
g59
NtRp908
(dp909
g62
(dp910
g70
I3
ssg71
g904
sg64
(lp911
S''
asbasbasbag57
(g73
g59
NtRp912
(dp913
g62
(dp914
sg71
g848
sg64
(lp915
g57
(g78
g59
NtRp916
(dp917
g62
(dp918
g82
g83
ssg71
g912
sg64
(lp919
g357
asbag57
(g78
g59
NtRp920
(dp921
g62
(dp922
g89
g90
ssg71
g912
sg64
(lp923
S':'
asbag57
(g78
g59
NtRp924
(dp925
g62
(dp926
sg71
g912
sg64
(lp927
g57
(g58
g59
NtRp928
(dp929
g62
(dp930
g70
I3
ssg71
g924
sg64
(lp931
S''
asbasbasbag57
(g73
g59
NtRp932
(dp933
g62
(dp934
sg71
g848
sg64
(lp935
g57
(g78
g59
NtRp936
(dp937
g62
(dp938
g82
g83
ssg71
g932
sg64
(lp939
g378
asbag57
(g78
g59
NtRp940
(dp941
g62
(dp942
g89
g90
ssg71
g932
sg64
(lp943
S':'
asbag57
(g78
g59
NtRp944
(dp945
g62
(dp946
sg71
g932
sg64
(lp947
g57
(g58
g59
NtRp948
(dp949
g62
(dp950
g70
I3
ssg71
g944
sg64
(lp951
S''
asbasbasbag57
(g73
g59
NtRp952
(dp953
g62
(dp954
sg71
g848
sg64
(lp955
g57
(g78
g59
NtRp956
(dp957
g62
(dp958
g82
g83
ssg71
g952
sg64
(lp959
g399
asbag57
(g78
g59
NtRp960
(dp961
g62
(dp962
g89
g90
ssg71
g952
sg64
(lp963
S':'
asbag57
(g78
g59
NtRp964
(dp965
g62
(dp966
sg71
g952
sg64
(lp967
g57
(g58
g59
NtRp968
(dp969
g62
(dp970
g70
I3
ssg71
g964
sg64
(lp971
S''
asbasbasbag57
(g73
g59
NtRp972
(dp973
g62
(dp974
sg71
g848
sg64
(lp975
g57
(g78
g59
NtRp976
(dp977
g62
(dp978
g82
g83
ssg71
g972
sg64
(lp979
g420
asbag57
(g78
g59
NtRp980
(dp981
g62
(dp982
g89
g90
ssg71
g972
sg64
(lp983
S':'
asbag57
(g78
g59
NtRp984
(dp985
g62
(dp986
sg71
g972
sg64
(lp987
g57
(g58
g59
NtRp988
(dp989
g62
(dp990
g70
I3
ssg71
g984
sg64
(lp991
S''
asbasbasbag57
(g73
g59
NtRp992
(dp993
g62
(dp994
sg71
g848
sg64
(lp995
g57
(g78
g59
NtRp996
(dp997
g62
(dp998
g82
g83
ssg71
g992
sg64
(lp999
g441
asbag57
(g78
g59
NtRp1000
(dp1001
g62
(dp1002
g89
g90
ssg71
g992
sg64
(lp1003
S':'
asbag57
(g78
g59
NtRp1004
(dp1005
g62
(dp1006
sg71
g992
sg64
(lp1007
g57
(g58
g59
NtRp1008
(dp1009
g62
(dp1010
g70
I3
ssg71
g1004
sg64
(lp1011
S''
asbasbasbasbasbasbasbag57
(g73
g59
NtRp1012
(dp1013
g62
(dp1014
sg71
g256
sg64
(lp1015
g57
(g78
g59
NtRp1016
(dp1017
g62
(dp1018
g82
g83
ssg71
g1012
sg64
(lp1019
S'language'
p1020
asbag57
(g78
g59
NtRp1021
(dp1022
g62
(dp1023
g89
g90
ssg71
g1012
sg64
(lp1024
S':'
asbag57
(g78
g59
NtRp1025
(dp1026
g62
(dp1027
sg71
g1012
sg64
(lp1028
g57
(g58
g59
NtRp1029
(dp1030
g62
(dp1031
g70
I4
ssg71
g1025
sg64
(lp1032
S'1'
ag57
(g66
g59
NtRp1033
(dp1034
g62
(dp1035
g70
I3
ssg71
Nsg64
(lp1036
g57
(g73
g59
NtRp1037
(dp1038
g62
(dp1039
sg71
g1033
sg64
(lp1040
g57
(g78
g59
NtRp1041
(dp1042
g62
(dp1043
g82
g83
ssg71
g1037
sg64
(lp1044
g294
asbag57
(g78
g59
NtRp1045
(dp1046
g62
(dp1047
g89
g90
ssg71
g1037
sg64
(lp1048
S':'
asbag57
(g78
g59
NtRp1049
(dp1050
g62
(dp1051
sg71
g1037
sg64
(lp1052
g57
(g58
g59
NtRp1053
(dp1054
g62
(dp1055
g70
I3
ssg71
g1049
sg64
(lp1056
S''
asbasbasbag57
(g73
g59
NtRp1057
(dp1058
g62
(dp1059
sg71
g1033
sg64
(lp1060
g57
(g78
g59
NtRp1061
(dp1062
g62
(dp1063
g82
g83
ssg71
g1057
sg64
(lp1064
g315
asbag57
(g78
g59
NtRp1065
(dp1066
g62
(dp1067
g89
g90
ssg71
g1057
sg64
(lp1068
S':'
asbag57
(g78
g59
NtRp1069
(dp1070
g62
(dp1071
sg71
g1057
sg64
(lp1072
g57
(g58
g59
NtRp1073
(dp1074
g62
(dp1075
g70
I3
ssg71
g1069
sg64
(lp1076
S''
asbasbasbag57
(g73
g59
NtRp1077
(dp1078
g62
(dp1079
sg71
g1033
sg64
(lp1080
g57
(g78
g59
NtRp1081
(dp1082
g62
(dp1083
g82
g83
ssg71
g1077
sg64
(lp1084
g336
asbag57
(g78
g59
NtRp1085
(dp1086
g62
(dp1087
g89
g90
ssg71
g1077
sg64
(lp1088
S':'
asbag57
(g78
g59
NtRp1089
(dp1090
g62
(dp1091
sg71
g1077
sg64
(lp1092
g57
(g58
g59
NtRp1093
(dp1094
g62
(dp1095
g70
I3
ssg71
g1089
sg64
(lp1096
S''
asbasbasbag57
(g73
g59
NtRp1097
(dp1098
g62
(dp1099
sg71
g1033
sg64
(lp1100
g57
(g78
g59
NtRp1101
(dp1102
g62
(dp1103
g82
g83
ssg71
g1097
sg64
(lp1104
g357
asbag57
(g78
g59
NtRp1105
(dp1106
g62
(dp1107
g89
g90
ssg71
g1097
sg64
(lp1108
S':'
asbag57
(g78
g59
NtRp1109
(dp1110
g62
(dp1111
sg71
g1097
sg64
(lp1112
g57
(g58
g59
NtRp1113
(dp1114
g62
(dp1115
g70
I3
ssg71
g1109
sg64
(lp1116
S''
asbasbasbag57
(g73
g59
NtRp1117
(dp1118
g62
(dp1119
sg71
g1033
sg64
(lp1120
g57
(g78
g59
NtRp1121
(dp1122
g62
(dp1123
g82
g83
ssg71
g1117
sg64
(lp1124
g378
asbag57
(g78
g59
NtRp1125
(dp1126
g62
(dp1127
g89
g90
ssg71
g1117
sg64
(lp1128
S':'
asbag57
(g78
g59
NtRp1129
(dp1130
g62
(dp1131
sg71
g1117
sg64
(lp1132
g57
(g58
g59
NtRp1133
(dp1134
g62
(dp1135
g70
I3
ssg71
g1129
sg64
(lp1136
S''
asbasbasbag57
(g73
g59
NtRp1137
(dp1138
g62
(dp1139
sg71
g1033
sg64
(lp1140
g57
(g78
g59
NtRp1141
(dp1142
g62
(dp1143
g82
g83
ssg71
g1137
sg64
(lp1144
g399
asbag57
(g78
g59
NtRp1145
(dp1146
g62
(dp1147
g89
g90
ssg71
g1137
sg64
(lp1148
S':'
asbag57
(g78
g59
NtRp1149
(dp1150
g62
(dp1151
sg71
g1137
sg64
(lp1152
g57
(g58
g59
NtRp1153
(dp1154
g62
(dp1155
g70
I3
ssg71
g1149
sg64
(lp1156
S''
asbasbasbag57
(g73
g59
NtRp1157
(dp1158
g62
(dp1159
sg71
g1033
sg64
(lp1160
g57
(g78
g59
NtRp1161
(dp1162
g62
(dp1163
g82
g83
ssg71
g1157
sg64
(lp1164
g420
asbag57
(g78
g59
NtRp1165
(dp1166
g62
(dp1167
g89
g90
ssg71
g1157
sg64
(lp1168
S':'
asbag57
(g78
g59
NtRp1169
(dp1170
g62
(dp1171
sg71
g1157
sg64
(lp1172
g57
(g58
g59
NtRp1173
(dp1174
g62
(dp1175
g70
I3
ssg71
g1169
sg64
(lp1176
S''
asbasbasbag57
(g73
g59
NtRp1177
(dp1178
g62
(dp1179
sg71
g1033
sg64
(lp1180
g57
(g78
g59
NtRp1181
(dp1182
g62
(dp1183
g82
g83
ssg71
g1177
sg64
(lp1184
g441
asbag57
(g78
g59
NtRp1185
(dp1186
g62
(dp1187
g89
g90
ssg71
g1177
sg64
(lp1188
S':'
asbag57
(g78
g59
NtRp1189
(dp1190
g62
(dp1191
sg71
g1177
sg64
(lp1192
g57
(g58
g59
NtRp1193
(dp1194
g62
(dp1195
g70
I3
ssg71
g1189
sg64
(lp1196
S''
asbasbasbasbasbasbasbag57
(g73
g59
NtRp1197
(dp1198
g62
(dp1199
sg71
g256
sg64
(lp1200
g57
(g78
g59
NtRp1201
(dp1202
g62
(dp1203
g82
g83
ssg71
g1197
sg64
(lp1204
S'model'
p1205
asbag57
(g78
g59
NtRp1206
(dp1207
g62
(dp1208
g89
g90
ssg71
g1197
sg64
(lp1209
S':'
asbag57
(g78
g59
NtRp1210
(dp1211
g62
(dp1212
sg71
g1197
sg64
(lp1213
g57
(g58
g59
NtRp1214
(dp1215
g62
(dp1216
g70
I4
ssg71
g1210
sg64
(lp1217
S'MX'
p1218
ag57
(g66
g59
NtRp1219
(dp1220
g62
(dp1221
g70
I3
ssg71
Nsg64
(lp1222
g57
(g73
g59
NtRp1223
(dp1224
g62
(dp1225
sg71
g1219
sg64
(lp1226
g57
(g78
g59
NtRp1227
(dp1228
g62
(dp1229
g82
g83
ssg71
g1223
sg64
(lp1230
g294
asbag57
(g78
g59
NtRp1231
(dp1232
g62
(dp1233
g89
g90
ssg71
g1223
sg64
(lp1234
S':'
asbag57
(g78
g59
NtRp1235
(dp1236
g62
(dp1237
sg71
g1223
sg64
(lp1238
g57
(g58
g59
NtRp1239
(dp1240
g62
(dp1241
g70
I3
ssg71
g1235
sg64
(lp1242
S''
asbasbasbag57
(g73
g59
NtRp1243
(dp1244
g62
(dp1245
sg71
g1219
sg64
(lp1246
g57
(g78
g59
NtRp1247
(dp1248
g62
(dp1249
g82
g83
ssg71
g1243
sg64
(lp1250
g315
asbag57
(g78
g59
NtRp1251
(dp1252
g62
(dp1253
g89
g90
ssg71
g1243
sg64
(lp1254
S':'
asbag57
(g78
g59
NtRp1255
(dp1256
g62
(dp1257
sg71
g1243
sg64
(lp1258
g57
(g58
g59
NtRp1259
(dp1260
g62
(dp1261
g70
I3
ssg71
g1255
sg64
(lp1262
S''
asbasbasbag57
(g73
g59
NtRp1263
(dp1264
g62
(dp1265
sg71
g1219
sg64
(lp1266
g57
(g78
g59
NtRp1267
(dp1268
g62
(dp1269
g82
g83
ssg71
g1263
sg64
(lp1270
g336
asbag57
(g78
g59
NtRp1271
(dp1272
g62
(dp1273
g89
g90
ssg71
g1263
sg64
(lp1274
S':'
asbag57
(g78
g59
NtRp1275
(dp1276
g62
(dp1277
sg71
g1263
sg64
(lp1278
g57
(g58
g59
NtRp1279
(dp1280
g62
(dp1281
g70
I3
ssg71
g1275
sg64
(lp1282
S''
asbasbasbag57
(g73
g59
NtRp1283
(dp1284
g62
(dp1285
sg71
g1219
sg64
(lp1286
g57
(g78
g59
NtRp1287
(dp1288
g62
(dp1289
g82
g83
ssg71
g1283
sg64
(lp1290
g357
asbag57
(g78
g59
NtRp1291
(dp1292
g62
(dp1293
g89
g90
ssg71
g1283
sg64
(lp1294
S':'
asbag57
(g78
g59
NtRp1295
(dp1296
g62
(dp1297
sg71
g1283
sg64
(lp1298
g57
(g58
g59
NtRp1299
(dp1300
g62
(dp1301
g70
I3
ssg71
g1295
sg64
(lp1302
S''
asbasbasbag57
(g73
g59
NtRp1303
(dp1304
g62
(dp1305
sg71
g1219
sg64
(lp1306
g57
(g78
g59
NtRp1307
(dp1308
g62
(dp1309
g82
g83
ssg71
g1303
sg64
(lp1310
g378
asbag57
(g78
g59
NtRp1311
(dp1312
g62
(dp1313
g89
g90
ssg71
g1303
sg64
(lp1314
S':'
asbag57
(g78
g59
NtRp1315
(dp1316
g62
(dp1317
sg71
g1303
sg64
(lp1318
g57
(g58
g59
NtRp1319
(dp1320
g62
(dp1321
g70
I3
ssg71
g1315
sg64
(lp1322
S''
asbasbasbag57
(g73
g59
NtRp1323
(dp1324
g62
(dp1325
sg71
g1219
sg64
(lp1326
g57
(g78
g59
NtRp1327
(dp1328
g62
(dp1329
g82
g83
ssg71
g1323
sg64
(lp1330
g399
asbag57
(g78
g59
NtRp1331
(dp1332
g62
(dp1333
g89
g90
ssg71
g1323
sg64
(lp1334
S':'
asbag57
(g78
g59
NtRp1335
(dp1336
g62
(dp1337
sg71
g1323
sg64
(lp1338
g57
(g58
g59
NtRp1339
(dp1340
g62
(dp1341
g70
I3
ssg71
g1335
sg64
(lp1342
S''
asbasbasbag57
(g73
g59
NtRp1343
(dp1344
g62
(dp1345
sg71
g1219
sg64
(lp1346
g57
(g78
g59
NtRp1347
(dp1348
g62
(dp1349
g82
g83
ssg71
g1343
sg64
(lp1350
g420
asbag57
(g78
g59
NtRp1351
(dp1352
g62
(dp1353
g89
g90
ssg71
g1343
sg64
(lp1354
S':'
asbag57
(g78
g59
NtRp1355
(dp1356
g62
(dp1357
sg71
g1343
sg64
(lp1358
g57
(g58
g59
NtRp1359
(dp1360
g62
(dp1361
g70
I3
ssg71
g1355
sg64
(lp1362
S''
asbasbasbag57
(g73
g59
NtRp1363
(dp1364
g62
(dp1365
sg71
g1219
sg64
(lp1366
g57
(g78
g59
NtRp1367
(dp1368
g62
(dp1369
g82
g83
ssg71
g1363
sg64
(lp1370
g441
asbag57
(g78
g59
NtRp1371
(dp1372
g62
(dp1373
g89
g90
ssg71
g1363
sg64
(lp1374
S':'
asbag57
(g78
g59
NtRp1375
(dp1376
g62
(dp1377
sg71
g1363
sg64
(lp1378
g57
(g58
g59
NtRp1379
(dp1380
g62
(dp1381
g70
I3
ssg71
g1375
sg64
(lp1382
S''
asbasbasbasbasbasbasbag57
(g73
g59
NtRp1383
(dp1384
g62
(dp1385
sg71
g256
sg64
(lp1386
g57
(g78
g59
NtRp1387
(dp1388
g62
(dp1389
g82
g83
ssg71
g1383
sg64
(lp1390
S'nr'
p1391
asbag57
(g78
g59
NtRp1392
(dp1393
g62
(dp1394
g89
g90
ssg71
g1383
sg64
(lp1395
S':'
asbag57
(g78
g59
NtRp1396
(dp1397
g62
(dp1398
sg71
g1383
sg64
(lp1399
g57
(g58
g59
NtRp1400
(dp1401
g62
(dp1402
g70
I4
ssg71
g1396
sg64
(lp1403
S'1'
ag57
(g66
g59
NtRp1404
(dp1405
g62
(dp1406
g70
I3
ssg71
Nsg64
(lp1407
g57
(g73
g59
NtRp1408
(dp1409
g62
(dp1410
sg71
g1404
sg64
(lp1411
g57
(g78
g59
NtRp1412
(dp1413
g62
(dp1414
g82
g83
ssg71
g1408
sg64
(lp1415
g294
asbag57
(g78
g59
NtRp1416
(dp1417
g62
(dp1418
g89
g90
ssg71
g1408
sg64
(lp1419
S':'
asbag57
(g78
g59
NtRp1420
(dp1421
g62
(dp1422
sg71
g1408
sg64
(lp1423
g57
(g58
g59
NtRp1424
(dp1425
g62
(dp1426
g70
I3
ssg71
g1420
sg64
(lp1427
S''
asbasbasbag57
(g73
g59
NtRp1428
(dp1429
g62
(dp1430
sg71
g1404
sg64
(lp1431
g57
(g78
g59
NtRp1432
(dp1433
g62
(dp1434
g82
g83
ssg71
g1428
sg64
(lp1435
g315
asbag57
(g78
g59
NtRp1436
(dp1437
g62
(dp1438
g89
g90
ssg71
g1428
sg64
(lp1439
S':'
asbag57
(g78
g59
NtRp1440
(dp1441
g62
(dp1442
sg71
g1428
sg64
(lp1443
g57
(g58
g59
NtRp1444
(dp1445
g62
(dp1446
g70
I3
ssg71
g1440
sg64
(lp1447
S''
asbasbasbag57
(g73
g59
NtRp1448
(dp1449
g62
(dp1450
sg71
g1404
sg64
(lp1451
g57
(g78
g59
NtRp1452
(dp1453
g62
(dp1454
g82
g83
ssg71
g1448
sg64
(lp1455
g336
asbag57
(g78
g59
NtRp1456
(dp1457
g62
(dp1458
g89
g90
ssg71
g1448
sg64
(lp1459
S':'
asbag57
(g78
g59
NtRp1460
(dp1461
g62
(dp1462
sg71
g1448
sg64
(lp1463
g57
(g58
g59
NtRp1464
(dp1465
g62
(dp1466
g70
I3
ssg71
g1460
sg64
(lp1467
S''
asbasbasbag57
(g73
g59
NtRp1468
(dp1469
g62
(dp1470
sg71
g1404
sg64
(lp1471
g57
(g78
g59
NtRp1472
(dp1473
g62
(dp1474
g82
g83
ssg71
g1468
sg64
(lp1475
g357
asbag57
(g78
g59
NtRp1476
(dp1477
g62
(dp1478
g89
g90
ssg71
g1468
sg64
(lp1479
S':'
asbag57
(g78
g59
NtRp1480
(dp1481
g62
(dp1482
sg71
g1468
sg64
(lp1483
g57
(g58
g59
NtRp1484
(dp1485
g62
(dp1486
g70
I3
ssg71
g1480
sg64
(lp1487
S''
asbasbasbag57
(g73
g59
NtRp1488
(dp1489
g62
(dp1490
sg71
g1404
sg64
(lp1491
g57
(g78
g59
NtRp1492
(dp1493
g62
(dp1494
g82
g83
ssg71
g1488
sg64
(lp1495
g378
asbag57
(g78
g59
NtRp1496
(dp1497
g62
(dp1498
g89
g90
ssg71
g1488
sg64
(lp1499
S':'
asbag57
(g78
g59
NtRp1500
(dp1501
g62
(dp1502
sg71
g1488
sg64
(lp1503
g57
(g58
g59
NtRp1504
(dp1505
g62
(dp1506
g70
I3
ssg71
g1500
sg64
(lp1507
S''
asbasbasbag57
(g73
g59
NtRp1508
(dp1509
g62
(dp1510
sg71
g1404
sg64
(lp1511
g57
(g78
g59
NtRp1512
(dp1513
g62
(dp1514
g82
g83
ssg71
g1508
sg64
(lp1515
g399
asbag57
(g78
g59
NtRp1516
(dp1517
g62
(dp1518
g89
g90
ssg71
g1508
sg64
(lp1519
S':'
asbag57
(g78
g59
NtRp1520
(dp1521
g62
(dp1522
sg71
g1508
sg64
(lp1523
g57
(g58
g59
NtRp1524
(dp1525
g62
(dp1526
g70
I3
ssg71
g1520
sg64
(lp1527
S''
asbasbasbag57
(g73
g59
NtRp1528
(dp1529
g62
(dp1530
sg71
g1404
sg64
(lp1531
g57
(g78
g59
NtRp1532
(dp1533
g62
(dp1534
g82
g83
ssg71
g1528
sg64
(lp1535
g420
asbag57
(g78
g59
NtRp1536
(dp1537
g62
(dp1538
g89
g90
ssg71
g1528
sg64
(lp1539
S':'
asbag57
(g78
g59
NtRp1540
(dp1541
g62
(dp1542
sg71
g1528
sg64
(lp1543
g57
(g58
g59
NtRp1544
(dp1545
g62
(dp1546
g70
I3
ssg71
g1540
sg64
(lp1547
S''
asbasbasbag57
(g73
g59
NtRp1548
(dp1549
g62
(dp1550
sg71
g1404
sg64
(lp1551
g57
(g78
g59
NtRp1552
(dp1553
g62
(dp1554
g82
g83
ssg71
g1548
sg64
(lp1555
g441
asbag57
(g78
g59
NtRp1556
(dp1557
g62
(dp1558
g89
g90
ssg71
g1548
sg64
(lp1559
S':'
asbag57
(g78
g59
NtRp1560
(dp1561
g62
(dp1562
sg71
g1548
sg64
(lp1563
g57
(g58
g59
NtRp1564
(dp1565
g62
(dp1566
g70
I3
ssg71
g1560
sg64
(lp1567
S''
asbasbasbasbasbasbasbag57
(g73
g59
NtRp1568
(dp1569
g62
(dp1570
sg71
g256
sg64
(lp1571
g57
(g78
g59
NtRp1572
(dp1573
g62
(dp1574
g82
g83
ssg71
g1568
sg64
(lp1575
S'session_id_projeto'
p1576
asbag57
(g78
g59
NtRp1577
(dp1578
g62
(dp1579
g89
g90
ssg71
g1568
sg64
(lp1580
S':'
asbag57
(g78
g59
NtRp1581
(dp1582
g62
(dp1583
sg71
g1568
sg64
(lp1584
g57
(g58
g59
NtRp1585
(dp1586
g62
(dp1587
g70
I4
ssg71
g1581
sg64
(lp1588
S'127.0.0.1-7e2a6bd5-c6a5-4313-8cd5-3d3bebe589eb'
p1589
ag57
(g66
g59
NtRp1590
(dp1591
g62
(dp1592
g70
I3
ssg71
Nsg64
(lp1593
g57
(g73
g59
NtRp1594
(dp1595
g62
(dp1596
sg71
g1590
sg64
(lp1597
g57
(g78
g59
NtRp1598
(dp1599
g62
(dp1600
g82
g83
ssg71
g1594
sg64
(lp1601
g294
asbag57
(g78
g59
NtRp1602
(dp1603
g62
(dp1604
g89
g90
ssg71
g1594
sg64
(lp1605
S':'
asbag57
(g78
g59
NtRp1606
(dp1607
g62
(dp1608
sg71
g1594
sg64
(lp1609
g57
(g58
g59
NtRp1610
(dp1611
g62
(dp1612
g70
I3
ssg71
g1606
sg64
(lp1613
S''
asbasbasbag57
(g73
g59
NtRp1614
(dp1615
g62
(dp1616
sg71
g1590
sg64
(lp1617
g57
(g78
g59
NtRp1618
(dp1619
g62
(dp1620
g82
g83
ssg71
g1614
sg64
(lp1621
g315
asbag57
(g78
g59
NtRp1622
(dp1623
g62
(dp1624
g89
g90
ssg71
g1614
sg64
(lp1625
S':'
asbag57
(g78
g59
NtRp1626
(dp1627
g62
(dp1628
sg71
g1614
sg64
(lp1629
g57
(g58
g59
NtRp1630
(dp1631
g62
(dp1632
g70
I3
ssg71
g1626
sg64
(lp1633
S''
asbasbasbag57
(g73
g59
NtRp1634
(dp1635
g62
(dp1636
sg71
g1590
sg64
(lp1637
g57
(g78
g59
NtRp1638
(dp1639
g62
(dp1640
g82
g83
ssg71
g1634
sg64
(lp1641
g336
asbag57
(g78
g59
NtRp1642
(dp1643
g62
(dp1644
g89
g90
ssg71
g1634
sg64
(lp1645
S':'
asbag57
(g78
g59
NtRp1646
(dp1647
g62
(dp1648
sg71
g1634
sg64
(lp1649
g57
(g58
g59
NtRp1650
(dp1651
g62
(dp1652
g70
I3
ssg71
g1646
sg64
(lp1653
S''
asbasbasbag57
(g73
g59
NtRp1654
(dp1655
g62
(dp1656
sg71
g1590
sg64
(lp1657
g57
(g78
g59
NtRp1658
(dp1659
g62
(dp1660
g82
g83
ssg71
g1654
sg64
(lp1661
g357
asbag57
(g78
g59
NtRp1662
(dp1663
g62
(dp1664
g89
g90
ssg71
g1654
sg64
(lp1665
S':'
asbag57
(g78
g59
NtRp1666
(dp1667
g62
(dp1668
sg71
g1654
sg64
(lp1669
g57
(g58
g59
NtRp1670
(dp1671
g62
(dp1672
g70
I3
ssg71
g1666
sg64
(lp1673
S''
asbasbasbag57
(g73
g59
NtRp1674
(dp1675
g62
(dp1676
sg71
g1590
sg64
(lp1677
g57
(g78
g59
NtRp1678
(dp1679
g62
(dp1680
g82
g83
ssg71
g1674
sg64
(lp1681
g378
asbag57
(g78
g59
NtRp1682
(dp1683
g62
(dp1684
g89
g90
ssg71
g1674
sg64
(lp1685
S':'
asbag57
(g78
g59
NtRp1686
(dp1687
g62
(dp1688
sg71
g1674
sg64
(lp1689
g57
(g58
g59
NtRp1690
(dp1691
g62
(dp1692
g70
I3
ssg71
g1686
sg64
(lp1693
S''
asbasbasbag57
(g73
g59
NtRp1694
(dp1695
g62
(dp1696
sg71
g1590
sg64
(lp1697
g57
(g78
g59
NtRp1698
(dp1699
g62
(dp1700
g82
g83
ssg71
g1694
sg64
(lp1701
g399
asbag57
(g78
g59
NtRp1702
(dp1703
g62
(dp1704
g89
g90
ssg71
g1694
sg64
(lp1705
S':'
asbag57
(g78
g59
NtRp1706
(dp1707
g62
(dp1708
sg71
g1694
sg64
(lp1709
g57
(g58
g59
NtRp1710
(dp1711
g62
(dp1712
g70
I3
ssg71
g1706
sg64
(lp1713
S''
asbasbasbag57
(g73
g59
NtRp1714
(dp1715
g62
(dp1716
sg71
g1590
sg64
(lp1717
g57
(g78
g59
NtRp1718
(dp1719
g62
(dp1720
g82
g83
ssg71
g1714
sg64
(lp1721
g420
asbag57
(g78
g59
NtRp1722
(dp1723
g62
(dp1724
g89
g90
ssg71
g1714
sg64
(lp1725
S':'
asbag57
(g78
g59
NtRp1726
(dp1727
g62
(dp1728
sg71
g1714
sg64
(lp1729
g57
(g58
g59
NtRp1730
(dp1731
g62
(dp1732
g70
I3
ssg71
g1726
sg64
(lp1733
S''
asbasbasbag57
(g73
g59
NtRp1734
(dp1735
g62
(dp1736
sg71
g1590
sg64
(lp1737
g57
(g78
g59
NtRp1738
(dp1739
g62
(dp1740
g82
g83
ssg71
g1734
sg64
(lp1741
g441
asbag57
(g78
g59
NtRp1742
(dp1743
g62
(dp1744
g89
g90
ssg71
g1734
sg64
(lp1745
S':'
asbag57
(g78
g59
NtRp1746
(dp1747
g62
(dp1748
sg71
g1734
sg64
(lp1749
g57
(g58
g59
NtRp1750
(dp1751
g62
(dp1752
g70
I3
ssg71
g1746
sg64
(lp1753
S''
asbasbasbasbasbasbasbag57
(g73
g59
NtRp1754
(dp1755
g62
(dp1756
sg71
g256
sg64
(lp1757
g57
(g78
g59
NtRp1758
(dp1759
g62
(dp1760
g82
g83
ssg71
g1754
sg64
(lp1761
S'types'
p1762
asbag57
(g78
g59
NtRp1763
(dp1764
g62
(dp1765
g89
g90
ssg71
g1754
sg64
(lp1766
S':'
asbag57
(g78
g59
NtRp1767
(dp1768
g62
(dp1769
sg71
g1754
sg64
(lp1770
g57
(g58
g59
NtRp1771
(dp1772
g62
(dp1773
g70
I4
ssg71
g1767
sg64
(lp1774
S'Rev%201.0.1%20MX60-32S%20%20Kernel%201.0.11%20%28F%29'
p1775
ag57
(g66
g59
NtRp1776
(dp1777
g62
(dp1778
g70
I3
ssg71
Nsg64
(lp1779
g57
(g73
g59
NtRp1780
(dp1781
g62
(dp1782
sg71
g1776
sg64
(lp1783
g57
(g78
g59
NtRp1784
(dp1785
g62
(dp1786
g82
g83
ssg71
g1780
sg64
(lp1787
g294
asbag57
(g78
g59
NtRp1788
(dp1789
g62
(dp1790
g89
g90
ssg71
g1780
sg64
(lp1791
S':'
asbag57
(g78
g59
NtRp1792
(dp1793
g62
(dp1794
sg71
g1780
sg64
(lp1795
g57
(g58
g59
NtRp1796
(dp1797
g62
(dp1798
g70
I3
ssg71
g1792
sg64
(lp1799
S''
asbasbasbag57
(g73
g59
NtRp1800
(dp1801
g62
(dp1802
sg71
g1776
sg64
(lp1803
g57
(g78
g59
NtRp1804
(dp1805
g62
(dp1806
g82
g83
ssg71
g1800
sg64
(lp1807
g315
asbag57
(g78
g59
NtRp1808
(dp1809
g62
(dp1810
g89
g90
ssg71
g1800
sg64
(lp1811
S':'
asbag57
(g78
g59
NtRp1812
(dp1813
g62
(dp1814
sg71
g1800
sg64
(lp1815
g57
(g58
g59
NtRp1816
(dp1817
g62
(dp1818
g70
I3
ssg71
g1812
sg64
(lp1819
S''
asbasbasbag57
(g73
g59
NtRp1820
(dp1821
g62
(dp1822
sg71
g1776
sg64
(lp1823
g57
(g78
g59
NtRp1824
(dp1825
g62
(dp1826
g82
g83
ssg71
g1820
sg64
(lp1827
g336
asbag57
(g78
g59
NtRp1828
(dp1829
g62
(dp1830
g89
g90
ssg71
g1820
sg64
(lp1831
S':'
asbag57
(g78
g59
NtRp1832
(dp1833
g62
(dp1834
sg71
g1820
sg64
(lp1835
g57
(g58
g59
NtRp1836
(dp1837
g62
(dp1838
g70
I3
ssg71
g1832
sg64
(lp1839
S''
asbasbasbag57
(g73
g59
NtRp1840
(dp1841
g62
(dp1842
sg71
g1776
sg64
(lp1843
g57
(g78
g59
NtRp1844
(dp1845
g62
(dp1846
g82
g83
ssg71
g1840
sg64
(lp1847
g357
asbag57
(g78
g59
NtRp1848
(dp1849
g62
(dp1850
g89
g90
ssg71
g1840
sg64
(lp1851
S':'
asbag57
(g78
g59
NtRp1852
(dp1853
g62
(dp1854
sg71
g1840
sg64
(lp1855
g57
(g58
g59
NtRp1856
(dp1857
g62
(dp1858
g70
I3
ssg71
g1852
sg64
(lp1859
S''
asbasbasbag57
(g73
g59
NtRp1860
(dp1861
g62
(dp1862
sg71
g1776
sg64
(lp1863
g57
(g78
g59
NtRp1864
(dp1865
g62
(dp1866
g82
g83
ssg71
g1860
sg64
(lp1867
g378
asbag57
(g78
g59
NtRp1868
(dp1869
g62
(dp1870
g89
g90
ssg71
g1860
sg64
(lp1871
S':'
asbag57
(g78
g59
NtRp1872
(dp1873
g62
(dp1874
sg71
g1860
sg64
(lp1875
g57
(g58
g59
NtRp1876
(dp1877
g62
(dp1878
g70
I3
ssg71
g1872
sg64
(lp1879
S''
asbasbasbag57
(g73
g59
NtRp1880
(dp1881
g62
(dp1882
sg71
g1776
sg64
(lp1883
g57
(g78
g59
NtRp1884
(dp1885
g62
(dp1886
g82
g83
ssg71
g1880
sg64
(lp1887
g399
asbag57
(g78
g59
NtRp1888
(dp1889
g62
(dp1890
g89
g90
ssg71
g1880
sg64
(lp1891
S':'
asbag57
(g78
g59
NtRp1892
(dp1893
g62
(dp1894
sg71
g1880
sg64
(lp1895
g57
(g58
g59
NtRp1896
(dp1897
g62
(dp1898
g70
I3
ssg71
g1892
sg64
(lp1899
S''
asbasbasbag57
(g73
g59
NtRp1900
(dp1901
g62
(dp1902
sg71
g1776
sg64
(lp1903
g57
(g78
g59
NtRp1904
(dp1905
g62
(dp1906
g82
g83
ssg71
g1900
sg64
(lp1907
g420
asbag57
(g78
g59
NtRp1908
(dp1909
g62
(dp1910
g89
g90
ssg71
g1900
sg64
(lp1911
S':'
asbag57
(g78
g59
NtRp1912
(dp1913
g62
(dp1914
sg71
g1900
sg64
(lp1915
g57
(g58
g59
NtRp1916
(dp1917
g62
(dp1918
g70
I3
ssg71
g1912
sg64
(lp1919
S''
asbasbasbag57
(g73
g59
NtRp1920
(dp1921
g62
(dp1922
sg71
g1776
sg64
(lp1923
g57
(g78
g59
NtRp1924
(dp1925
g62
(dp1926
g82
g83
ssg71
g1920
sg64
(lp1927
g441
asbag57
(g78
g59
NtRp1928
(dp1929
g62
(dp1930
g89
g90
ssg71
g1920
sg64
(lp1931
S':'
asbag57
(g78
g59
NtRp1932
(dp1933
g62
(dp1934
sg71
g1920
sg64
(lp1935
g57
(g58
g59
NtRp1936
(dp1937
g62
(dp1938
g70
I3
ssg71
g1932
sg64
(lp1939
S''
asbasbasbasbasbasbasbasbasbasbasbag57
(g73
g59
NtRp1940
(dp1941
g62
(dp1942
sg71
g67
sg64
(lp1943
g57
(g78
g59
NtRp1944
(dp1945
g62
(dp1946
g82
g83
ssg71
g1940
sg64
(lp1947
S'env'
p1948
asbag57
(g78
g59
NtRp1949
(dp1950
g62
(dp1951
g89
g90
ssg71
g1940
sg64
(lp1952
S':'
asbag57
(g78
g59
NtRp1953
(dp1954
g62
(dp1955
sg71
g1940
sg64
(lp1956
g57
(g58
g59
NtRp1957
(dp1958
g62
(dp1959
g70
I5
ssg71
g1953
sg64
(lp1960
g57
(g66
g59
NtRp1961
(dp1962
g62
(dp1963
g70
I4
ssg71
Nsg64
(lp1964
g57
(g73
g59
NtRp1965
(dp1966
g62
(dp1967
sg71
g1961
sg64
(lp1968
g57
(g78
g59
NtRp1969
(dp1970
g62
(dp1971
g82
g83
ssg71
g1965
sg64
(lp1972
S'app_folders'
p1973
asbag57
(g78
g59
NtRp1974
(dp1975
g62
(dp1976
g89
g90
ssg71
g1965
sg64
(lp1977
S':'
asbag57
(g78
g59
NtRp1978
(dp1979
g62
(dp1980
sg71
g1965
sg64
(lp1981
g57
(g58
g59
NtRp1982
(dp1983
g62
(dp1984
g70
I4
ssg71
g1978
sg64
(lp1985
S"set(['/var/www/hosts3/applications/projeto/'])"
p1986
asbasbasbag57
(g73
g59
NtRp1987
(dp1988
g62
(dp1989
sg71
g1961
sg64
(lp1990
g57
(g78
g59
NtRp1991
(dp1992
g62
(dp1993
g82
g83
ssg71
g1987
sg64
(lp1994
S'applications_parent'
p1995
asbag57
(g78
g59
NtRp1996
(dp1997
g62
(dp1998
g89
g90
ssg71
g1987
sg64
(lp1999
S':'
asbag57
(g78
g59
NtRp2000
(dp2001
g62
(dp2002
sg71
g1987
sg64
(lp2003
g57
(g58
g59
NtRp2004
(dp2005
g62
(dp2006
g70
I4
ssg71
g2000
sg64
(lp2007
S'/var/www/hosts3'
p2008
asbasbasbag57
(g73
g59
NtRp2009
(dp2010
g62
(dp2011
sg71
g1961
sg64
(lp2012
g57
(g78
g59
NtRp2013
(dp2014
g62
(dp2015
g82
g83
ssg71
g2009
sg64
(lp2016
S'cmd_args'
p2017
asbag57
(g78
g59
NtRp2018
(dp2019
g62
(dp2020
g89
g90
ssg71
g2009
sg64
(lp2021
S':'
asbag57
(g78
g59
NtRp2022
(dp2023
g62
(dp2024
sg71
g2009
sg64
(lp2025
g57
(g58
g59
NtRp2026
(dp2027
g62
(dp2028
g70
I4
ssg71
g2022
sg64
(lp2029
g57
(g66
g59
NtRp2030
(dp2031
g62
(dp2032
g70
I3
ssg71
Nsg64
(lp2033
sbasbasbasbag57
(g73
g59
NtRp2034
(dp2035
g62
(dp2036
sg71
g1961
sg64
(lp2037
g57
(g78
g59
NtRp2038
(dp2039
g62
(dp2040
g82
g83
ssg71
g2034
sg64
(lp2041
S'cmd_options'
p2042
asbag57
(g78
g59
NtRp2043
(dp2044
g62
(dp2045
g89
g90
ssg71
g2034
sg64
(lp2046
S':'
asbag57
(g78
g59
NtRp2047
(dp2048
g62
(dp2049
sg71
g2034
sg64
(lp2050
g57
(g58
g59
NtRp2051
(dp2052
g62
(dp2053
g70
I4
ssg71
g2047
sg64
(lp2054
S"<Values at 0x2930050: {'verbose': False, 'ip': '127.0.0.1', 'with_scheduler': False, 'ips': [], 'shutdown_timeout': 5, 'taskbar': False, 'port': 8000, 'maxthreads': None, 'softcron': False, 'server_name': 'fernado-desktop', 'bpython': False, 'nogui': False, 'pid_filename': 'httpserver.pid', 'extcron': False, 'runcron': False, 'run_system_tests': False, 'test': None, 'folder': '/var/www/hosts3', 'config': '', 'minthreads': None, 'winservice': '', 'shell': None, 'run': '', 'log_filename': 'httpserver.log', 'debuglevel': 30, 'args': [''], 'socket_timeout': 5, 'ssl_ca_certificate': None, 'scheduler': None, 'profiler_filename': None, 'ssl_private_key': '', 'scheduler_groups': None, 'password': '123456', 'request_queue_size': 5, 'ssl_certificate': '', 'cronjob': False, 'numthreads': None, 'quiet': False, 'interfaces': None, 'import_models': False, 'timeout': 10, 'plain': False, 'nobanner': False}>"
p2055
asbasbasbag57
(g73
g59
NtRp2056
(dp2057
g62
(dp2058
sg71
g1961
sg64
(lp2059
g57
(g78
g59
NtRp2060
(dp2061
g62
(dp2062
g82
g83
ssg71
g2056
sg64
(lp2063
S'db_sessions'
p2064
asbag57
(g78
g59
NtRp2065
(dp2066
g62
(dp2067
g89
g90
ssg71
g2056
sg64
(lp2068
S':'
asbag57
(g78
g59
NtRp2069
(dp2070
g62
(dp2071
sg71
g2056
sg64
(lp2072
g57
(g58
g59
NtRp2073
(dp2074
g62
(dp2075
g70
I4
ssg71
g2069
sg64
(lp2076
S'set([])'
p2077
asbasbasbag57
(g73
g59
NtRp2078
(dp2079
g62
(dp2080
sg71
g1961
sg64
(lp2081
g57
(g78
g59
NtRp2082
(dp2083
g62
(dp2084
g82
g83
ssg71
g2078
sg64
(lp2085
S'debugging'
p2086
asbag57
(g78
g59
NtRp2087
(dp2088
g62
(dp2089
g89
g90
ssg71
g2078
sg64
(lp2090
S':'
asbag57
(g78
g59
NtRp2091
(dp2092
g62
(dp2093
sg71
g2078
sg64
(lp2094
g57
(g58
g59
NtRp2095
(dp2096
g62
(dp2097
g70
I4
ssg71
g2091
sg64
(lp2098
g100
asbasbasbag57
(g73
g59
NtRp2099
(dp2100
g62
(dp2101
sg71
g1961
sg64
(lp2102
g57
(g78
g59
NtRp2103
(dp2104
g62
(dp2105
g82
g83
ssg71
g2099
sg64
(lp2106
S'gluon_parent'
p2107
asbag57
(g78
g59
NtRp2108
(dp2109
g62
(dp2110
g89
g90
ssg71
g2099
sg64
(lp2111
S':'
asbag57
(g78
g59
NtRp2112
(dp2113
g62
(dp2114
sg71
g2099
sg64
(lp2115
g57
(g58
g59
NtRp2116
(dp2117
g62
(dp2118
g70
I4
ssg71
g2112
sg64
(lp2119
S'/var/www/hosts3'
p2120
asbasbasbag57
(g73
g59
NtRp2121
(dp2122
g62
(dp2123
sg71
g1961
sg64
(lp2124
g57
(g78
g59
NtRp2125
(dp2126
g62
(dp2127
g82
g83
ssg71
g2121
sg64
(lp2128
S'http_accept'
p2129
asbag57
(g78
g59
NtRp2130
(dp2131
g62
(dp2132
g89
g90
ssg71
g2121
sg64
(lp2133
S':'
asbag57
(g78
g59
NtRp2134
(dp2135
g62
(dp2136
sg71
g2121
sg64
(lp2137
g57
(g58
g59
NtRp2138
(dp2139
g62
(dp2140
g70
I4
ssg71
g2134
sg64
(lp2141
S'text/html,application/xhtml+xml,application/xml;q=0.9,*/*;q=0.8'
p2142
asbasbasbag57
(g73
g59
NtRp2143
(dp2144
g62
(dp2145
sg71
g1961
sg64
(lp2146
g57
(g78
g59
NtRp2147
(dp2148
g62
(dp2149
g82
g83
ssg71
g2143
sg64
(lp2150
S'http_accept_charset'
p2151
asbag57
(g78
g59
NtRp2152
(dp2153
g62
(dp2154
g89
g90
ssg71
g2143
sg64
(lp2155
S':'
asbag57
(g78
g59
NtRp2156
(dp2157
g62
(dp2158
sg71
g2143
sg64
(lp2159
g57
(g58
g59
NtRp2160
(dp2161
g62
(dp2162
g70
I4
ssg71
g2156
sg64
(lp2163
S'ISO-8859-1,utf-8;q=0.7,*;q=0.3'
p2164
asbasbasbag57
(g73
g59
NtRp2165
(dp2166
g62
(dp2167
sg71
g1961
sg64
(lp2168
g57
(g78
g59
NtRp2169
(dp2170
g62
(dp2171
g82
g83
ssg71
g2165
sg64
(lp2172
S'http_accept_encoding'
p2173
asbag57
(g78
g59
NtRp2174
(dp2175
g62
(dp2176
g89
g90
ssg71
g2165
sg64
(lp2177
S':'
asbag57
(g78
g59
NtRp2178
(dp2179
g62
(dp2180
sg71
g2165
sg64
(lp2181
g57
(g58
g59
NtRp2182
(dp2183
g62
(dp2184
g70
I4
ssg71
g2178
sg64
(lp2185
S'gzip,deflate,sdch'
p2186
asbasbasbag57
(g73
g59
NtRp2187
(dp2188
g62
(dp2189
sg71
g1961
sg64
(lp2190
g57
(g78
g59
NtRp2191
(dp2192
g62
(dp2193
g82
g83
ssg71
g2187
sg64
(lp2194
S'http_accept_language'
p2195
asbag57
(g78
g59
NtRp2196
(dp2197
g62
(dp2198
g89
g90
ssg71
g2187
sg64
(lp2199
S':'
asbag57
(g78
g59
NtRp2200
(dp2201
g62
(dp2202
sg71
g2187
sg64
(lp2203
g57
(g58
g59
NtRp2204
(dp2205
g62
(dp2206
g70
I4
ssg71
g2200
sg64
(lp2207
S'pt-BR,pt;q=0.8,en-US;q=0.6,en;q=0.4'
p2208
asbasbasbag57
(g73
g59
NtRp2209
(dp2210
g62
(dp2211
sg71
g1961
sg64
(lp2212
g57
(g78
g59
NtRp2213
(dp2214
g62
(dp2215
g82
g83
ssg71
g2209
sg64
(lp2216
S'http_connection'
p2217
asbag57
(g78
g59
NtRp2218
(dp2219
g62
(dp2220
g89
g90
ssg71
g2209
sg64
(lp2221
S':'
asbag57
(g78
g59
NtRp2222
(dp2223
g62
(dp2224
sg71
g2209
sg64
(lp2225
g57
(g58
g59
NtRp2226
(dp2227
g62
(dp2228
g70
I4
ssg71
g2222
sg64
(lp2229
S'keep-alive'
p2230
asbasbasbag57
(g73
g59
NtRp2231
(dp2232
g62
(dp2233
sg71
g1961
sg64
(lp2234
g57
(g78
g59
NtRp2235
(dp2236
g62
(dp2237
g82
g83
ssg71
g2231
sg64
(lp2238
S'http_cookie'
p2239
asbag57
(g78
g59
NtRp2240
(dp2241
g62
(dp2242
g89
g90
ssg71
g2231
sg64
(lp2243
S':'
asbag57
(g78
g59
NtRp2244
(dp2245
g62
(dp2246
sg71
g2231
sg64
(lp2247
g57
(g58
g59
NtRp2248
(dp2249
g62
(dp2250
g70
I4
ssg71
g2244
sg64
(lp2251
S'hw_type=MX60; hw_version=Rev%201.9.82.316; types=Rev%201.0.1%20MX60-32S%20%20Kernel%201.0.11%20%28F%29; admin=admin; cookie=1649423593; model=MX; nr=1; language=1; session_id_projeto=127.0.0.1-7e2a6bd5-c6a5-4313-8cd5-3d3bebe589eb'
p2252
asbasbasbag57
(g73
g59
NtRp2253
(dp2254
g62
(dp2255
sg71
g1961
sg64
(lp2256
g57
(g78
g59
NtRp2257
(dp2258
g62
(dp2259
g82
g83
ssg71
g2253
sg64
(lp2260
S'http_host'
p2261
asbag57
(g78
g59
NtRp2262
(dp2263
g62
(dp2264
g89
g90
ssg71
g2253
sg64
(lp2265
S':'
asbag57
(g78
g59
NtRp2266
(dp2267
g62
(dp2268
sg71
g2253
sg64
(lp2269
g57
(g58
g59
NtRp2270
(dp2271
g62
(dp2272
g70
I4
ssg71
g2266
sg64
(lp2273
S'127.0.0.1:8000'
p2274
asbasbasbag57
(g73
g59
NtRp2275
(dp2276
g62
(dp2277
sg71
g1961
sg64
(lp2278
g57
(g78
g59
NtRp2279
(dp2280
g62
(dp2281
g82
g83
ssg71
g2275
sg64
(lp2282
S'http_referer'
p2283
asbag57
(g78
g59
NtRp2284
(dp2285
g62
(dp2286
g89
g90
ssg71
g2275
sg64
(lp2287
S':'
asbag57
(g78
g59
NtRp2288
(dp2289
g62
(dp2290
sg71
g2275
sg64
(lp2291
g57
(g58
g59
NtRp2292
(dp2293
g62
(dp2294
g70
I4
ssg71
g2288
sg64
(lp2295
S'http://127.0.0.1:8000/'
p2296
asbasbasbag57
(g73
g59
NtRp2297
(dp2298
g62
(dp2299
sg71
g1961
sg64
(lp2300
g57
(g78
g59
NtRp2301
(dp2302
g62
(dp2303
g82
g83
ssg71
g2297
sg64
(lp2304
S'http_user_agent'
p2305
asbag57
(g78
g59
NtRp2306
(dp2307
g62
(dp2308
g89
g90
ssg71
g2297
sg64
(lp2309
S':'
asbag57
(g78
g59
NtRp2310
(dp2311
g62
(dp2312
sg71
g2297
sg64
(lp2313
g57
(g58
g59
NtRp2314
(dp2315
g62
(dp2316
g70
I4
ssg71
g2310
sg64
(lp2317
S'Mozilla/5.0 (X11; Linux x86_64) AppleWebKit/537.4 (KHTML, like Gecko) Ubuntu/12.10 Chromium/22.0.1229.94 Chrome/22.0.1229.94 Safari/537.4'
p2318
asbasbasbag57
(g73
g59
NtRp2319
(dp2320
g62
(dp2321
sg71
g1961
sg64
(lp2322
g57
(g78
g59
NtRp2323
(dp2324
g62
(dp2325
g82
g83
ssg71
g2319
sg64
(lp2326
S'is_jython'
p2327
asbag57
(g78
g59
NtRp2328
(dp2329
g62
(dp2330
g89
g90
ssg71
g2319
sg64
(lp2331
S':'
asbag57
(g78
g59
NtRp2332
(dp2333
g62
(dp2334
sg71
g2319
sg64
(lp2335
g57
(g58
g59
NtRp2336
(dp2337
g62
(dp2338
g70
I4
ssg71
g2332
sg64
(lp2339
g100
asbasbasbag57
(g73
g59
NtRp2340
(dp2341
g62
(dp2342
sg71
g1961
sg64
(lp2343
g57
(g78
g59
NtRp2344
(dp2345
g62
(dp2346
g82
g83
ssg71
g2340
sg64
(lp2347
S'is_pypy'
p2348
asbag57
(g78
g59
NtRp2349
(dp2350
g62
(dp2351
g89
g90
ssg71
g2340
sg64
(lp2352
S':'
asbag57
(g78
g59
NtRp2353
(dp2354
g62
(dp2355
sg71
g2340
sg64
(lp2356
g57
(g58
g59
NtRp2357
(dp2358
g62
(dp2359
g70
I4
ssg71
g2353
sg64
(lp2360
g100
asbasbasbag57
(g73
g59
NtRp2361
(dp2362
g62
(dp2363
sg71
g1961
sg64
(lp2364
g57
(g78
g59
NtRp2365
(dp2366
g62
(dp2367
g82
g83
ssg71
g2361
sg64
(lp2368
S'local_hosts'
p2369
asbag57
(g78
g59
NtRp2370
(dp2371
g62
(dp2372
g89
g90
ssg71
g2361
sg64
(lp2373
S':'
asbag57
(g78
g59
NtRp2374
(dp2375
g62
(dp2376
sg71
g2361
sg64
(lp2377
g57
(g58
g59
NtRp2378
(dp2379
g62
(dp2380
g70
I4
ssg71
g2374
sg64
(lp2381
g57
(g66
g59
NtRp2382
(dp2383
g62
(dp2384
g70
I3
ssg71
Nsg64
(lp2385
g57
(g73
g59
NtRp2386
(dp2387
g62
(dp2388
sg71
g2382
sg64
(lp2389
g57
(g78
g59
NtRp2390
(dp2391
g62
(dp2392
sg71
g2386
sg64
(lp2393
g57
(g58
g59
NtRp2394
(dp2395
g62
(dp2396
g70
I3
ssg71
g2390
sg64
(lp2397
S'127.0.1.1'
p2398
asbasbasbag57
(g73
g59
NtRp2399
(dp2400
g62
(dp2401
sg71
g2382
sg64
(lp2402
g57
(g78
g59
NtRp2403
(dp2404
g62
(dp2405
sg71
g2399
sg64
(lp2406
g57
(g58
g59
NtRp2407
(dp2408
g62
(dp2409
g70
I3
ssg71
g2403
sg64
(lp2410
S'::1'
p2411
asbasbasbag57
(g73
g59
NtRp2412
(dp2413
g62
(dp2414
sg71
g2382
sg64
(lp2415
g57
(g78
g59
NtRp2416
(dp2417
g62
(dp2418
sg71
g2412
sg64
(lp2419
g57
(g58
g59
NtRp2420
(dp2421
g62
(dp2422
g70
I3
ssg71
g2416
sg64
(lp2423
S'fernado-desktop'
p2424
asbasbasbag57
(g73
g59
NtRp2425
(dp2426
g62
(dp2427
sg71
g2382
sg64
(lp2428
g57
(g78
g59
NtRp2429
(dp2430
g62
(dp2431
sg71
g2425
sg64
(lp2432
g57
(g58
g59
NtRp2433
(dp2434
g62
(dp2435
g70
I3
ssg71
g2429
sg64
(lp2436
S'::ffff:127.0.0.1'
p2437
asbasbasbag57
(g73
g59
NtRp2438
(dp2439
g62
(dp2440
sg71
g2382
sg64
(lp2441
g57
(g78
g59
NtRp2442
(dp2443
g62
(dp2444
sg71
g2438
sg64
(lp2445
g57
(g58
g59
NtRp2446
(dp2447
g62
(dp2448
g70
I3
ssg71
g2442
sg64
(lp2449
S'127.0.0.1'
p2450
asbasbasbasbasbasbasbag57
(g73
g59
NtRp2451
(dp2452
g62
(dp2453
sg71
g1961
sg64
(lp2454
g57
(g78
g59
NtRp2455
(dp2456
g62
(dp2457
g82
g83
ssg71
g2451
sg64
(lp2458
S'path_info'
p2459
asbag57
(g78
g59
NtRp2460
(dp2461
g62
(dp2462
g89
g90
ssg71
g2451
sg64
(lp2463
S':'
asbag57
(g78
g59
NtRp2464
(dp2465
g62
(dp2466
sg71
g2451
sg64
(lp2467
g57
(g58
g59
NtRp2468
(dp2469
g62
(dp2470
g70
I4
ssg71
g2464
sg64
(lp2471
S'/'
asbasbasbag57
(g73
g59
NtRp2472
(dp2473
g62
(dp2474
sg71
g1961
sg64
(lp2475
g57
(g78
g59
NtRp2476
(dp2477
g62
(dp2478
g82
g83
ssg71
g2472
sg64
(lp2479
S'query_string'
p2480
asbag57
(g78
g59
NtRp2481
(dp2482
g62
(dp2483
g89
g90
ssg71
g2472
sg64
(lp2484
S':'
asbag57
(g78
g59
NtRp2485
(dp2486
g62
(dp2487
sg71
g2472
sg64
(lp2488
g57
(g58
g59
NtRp2489
(dp2490
g62
(dp2491
g70
I4
ssg71
g2485
sg64
(lp2492
S''
asbasbasbag57
(g73
g59
NtRp2493
(dp2494
g62
(dp2495
sg71
g1961
sg64
(lp2496
g57
(g78
g59
NtRp2497
(dp2498
g62
(dp2499
g82
g83
ssg71
g2493
sg64
(lp2500
S'remote_addr'
p2501
asbag57
(g78
g59
NtRp2502
(dp2503
g62
(dp2504
g89
g90
ssg71
g2493
sg64
(lp2505
S':'
asbag57
(g78
g59
NtRp2506
(dp2507
g62
(dp2508
sg71
g2493
sg64
(lp2509
g57
(g58
g59
NtRp2510
(dp2511
g62
(dp2512
g70
I4
ssg71
g2506
sg64
(lp2513
g212
asbasbasbag57
(g73
g59
NtRp2514
(dp2515
g62
(dp2516
sg71
g1961
sg64
(lp2517
g57
(g78
g59
NtRp2518
(dp2519
g62
(dp2520
g82
g83
ssg71
g2514
sg64
(lp2521
S'remote_port'
p2522
asbag57
(g78
g59
NtRp2523
(dp2524
g62
(dp2525
g89
g90
ssg71
g2514
sg64
(lp2526
S':'
asbag57
(g78
g59
NtRp2527
(dp2528
g62
(dp2529
sg71
g2514
sg64
(lp2530
g57
(g58
g59
NtRp2531
(dp2532
g62
(dp2533
g70
I4
ssg71
g2527
sg64
(lp2534
S'51334'
p2535
asbasbasbag57
(g73
g59
NtRp2536
(dp2537
g62
(dp2538
sg71
g1961
sg64
(lp2539
g57
(g78
g59
NtRp2540
(dp2541
g62
(dp2542
g82
g83
ssg71
g2536
sg64
(lp2543
S'request_method'
p2544
asbag57
(g78
g59
NtRp2545
(dp2546
g62
(dp2547
g89
g90
ssg71
g2536
sg64
(lp2548
S':'
asbag57
(g78
g59
NtRp2549
(dp2550
g62
(dp2551
sg71
g2536
sg64
(lp2552
g57
(g58
g59
NtRp2553
(dp2554
g62
(dp2555
g70
I4
ssg71
g2549
sg64
(lp2556
S'GET'
p2557
asbasbasbag57
(g73
g59
NtRp2558
(dp2559
g62
(dp2560
sg71
g1961
sg64
(lp2561
g57
(g78
g59
NtRp2562
(dp2563
g62
(dp2564
g82
g83
ssg71
g2558
sg64
(lp2565
S'request_uri'
p2566
asbag57
(g78
g59
NtRp2567
(dp2568
g62
(dp2569
g89
g90
ssg71
g2558
sg64
(lp2570
S':'
asbag57
(g78
g59
NtRp2571
(dp2572
g62
(dp2573
sg71
g2558
sg64
(lp2574
g57
(g58
g59
NtRp2575
(dp2576
g62
(dp2577
g70
I4
ssg71
g2571
sg64
(lp2578
S'/projeto/initial/show_cliente'
p2579
asbasbasbag57
(g73
g59
NtRp2580
(dp2581
g62
(dp2582
sg71
g1961
sg64
(lp2583
g57
(g78
g59
NtRp2584
(dp2585
g62
(dp2586
g82
g83
ssg71
g2580
sg64
(lp2587
S'script_name'
p2588
asbag57
(g78
g59
NtRp2589
(dp2590
g62
(dp2591
g89
g90
ssg71
g2580
sg64
(lp2592
S':'
asbag57
(g78
g59
NtRp2593
(dp2594
g62
(dp2595
sg71
g2580
sg64
(lp2596
g57
(g58
g59
NtRp2597
(dp2598
g62
(dp2599
g70
I4
ssg71
g2593
sg64
(lp2600
S''
asbasbasbag57
(g73
g59
NtRp2601
(dp2602
g62
(dp2603
sg71
g1961
sg64
(lp2604
g57
(g78
g59
NtRp2605
(dp2606
g62
(dp2607
g82
g83
ssg71
g2601
sg64
(lp2608
S'server_name'
p2609
asbag57
(g78
g59
NtRp2610
(dp2611
g62
(dp2612
g89
g90
ssg71
g2601
sg64
(lp2613
S':'
asbag57
(g78
g59
NtRp2614
(dp2615
g62
(dp2616
sg71
g2601
sg64
(lp2617
g57
(g58
g59
NtRp2618
(dp2619
g62
(dp2620
g70
I4
ssg71
g2614
sg64
(lp2621
S'fernado-desktop'
p2622
asbasbasbag57
(g73
g59
NtRp2623
(dp2624
g62
(dp2625
sg71
g1961
sg64
(lp2626
g57
(g78
g59
NtRp2627
(dp2628
g62
(dp2629
g82
g83
ssg71
g2623
sg64
(lp2630
S'server_port'
p2631
asbag57
(g78
g59
NtRp2632
(dp2633
g62
(dp2634
g89
g90
ssg71
g2623
sg64
(lp2635
S':'
asbag57
(g78
g59
NtRp2636
(dp2637
g62
(dp2638
sg71
g2623
sg64
(lp2639
g57
(g58
g59
NtRp2640
(dp2641
g62
(dp2642
g70
I4
ssg71
g2636
sg64
(lp2643
S'8000'
p2644
asbasbasbag57
(g73
g59
NtRp2645
(dp2646
g62
(dp2647
sg71
g1961
sg64
(lp2648
g57
(g78
g59
NtRp2649
(dp2650
g62
(dp2651
g82
g83
ssg71
g2645
sg64
(lp2652
S'server_protocol'
p2653
asbag57
(g78
g59
NtRp2654
(dp2655
g62
(dp2656
g89
g90
ssg71
g2645
sg64
(lp2657
S':'
asbag57
(g78
g59
NtRp2658
(dp2659
g62
(dp2660
sg71
g2645
sg64
(lp2661
g57
(g58
g59
NtRp2662
(dp2663
g62
(dp2664
g70
I4
ssg71
g2658
sg64
(lp2665
S'HTTP/1.1'
p2666
asbasbasbag57
(g73
g59
NtRp2667
(dp2668
g62
(dp2669
sg71
g1961
sg64
(lp2670
g57
(g78
g59
NtRp2671
(dp2672
g62
(dp2673
g82
g83
ssg71
g2667
sg64
(lp2674
S'server_software'
p2675
asbag57
(g78
g59
NtRp2676
(dp2677
g62
(dp2678
g89
g90
ssg71
g2667
sg64
(lp2679
S':'
asbag57
(g78
g59
NtRp2680
(dp2681
g62
(dp2682
sg71
g2667
sg64
(lp2683
g57
(g58
g59
NtRp2684
(dp2685
g62
(dp2686
g70
I4
ssg71
g2680
sg64
(lp2687
S'Rocket 1.2.6'
p2688
asbasbasbag57
(g73
g59
NtRp2689
(dp2690
g62
(dp2691
sg71
g1961
sg64
(lp2692
g57
(g78
g59
NtRp2693
(dp2694
g62
(dp2695
g82
g83
ssg71
g2689
sg64
(lp2696
S'web2py_original_uri'
p2697
asbag57
(g78
g59
NtRp2698
(dp2699
g62
(dp2700
g89
g90
ssg71
g2689
sg64
(lp2701
S':'
asbag57
(g78
g59
NtRp2702
(dp2703
g62
(dp2704
sg71
g2689
sg64
(lp2705
g57
(g58
g59
NtRp2706
(dp2707
g62
(dp2708
g70
I4
ssg71
g2702
sg64
(lp2709
S'/'
asbasbasbag57
(g73
g59
NtRp2710
(dp2711
g62
(dp2712
sg71
g1961
sg64
(lp2713
g57
(g78
g59
NtRp2714
(dp2715
g62
(dp2716
g82
g83
ssg71
g2710
sg64
(lp2717
S'web2py_path'
p2718
asbag57
(g78
g59
NtRp2719
(dp2720
g62
(dp2721
g89
g90
ssg71
g2710
sg64
(lp2722
S':'
asbag57
(g78
g59
NtRp2723
(dp2724
g62
(dp2725
sg71
g2710
sg64
(lp2726
g57
(g58
g59
NtRp2727
(dp2728
g62
(dp2729
g70
I4
ssg71
g2723
sg64
(lp2730
g2008
asbasbasbag57
(g73
g59
NtRp2731
(dp2732
g62
(dp2733
sg71
g1961
sg64
(lp2734
g57
(g78
g59
NtRp2735
(dp2736
g62
(dp2737
g82
g83
ssg71
g2731
sg64
(lp2738
S'web2py_version'
p2739
asbag57
(g78
g59
NtRp2740
(dp2741
g62
(dp2742
g89
g90
ssg71
g2731
sg64
(lp2743
S':'
asbag57
(g78
g59
NtRp2744
(dp2745
g62
(dp2746
sg71
g2731
sg64
(lp2747
g57
(g58
g59
NtRp2748
(dp2749
g62
(dp2750
g70
I4
ssg71
g2744
sg64
(lp2751
g57
(g66
g59
NtRp2752
(dp2753
g62
(dp2754
g70
I3
ssg71
Nsg64
(lp2755
g57
(g73
g59
NtRp2756
(dp2757
g62
(dp2758
sg71
g2752
sg64
(lp2759
g57
(g78
g59
NtRp2760
(dp2761
g62
(dp2762
sg71
g2756
sg64
(lp2763
g57
(g58
g59
NtRp2764
(dp2765
g62
(dp2766
g70
I3
ssg71
g2760
sg64
(lp2767
S'2'
asbasbasbag57
(g73
g59
NtRp2768
(dp2769
g62
(dp2770
sg71
g2752
sg64
(lp2771
g57
(g78
g59
NtRp2772
(dp2773
g62
(dp2774
sg71
g2768
sg64
(lp2775
g57
(g58
g59
NtRp2776
(dp2777
g62
(dp2778
g70
I3
ssg71
g2772
sg64
(lp2779
S'3'
asbasbasbag57
(g73
g59
NtRp2780
(dp2781
g62
(dp2782
sg71
g2752
sg64
(lp2783
g57
(g78
g59
NtRp2784
(dp2785
g62
(dp2786
sg71
g2780
sg64
(lp2787
g57
(g58
g59
NtRp2788
(dp2789
g62
(dp2790
g70
I3
ssg71
g2784
sg64
(lp2791
S'2'
asbasbasbag57
(g73
g59
NtRp2792
(dp2793
g62
(dp2794
sg71
g2752
sg64
(lp2795
g57
(g78
g59
NtRp2796
(dp2797
g62
(dp2798
sg71
g2792
sg64
(lp2799
g57
(g58
g59
NtRp2800
(dp2801
g62
(dp2802
g70
I3
ssg71
g2796
sg64
(lp2803
S'datetime.datetime(2012, 12, 17, 15, 3, 30)'
p2804
asbasbasbag57
(g73
g59
NtRp2805
(dp2806
g62
(dp2807
sg71
g2752
sg64
(lp2808
g57
(g78
g59
NtRp2809
(dp2810
g62
(dp2811
sg71
g2805
sg64
(lp2812
g57
(g58
g59
NtRp2813
(dp2814
g62
(dp2815
g70
I3
ssg71
g2809
sg64
(lp2816
S'stable'
p2817
asbasbasbasbasbasbasbag57
(g73
g59
NtRp2818
(dp2819
g62
(dp2820
sg71
g1961
sg64
(lp2821
g57
(g78
g59
NtRp2822
(dp2823
g62
(dp2824
g82
g83
ssg71
g2818
sg64
(lp2825
S'wsgi_errors'
p2826
asbag57
(g78
g59
NtRp2827
(dp2828
g62
(dp2829
g89
g90
ssg71
g2818
sg64
(lp2830
S':'
asbag57
(g78
g59
NtRp2831
(dp2832
g62
(dp2833
sg71
g2818
sg64
(lp2834
g57
(g58
g59
NtRp2835
(dp2836
g62
(dp2837
g70
I4
ssg71
g2831
sg64
(lp2838
S"<open file '<stderr>', mode 'w' at 0x7f4f5a799270>"
p2839
asbasbasbag57
(g73
g59
NtRp2840
(dp2841
g62
(dp2842
sg71
g1961
sg64
(lp2843
g57
(g78
g59
NtRp2844
(dp2845
g62
(dp2846
g82
g83
ssg71
g2840
sg64
(lp2847
S'wsgi_file_wrapper'
p2848
asbag57
(g78
g59
NtRp2849
(dp2850
g62
(dp2851
g89
g90
ssg71
g2840
sg64
(lp2852
S':'
asbag57
(g78
g59
NtRp2853
(dp2854
g62
(dp2855
sg71
g2840
sg64
(lp2856
g57
(g58
g59
NtRp2857
(dp2858
g62
(dp2859
g70
I4
ssg71
g2853
sg64
(lp2860
S'<class wsgiref.util.FileWrapper at 0x28858d8>'
p2861
asbasbasbag57
(g73
g59
NtRp2862
(dp2863
g62
(dp2864
sg71
g1961
sg64
(lp2865
g57
(g78
g59
NtRp2866
(dp2867
g62
(dp2868
g82
g83
ssg71
g2862
sg64
(lp2869
S'wsgi_input'
p2870
asbag57
(g78
g59
NtRp2871
(dp2872
g62
(dp2873
g89
g90
ssg71
g2862
sg64
(lp2874
S':'
asbag57
(g78
g59
NtRp2875
(dp2876
g62
(dp2877
sg71
g2862
sg64
(lp2878
g57
(g58
g59
NtRp2879
(dp2880
g62
(dp2881
g70
I4
ssg71
g2875
sg64
(lp2882
S'<socket._fileobject object at 0x7f4f481ce350>'
p2883
asbasbasbag57
(g73
g59
NtRp2884
(dp2885
g62
(dp2886
sg71
g1961
sg64
(lp2887
g57
(g78
g59
NtRp2888
(dp2889
g62
(dp2890
g82
g83
ssg71
g2884
sg64
(lp2891
S'wsgi_multiprocess'
p2892
asbag57
(g78
g59
NtRp2893
(dp2894
g62
(dp2895
g89
g90
ssg71
g2884
sg64
(lp2896
S':'
asbag57
(g78
g59
NtRp2897
(dp2898
g62
(dp2899
sg71
g2884
sg64
(lp2900
g57
(g58
g59
NtRp2901
(dp2902
g62
(dp2903
g70
I4
ssg71
g2897
sg64
(lp2904
g100
asbasbasbag57
(g73
g59
NtRp2905
(dp2906
g62
(dp2907
sg71
g1961
sg64
(lp2908
g57
(g78
g59
NtRp2909
(dp2910
g62
(dp2911
g82
g83
ssg71
g2905
sg64
(lp2912
S'wsgi_multithread'
p2913
asbag57
(g78
g59
NtRp2914
(dp2915
g62
(dp2916
g89
g90
ssg71
g2905
sg64
(lp2917
S':'
asbag57
(g78
g59
NtRp2918
(dp2919
g62
(dp2920
sg71
g2905
sg64
(lp2921
g57
(g58
g59
NtRp2922
(dp2923
g62
(dp2924
g70
I4
ssg71
g2918
sg64
(lp2925
S'True'
p2926
asbasbasbag57
(g73
g59
NtRp2927
(dp2928
g62
(dp2929
sg71
g1961
sg64
(lp2930
g57
(g78
g59
NtRp2931
(dp2932
g62
(dp2933
g82
g83
ssg71
g2927
sg64
(lp2934
S'wsgi_run_once'
p2935
asbag57
(g78
g59
NtRp2936
(dp2937
g62
(dp2938
g89
g90
ssg71
g2927
sg64
(lp2939
S':'
asbag57
(g78
g59
NtRp2940
(dp2941
g62
(dp2942
sg71
g2927
sg64
(lp2943
g57
(g58
g59
NtRp2944
(dp2945
g62
(dp2946
g70
I4
ssg71
g2940
sg64
(lp2947
g100
asbasbasbag57
(g73
g59
NtRp2948
(dp2949
g62
(dp2950
sg71
g1961
sg64
(lp2951
g57
(g78
g59
NtRp2952
(dp2953
g62
(dp2954
g82
g83
ssg71
g2948
sg64
(lp2955
S'wsgi_url_scheme'
p2956
asbag57
(g78
g59
NtRp2957
(dp2958
g62
(dp2959
g89
g90
ssg71
g2948
sg64
(lp2960
S':'
asbag57
(g78
g59
NtRp2961
(dp2962
g62
(dp2963
sg71
g2948
sg64
(lp2964
g57
(g58
g59
NtRp2965
(dp2966
g62
(dp2967
g70
I4
ssg71
g2961
sg64
(lp2968
S'http'
p2969
asbasbasbag57
(g73
g59
NtRp2970
(dp2971
g62
(dp2972
sg71
g1961
sg64
(lp2973
g57
(g78
g59
NtRp2974
(dp2975
g62
(dp2976
g82
g83
ssg71
g2970
sg64
(lp2977
S'wsgi_version'
p2978
asbag57
(g78
g59
NtRp2979
(dp2980
g62
(dp2981
g89
g90
ssg71
g2970
sg64
(lp2982
S':'
asbag57
(g78
g59
NtRp2983
(dp2984
g62
(dp2985
sg71
g2970
sg64
(lp2986
g57
(g58
g59
NtRp2987
(dp2988
g62
(dp2989
g70
I4
ssg71
g2983
sg64
(lp2990
g57
(g66
g59
NtRp2991
(dp2992
g62
(dp2993
g70
I3
ssg71
Nsg64
(lp2994
g57
(g73
g59
NtRp2995
(dp2996
g62
(dp2997
sg71
g2991
sg64
(lp2998
g57
(g78
g59
NtRp2999
(dp3000
g62
(dp3001
sg71
g2995
sg64
(lp3002
g57
(g58
g59
NtRp3003
(dp3004
g62
(dp3005
g70
I3
ssg71
g2999
sg64
(lp3006
S'1'
asbasbasbag57
(g73
g59
NtRp3007
(dp3008
g62
(dp3009
sg71
g2991
sg64
(lp3010
g57
(g78
g59
NtRp3011
(dp3012
g62
(dp3013
sg71
g3007
sg64
(lp3014
g57
(g58
g59
NtRp3015
(dp3016
g62
(dp3017
g70
I3
ssg71
g3011
sg64
(lp3018
S'0'
asbasbasbasbasbasbasbasbasbasbasbag57
(g73
g59
NtRp3019
(dp3020
g62
(dp3021
sg71
g67
sg64
(lp3022
g57
(g78
g59
NtRp3023
(dp3024
g62
(dp3025
g82
g83
ssg71
g3019
sg64
(lp3026
S'extension'
p3027
asbag57
(g78
g59
NtRp3028
(dp3029
g62
(dp3030
g89
g90
ssg71
g3019
sg64
(lp3031
S':'
asbag57
(g78
g59
NtRp3032
(dp3033
g62
(dp3034
sg71
g3019
sg64
(lp3035
g57
(g58
g59
NtRp3036
(dp3037
g62
(dp3038
g70
I5
ssg71
g3032
sg64
(lp3039
S'html'
p3040
asbasbasbag57
(g73
g59
NtRp3041
(dp3042
g62
(dp3043
sg71
g67
sg64
(lp3044
g57
(g78
g59
NtRp3045
(dp3046
g62
(dp3047
g82
g83
ssg71
g3041
sg64
(lp3048
S'folder'
p3049
asbag57
(g78
g59
NtRp3050
(dp3051
g62
(dp3052
g89
g90
ssg71
g3041
sg64
(lp3053
S':'
asbag57
(g78
g59
NtRp3054
(dp3055
g62
(dp3056
sg71
g3041
sg64
(lp3057
g57
(g58
g59
NtRp3058
(dp3059
g62
(dp3060
g70
I5
ssg71
g3054
sg64
(lp3061
S'/var/www/hosts3/applications/projeto/'
p3062
asbasbasbag57
(g73
g59
NtRp3063
(dp3064
g62
(dp3065
sg71
g67
sg64
(lp3066
g57
(g78
g59
NtRp3067
(dp3068
g62
(dp3069
g82
g83
ssg71
g3063
sg64
(lp3070
S'function'
p3071
asbag57
(g78
g59
NtRp3072
(dp3073
g62
(dp3074
g89
g90
ssg71
g3063
sg64
(lp3075
S':'
asbag57
(g78
g59
NtRp3076
(dp3077
g62
(dp3078
sg71
g3063
sg64
(lp3079
g57
(g58
g59
NtRp3080
(dp3081
g62
(dp3082
g70
I5
ssg71
g3076
sg64
(lp3083
S'show_cliente'
p3084
asbasbasbag57
(g73
g59
NtRp3085
(dp3086
g62
(dp3087
sg71
g67
sg64
(lp3088
g57
(g78
g59
NtRp3089
(dp3090
g62
(dp3091
g82
g83
ssg71
g3085
sg64
(lp3092
S'get_vars'
p3093
asbag57
(g78
g59
NtRp3094
(dp3095
g62
(dp3096
g89
g90
ssg71
g3085
sg64
(lp3097
S':'
asbag57
(g78
g59
NtRp3098
(dp3099
g62
(dp3100
sg71
g3085
sg64
(lp3101
g57
(g58
g59
NtRp3102
(dp3103
g62
(dp3104
g70
I5
ssg71
g3098
sg64
(lp3105
g57
(g66
g59
NtRp3106
(dp3107
g62
(dp3108
g70
I4
ssg71
Nsg64
(lp3109
sbasbasbasbag57
(g73
g59
NtRp3110
(dp3111
g62
(dp3112
sg71
g67
sg64
(lp3113
g57
(g78
g59
NtRp3114
(dp3115
g62
(dp3116
g82
g83
ssg71
g3110
sg64
(lp3117
S'global_settings'
p3118
asbag57
(g78
g59
NtRp3119
(dp3120
g62
(dp3121
g89
g90
ssg71
g3110
sg64
(lp3122
S':'
asbag57
(g78
g59
NtRp3123
(dp3124
g62
(dp3125
sg71
g3110
sg64
(lp3126
g57
(g58
g59
NtRp3127
(dp3128
g62
(dp3129
g70
I5
ssg71
g3123
sg64
(lp3130
g57
(g66
g59
NtRp3131
(dp3132
g62
(dp3133
g70
I4
ssg71
Nsg64
(lp3134
g57
(g73
g59
NtRp3135
(dp3136
g62
(dp3137
sg71
g3131
sg64
(lp3138
g57
(g78
g59
NtRp3139
(dp3140
g62
(dp3141
g82
g83
ssg71
g3135
sg64
(lp3142
g1973
asbag57
(g78
g59
NtRp3143
(dp3144
g62
(dp3145
g89
g90
ssg71
g3135
sg64
(lp3146
S':'
asbag57
(g78
g59
NtRp3147
(dp3148
g62
(dp3149
sg71
g3135
sg64
(lp3150
g57
(g58
g59
NtRp3151
(dp3152
g62
(dp3153
g70
I4
ssg71
g3147
sg64
(lp3154
S"set(['/var/www/hosts3/applications/projeto/'])"
p3155
asbasbasbag57
(g73
g59
NtRp3156
(dp3157
g62
(dp3158
sg71
g3131
sg64
(lp3159
g57
(g78
g59
NtRp3160
(dp3161
g62
(dp3162
g82
g83
ssg71
g3156
sg64
(lp3163
g1995
asbag57
(g78
g59
NtRp3164
(dp3165
g62
(dp3166
g89
g90
ssg71
g3156
sg64
(lp3167
S':'
asbag57
(g78
g59
NtRp3168
(dp3169
g62
(dp3170
sg71
g3156
sg64
(lp3171
g57
(g58
g59
NtRp3172
(dp3173
g62
(dp3174
g70
I4
ssg71
g3168
sg64
(lp3175
g2008
asbasbasbag57
(g73
g59
NtRp3176
(dp3177
g62
(dp3178
sg71
g3131
sg64
(lp3179
g57
(g78
g59
NtRp3180
(dp3181
g62
(dp3182
g82
g83
ssg71
g3176
sg64
(lp3183
g2017
asbag57
(g78
g59
NtRp3184
(dp3185
g62
(dp3186
g89
g90
ssg71
g3176
sg64
(lp3187
S':'
asbag57
(g78
g59
NtRp3188
(dp3189
g62
(dp3190
sg71
g3176
sg64
(lp3191
g57
(g58
g59
NtRp3192
(dp3193
g62
(dp3194
g70
I4
ssg71
g3188
sg64
(lp3195
g57
(g66
g59
NtRp3196
(dp3197
g62
(dp3198
g70
I3
ssg71
Nsg64
(lp3199
sbasbasbasbag57
(g73
g59
NtRp3200
(dp3201
g62
(dp3202
sg71
g3131
sg64
(lp3203
g57
(g78
g59
NtRp3204
(dp3205
g62
(dp3206
g82
g83
ssg71
g3200
sg64
(lp3207
g2042
asbag57
(g78
g59
NtRp3208
(dp3209
g62
(dp3210
g89
g90
ssg71
g3200
sg64
(lp3211
S':'
asbag57
(g78
g59
NtRp3212
(dp3213
g62
(dp3214
sg71
g3200
sg64
(lp3215
g57
(g58
g59
NtRp3216
(dp3217
g62
(dp3218
g70
I4
ssg71
g3212
sg64
(lp3219
S"<Values at 0x2930050: {'verbose': False, 'ip': '127.0.0.1', 'with_scheduler': False, 'ips': [], 'shutdown_timeout': 5, 'taskbar': False, 'port': 8000, 'maxthreads': None, 'softcron': False, 'server_name': 'fernado-desktop', 'bpython': False, 'nogui': False, 'pid_filename': 'httpserver.pid', 'extcron': False, 'runcron': False, 'run_system_tests': False, 'test': None, 'folder': '/var/www/hosts3', 'config': '', 'minthreads': None, 'winservice': '', 'shell': None, 'run': '', 'log_filename': 'httpserver.log', 'debuglevel': 30, 'args': [''], 'socket_timeout': 5, 'ssl_ca_certificate': None, 'scheduler': None, 'profiler_filename': None, 'ssl_private_key': '', 'scheduler_groups': None, 'password': '123456', 'request_queue_size': 5, 'ssl_certificate': '', 'cronjob': False, 'numthreads': None, 'quiet': False, 'interfaces': None, 'import_models': False, 'timeout': 10, 'plain': False, 'nobanner': False}>"
p3220
asbasbasbag57
(g73
g59
NtRp3221
(dp3222
g62
(dp3223
sg71
g3131
sg64
(lp3224
g57
(g78
g59
NtRp3225
(dp3226
g62
(dp3227
g82
g83
ssg71
g3221
sg64
(lp3228
g2064
asbag57
(g78
g59
NtRp3229
(dp3230
g62
(dp3231
g89
g90
ssg71
g3221
sg64
(lp3232
S':'
asbag57
(g78
g59
NtRp3233
(dp3234
g62
(dp3235
sg71
g3221
sg64
(lp3236
g57
(g58
g59
NtRp3237
(dp3238
g62
(dp3239
g70
I4
ssg71
g3233
sg64
(lp3240
S'set([])'
p3241
asbasbasbag57
(g73
g59
NtRp3242
(dp3243
g62
(dp3244
sg71
g3131
sg64
(lp3245
g57
(g78
g59
NtRp3246
(dp3247
g62
(dp3248
g82
g83
ssg71
g3242
sg64
(lp3249
g2086
asbag57
(g78
g59
NtRp3250
(dp3251
g62
(dp3252
g89
g90
ssg71
g3242
sg64
(lp3253
S':'
asbag57
(g78
g59
NtRp3254
(dp3255
g62
(dp3256
sg71
g3242
sg64
(lp3257
g57
(g58
g59
NtRp3258
(dp3259
g62
(dp3260
g70
I4
ssg71
g3254
sg64
(lp3261
g100
asbasbasbag57
(g73
g59
NtRp3262
(dp3263
g62
(dp3264
sg71
g3131
sg64
(lp3265
g57
(g78
g59
NtRp3266
(dp3267
g62
(dp3268
g82
g83
ssg71
g3262
sg64
(lp3269
g2107
asbag57
(g78
g59
NtRp3270
(dp3271
g62
(dp3272
g89
g90
ssg71
g3262
sg64
(lp3273
S':'
asbag57
(g78
g59
NtRp3274
(dp3275
g62
(dp3276
sg71
g3262
sg64
(lp3277
g57
(g58
g59
NtRp3278
(dp3279
g62
(dp3280
g70
I4
ssg71
g3274
sg64
(lp3281
g2120
asbasbasbag57
(g73
g59
NtRp3282
(dp3283
g62
(dp3284
sg71
g3131
sg64
(lp3285
g57
(g78
g59
NtRp3286
(dp3287
g62
(dp3288
g82
g83
ssg71
g3282
sg64
(lp3289
g2327
asbag57
(g78
g59
NtRp3290
(dp3291
g62
(dp3292
g89
g90
ssg71
g3282
sg64
(lp3293
S':'
asbag57
(g78
g59
NtRp3294
(dp3295
g62
(dp3296
sg71
g3282
sg64
(lp3297
g57
(g58
g59
NtRp3298
(dp3299
g62
(dp3300
g70
I4
ssg71
g3294
sg64
(lp3301
g100
asbasbasbag57
(g73
g59
NtRp3302
(dp3303
g62
(dp3304
sg71
g3131
sg64
(lp3305
g57
(g78
g59
NtRp3306
(dp3307
g62
(dp3308
g82
g83
ssg71
g3302
sg64
(lp3309
g2348
asbag57
(g78
g59
NtRp3310
(dp3311
g62
(dp3312
g89
g90
ssg71
g3302
sg64
(lp3313
S':'
asbag57
(g78
g59
NtRp3314
(dp3315
g62
(dp3316
sg71
g3302
sg64
(lp3317
g57
(g58
g59
NtRp3318
(dp3319
g62
(dp3320
g70
I4
ssg71
g3314
sg64
(lp3321
g100
asbasbasbag57
(g73
g59
NtRp3322
(dp3323
g62
(dp3324
sg71
g3131
sg64
(lp3325
g57
(g78
g59
NtRp3326
(dp3327
g62
(dp3328
g82
g83
ssg71
g3322
sg64
(lp3329
g2369
asbag57
(g78
g59
NtRp3330
(dp3331
g62
(dp3332
g89
g90
ssg71
g3322
sg64
(lp3333
S':'
asbag57
(g78
g59
NtRp3334
(dp3335
g62
(dp3336
sg71
g3322
sg64
(lp3337
g57
(g58
g59
NtRp3338
(dp3339
g62
(dp3340
g70
I4
ssg71
g3334
sg64
(lp3341
g57
(g66
g59
NtRp3342
(dp3343
g62
(dp3344
g70
I3
ssg71
Nsg64
(lp3345
g57
(g73
g59
NtRp3346
(dp3347
g62
(dp3348
sg71
g3342
sg64
(lp3349
g57
(g78
g59
NtRp3350
(dp3351
g62
(dp3352
sg71
g3346
sg64
(lp3353
g57
(g58
g59
NtRp3354
(dp3355
g62
(dp3356
g70
I3
ssg71
g3350
sg64
(lp3357
g2398
asbasbasbag57
(g73
g59
NtRp3358
(dp3359
g62
(dp3360
sg71
g3342
sg64
(lp3361
g57
(g78
g59
NtRp3362
(dp3363
g62
(dp3364
sg71
g3358
sg64
(lp3365
g57
(g58
g59
NtRp3366
(dp3367
g62
(dp3368
g70
I3
ssg71
g3362
sg64
(lp3369
g2411
asbasbasbag57
(g73
g59
NtRp3370
(dp3371
g62
(dp3372
sg71
g3342
sg64
(lp3373
g57
(g78
g59
NtRp3374
(dp3375
g62
(dp3376
sg71
g3370
sg64
(lp3377
g57
(g58
g59
NtRp3378
(dp3379
g62
(dp3380
g70
I3
ssg71
g3374
sg64
(lp3381
g2424
asbasbasbag57
(g73
g59
NtRp3382
(dp3383
g62
(dp3384
sg71
g3342
sg64
(lp3385
g57
(g78
g59
NtRp3386
(dp3387
g62
(dp3388
sg71
g3382
sg64
(lp3389
g57
(g58
g59
NtRp3390
(dp3391
g62
(dp3392
g70
I3
ssg71
g3386
sg64
(lp3393
g2437
asbasbasbag57
(g73
g59
NtRp3394
(dp3395
g62
(dp3396
sg71
g3342
sg64
(lp3397
g57
(g78
g59
NtRp3398
(dp3399
g62
(dp3400
sg71
g3394
sg64
(lp3401
g57
(g58
g59
NtRp3402
(dp3403
g62
(dp3404
g70
I3
ssg71
g3398
sg64
(lp3405
g2450
asbasbasbasbasbasbasbag57
(g73
g59
NtRp3406
(dp3407
g62
(dp3408
sg71
g3131
sg64
(lp3409
g57
(g78
g59
NtRp3410
(dp3411
g62
(dp3412
g82
g83
ssg71
g3406
sg64
(lp3413
g2739
asbag57
(g78
g59
NtRp3414
(dp3415
g62
(dp3416
g89
g90
ssg71
g3406
sg64
(lp3417
S':'
asbag57
(g78
g59
NtRp3418
(dp3419
g62
(dp3420
sg71
g3406
sg64
(lp3421
g57
(g58
g59
NtRp3422
(dp3423
g62
(dp3424
g70
I4
ssg71
g3418
sg64
(lp3425
g57
(g66
g59
NtRp3426
(dp3427
g62
(dp3428
g70
I3
ssg71
Nsg64
(lp3429
g57
(g73
g59
NtRp3430
(dp3431
g62
(dp3432
sg71
g3426
sg64
(lp3433
g57
(g78
g59
NtRp3434
(dp3435
g62
(dp3436
sg71
g3430
sg64
(lp3437
g57
(g58
g59
NtRp3438
(dp3439
g62
(dp3440
g70
I3
ssg71
g3434
sg64
(lp3441
S'2'
asbasbasbag57
(g73
g59
NtRp3442
(dp3443
g62
(dp3444
sg71
g3426
sg64
(lp3445
g57
(g78
g59
NtRp3446
(dp3447
g62
(dp3448
sg71
g3442
sg64
(lp3449
g57
(g58
g59
NtRp3450
(dp3451
g62
(dp3452
g70
I3
ssg71
g3446
sg64
(lp3453
S'3'
asbasbasbag57
(g73
g59
NtRp3454
(dp3455
g62
(dp3456
sg71
g3426
sg64
(lp3457
g57
(g78
g59
NtRp3458
(dp3459
g62
(dp3460
sg71
g3454
sg64
(lp3461
g57
(g58
g59
NtRp3462
(dp3463
g62
(dp3464
g70
I3
ssg71
g3458
sg64
(lp3465
S'2'
asbasbasbag57
(g73
g59
NtRp3466
(dp3467
g62
(dp3468
sg71
g3426
sg64
(lp3469
g57
(g78
g59
NtRp3470
(dp3471
g62
(dp3472
sg71
g3466
sg64
(lp3473
g57
(g58
g59
NtRp3474
(dp3475
g62
(dp3476
g70
I3
ssg71
g3470
sg64
(lp3477
S'datetime.datetime(2012, 12, 17, 15, 3, 30)'
p3478
asbasbasbag57
(g73
g59
NtRp3479
(dp3480
g62
(dp3481
sg71
g3426
sg64
(lp3482
g57
(g78
g59
NtRp3483
(dp3484
g62
(dp3485
sg71
g3479
sg64
(lp3486
g57
(g58
g59
NtRp3487
(dp3488
g62
(dp3489
g70
I3
ssg71
g3483
sg64
(lp3490
g2817
asbasbasbasbasbasbasbasbasbasbasbag57
(g73
g59
NtRp3491
(dp3492
g62
(dp3493
sg71
g67
sg64
(lp3494
g57
(g78
g59
NtRp3495
(dp3496
g62
(dp3497
g82
g83
ssg71
g3491
sg64
(lp3498
S'is_https'
p3499
asbag57
(g78
g59
NtRp3500
(dp3501
g62
(dp3502
g89
g90
ssg71
g3491
sg64
(lp3503
S':'
asbag57
(g78
g59
NtRp3504
(dp3505
g62
(dp3506
sg71
g3491
sg64
(lp3507
g57
(g58
g59
NtRp3508
(dp3509
g62
(dp3510
g70
I5
ssg71
g3504
sg64
(lp3511
g100
asbasbasbag57
(g73
g59
NtRp3512
(dp3513
g62
(dp3514
sg71
g67
sg64
(lp3515
g57
(g78
g59
NtRp3516
(dp3517
g62
(dp3518
g82
g83
ssg71
g3512
sg64
(lp3519
S'is_local'
p3520
asbag57
(g78
g59
NtRp3521
(dp3522
g62
(dp3523
g89
g90
ssg71
g3512
sg64
(lp3524
S':'
asbag57
(g78
g59
NtRp3525
(dp3526
g62
(dp3527
sg71
g3512
sg64
(lp3528
g57
(g58
g59
NtRp3529
(dp3530
g62
(dp3531
g70
I5
ssg71
g3525
sg64
(lp3532
g2926
asbasbasbag57
(g73
g59
NtRp3533
(dp3534
g62
(dp3535
sg71
g67
sg64
(lp3536
g57
(g78
g59
NtRp3537
(dp3538
g62
(dp3539
g82
g83
ssg71
g3533
sg64
(lp3540
S'is_restful'
p3541
asbag57
(g78
g59
NtRp3542
(dp3543
g62
(dp3544
g89
g90
ssg71
g3533
sg64
(lp3545
S':'
asbag57
(g78
g59
NtRp3546
(dp3547
g62
(dp3548
sg71
g3533
sg64
(lp3549
g57
(g58
g59
NtRp3550
(dp3551
g62
(dp3552
g70
I5
ssg71
g3546
sg64
(lp3553
g100
asbasbasbag57
(g73
g59
NtRp3554
(dp3555
g62
(dp3556
sg71
g67
sg64
(lp3557
g57
(g78
g59
NtRp3558
(dp3559
g62
(dp3560
g82
g83
ssg71
g3554
sg64
(lp3561
S'now'
p3562
asbag57
(g78
g59
NtRp3563
(dp3564
g62
(dp3565
g89
g90
ssg71
g3554
sg64
(lp3566
S':'
asbag57
(g78
g59
NtRp3567
(dp3568
g62
(dp3569
sg71
g3554
sg64
(lp3570
g57
(g58
g59
NtRp3571
(dp3572
g62
(dp3573
g70
I5
ssg71
g3567
sg64
(lp3574
S'datetime.datetime(2013, 2, 7, 16, 8, 18, 977049)'
p3575
asbasbasbag57
(g73
g59
NtRp3576
(dp3577
g62
(dp3578
sg71
g67
sg64
(lp3579
g57
(g78
g59
NtRp3580
(dp3581
g62
(dp3582
g82
g83
ssg71
g3576
sg64
(lp3583
S'post_vars'
p3584
asbag57
(g78
g59
NtRp3585
(dp3586
g62
(dp3587
g89
g90
ssg71
g3576
sg64
(lp3588
S':'
asbag57
(g78
g59
NtRp3589
(dp3590
g62
(dp3591
sg71
g3576
sg64
(lp3592
g57
(g58
g59
NtRp3593
(dp3594
g62
(dp3595
g70
I5
ssg71
g3589
sg64
(lp3596
g57
(g66
g59
NtRp3597
(dp3598
g62
(dp3599
g70
I4
ssg71
Nsg64
(lp3600
sbasbasbasbag57
(g73
g59
NtRp3601
(dp3602
g62
(dp3603
sg71
g67
sg64
(lp3604
g57
(g78
g59
NtRp3605
(dp3606
g62
(dp3607
g82
g83
ssg71
g3601
sg64
(lp3608
S'url'
p3609
asbag57
(g78
g59
NtRp3610
(dp3611
g62
(dp3612
g89
g90
ssg71
g3601
sg64
(lp3613
S':'
asbag57
(g78
g59
NtRp3614
(dp3615
g62
(dp3616
sg71
g3601
sg64
(lp3617
g57
(g58
g59
NtRp3618
(dp3619
g62
(dp3620
g70
I5
ssg71
g3614
sg64
(lp3621
S'/'
asbasbasbag57
(g73
g59
NtRp3622
(dp3623
g62
(dp3624
sg71
g67
sg64
(lp3625
g57
(g78
g59
NtRp3626
(dp3627
g62
(dp3628
g82
g83
ssg71
g3622
sg64
(lp3629
S'utcnow'
p3630
asbag57
(g78
g59
NtRp3631
(dp3632
g62
(dp3633
g89
g90
ssg71
g3622
sg64
(lp3634
S':'
asbag57
(g78
g59
NtRp3635
(dp3636
g62
(dp3637
sg71
g3622
sg64
(lp3638
g57
(g58
g59
NtRp3639
(dp3640
g62
(dp3641
g70
I5
ssg71
g3635
sg64
(lp3642
S'datetime.datetime(2013, 2, 7, 18, 8, 18, 977112)'
p3643
asbasbasbag57
(g73
g59
NtRp3644
(dp3645
g62
(dp3646
sg71
g67
sg64
(lp3647
g57
(g78
g59
NtRp3648
(dp3649
g62
(dp3650
g82
g83
ssg71
g3644
sg64
(lp3651
S'uuid'
p3652
asbag57
(g78
g59
NtRp3653
(dp3654
g62
(dp3655
g89
g90
ssg71
g3644
sg64
(lp3656
S':'
asbag57
(g78
g59
NtRp3657
(dp3658
g62
(dp3659
sg71
g3644
sg64
(lp3660
g57
(g58
g59
NtRp3661
(dp3662
g62
(dp3663
g70
I5
ssg71
g3657
sg64
(lp3664
S'projeto/127.0.0.1.2013-02-07.16-08-18.9210d6fb-9b31-4c7e-bb3b-1d7568f23061'
p3665
asbasbasbag57
(g73
g59
NtRp3666
(dp3667
g62
(dp3668
sg71
g67
sg64
(lp3669
g57
(g78
g59
NtRp3670
(dp3671
g62
(dp3672
g82
g83
ssg71
g3666
sg64
(lp3673
S'vars'
p3674
asbag57
(g78
g59
NtRp3675
(dp3676
g62
(dp3677
g89
g90
ssg71
g3666
sg64
(lp3678
S':'
asbag57
(g78
g59
NtRp3679
(dp3680
g62
(dp3681
sg71
g3666
sg64
(lp3682
g57
(g58
g59
NtRp3683
(dp3684
g62
(dp3685
g70
I5
ssg71
g3679
sg64
(lp3686
g57
(g66
g59
NtRp3687
(dp3688
g62
(dp3689
g70
I4
ssg71
Nsg64
(lp3690
sbasbasbasbag57
(g73
g59
NtRp3691
(dp3692
g62
(dp3693
sg71
g67
sg64
(lp3694
g57
(g78
g59
NtRp3695
(dp3696
g62
(dp3697
g82
g83
ssg71
g3691
sg64
(lp3698
S'wsgi'
p3699
asbag57
(g78
g59
NtRp3700
(dp3701
g62
(dp3702
g89
g90
ssg71
g3691
sg64
(lp3703
S':'
asbag57
(g78
g59
NtRp3704
(dp3705
g62
(dp3706
sg71
g3691
sg64
(lp3707
g57
(g58
g59
NtRp3708
(dp3709
g62
(dp3710
g70
I5
ssg71
g3704
sg64
(lp3711
g57
(g66
g59
NtRp3712
(dp3713
g62
(dp3714
g70
I4
ssg71
Nsg64
(lp3715
g57
(g73
g59
NtRp3716
(dp3717
g62
(dp3718
sg71
g3712
sg64
(lp3719
g57
(g78
g59
NtRp3720
(dp3721
g62
(dp3722
g82
g83
ssg71
g3716
sg64
(lp3723
S'environ'
p3724
asbag57
(g78
g59
NtRp3725
(dp3726
g62
(dp3727
g89
g90
ssg71
g3716
sg64
(lp3728
S':'
asbag57
(g78
g59
NtRp3729
(dp3730
g62
(dp3731
sg71
g3716
sg64
(lp3732
g57
(g58
g59
NtRp3733
(dp3734
g62
(dp3735
g70
I4
ssg71
g3729
sg64
(lp3736
g57
(g66
g59
NtRp3737
(dp3738
g62
(dp3739
g70
I3
ssg71
Nsg64
(lp3740
g57
(g73
g59
NtRp3741
(dp3742
g62
(dp3743
sg71
g3737
sg64
(lp3744
g57
(g78
g59
NtRp3745
(dp3746
g62
(dp3747
g82
g83
ssg71
g3741
sg64
(lp3748
S'HTTP_ACCEPT'
p3749
asbag57
(g78
g59
NtRp3750
(dp3751
g62
(dp3752
g89
g90
ssg71
g3741
sg64
(lp3753
S':'
asbag57
(g78
g59
NtRp3754
(dp3755
g62
(dp3756
sg71
g3741
sg64
(lp3757
g57
(g58
g59
NtRp3758
(dp3759
g62
(dp3760
g70
I3
ssg71
g3754
sg64
(lp3761
g2142
asbasbasbag57
(g73
g59
NtRp3762
(dp3763
g62
(dp3764
sg71
g3737
sg64
(lp3765
g57
(g78
g59
NtRp3766
(dp3767
g62
(dp3768
g82
g83
ssg71
g3762
sg64
(lp3769
S'HTTP_ACCEPT_CHARSET'
p3770
asbag57
(g78
g59
NtRp3771
(dp3772
g62
(dp3773
g89
g90
ssg71
g3762
sg64
(lp3774
S':'
asbag57
(g78
g59
NtRp3775
(dp3776
g62
(dp3777
sg71
g3762
sg64
(lp3778
g57
(g58
g59
NtRp3779
(dp3780
g62
(dp3781
g70
I3
ssg71
g3775
sg64
(lp3782
g2164
asbasbasbag57
(g73
g59
NtRp3783
(dp3784
g62
(dp3785
sg71
g3737
sg64
(lp3786
g57
(g78
g59
NtRp3787
(dp3788
g62
(dp3789
g82
g83
ssg71
g3783
sg64
(lp3790
S'HTTP_ACCEPT_ENCODING'
p3791
asbag57
(g78
g59
NtRp3792
(dp3793
g62
(dp3794
g89
g90
ssg71
g3783
sg64
(lp3795
S':'
asbag57
(g78
g59
NtRp3796
(dp3797
g62
(dp3798
sg71
g3783
sg64
(lp3799
g57
(g58
g59
NtRp3800
(dp3801
g62
(dp3802
g70
I3
ssg71
g3796
sg64
(lp3803
g2186
asbasbasbag57
(g73
g59
NtRp3804
(dp3805
g62
(dp3806
sg71
g3737
sg64
(lp3807
g57
(g78
g59
NtRp3808
(dp3809
g62
(dp3810
g82
g83
ssg71
g3804
sg64
(lp3811
S'HTTP_ACCEPT_LANGUAGE'
p3812
asbag57
(g78
g59
NtRp3813
(dp3814
g62
(dp3815
g89
g90
ssg71
g3804
sg64
(lp3816
S':'
asbag57
(g78
g59
NtRp3817
(dp3818
g62
(dp3819
sg71
g3804
sg64
(lp3820
g57
(g58
g59
NtRp3821
(dp3822
g62
(dp3823
g70
I3
ssg71
g3817
sg64
(lp3824
g2208
asbasbasbag57
(g73
g59
NtRp3825
(dp3826
g62
(dp3827
sg71
g3737
sg64
(lp3828
g57
(g78
g59
NtRp3829
(dp3830
g62
(dp3831
g82
g83
ssg71
g3825
sg64
(lp3832
S'HTTP_CONNECTION'
p3833
asbag57
(g78
g59
NtRp3834
(dp3835
g62
(dp3836
g89
g90
ssg71
g3825
sg64
(lp3837
S':'
asbag57
(g78
g59
NtRp3838
(dp3839
g62
(dp3840
sg71
g3825
sg64
(lp3841
g57
(g58
g59
NtRp3842
(dp3843
g62
(dp3844
g70
I3
ssg71
g3838
sg64
(lp3845
g2230
asbasbasbag57
(g73
g59
NtRp3846
(dp3847
g62
(dp3848
sg71
g3737
sg64
(lp3849
g57
(g78
g59
NtRp3850
(dp3851
g62
(dp3852
g82
g83
ssg71
g3846
sg64
(lp3853
S'HTTP_COOKIE'
p3854
asbag57
(g78
g59
NtRp3855
(dp3856
g62
(dp3857
g89
g90
ssg71
g3846
sg64
(lp3858
S':'
asbag57
(g78
g59
NtRp3859
(dp3860
g62
(dp3861
sg71
g3846
sg64
(lp3862
g57
(g58
g59
NtRp3863
(dp3864
g62
(dp3865
g70
I3
ssg71
g3859
sg64
(lp3866
g2252
asbasbasbag57
(g73
g59
NtRp3867
(dp3868
g62
(dp3869
sg71
g3737
sg64
(lp3870
g57
(g78
g59
NtRp3871
(dp3872
g62
(dp3873
g82
g83
ssg71
g3867
sg64
(lp3874
S'HTTP_HOST'
p3875
asbag57
(g78
g59
NtRp3876
(dp3877
g62
(dp3878
g89
g90
ssg71
g3867
sg64
(lp3879
S':'
asbag57
(g78
g59
NtRp3880
(dp3881
g62
(dp3882
sg71
g3867
sg64
(lp3883
g57
(g58
g59
NtRp3884
(dp3885
g62
(dp3886
g70
I3
ssg71
g3880
sg64
(lp3887
g2274
asbasbasbag57
(g73
g59
NtRp3888
(dp3889
g62
(dp3890
sg71
g3737
sg64
(lp3891
g57
(g78
g59
NtRp3892
(dp3893
g62
(dp3894
g82
g83
ssg71
g3888
sg64
(lp3895
S'HTTP_REFERER'
p3896
asbag57
(g78
g59
NtRp3897
(dp3898
g62
(dp3899
g89
g90
ssg71
g3888
sg64
(lp3900
S':'
asbag57
(g78
g59
NtRp3901
(dp3902
g62
(dp3903
sg71
g3888
sg64
(lp3904
g57
(g58
g59
NtRp3905
(dp3906
g62
(dp3907
g70
I3
ssg71
g3901
sg64
(lp3908
g2296
asbasbasbag57
(g73
g59
NtRp3909
(dp3910
g62
(dp3911
sg71
g3737
sg64
(lp3912
g57
(g78
g59
NtRp3913
(dp3914
g62
(dp3915
g82
g83
ssg71
g3909
sg64
(lp3916
S'HTTP_USER_AGENT'
p3917
asbag57
(g78
g59
NtRp3918
(dp3919
g62
(dp3920
g89
g90
ssg71
g3909
sg64
(lp3921
S':'
asbag57
(g78
g59
NtRp3922
(dp3923
g62
(dp3924
sg71
g3909
sg64
(lp3925
g57
(g58
g59
NtRp3926
(dp3927
g62
(dp3928
g70
I3
ssg71
g3922
sg64
(lp3929
g2318
asbasbasbag57
(g73
g59
NtRp3930
(dp3931
g62
(dp3932
sg71
g3737
sg64
(lp3933
g57
(g78
g59
NtRp3934
(dp3935
g62
(dp3936
g82
g83
ssg71
g3930
sg64
(lp3937
S'PATH_INFO'
p3938
asbag57
(g78
g59
NtRp3939
(dp3940
g62
(dp3941
g89
g90
ssg71
g3930
sg64
(lp3942
S':'
asbag57
(g78
g59
NtRp3943
(dp3944
g62
(dp3945
sg71
g3930
sg64
(lp3946
g57
(g58
g59
NtRp3947
(dp3948
g62
(dp3949
g70
I3
ssg71
g3943
sg64
(lp3950
S'/'
asbasbasbag57
(g73
g59
NtRp3951
(dp3952
g62
(dp3953
sg71
g3737
sg64
(lp3954
g57
(g78
g59
NtRp3955
(dp3956
g62
(dp3957
g82
g83
ssg71
g3951
sg64
(lp3958
S'QUERY_STRING'
p3959
asbag57
(g78
g59
NtRp3960
(dp3961
g62
(dp3962
g89
g90
ssg71
g3951
sg64
(lp3963
S':'
asbag57
(g78
g59
NtRp3964
(dp3965
g62
(dp3966
sg71
g3951
sg64
(lp3967
g57
(g58
g59
NtRp3968
(dp3969
g62
(dp3970
g70
I3
ssg71
g3964
sg64
(lp3971
S''
asbasbasbag57
(g73
g59
NtRp3972
(dp3973
g62
(dp3974
sg71
g3737
sg64
(lp3975
g57
(g78
g59
NtRp3976
(dp3977
g62
(dp3978
g82
g83
ssg71
g3972
sg64
(lp3979
S'REMOTE_ADDR'
p3980
asbag57
(g78
g59
NtRp3981
(dp3982
g62
(dp3983
g89
g90
ssg71
g3972
sg64
(lp3984
S':'
asbag57
(g78
g59
NtRp3985
(dp3986
g62
(dp3987
sg71
g3972
sg64
(lp3988
g57
(g58
g59
NtRp3989
(dp3990
g62
(dp3991
g70
I3
ssg71
g3985
sg64
(lp3992
g212
asbasbasbag57
(g73
g59
NtRp3993
(dp3994
g62
(dp3995
sg71
g3737
sg64
(lp3996
g57
(g78
g59
NtRp3997
(dp3998
g62
(dp3999
g82
g83
ssg71
g3993
sg64
(lp4000
S'REMOTE_PORT'
p4001
asbag57
(g78
g59
NtRp4002
(dp4003
g62
(dp4004
g89
g90
ssg71
g3993
sg64
(lp4005
S':'
asbag57
(g78
g59
NtRp4006
(dp4007
g62
(dp4008
sg71
g3993
sg64
(lp4009
g57
(g58
g59
NtRp4010
(dp4011
g62
(dp4012
g70
I3
ssg71
g4006
sg64
(lp4013
g2535
asbasbasbag57
(g73
g59
NtRp4014
(dp4015
g62
(dp4016
sg71
g3737
sg64
(lp4017
g57
(g78
g59
NtRp4018
(dp4019
g62
(dp4020
g82
g83
ssg71
g4014
sg64
(lp4021
S'REQUEST_METHOD'
p4022
asbag57
(g78
g59
NtRp4023
(dp4024
g62
(dp4025
g89
g90
ssg71
g4014
sg64
(lp4026
S':'
asbag57
(g78
g59
NtRp4027
(dp4028
g62
(dp4029
sg71
g4014
sg64
(lp4030
g57
(g58
g59
NtRp4031
(dp4032
g62
(dp4033
g70
I3
ssg71
g4027
sg64
(lp4034
g2557
asbasbasbag57
(g73
g59
NtRp4035
(dp4036
g62
(dp4037
sg71
g3737
sg64
(lp4038
g57
(g78
g59
NtRp4039
(dp4040
g62
(dp4041
g82
g83
ssg71
g4035
sg64
(lp4042
S'REQUEST_URI'
p4043
asbag57
(g78
g59
NtRp4044
(dp4045
g62
(dp4046
g89
g90
ssg71
g4035
sg64
(lp4047
S':'
asbag57
(g78
g59
NtRp4048
(dp4049
g62
(dp4050
sg71
g4035
sg64
(lp4051
g57
(g58
g59
NtRp4052
(dp4053
g62
(dp4054
g70
I3
ssg71
g4048
sg64
(lp4055
g2579
asbasbasbag57
(g73
g59
NtRp4056
(dp4057
g62
(dp4058
sg71
g3737
sg64
(lp4059
g57
(g78
g59
NtRp4060
(dp4061
g62
(dp4062
g82
g83
ssg71
g4056
sg64
(lp4063
S'SCRIPT_NAME'
p4064
asbag57
(g78
g59
NtRp4065
(dp4066
g62
(dp4067
g89
g90
ssg71
g4056
sg64
(lp4068
S':'
asbag57
(g78
g59
NtRp4069
(dp4070
g62
(dp4071
sg71
g4056
sg64
(lp4072
g57
(g58
g59
NtRp4073
(dp4074
g62
(dp4075
g70
I3
ssg71
g4069
sg64
(lp4076
S''
asbasbasbag57
(g73
g59
NtRp4077
(dp4078
g62
(dp4079
sg71
g3737
sg64
(lp4080
g57
(g78
g59
NtRp4081
(dp4082
g62
(dp4083
g82
g83
ssg71
g4077
sg64
(lp4084
S'SERVER_NAME'
p4085
asbag57
(g78
g59
NtRp4086
(dp4087
g62
(dp4088
g89
g90
ssg71
g4077
sg64
(lp4089
S':'
asbag57
(g78
g59
NtRp4090
(dp4091
g62
(dp4092
sg71
g4077
sg64
(lp4093
g57
(g58
g59
NtRp4094
(dp4095
g62
(dp4096
g70
I3
ssg71
g4090
sg64
(lp4097
g2622
asbasbasbag57
(g73
g59
NtRp4098
(dp4099
g62
(dp4100
sg71
g3737
sg64
(lp4101
g57
(g78
g59
NtRp4102
(dp4103
g62
(dp4104
g82
g83
ssg71
g4098
sg64
(lp4105
S'SERVER_PORT'
p4106
asbag57
(g78
g59
NtRp4107
(dp4108
g62
(dp4109
g89
g90
ssg71
g4098
sg64
(lp4110
S':'
asbag57
(g78
g59
NtRp4111
(dp4112
g62
(dp4113
sg71
g4098
sg64
(lp4114
g57
(g58
g59
NtRp4115
(dp4116
g62
(dp4117
g70
I3
ssg71
g4111
sg64
(lp4118
g2644
asbasbasbag57
(g73
g59
NtRp4119
(dp4120
g62
(dp4121
sg71
g3737
sg64
(lp4122
g57
(g78
g59
NtRp4123
(dp4124
g62
(dp4125
g82
g83
ssg71
g4119
sg64
(lp4126
S'SERVER_PROTOCOL'
p4127
asbag57
(g78
g59
NtRp4128
(dp4129
g62
(dp4130
g89
g90
ssg71
g4119
sg64
(lp4131
S':'
asbag57
(g78
g59
NtRp4132
(dp4133
g62
(dp4134
sg71
g4119
sg64
(lp4135
g57
(g58
g59
NtRp4136
(dp4137
g62
(dp4138
g70
I3
ssg71
g4132
sg64
(lp4139
g2666
asbasbasbag57
(g73
g59
NtRp4140
(dp4141
g62
(dp4142
sg71
g3737
sg64
(lp4143
g57
(g78
g59
NtRp4144
(dp4145
g62
(dp4146
g82
g83
ssg71
g4140
sg64
(lp4147
S'SERVER_SOFTWARE'
p4148
asbag57
(g78
g59
NtRp4149
(dp4150
g62
(dp4151
g89
g90
ssg71
g4140
sg64
(lp4152
S':'
asbag57
(g78
g59
NtRp4153
(dp4154
g62
(dp4155
sg71
g4140
sg64
(lp4156
g57
(g58
g59
NtRp4157
(dp4158
g62
(dp4159
g70
I3
ssg71
g4153
sg64
(lp4160
g2688
asbasbasbag57
(g73
g59
NtRp4161
(dp4162
g62
(dp4163
sg71
g3737
sg64
(lp4164
g57
(g78
g59
NtRp4165
(dp4166
g62
(dp4167
g82
g83
ssg71
g4161
sg64
(lp4168
S'WEB2PY_ORIGINAL_URI'
p4169
asbag57
(g78
g59
NtRp4170
(dp4171
g62
(dp4172
g89
g90
ssg71
g4161
sg64
(lp4173
S':'
asbag57
(g78
g59
NtRp4174
(dp4175
g62
(dp4176
sg71
g4161
sg64
(lp4177
g57
(g58
g59
NtRp4178
(dp4179
g62
(dp4180
g70
I3
ssg71
g4174
sg64
(lp4181
S'/'
asbasbasbag57
(g73
g59
NtRp4182
(dp4183
g62
(dp4184
sg71
g3737
sg64
(lp4185
g57
(g78
g59
NtRp4186
(dp4187
g62
(dp4188
g82
g83
ssg71
g4182
sg64
(lp4189
S'wsgi.errors'
p4190
asbag57
(g78
g59
NtRp4191
(dp4192
g62
(dp4193
g89
g90
ssg71
g4182
sg64
(lp4194
S':'
asbag57
(g78
g59
NtRp4195
(dp4196
g62
(dp4197
sg71
g4182
sg64
(lp4198
g57
(g58
g59
NtRp4199
(dp4200
g62
(dp4201
g70
I3
ssg71
g4195
sg64
(lp4202
S"<open file '<stderr>', mode 'w' at 0x7f4f5a799270>"
p4203
asbasbasbag57
(g73
g59
NtRp4204
(dp4205
g62
(dp4206
sg71
g3737
sg64
(lp4207
g57
(g78
g59
NtRp4208
(dp4209
g62
(dp4210
g82
g83
ssg71
g4204
sg64
(lp4211
S'wsgi.file_wrapper'
p4212
asbag57
(g78
g59
NtRp4213
(dp4214
g62
(dp4215
g89
g90
ssg71
g4204
sg64
(lp4216
S':'
asbag57
(g78
g59
NtRp4217
(dp4218
g62
(dp4219
sg71
g4204
sg64
(lp4220
g57
(g58
g59
NtRp4221
(dp4222
g62
(dp4223
g70
I3
ssg71
g4217
sg64
(lp4224
S'<class wsgiref.util.FileWrapper at 0x28858d8>'
p4225
asbasbasbag57
(g73
g59
NtRp4226
(dp4227
g62
(dp4228
sg71
g3737
sg64
(lp4229
g57
(g78
g59
NtRp4230
(dp4231
g62
(dp4232
g82
g83
ssg71
g4226
sg64
(lp4233
S'wsgi.input'
p4234
asbag57
(g78
g59
NtRp4235
(dp4236
g62
(dp4237
g89
g90
ssg71
g4226
sg64
(lp4238
S':'
asbag57
(g78
g59
NtRp4239
(dp4240
g62
(dp4241
sg71
g4226
sg64
(lp4242
g57
(g58
g59
NtRp4243
(dp4244
g62
(dp4245
g70
I3
ssg71
g4239
sg64
(lp4246
S'<cStringIO.StringO object at 0x293f228>'
p4247
asbasbasbag57
(g73
g59
NtRp4248
(dp4249
g62
(dp4250
sg71
g3737
sg64
(lp4251
g57
(g78
g59
NtRp4252
(dp4253
g62
(dp4254
g82
g83
ssg71
g4248
sg64
(lp4255
S'wsgi.multiprocess'
p4256
asbag57
(g78
g59
NtRp4257
(dp4258
g62
(dp4259
g89
g90
ssg71
g4248
sg64
(lp4260
S':'
asbag57
(g78
g59
NtRp4261
(dp4262
g62
(dp4263
sg71
g4248
sg64
(lp4264
g57
(g58
g59
NtRp4265
(dp4266
g62
(dp4267
g70
I3
ssg71
g4261
sg64
(lp4268
g100
asbasbasbag57
(g73
g59
NtRp4269
(dp4270
g62
(dp4271
sg71
g3737
sg64
(lp4272
g57
(g78
g59
NtRp4273
(dp4274
g62
(dp4275
g82
g83
ssg71
g4269
sg64
(lp4276
S'wsgi.multithread'
p4277
asbag57
(g78
g59
NtRp4278
(dp4279
g62
(dp4280
g89
g90
ssg71
g4269
sg64
(lp4281
S':'
asbag57
(g78
g59
NtRp4282
(dp4283
g62
(dp4284
sg71
g4269
sg64
(lp4285
g57
(g58
g59
NtRp4286
(dp4287
g62
(dp4288
g70
I3
ssg71
g4282
sg64
(lp4289
g2926
asbasbasbag57
(g73
g59
NtRp4290
(dp4291
g62
(dp4292
sg71
g3737
sg64
(lp4293
g57
(g78
g59
NtRp4294
(dp4295
g62
(dp4296
g82
g83
ssg71
g4290
sg64
(lp4297
S'wsgi.run_once'
p4298
asbag57
(g78
g59
NtRp4299
(dp4300
g62
(dp4301
g89
g90
ssg71
g4290
sg64
(lp4302
S':'
asbag57
(g78
g59
NtRp4303
(dp4304
g62
(dp4305
sg71
g4290
sg64
(lp4306
g57
(g58
g59
NtRp4307
(dp4308
g62
(dp4309
g70
I3
ssg71
g4303
sg64
(lp4310
g100
asbasbasbag57
(g73
g59
NtRp4311
(dp4312
g62
(dp4313
sg71
g3737
sg64
(lp4314
g57
(g78
g59
NtRp4315
(dp4316
g62
(dp4317
g82
g83
ssg71
g4311
sg64
(lp4318
S'wsgi.url_scheme'
p4319
asbag57
(g78
g59
NtRp4320
(dp4321
g62
(dp4322
g89
g90
ssg71
g4311
sg64
(lp4323
S':'
asbag57
(g78
g59
NtRp4324
(dp4325
g62
(dp4326
sg71
g4311
sg64
(lp4327
g57
(g58
g59
NtRp4328
(dp4329
g62
(dp4330
g70
I3
ssg71
g4324
sg64
(lp4331
g2969
asbasbasbag57
(g73
g59
NtRp4332
(dp4333
g62
(dp4334
sg71
g3737
sg64
(lp4335
g57
(g78
g59
NtRp4336
(dp4337
g62
(dp4338
g82
g83
ssg71
g4332
sg64
(lp4339
S'wsgi.version'
p4340
asbag57
(g78
g59
NtRp4341
(dp4342
g62
(dp4343
g89
g90
ssg71
g4332
sg64
(lp4344
S':'
asbag57
(g78
g59
NtRp4345
(dp4346
g62
(dp4347
sg71
g4332
sg64
(lp4348
g57
(g58
g59
NtRp4349
(dp4350
g62
(dp4351
g70
I3
ssg71
g4345
sg64
(lp4352
S'1'
asbasbasbasbasbasbasbasbasbasbasbasbasbsS'frames'
p4353
(lp4354
(dp4355
S'file'
p4356
S'/var/www/hosts3/gluon/restricted.py'
p4357
sS'dump'
p4358
(dp4359
S'environment'
p4360
S"{'A': <class 'gluon.html.A'>, 'Auth': <class 'gluon.tools.Auth'>, 'B': <class 'gluon.html.B'>, 'BEAUTIFY': <class 'gluon.html.BEAUTIFY'>, 'BODY': <class 'gluon.html.BODY'>, 'BR': <class 'gluon.html.BR'>, 'BUTTON': <class 'gluon.html.BUTTON'>, 'CAT': <class 'gluon.html.CAT'>, 'CENTER': <class 'gluon.html.CENTER'>, 'CLEANUP': <class 'gluon.validators.CLEANUP'>, ...}"
p4361
sS'ccode'
p4362
S'<code object <module> at 0x7f4f401579b0, file "/...ications/projeto/controllers/initial.py", line 3>'
p4363
ssS'lnum'
p4364
I212
sS'lines'
p4365
(dp4366
I207
S'    try:'
p4367
sI208
S'        if isinstance(code, types.CodeType):'
p4368
sI209
S'            ccode = code'
p4369
sI210
S'        else:'
p4370
sI211
S'            ccode = compile2(code, layer)'
p4371
sI212
S'        exec ccode in environment'
p4372
sI213
S'    except HTTP:'
p4373
sI214
S'        raise'
p4374
sI215
S'    except RestrictedError:'
p4375
sI216
S'        # do not encapsulate (obfuscate) the original RestrictedError'
p4376
ssS'call'
p4377
S'(code=\'# coding: utf-8\\n\\ndef home():\\n\\tnome = "Fernando"\\n... \\n\\nresponse._vars=response._caller(show_cliente)\\n\', environment={\'A\': <class \'gluon.html.A\'>, \'Auth\': <class \'gluon.tools.Auth\'>, \'B\': <class \'gluon.html.B\'>, \'BEAUTIFY\': <class \'gluon.html.BEAUTIFY\'>, \'BODY\': <class \'gluon.html.BODY\'>, \'BR\': <class \'gluon.html.BR\'>, \'BUTTON\': <class \'gluon.html.BUTTON\'>, \'CAT\': <class \'gluon.html.CAT\'>, \'CENTER\': <class \'gluon.html.CENTER\'>, \'CLEANUP\': <class \'gluon.validators.CLEANUP\'>, ...}, layer=\'/var/www/hosts3/applications/projeto/controllers/initial.py\')'
p4378
sS'func'
p4379
S'restricted'
p4380
sa(dp4381
g4356
S'/var/www/hosts3/applications/projeto/controllers/initial.py'
p4382
sg4358
(dp4383
sg4364
I196
sg4365
(dp4384
I192
S''
sI193
S''
sI194
S''
sI185
S''
sI186
S'def soma(x, y):'
p4385
sI187
S'\treturn x + y'
p4386
sI188
S''
sI189
S'def product():'
p4387
sI190
S'    grid = SQLFORM(db.product)'
p4388
sI191
S'    return response.render("initial/show_grid.html", grid=grid)'
p4389
ssg4377
S'()'
p4390
sg4379
S'<module>'
p4391
sa(dp4392
g4356
S'/var/www/hosts3/gluon/globals.py'
p4393
sg4358
(dp4394
S'self'
p4395
S'undefined'
p4396
sS'f'
S'<function show_cliente>'
p4397
ssg4364
I193
sg4365
(dp4398
I192
S'        self._vars = None'
p4399
sI193
S'        self._caller = lambda f: f()'
p4400
sI194
S'        self._view_environment = None'
p4401
sI195
S'        self._custom_commit = None'
p4402
sI196
S'        self._custom_rollback = None'
p4403
sI197
S''
sI188
S'        self.menu = []             # used by the default view layout'
p4404
sI189
S'        self.files = []            # used by web2py_ajax.html'
p4405
sI190
S'        self.generic_patterns = []  # patterns to allow generic views'
p4406
sI191
S"        self.delimiters = ('{{', '}}')"
p4407
ssg4377
S'(f=<function show_cliente>)'
p4408
sg4379
S'<lambda>'
p4409
sa(dp4410
g4356
S'/var/www/hosts3/gluon/tools.py'
p4411
sg4358
(dp4412
S'action'
p4413
S'<function show_cliente>'
p4414
sS'a'
S'()'
p4415
sS'b'
g45
ssg4364
I2929
sg4365
(dp4416
I2924
S'                    flag = condition'
p4417
sI2925
S'                if not flag:'
p4418
sI2926
S'                    current.session.flash = self.messages.access_denied'
p4419
sI2927
S'                    return call_or_redirect('
p4420
sI2928
S'                        self.settings.on_failed_authorization)'
p4421
sI2929
S'                return action(*a, **b)'
p4422
sI2930
S'            f.__doc__ = action.__doc__'
p4423
sI2931
S'            f.__name__ = action.__name__'
p4424
sI2932
S'            f.__dict__.update(action.__dict__)'
p4425
sI2933
S'            return f'
p4426
ssg4377
S'(*a=(), **b={})'
p4427
sg4379
S'f'
sa(dp4428
g4356
S'/var/www/hosts3/applications/projeto/controllers/initial.py'
p4429
sg4358
(dp4430
S'_href'
p4431
g4396
sS'links'
p4432
g4396
sS'f'
g4396
sS'builtinvars'
p4433
S'<built-in function vars>'
p4434
sS'global URL'
p4435
S'<function URL>'
p4436
sS'_class'
p4437
g4396
sS'global A'
p4438
S"<class 'gluon.html.A'>"
p4439
sS'_title'
p4440
g4396
sS'builtindict'
p4441
S"<type 'dict'>"
p4442
sS'row'
p4443
g4396
ssg4364
I43
sg4365
(dp4444
I38
S'\t\tuser_signature=True, searchable=True, csv=False,'
p4445
sI39
S'\t\tpaginate=50, deletable=True, editable=True,'
p4446
sI40
S'\t\tdetails=False, ignore_rw = True, maxtextlength=26,'
p4447
sI41
S'\t\tcreate=auth.has_membership("admin"),'
p4448
sI42
S'\t\tedit=auth.has_membership("admin"),'
p4449
sI43
S"    \tlinks = [lambda row: A('hosts', _class='btn',"
p4450
sI44
S"\t\t\t_title='ver servidores',"
p4451
sI45
S'\t\t\t_href=URL("initial", "/cliente_host",'
p4452
sI46
S'\t\t\tvars=dict(f=row.id)))]'
p4453
sI47
S'    \t)'
p4454
ssg4377
S'()'
p4455
sg4379
g3084
sasS'pyver'
p4456
S'Python 2.7.3: /usr/bin/python'
p4457
sS'session'
p4458
g57
(g58
g59
NtRp4459
(dp4460
g62
(dp4461
sg64
(lp4462
g57
(g66
g59
NtRp4463
(dp4464
g62
(dp4465
g70
I5
ssg71
Nsg64
(lp4466
g57
(g73
g59
NtRp4467
(dp4468
g62
(dp4469
sg71
g4463
sg64
(lp4470
g57
(g78
g59
NtRp4471
(dp4472
g62
(dp4473
g82
g83
ssg71
g4467
sg64
(lp4474
S'auth'
p4475
asbag57
(g78
g59
NtRp4476
(dp4477
g62
(dp4478
g89
g90
ssg71
g4467
sg64
(lp4479
S':'
asbag57
(g78
g59
NtRp4480
(dp4481
g62
(dp4482
sg71
g4467
sg64
(lp4483
g57
(g58
g59
NtRp4484
(dp4485
g62
(dp4486
g70
I5
ssg71
g4480
sg64
(lp4487
g57
(g66
g59
NtRp4488
(dp4489
g62
(dp4490
g70
I4
ssg71
Nsg64
(lp4491
g57
(g73
g59
NtRp4492
(dp4493
g62
(dp4494
sg71
g4488
sg64
(lp4495
g57
(g78
g59
NtRp4496
(dp4497
g62
(dp4498
g82
g83
ssg71
g4492
sg64
(lp4499
S'expiration'
p4500
asbag57
(g78
g59
NtRp4501
(dp4502
g62
(dp4503
g89
g90
ssg71
g4492
sg64
(lp4504
S':'
asbag57
(g78
g59
NtRp4505
(dp4506
g62
(dp4507
sg71
g4492
sg64
(lp4508
g57
(g58
g59
NtRp4509
(dp4510
g62
(dp4511
g70
I4
ssg71
g4505
sg64
(lp4512
S'3600'
p4513
asbasbasbag57
(g73
g59
NtRp4514
(dp4515
g62
(dp4516
sg71
g4488
sg64
(lp4517
g57
(g78
g59
NtRp4518
(dp4519
g62
(dp4520
g82
g83
ssg71
g4514
sg64
(lp4521
S'hmac_key'
p4522
asbag57
(g78
g59
NtRp4523
(dp4524
g62
(dp4525
g89
g90
ssg71
g4514
sg64
(lp4526
S':'
asbag57
(g78
g59
NtRp4527
(dp4528
g62
(dp4529
sg71
g4514
sg64
(lp4530
g57
(g58
g59
NtRp4531
(dp4532
g62
(dp4533
g70
I4
ssg71
g4527
sg64
(lp4534
S'9b2f7472-a486-45b5-8f54-891956b55405'
p4535
asbasbasbag57
(g73
g59
NtRp4536
(dp4537
g62
(dp4538
sg71
g4488
sg64
(lp4539
g57
(g78
g59
NtRp4540
(dp4541
g62
(dp4542
g82
g83
ssg71
g4536
sg64
(lp4543
S'last_visit'
p4544
asbag57
(g78
g59
NtRp4545
(dp4546
g62
(dp4547
g89
g90
ssg71
g4536
sg64
(lp4548
S':'
asbag57
(g78
g59
NtRp4549
(dp4550
g62
(dp4551
sg71
g4536
sg64
(lp4552
g57
(g58
g59
NtRp4553
(dp4554
g62
(dp4555
g70
I4
ssg71
g4549
sg64
(lp4556
S'datetime.datetime(2013, 2, 7, 16, 7, 10, 789847)'
p4557
asbasbasbag57
(g73
g59
NtRp4558
(dp4559
g62
(dp4560
sg71
g4488
sg64
(lp4561
g57
(g78
g59
NtRp4562
(dp4563
g62
(dp4564
g82
g83
ssg71
g4558
sg64
(lp4565
S'remember'
p4566
asbag57
(g78
g59
NtRp4567
(dp4568
g62
(dp4569
g89
g90
ssg71
g4558
sg64
(lp4570
S':'
asbag57
(g78
g59
NtRp4571
(dp4572
g62
(dp4573
sg71
g4558
sg64
(lp4574
g57
(g58
g59
NtRp4575
(dp4576
g62
(dp4577
g70
I4
ssg71
g4571
sg64
(lp4578
g100
asbasbasbag57
(g73
g59
NtRp4579
(dp4580
g62
(dp4581
sg71
g4488
sg64
(lp4582
g57
(g78
g59
NtRp4583
(dp4584
g62
(dp4585
g82
g83
ssg71
g4579
sg64
(lp4586
S'user'
p4587
asbag57
(g78
g59
NtRp4588
(dp4589
g62
(dp4590
g89
g90
ssg71
g4579
sg64
(lp4591
S':'
asbag57
(g78
g59
NtRp4592
(dp4593
g62
(dp4594
sg71
g4579
sg64
(lp4595
g57
(g58
g59
NtRp4596
(dp4597
g62
(dp4598
g70
I4
ssg71
g4592
sg64
(lp4599
g57
(g66
g59
NtRp4600
(dp4601
g62
(dp4602
g70
I3
ssg71
Nsg64
(lp4603
g57
(g73
g59
NtRp4604
(dp4605
g62
(dp4606
sg71
g4600
sg64
(lp4607
g57
(g78
g59
NtRp4608
(dp4609
g62
(dp4610
g82
g83
ssg71
g4604
sg64
(lp4611
S'bio'
p4612
asbag57
(g78
g59
NtRp4613
(dp4614
g62
(dp4615
g89
g90
ssg71
g4604
sg64
(lp4616
S':'
asbag57
(g78
g59
NtRp4617
(dp4618
g62
(dp4619
sg71
g4604
sg64
(lp4620
g57
(g58
g59
NtRp4621
(dp4622
g62
(dp4623
g70
I3
ssg71
g4617
sg64
(lp4624
S''
asbasbasbag57
(g73
g59
NtRp4625
(dp4626
g62
(dp4627
sg71
g4600
sg64
(lp4628
g57
(g78
g59
NtRp4629
(dp4630
g62
(dp4631
g82
g83
ssg71
g4625
sg64
(lp4632
S'email'
p4633
asbag57
(g78
g59
NtRp4634
(dp4635
g62
(dp4636
g89
g90
ssg71
g4625
sg64
(lp4637
S':'
asbag57
(g78
g59
NtRp4638
(dp4639
g62
(dp4640
sg71
g4625
sg64
(lp4641
g57
(g58
g59
NtRp4642
(dp4643
g62
(dp4644
g70
I3
ssg71
g4638
sg64
(lp4645
S'dend@gmail.com'
p4646
asbasbasbag57
(g73
g59
NtRp4647
(dp4648
g62
(dp4649
sg71
g4600
sg64
(lp4650
g57
(g78
g59
NtRp4651
(dp4652
g62
(dp4653
g82
g83
ssg71
g4647
sg64
(lp4654
S'first_name'
p4655
asbag57
(g78
g59
NtRp4656
(dp4657
g62
(dp4658
g89
g90
ssg71
g4647
sg64
(lp4659
S':'
asbag57
(g78
g59
NtRp4660
(dp4661
g62
(dp4662
sg71
g4647
sg64
(lp4663
g57
(g58
g59
NtRp4664
(dp4665
g62
(dp4666
g70
I3
ssg71
g4660
sg64
(lp4667
S'Dend'
p4668
asbasbasbag57
(g73
g59
NtRp4669
(dp4670
g62
(dp4671
sg71
g4600
sg64
(lp4672
g57
(g78
g59
NtRp4673
(dp4674
g62
(dp4675
g82
g83
ssg71
g4669
sg64
(lp4676
S'gender'
p4677
asbag57
(g78
g59
NtRp4678
(dp4679
g62
(dp4680
g89
g90
ssg71
g4669
sg64
(lp4681
S':'
asbag57
(g78
g59
NtRp4682
(dp4683
g62
(dp4684
sg71
g4669
sg64
(lp4685
g57
(g58
g59
NtRp4686
(dp4687
g62
(dp4688
g70
I3
ssg71
g4682
sg64
(lp4689
S'masculino'
p4690
asbasbasbag57
(g73
g59
NtRp4691
(dp4692
g62
(dp4693
sg71
g4600
sg64
(lp4694
g57
(g78
g59
NtRp4695
(dp4696
g62
(dp4697
g82
g83
ssg71
g4691
sg64
(lp4698
S'id'
p4699
asbag57
(g78
g59
NtRp4700
(dp4701
g62
(dp4702
g89
g90
ssg71
g4691
sg64
(lp4703
S':'
asbag57
(g78
g59
NtRp4704
(dp4705
g62
(dp4706
sg71
g4691
sg64
(lp4707
g57
(g58
g59
NtRp4708
(dp4709
g62
(dp4710
g70
I3
ssg71
g4704
sg64
(lp4711
S'5'
asbasbasbag57
(g73
g59
NtRp4712
(dp4713
g62
(dp4714
sg71
g4600
sg64
(lp4715
g57
(g78
g59
NtRp4716
(dp4717
g62
(dp4718
g82
g83
ssg71
g4712
sg64
(lp4719
S'last_name'
p4720
asbag57
(g78
g59
NtRp4721
(dp4722
g62
(dp4723
g89
g90
ssg71
g4712
sg64
(lp4724
S':'
asbag57
(g78
g59
NtRp4725
(dp4726
g62
(dp4727
sg71
g4712
sg64
(lp4728
g57
(g58
g59
NtRp4729
(dp4730
g62
(dp4731
g70
I3
ssg71
g4725
sg64
(lp4732
S'delkson'
p4733
asbasbasbag57
(g73
g59
NtRp4734
(dp4735
g62
(dp4736
sg71
g4600
sg64
(lp4737
g57
(g78
g59
NtRp4738
(dp4739
g62
(dp4740
g82
g83
ssg71
g4734
sg64
(lp4741
S'photo'
p4742
asbag57
(g78
g59
NtRp4743
(dp4744
g62
(dp4745
g89
g90
ssg71
g4734
sg64
(lp4746
S':'
asbag57
(g78
g59
NtRp4747
(dp4748
g62
(dp4749
sg71
g4734
sg64
(lp4750
g57
(g58
g59
NtRp4751
(dp4752
g62
(dp4753
g70
I3
ssg71
g4747
sg64
(lp4754
S'auth_user.photo.852c1e9d624a7670.746563686e6f6c6f676965735f7068702e706e67.png'
p4755
asbasbasbag57
(g73
g59
NtRp4756
(dp4757
g62
(dp4758
sg71
g4600
sg64
(lp4759
g57
(g78
g59
NtRp4760
(dp4761
g62
(dp4762
g82
g83
ssg71
g4756
sg64
(lp4763
S'registration_id'
p4764
asbag57
(g78
g59
NtRp4765
(dp4766
g62
(dp4767
g89
g90
ssg71
g4756
sg64
(lp4768
S':'
asbag57
(g78
g59
NtRp4769
(dp4770
g62
(dp4771
sg71
g4756
sg64
(lp4772
g57
(g58
g59
NtRp4773
(dp4774
g62
(dp4775
g70
I3
ssg71
g4769
sg64
(lp4776
S''
asbasbasbag57
(g73
g59
NtRp4777
(dp4778
g62
(dp4779
sg71
g4600
sg64
(lp4780
g57
(g78
g59
NtRp4781
(dp4782
g62
(dp4783
g82
g83
ssg71
g4777
sg64
(lp4784
S'registration_key'
p4785
asbag57
(g78
g59
NtRp4786
(dp4787
g62
(dp4788
g89
g90
ssg71
g4777
sg64
(lp4789
S':'
asbag57
(g78
g59
NtRp4790
(dp4791
g62
(dp4792
sg71
g4777
sg64
(lp4793
g57
(g58
g59
NtRp4794
(dp4795
g62
(dp4796
g70
I3
ssg71
g4790
sg64
(lp4797
S''
asbasbasbag57
(g73
g59
NtRp4798
(dp4799
g62
(dp4800
sg71
g4600
sg64
(lp4801
g57
(g78
g59
NtRp4802
(dp4803
g62
(dp4804
g82
g83
ssg71
g4798
sg64
(lp4805
S'reset_password_key'
p4806
asbag57
(g78
g59
NtRp4807
(dp4808
g62
(dp4809
g89
g90
ssg71
g4798
sg64
(lp4810
S':'
asbag57
(g78
g59
NtRp4811
(dp4812
g62
(dp4813
sg71
g4798
sg64
(lp4814
g57
(g58
g59
NtRp4815
(dp4816
g62
(dp4817
g70
I3
ssg71
g4811
sg64
(lp4818
S''
asbasbasbasbasbasbasbag57
(g73
g59
NtRp4819
(dp4820
g62
(dp4821
sg71
g4488
sg64
(lp4822
g57
(g78
g59
NtRp4823
(dp4824
g62
(dp4825
g82
g83
ssg71
g4819
sg64
(lp4826
S'user_groups'
p4827
asbag57
(g78
g59
NtRp4828
(dp4829
g62
(dp4830
g89
g90
ssg71
g4819
sg64
(lp4831
S':'
asbag57
(g78
g59
NtRp4832
(dp4833
g62
(dp4834
sg71
g4819
sg64
(lp4835
g57
(g58
g59
NtRp4836
(dp4837
g62
(dp4838
g70
I4
ssg71
g4832
sg64
(lp4839
g57
(g66
g59
NtRp4840
(dp4841
g62
(dp4842
g70
I3
ssg71
Nsg64
(lp4843
g57
(g73
g59
NtRp4844
(dp4845
g62
(dp4846
sg71
g4840
sg64
(lp4847
g57
(g78
g59
NtRp4848
(dp4849
g62
(dp4850
g82
g83
ssg71
g4844
sg64
(lp4851
S'5'
asbag57
(g78
g59
NtRp4852
(dp4853
g62
(dp4854
g89
g90
ssg71
g4844
sg64
(lp4855
S':'
asbag57
(g78
g59
NtRp4856
(dp4857
g62
(dp4858
sg71
g4844
sg64
(lp4859
g57
(g58
g59
NtRp4860
(dp4861
g62
(dp4862
g70
I3
ssg71
g4856
sg64
(lp4863
S'user_5'
p4864
asbasbasbasbasbasbasbasbasbasbasbag57
(g73
g59
NtRp4865
(dp4866
g62
(dp4867
sg71
g4463
sg64
(lp4868
g57
(g78
g59
NtRp4869
(dp4870
g62
(dp4871
g82
g83
ssg71
g4865
sg64
(lp4872
S'flash'
p4873
asbag57
(g78
g59
NtRp4874
(dp4875
g62
(dp4876
g89
g90
ssg71
g4865
sg64
(lp4877
S':'
asbag57
(g78
g59
NtRp4878
(dp4879
g62
(dp4880
sg71
g4865
sg64
(lp4881
g57
(g58
g59
NtRp4882
(dp4883
g62
(dp4884
g70
I5
ssg71
g4878
sg64
(lp4885
S'None'
p4886
asbasbasbasbasbsS'etype'
p4887
S"<type 'exceptions.TypeError'>"
p4888
sS'date'
p4889
S'Thu Feb  7 16:08:19 2013'
p4890
sS'response'
p4891
g57
(g58
g59
NtRp4892
(dp4893
g62
(dp4894
sg64
(lp4895
g57
(g66
g59
NtRp4896
(dp4897
g62
(dp4898
g70
I5
ssg71
Nsg64
(lp4899
g57
(g73
g59
NtRp4900
(dp4901
g62
(dp4902
sg71
g4896
sg64
(lp4903
g57
(g78
g59
NtRp4904
(dp4905
g62
(dp4906
g82
g83
ssg71
g4900
sg64
(lp4907
g155
asbag57
(g78
g59
NtRp4908
(dp4909
g62
(dp4910
g89
g90
ssg71
g4900
sg64
(lp4911
S':'
asbag57
(g78
g59
NtRp4912
(dp4913
g62
(dp4914
sg71
g4900
sg64
(lp4915
g57
(g58
g59
NtRp4916
(dp4917
g62
(dp4918
g70
I5
ssg71
g4912
sg64
(lp4919
S'<cStringIO.StringO object at 0x2942378>'
p4920
asbasbasbag57
(g73
g59
NtRp4921
(dp4922
g62
(dp4923
sg71
g4896
sg64
(lp4924
g57
(g78
g59
NtRp4925
(dp4926
g62
(dp4927
g82
g83
ssg71
g4921
sg64
(lp4928
g243
asbag57
(g78
g59
NtRp4929
(dp4930
g62
(dp4931
g89
g90
ssg71
g4921
sg64
(lp4932
S':'
asbag57
(g78
g59
NtRp4933
(dp4934
g62
(dp4935
sg71
g4921
sg64
(lp4936
g57
(g58
g59
NtRp4937
(dp4938
g62
(dp4939
g70
I5
ssg71
g4933
sg64
(lp4940
g57
(g66
g59
NtRp4941
(dp4942
g62
(dp4943
g70
I4
ssg71
Nsg64
(lp4944
g57
(g73
g59
NtRp4945
(dp4946
g62
(dp4947
sg71
g4941
sg64
(lp4948
g57
(g78
g59
NtRp4949
(dp4950
g62
(dp4951
g82
g83
ssg71
g4945
sg64
(lp4952
S'session_id_projeto'
p4953
asbag57
(g78
g59
NtRp4954
(dp4955
g62
(dp4956
g89
g90
ssg71
g4945
sg64
(lp4957
S':'
asbag57
(g78
g59
NtRp4958
(dp4959
g62
(dp4960
sg71
g4945
sg64
(lp4961
g57
(g58
g59
NtRp4962
(dp4963
g62
(dp4964
g70
I4
ssg71
g4958
sg64
(lp4965
g1589
ag57
(g66
g59
NtRp4966
(dp4967
g62
(dp4968
g70
I3
ssg71
Nsg64
(lp4969
g57
(g73
g59
NtRp4970
(dp4971
g62
(dp4972
sg71
g4966
sg64
(lp4973
g57
(g78
g59
NtRp4974
(dp4975
g62
(dp4976
g82
g83
ssg71
g4970
sg64
(lp4977
g294
asbag57
(g78
g59
NtRp4978
(dp4979
g62
(dp4980
g89
g90
ssg71
g4970
sg64
(lp4981
S':'
asbag57
(g78
g59
NtRp4982
(dp4983
g62
(dp4984
sg71
g4970
sg64
(lp4985
g57
(g58
g59
NtRp4986
(dp4987
g62
(dp4988
g70
I3
ssg71
g4982
sg64
(lp4989
S''
asbasbasbag57
(g73
g59
NtRp4990
(dp4991
g62
(dp4992
sg71
g4966
sg64
(lp4993
g57
(g78
g59
NtRp4994
(dp4995
g62
(dp4996
g82
g83
ssg71
g4990
sg64
(lp4997
g315
asbag57
(g78
g59
NtRp4998
(dp4999
g62
(dp5000
g89
g90
ssg71
g4990
sg64
(lp5001
S':'
asbag57
(g78
g59
NtRp5002
(dp5003
g62
(dp5004
sg71
g4990
sg64
(lp5005
g57
(g58
g59
NtRp5006
(dp5007
g62
(dp5008
g70
I3
ssg71
g5002
sg64
(lp5009
S''
asbasbasbag57
(g73
g59
NtRp5010
(dp5011
g62
(dp5012
sg71
g4966
sg64
(lp5013
g57
(g78
g59
NtRp5014
(dp5015
g62
(dp5016
g82
g83
ssg71
g5010
sg64
(lp5017
g336
asbag57
(g78
g59
NtRp5018
(dp5019
g62
(dp5020
g89
g90
ssg71
g5010
sg64
(lp5021
S':'
asbag57
(g78
g59
NtRp5022
(dp5023
g62
(dp5024
sg71
g5010
sg64
(lp5025
g57
(g58
g59
NtRp5026
(dp5027
g62
(dp5028
g70
I3
ssg71
g5022
sg64
(lp5029
S''
asbasbasbag57
(g73
g59
NtRp5030
(dp5031
g62
(dp5032
sg71
g4966
sg64
(lp5033
g57
(g78
g59
NtRp5034
(dp5035
g62
(dp5036
g82
g83
ssg71
g5030
sg64
(lp5037
g357
asbag57
(g78
g59
NtRp5038
(dp5039
g62
(dp5040
g89
g90
ssg71
g5030
sg64
(lp5041
S':'
asbag57
(g78
g59
NtRp5042
(dp5043
g62
(dp5044
sg71
g5030
sg64
(lp5045
g57
(g58
g59
NtRp5046
(dp5047
g62
(dp5048
g70
I3
ssg71
g5042
sg64
(lp5049
S''
asbasbasbag57
(g73
g59
NtRp5050
(dp5051
g62
(dp5052
sg71
g4966
sg64
(lp5053
g57
(g78
g59
NtRp5054
(dp5055
g62
(dp5056
g82
g83
ssg71
g5050
sg64
(lp5057
g378
asbag57
(g78
g59
NtRp5058
(dp5059
g62
(dp5060
g89
g90
ssg71
g5050
sg64
(lp5061
S':'
asbag57
(g78
g59
NtRp5062
(dp5063
g62
(dp5064
sg71
g5050
sg64
(lp5065
g57
(g58
g59
NtRp5066
(dp5067
g62
(dp5068
g70
I3
ssg71
g5062
sg64
(lp5069
S''
asbasbasbag57
(g73
g59
NtRp5070
(dp5071
g62
(dp5072
sg71
g4966
sg64
(lp5073
g57
(g78
g59
NtRp5074
(dp5075
g62
(dp5076
g82
g83
ssg71
g5070
sg64
(lp5077
g399
asbag57
(g78
g59
NtRp5078
(dp5079
g62
(dp5080
g89
g90
ssg71
g5070
sg64
(lp5081
S':'
asbag57
(g78
g59
NtRp5082
(dp5083
g62
(dp5084
sg71
g5070
sg64
(lp5085
g57
(g58
g59
NtRp5086
(dp5087
g62
(dp5088
g70
I3
ssg71
g5082
sg64
(lp5089
S'/'
asbasbasbag57
(g73
g59
NtRp5090
(dp5091
g62
(dp5092
sg71
g4966
sg64
(lp5093
g57
(g78
g59
NtRp5094
(dp5095
g62
(dp5096
g82
g83
ssg71
g5090
sg64
(lp5097
g420
asbag57
(g78
g59
NtRp5098
(dp5099
g62
(dp5100
g89
g90
ssg71
g5090
sg64
(lp5101
S':'
asbag57
(g78
g59
NtRp5102
(dp5103
g62
(dp5104
sg71
g5090
sg64
(lp5105
g57
(g58
g59
NtRp5106
(dp5107
g62
(dp5108
g70
I3
ssg71
g5102
sg64
(lp5109
S''
asbasbasbag57
(g73
g59
NtRp5110
(dp5111
g62
(dp5112
sg71
g4966
sg64
(lp5113
g57
(g78
g59
NtRp5114
(dp5115
g62
(dp5116
g82
g83
ssg71
g5110
sg64
(lp5117
g441
asbag57
(g78
g59
NtRp5118
(dp5119
g62
(dp5120
g89
g90
ssg71
g5110
sg64
(lp5121
S':'
asbag57
(g78
g59
NtRp5122
(dp5123
g62
(dp5124
sg71
g5110
sg64
(lp5125
g57
(g58
g59
NtRp5126
(dp5127
g62
(dp5128
g70
I3
ssg71
g5122
sg64
(lp5129
S''
asbasbasbasbasbasbasbasbasbasbasbag57
(g73
g59
NtRp5130
(dp5131
g62
(dp5132
sg71
g4896
sg64
(lp5133
g57
(g78
g59
NtRp5134
(dp5135
g62
(dp5136
g82
g83
ssg71
g5130
sg64
(lp5137
S'delimiters'
p5138
asbag57
(g78
g59
NtRp5139
(dp5140
g62
(dp5141
g89
g90
ssg71
g5130
sg64
(lp5142
S':'
asbag57
(g78
g59
NtRp5143
(dp5144
g62
(dp5145
sg71
g5130
sg64
(lp5146
g57
(g58
g59
NtRp5147
(dp5148
g62
(dp5149
g70
I5
ssg71
g5143
sg64
(lp5150
g57
(g66
g59
NtRp5151
(dp5152
g62
(dp5153
g70
I4
ssg71
Nsg64
(lp5154
g57
(g73
g59
NtRp5155
(dp5156
g62
(dp5157
sg71
g5151
sg64
(lp5158
g57
(g78
g59
NtRp5159
(dp5160
g62
(dp5161
sg71
g5155
sg64
(lp5162
g57
(g58
g59
NtRp5163
(dp5164
g62
(dp5165
g70
I4
ssg71
g5159
sg64
(lp5166
S'{{'
p5167
asbasbasbag57
(g73
g59
NtRp5168
(dp5169
g62
(dp5170
sg71
g5151
sg64
(lp5171
g57
(g78
g59
NtRp5172
(dp5173
g62
(dp5174
sg71
g5168
sg64
(lp5175
g57
(g58
g59
NtRp5176
(dp5177
g62
(dp5178
g70
I4
ssg71
g5172
sg64
(lp5179
S'}}'
p5180
asbasbasbasbasbasbasbag57
(g73
g59
NtRp5181
(dp5182
g62
(dp5183
sg71
g4896
sg64
(lp5184
g57
(g78
g59
NtRp5185
(dp5186
g62
(dp5187
g82
g83
ssg71
g5181
sg64
(lp5188
S'files'
p5189
asbag57
(g78
g59
NtRp5190
(dp5191
g62
(dp5192
g89
g90
ssg71
g5181
sg64
(lp5193
S':'
asbag57
(g78
g59
NtRp5194
(dp5195
g62
(dp5196
sg71
g5181
sg64
(lp5197
g57
(g58
g59
NtRp5198
(dp5199
g62
(dp5200
g70
I5
ssg71
g5194
sg64
(lp5201
g57
(g66
g59
NtRp5202
(dp5203
g62
(dp5204
g70
I4
ssg71
Nsg64
(lp5205
sbasbasbasbag57
(g73
g59
NtRp5206
(dp5207
g62
(dp5208
sg71
g4896
sg64
(lp5209
g57
(g78
g59
NtRp5210
(dp5211
g62
(dp5212
g82
g83
ssg71
g5206
sg64
(lp5213
S'flash'
p5214
asbag57
(g78
g59
NtRp5215
(dp5216
g62
(dp5217
g89
g90
ssg71
g5206
sg64
(lp5218
S':'
asbag57
(g78
g59
NtRp5219
(dp5220
g62
(dp5221
sg71
g5206
sg64
(lp5222
g57
(g58
g59
NtRp5223
(dp5224
g62
(dp5225
g70
I5
ssg71
g5219
sg64
(lp5226
S''
asbasbasbag57
(g73
g59
NtRp5227
(dp5228
g62
(dp5229
sg71
g4896
sg64
(lp5230
g57
(g78
g59
NtRp5231
(dp5232
g62
(dp5233
g82
g83
ssg71
g5227
sg64
(lp5234
S'generic_patterns'
p5235
asbag57
(g78
g59
NtRp5236
(dp5237
g62
(dp5238
g89
g90
ssg71
g5227
sg64
(lp5239
S':'
asbag57
(g78
g59
NtRp5240
(dp5241
g62
(dp5242
sg71
g5227
sg64
(lp5243
g57
(g58
g59
NtRp5244
(dp5245
g62
(dp5246
g70
I5
ssg71
g5240
sg64
(lp5247
g57
(g66
g59
NtRp5248
(dp5249
g62
(dp5250
g70
I4
ssg71
Nsg64
(lp5251
g57
(g73
g59
NtRp5252
(dp5253
g62
(dp5254
sg71
g5248
sg64
(lp5255
g57
(g78
g59
NtRp5256
(dp5257
g62
(dp5258
sg71
g5252
sg64
(lp5259
g57
(g58
g59
NtRp5260
(dp5261
g62
(dp5262
g70
I4
ssg71
g5256
sg64
(lp5263
S'*'
asbasbasbasbasbasbasbag57
(g73
g59
NtRp5264
(dp5265
g62
(dp5266
sg71
g4896
sg64
(lp5267
g57
(g78
g59
NtRp5268
(dp5269
g62
(dp5270
g82
g83
ssg71
g5264
sg64
(lp5271
S'google_analytics_id'
p5272
asbag57
(g78
g59
NtRp5273
(dp5274
g62
(dp5275
g89
g90
ssg71
g5264
sg64
(lp5276
S':'
asbag57
(g78
g59
NtRp5277
(dp5278
g62
(dp5279
sg71
g5264
sg64
(lp5280
g57
(g58
g59
NtRp5281
(dp5282
g62
(dp5283
g70
I5
ssg71
g5277
sg64
(lp5284
S'None'
p5285
asbasbasbag57
(g73
g59
NtRp5286
(dp5287
g62
(dp5288
sg71
g4896
sg64
(lp5289
g57
(g78
g59
NtRp5290
(dp5291
g62
(dp5292
g82
g83
ssg71
g5286
sg64
(lp5293
S'headers'
p5294
asbag57
(g78
g59
NtRp5295
(dp5296
g62
(dp5297
g89
g90
ssg71
g5286
sg64
(lp5298
S':'
asbag57
(g78
g59
NtRp5299
(dp5300
g62
(dp5301
sg71
g5286
sg64
(lp5302
g57
(g58
g59
NtRp5303
(dp5304
g62
(dp5305
g70
I5
ssg71
g5299
sg64
(lp5306
g57
(g66
g59
NtRp5307
(dp5308
g62
(dp5309
g70
I4
ssg71
Nsg64
(lp5310
g57
(g73
g59
NtRp5311
(dp5312
g62
(dp5313
sg71
g5307
sg64
(lp5314
g57
(g78
g59
NtRp5315
(dp5316
g62
(dp5317
g82
g83
ssg71
g5311
sg64
(lp5318
S'X-Powered-By'
p5319
asbag57
(g78
g59
NtRp5320
(dp5321
g62
(dp5322
g89
g90
ssg71
g5311
sg64
(lp5323
S':'
asbag57
(g78
g59
NtRp5324
(dp5325
g62
(dp5326
sg71
g5311
sg64
(lp5327
g57
(g58
g59
NtRp5328
(dp5329
g62
(dp5330
g70
I4
ssg71
g5324
sg64
(lp5331
S'web2py'
p5332
asbasbasbasbasbasbasbag57
(g73
g59
NtRp5333
(dp5334
g62
(dp5335
sg71
g4896
sg64
(lp5336
g57
(g78
g59
NtRp5337
(dp5338
g62
(dp5339
g82
g83
ssg71
g5333
sg64
(lp5340
S'logo'
p5341
asbag57
(g78
g59
NtRp5342
(dp5343
g62
(dp5344
g89
g90
ssg71
g5333
sg64
(lp5345
S':'
asbag57
(g78
g59
NtRp5346
(dp5347
g62
(dp5348
sg71
g5333
sg64
(lp5349
g57
(g58
g59
NtRp5350
(dp5351
g62
(dp5352
g70
I5
ssg71
g5346
sg64
(lp5353
g57
(cgluon.html
A
p5354
g59
NtRp5355
(dp5356
g62
(dp5357
S'_class'
p5358
S'brand'
p5359
sS'_href'
p5360
S''
ssg71
Nsg64
(lp5361
g57
(cgluon.html
B
p5362
g59
NtRp5363
(dp5364
g62
(dp5365
sg71
g5355
sg64
(lp5366
S'hosts'
p5367
ag57
(cgluon.html
SPAN
p5368
g59
NtRp5369
(dp5370
g62
(dp5371
sg71
g5363
sg64
(lp5372
S'3'
asbaS''
asbacgluon.html
XML_unpickle
p5373
(S's\r\x00\x00\x00&trade;&nbsp;'
tRp5374
asbasbasbasbag57
(g73
g59
NtRp5375
(dp5376
g62
(dp5377
sg71
g4896
sg64
(lp5378
g57
(g78
g59
NtRp5379
(dp5380
g62
(dp5381
g82
g83
ssg71
g5375
sg64
(lp5382
S'menu'
p5383
asbag57
(g78
g59
NtRp5384
(dp5385
g62
(dp5386
g89
g90
ssg71
g5375
sg64
(lp5387
S':'
asbag57
(g78
g59
NtRp5388
(dp5389
g62
(dp5390
sg71
g5375
sg64
(lp5391
g57
(g58
g59
NtRp5392
(dp5393
g62
(dp5394
g70
I5
ssg71
g5388
sg64
(lp5395
g57
(g66
g59
NtRp5396
(dp5397
g62
(dp5398
g70
I4
ssg71
Nsg64
(lp5399
g57
(g73
g59
NtRp5400
(dp5401
g62
(dp5402
sg71
g5396
sg64
(lp5403
g57
(g78
g59
NtRp5404
(dp5405
g62
(dp5406
sg71
g5400
sg64
(lp5407
g57
(g58
g59
NtRp5408
(dp5409
g62
(dp5410
g70
I4
ssg71
g5404
sg64
(lp5411
g57
(g66
g59
NtRp5412
(dp5413
g62
(dp5414
g70
I3
ssg71
Nsg64
(lp5415
g57
(g73
g59
NtRp5416
(dp5417
g62
(dp5418
sg71
g5412
sg64
(lp5419
g57
(g78
g59
NtRp5420
(dp5421
g62
(dp5422
sg71
g5416
sg64
(lp5423
g57
(g58
g59
NtRp5424
(dp5425
g62
(dp5426
g70
I3
ssg71
g5420
sg64
(lp5427
cgluon.languages
lazyT_unpickle
p5428
(S't\x08\x00\x00\x00Clientes'
tRp5429
asbasbasbag57
(g73
g59
NtRp5430
(dp5431
g62
(dp5432
sg71
g5412
sg64
(lp5433
g57
(g78
g59
NtRp5434
(dp5435
g62
(dp5436
sg71
g5430
sg64
(lp5437
g57
(g58
g59
NtRp5438
(dp5439
g62
(dp5440
g70
I3
ssg71
g5434
sg64
(lp5441
g100
asbasbasbag57
(g73
g59
NtRp5442
(dp5443
g62
(dp5444
sg71
g5412
sg64
(lp5445
g57
(g78
g59
NtRp5446
(dp5447
g62
(dp5448
sg71
g5442
sg64
(lp5449
g57
(g58
g59
NtRp5450
(dp5451
g62
(dp5452
g70
I3
ssg71
g5446
sg64
(lp5453
S'/'
asbasbasbag57
(g73
g59
NtRp5454
(dp5455
g62
(dp5456
sg71
g5412
sg64
(lp5457
g57
(g78
g59
NtRp5458
(dp5459
g62
(dp5460
sg71
g5454
sg64
(lp5461
g57
(g58
g59
NtRp5462
(dp5463
g62
(dp5464
g70
I3
ssg71
g5458
sg64
(lp5465
g57
(g66
g59
NtRp5466
(dp5467
g62
(dp5468
g70
I2
ssg71
Nsg64
(lp5469
sbasbasbasbasbasbasbasbag57
(g73
g59
NtRp5470
(dp5471
g62
(dp5472
sg71
g5396
sg64
(lp5473
g57
(g78
g59
NtRp5474
(dp5475
g62
(dp5476
sg71
g5470
sg64
(lp5477
g57
(g58
g59
NtRp5478
(dp5479
g62
(dp5480
g70
I4
ssg71
g5474
sg64
(lp5481
g57
(g66
g59
NtRp5482
(dp5483
g62
(dp5484
g70
I3
ssg71
Nsg64
(lp5485
g57
(g73
g59
NtRp5486
(dp5487
g62
(dp5488
sg71
g5482
sg64
(lp5489
g57
(g78
g59
NtRp5490
(dp5491
g62
(dp5492
sg71
g5486
sg64
(lp5493
g57
(g58
g59
NtRp5494
(dp5495
g62
(dp5496
g70
I3
ssg71
g5490
sg64
(lp5497
g5428
(S't\n\x00\x00\x00Servidores'
tRp5498
asbasbasbag57
(g73
g59
NtRp5499
(dp5500
g62
(dp5501
sg71
g5482
sg64
(lp5502
g57
(g78
g59
NtRp5503
(dp5504
g62
(dp5505
sg71
g5499
sg64
(lp5506
g57
(g58
g59
NtRp5507
(dp5508
g62
(dp5509
g70
I3
ssg71
g5503
sg64
(lp5510
g100
asbasbasbag57
(g73
g59
NtRp5511
(dp5512
g62
(dp5513
sg71
g5482
sg64
(lp5514
g57
(g78
g59
NtRp5515
(dp5516
g62
(dp5517
sg71
g5511
sg64
(lp5518
g57
(g58
g59
NtRp5519
(dp5520
g62
(dp5521
g70
I3
ssg71
g5515
sg64
(lp5522
S'/show_servidor'
p5523
asbasbasbag57
(g73
g59
NtRp5524
(dp5525
g62
(dp5526
sg71
g5482
sg64
(lp5527
g57
(g78
g59
NtRp5528
(dp5529
g62
(dp5530
sg71
g5524
sg64
(lp5531
g57
(g58
g59
NtRp5532
(dp5533
g62
(dp5534
g70
I3
ssg71
g5528
sg64
(lp5535
g57
(g66
g59
NtRp5536
(dp5537
g62
(dp5538
g70
I2
ssg71
Nsg64
(lp5539
sbasbasbasbasbasbasbasbag57
(g73
g59
NtRp5540
(dp5541
g62
(dp5542
sg71
g5396
sg64
(lp5543
g57
(g78
g59
NtRp5544
(dp5545
g62
(dp5546
sg71
g5540
sg64
(lp5547
g57
(g58
g59
NtRp5548
(dp5549
g62
(dp5550
g70
I4
ssg71
g5544
sg64
(lp5551
g57
(g66
g59
NtRp5552
(dp5553
g62
(dp5554
g70
I3
ssg71
Nsg64
(lp5555
g57
(g73
g59
NtRp5556
(dp5557
g62
(dp5558
sg71
g5552
sg64
(lp5559
g57
(g78
g59
NtRp5560
(dp5561
g62
(dp5562
sg71
g5556
sg64
(lp5563
g57
(g58
g59
NtRp5564
(dp5565
g62
(dp5566
g70
I3
ssg71
g5560
sg64
(lp5567
g5428
(S't\x07\x00\x00\x00Distros'
tRp5568
asbasbasbag57
(g73
g59
NtRp5569
(dp5570
g62
(dp5571
sg71
g5552
sg64
(lp5572
g57
(g78
g59
NtRp5573
(dp5574
g62
(dp5575
sg71
g5569
sg64
(lp5576
g57
(g58
g59
NtRp5577
(dp5578
g62
(dp5579
g70
I3
ssg71
g5573
sg64
(lp5580
g100
asbasbasbag57
(g73
g59
NtRp5581
(dp5582
g62
(dp5583
sg71
g5552
sg64
(lp5584
g57
(g78
g59
NtRp5585
(dp5586
g62
(dp5587
sg71
g5581
sg64
(lp5588
g57
(g58
g59
NtRp5589
(dp5590
g62
(dp5591
g70
I3
ssg71
g5585
sg64
(lp5592
S'/show_distro'
p5593
asbasbasbag57
(g73
g59
NtRp5594
(dp5595
g62
(dp5596
sg71
g5552
sg64
(lp5597
g57
(g78
g59
NtRp5598
(dp5599
g62
(dp5600
sg71
g5594
sg64
(lp5601
g57
(g58
g59
NtRp5602
(dp5603
g62
(dp5604
g70
I3
ssg71
g5598
sg64
(lp5605
g57
(g66
g59
NtRp5606
(dp5607
g62
(dp5608
g70
I2
ssg71
Nsg64
(lp5609
sbasbasbasbasbasbasbasbasbasbasbasbag57
(g73
g59
NtRp5610
(dp5611
g62
(dp5612
sg71
g4896
sg64
(lp5613
g57
(g78
g59
NtRp5614
(dp5615
g62
(dp5616
g82
g83
ssg71
g5610
sg64
(lp5617
S'menu2'
p5618
asbag57
(g78
g59
NtRp5619
(dp5620
g62
(dp5621
g89
g90
ssg71
g5610
sg64
(lp5622
S':'
asbag57
(g78
g59
NtRp5623
(dp5624
g62
(dp5625
sg71
g5610
sg64
(lp5626
g57
(g58
g59
NtRp5627
(dp5628
g62
(dp5629
g70
I5
ssg71
g5623
sg64
(lp5630
g57
(g66
g59
NtRp5631
(dp5632
g62
(dp5633
g70
I4
ssg71
Nsg64
(lp5634
g57
(g73
g59
NtRp5635
(dp5636
g62
(dp5637
sg71
g5631
sg64
(lp5638
g57
(g78
g59
NtRp5639
(dp5640
g62
(dp5641
sg71
g5635
sg64
(lp5642
g57
(g58
g59
NtRp5643
(dp5644
g62
(dp5645
g70
I4
ssg71
g5639
sg64
(lp5646
g57
(g66
g59
NtRp5647
(dp5648
g62
(dp5649
g70
I3
ssg71
Nsg64
(lp5650
g57
(g73
g59
NtRp5651
(dp5652
g62
(dp5653
sg71
g5647
sg64
(lp5654
g57
(g78
g59
NtRp5655
(dp5656
g62
(dp5657
sg71
g5651
sg64
(lp5658
g57
(g58
g59
NtRp5659
(dp5660
g62
(dp5661
g70
I3
ssg71
g5655
sg64
(lp5662
g57
(g5368
g59
NtRp5663
(dp5664
g62
(dp5665
g5358
S'dropdown-toggle'
p5666
ssg71
Nsg64
(lp5667
S'Admin'
p5668
asbasbasbasbag57
(g73
g59
NtRp5669
(dp5670
g62
(dp5671
sg71
g5647
sg64
(lp5672
g57
(g78
g59
NtRp5673
(dp5674
g62
(dp5675
sg71
g5669
sg64
(lp5676
g57
(g58
g59
NtRp5677
(dp5678
g62
(dp5679
g70
I3
ssg71
g5673
sg64
(lp5680
g100
asbasbasbag57
(g73
g59
NtRp5681
(dp5682
g62
(dp5683
sg71
g5647
sg64
(lp5684
g57
(g78
g59
NtRp5685
(dp5686
g62
(dp5687
sg71
g5681
sg64
(lp5688
g57
(g58
g59
NtRp5689
(dp5690
g62
(dp5691
g70
I3
ssg71
g5685
sg64
(lp5692
S'#'
asbasbasbag57
(g73
g59
NtRp5693
(dp5694
g62
(dp5695
sg71
g5647
sg64
(lp5696
g57
(g78
g59
NtRp5697
(dp5698
g62
(dp5699
sg71
g5693
sg64
(lp5700
g57
(g58
g59
NtRp5701
(dp5702
g62
(dp5703
g70
I3
ssg71
g5697
sg64
(lp5704
g57
(g66
g59
NtRp5705
(dp5706
g62
(dp5707
g70
I2
ssg71
Nsg64
(lp5708
g57
(g73
g59
NtRp5709
(dp5710
g62
(dp5711
sg71
g5705
sg64
(lp5712
g57
(g78
g59
NtRp5713
(dp5714
g62
(dp5715
sg71
g5709
sg64
(lp5716
g57
(g58
g59
NtRp5717
(dp5718
g62
(dp5719
g70
I2
ssg71
g5713
sg64
(lp5720
g57
(g66
g59
NtRp5721
(dp5722
g62
(dp5723
g70
I1
ssg71
Nsg64
(lp5724
g57
(g73
g59
NtRp5725
(dp5726
g62
(dp5727
sg71
g5721
sg64
(lp5728
g57
(g78
g59
NtRp5729
(dp5730
g62
(dp5731
sg71
g5725
sg64
(lp5732
g57
(g58
g59
NtRp5733
(dp5734
g62
(dp5735
g70
I1
ssg71
g5729
sg64
(lp5736
g5428
(S's\t\x00\x00\x00Usu\xc3\xa1rios'
tRp5737
asbasbasbag57
(g73
g59
NtRp5738
(dp5739
g62
(dp5740
sg71
g5721
sg64
(lp5741
g57
(g78
g59
NtRp5742
(dp5743
g62
(dp5744
sg71
g5738
sg64
(lp5745
g57
(g58
g59
NtRp5746
(dp5747
g62
(dp5748
g70
I1
ssg71
g5742
sg64
(lp5749
I00
asbasbasbag57
(g73
g59
NtRp5750
(dp5751
g62
(dp5752
sg71
g5721
sg64
(lp5753
g57
(g78
g59
NtRp5754
(dp5755
g62
(dp5756
sg71
g5750
sg64
(lp5757
g57
(g58
g59
NtRp5758
(dp5759
g62
(dp5760
g70
I1
ssg71
g5754
sg64
(lp5761
S'/manager/users'
p5762
asbasbasbasbasbasbasbag57
(g73
g59
NtRp5763
(dp5764
g62
(dp5765
sg71
g5705
sg64
(lp5766
g57
(g78
g59
NtRp5767
(dp5768
g62
(dp5769
sg71
g5763
sg64
(lp5770
g57
(g58
g59
NtRp5771
(dp5772
g62
(dp5773
g70
I2
ssg71
g5767
sg64
(lp5774
g57
(g66
g59
NtRp5775
(dp5776
g62
(dp5777
g70
I1
ssg71
Nsg64
(lp5778
g57
(g73
g59
NtRp5779
(dp5780
g62
(dp5781
sg71
g5775
sg64
(lp5782
g57
(g78
g59
NtRp5783
(dp5784
g62
(dp5785
sg71
g5779
sg64
(lp5786
g57
(g58
g59
NtRp5787
(dp5788
g62
(dp5789
g70
I1
ssg71
g5783
sg64
(lp5790
g5428
(S't\x06\x00\x00\x00Grupos'
tRp5791
asbasbasbag57
(g73
g59
NtRp5792
(dp5793
g62
(dp5794
sg71
g5775
sg64
(lp5795
g57
(g78
g59
NtRp5796
(dp5797
g62
(dp5798
sg71
g5792
sg64
(lp5799
g57
(g58
g59
NtRp5800
(dp5801
g62
(dp5802
g70
I1
ssg71
g5796
sg64
(lp5803
I00
asbasbasbag57
(g73
g59
NtRp5804
(dp5805
g62
(dp5806
sg71
g5775
sg64
(lp5807
g57
(g78
g59
NtRp5808
(dp5809
g62
(dp5810
sg71
g5804
sg64
(lp5811
g57
(g58
g59
NtRp5812
(dp5813
g62
(dp5814
g70
I1
ssg71
g5808
sg64
(lp5815
S'/manager/groups'
p5816
asbasbasbasbasbasbasbag57
(g73
g59
NtRp5817
(dp5818
g62
(dp5819
sg71
g5705
sg64
(lp5820
g57
(g78
g59
NtRp5821
(dp5822
g62
(dp5823
sg71
g5817
sg64
(lp5824
g57
(g58
g59
NtRp5825
(dp5826
g62
(dp5827
g70
I2
ssg71
g5821
sg64
(lp5828
g57
(g66
g59
NtRp5829
(dp5830
g62
(dp5831
g70
I1
ssg71
Nsg64
(lp5832
g57
(g73
g59
NtRp5833
(dp5834
g62
(dp5835
sg71
g5829
sg64
(lp5836
g57
(g78
g59
NtRp5837
(dp5838
g62
(dp5839
sg71
g5833
sg64
(lp5840
g57
(g58
g59
NtRp5841
(dp5842
g62
(dp5843
g70
I1
ssg71
g5837
sg64
(lp5844
g5428
(S't\x07\x00\x00\x00Membros'
tRp5845
asbasbasbag57
(g73
g59
NtRp5846
(dp5847
g62
(dp5848
sg71
g5829
sg64
(lp5849
g57
(g78
g59
NtRp5850
(dp5851
g62
(dp5852
sg71
g5846
sg64
(lp5853
g57
(g58
g59
NtRp5854
(dp5855
g62
(dp5856
g70
I1
ssg71
g5850
sg64
(lp5857
I00
asbasbasbag57
(g73
g59
NtRp5858
(dp5859
g62
(dp5860
sg71
g5829
sg64
(lp5861
g57
(g78
g59
NtRp5862
(dp5863
g62
(dp5864
sg71
g5858
sg64
(lp5865
g57
(g58
g59
NtRp5866
(dp5867
g62
(dp5868
g70
I1
ssg71
g5862
sg64
(lp5869
S'/manager/membership'
p5870
asbasbasbasbasbasbasbasbasbasbasbasbasbasbasbag57
(g73
g59
NtRp5871
(dp5872
g62
(dp5873
sg71
g5631
sg64
(lp5874
g57
(g78
g59
NtRp5875
(dp5876
g62
(dp5877
sg71
g5871
sg64
(lp5878
g57
(g58
g59
NtRp5879
(dp5880
g62
(dp5881
g70
I4
ssg71
g5875
sg64
(lp5882
g57
(g66
g59
NtRp5883
(dp5884
g62
(dp5885
g70
I3
ssg71
Nsg64
(lp5886
g57
(g73
g59
NtRp5887
(dp5888
g62
(dp5889
sg71
g5883
sg64
(lp5890
g57
(g78
g59
NtRp5891
(dp5892
g62
(dp5893
sg71
g5887
sg64
(lp5894
g57
(g58
g59
NtRp5895
(dp5896
g62
(dp5897
g70
I3
ssg71
g5891
sg64
(lp5898
g57
(g5368
g59
NtRp5899
(dp5900
g62
(dp5901
g5358
g5666
ssg71
Nsg64
(lp5902
S'Login'
p5903
asbasbasbasbag57
(g73
g59
NtRp5904
(dp5905
g62
(dp5906
sg71
g5883
sg64
(lp5907
g57
(g78
g59
NtRp5908
(dp5909
g62
(dp5910
sg71
g5904
sg64
(lp5911
g57
(g58
g59
NtRp5912
(dp5913
g62
(dp5914
g70
I3
ssg71
g5908
sg64
(lp5915
g100
asbasbasbag57
(g73
g59
NtRp5916
(dp5917
g62
(dp5918
sg71
g5883
sg64
(lp5919
g57
(g78
g59
NtRp5920
(dp5921
g62
(dp5922
sg71
g5916
sg64
(lp5923
g57
(g58
g59
NtRp5924
(dp5925
g62
(dp5926
g70
I3
ssg71
g5920
sg64
(lp5927
S'#'
asbasbasbag57
(g73
g59
NtRp5928
(dp5929
g62
(dp5930
sg71
g5883
sg64
(lp5931
g57
(g78
g59
NtRp5932
(dp5933
g62
(dp5934
sg71
g5928
sg64
(lp5935
g57
(g58
g59
NtRp5936
(dp5937
g62
(dp5938
g70
I3
ssg71
g5932
sg64
(lp5939
g57
(g66
g59
NtRp5940
(dp5941
g62
(dp5942
g70
I2
ssg71
Nsg64
(lp5943
g57
(g73
g59
NtRp5944
(dp5945
g62
(dp5946
sg71
g5940
sg64
(lp5947
g57
(g78
g59
NtRp5948
(dp5949
g62
(dp5950
sg71
g5944
sg64
(lp5951
g57
(g58
g59
NtRp5952
(dp5953
g62
(dp5954
g70
I2
ssg71
g5948
sg64
(lp5955
g57
(g66
g59
NtRp5956
(dp5957
g62
(dp5958
g70
I1
ssg71
Nsg64
(lp5959
g57
(g73
g59
NtRp5960
(dp5961
g62
(dp5962
sg71
g5956
sg64
(lp5963
g57
(g78
g59
NtRp5964
(dp5965
g62
(dp5966
sg71
g5960
sg64
(lp5967
g57
(g58
g59
NtRp5968
(dp5969
g62
(dp5970
g70
I1
ssg71
g5964
sg64
(lp5971
g5428
(S't\x06\x00\x00\x00Logout'
tRp5972
asbasbasbag57
(g73
g59
NtRp5973
(dp5974
g62
(dp5975
sg71
g5956
sg64
(lp5976
g57
(g78
g59
NtRp5977
(dp5978
g62
(dp5979
sg71
g5973
sg64
(lp5980
g57
(g58
g59
NtRp5981
(dp5982
g62
(dp5983
g70
I1
ssg71
g5977
sg64
(lp5984
I00
asbasbasbag57
(g73
g59
NtRp5985
(dp5986
g62
(dp5987
sg71
g5956
sg64
(lp5988
g57
(g78
g59
NtRp5989
(dp5990
g62
(dp5991
sg71
g5985
sg64
(lp5992
g57
(g58
g59
NtRp5993
(dp5994
g62
(dp5995
g70
I1
ssg71
g5989
sg64
(lp5996
S'/initial/user/logout'
p5997
asbasbasbasbasbasbasbasbasbasbasbasbasbasbasbasbasbasbasbag57
(g73
g59
NtRp5998
(dp5999
g62
(dp6000
sg71
g4896
sg64
(lp6001
g57
(g78
g59
NtRp6002
(dp6003
g62
(dp6004
g82
g83
ssg71
g5998
sg64
(lp6005
S'meta'
p6006
asbag57
(g78
g59
NtRp6007
(dp6008
g62
(dp6009
g89
g90
ssg71
g5998
sg64
(lp6010
S':'
asbag57
(g78
g59
NtRp6011
(dp6012
g62
(dp6013
sg71
g5998
sg64
(lp6014
g57
(g58
g59
NtRp6015
(dp6016
g62
(dp6017
g70
I5
ssg71
g6011
sg64
(lp6018
g57
(g66
g59
NtRp6019
(dp6020
g62
(dp6021
g70
I4
ssg71
Nsg64
(lp6022
g57
(g73
g59
NtRp6023
(dp6024
g62
(dp6025
sg71
g6019
sg64
(lp6026
g57
(g78
g59
NtRp6027
(dp6028
g62
(dp6029
g82
g83
ssg71
g6023
sg64
(lp6030
S'author'
p6031
asbag57
(g78
g59
NtRp6032
(dp6033
g62
(dp6034
g89
g90
ssg71
g6023
sg64
(lp6035
S':'
asbag57
(g78
g59
NtRp6036
(dp6037
g62
(dp6038
sg71
g6023
sg64
(lp6039
g57
(g58
g59
NtRp6040
(dp6041
g62
(dp6042
g70
I4
ssg71
g6036
sg64
(lp6043
S'Your Name <you@example.com>'
p6044
asbasbasbag57
(g73
g59
NtRp6045
(dp6046
g62
(dp6047
sg71
g6019
sg64
(lp6048
g57
(g78
g59
NtRp6049
(dp6050
g62
(dp6051
g82
g83
ssg71
g6045
sg64
(lp6052
S'description'
p6053
asbag57
(g78
g59
NtRp6054
(dp6055
g62
(dp6056
g89
g90
ssg71
g6045
sg64
(lp6057
S':'
asbag57
(g78
g59
NtRp6058
(dp6059
g62
(dp6060
sg71
g6045
sg64
(lp6061
g57
(g58
g59
NtRp6062
(dp6063
g62
(dp6064
g70
I4
ssg71
g6058
sg64
(lp6065
S'a cool new app'
p6066
asbasbasbag57
(g73
g59
NtRp6067
(dp6068
g62
(dp6069
sg71
g6019
sg64
(lp6070
g57
(g78
g59
NtRp6071
(dp6072
g62
(dp6073
g82
g83
ssg71
g6067
sg64
(lp6074
S'generator'
p6075
asbag57
(g78
g59
NtRp6076
(dp6077
g62
(dp6078
g89
g90
ssg71
g6067
sg64
(lp6079
S':'
asbag57
(g78
g59
NtRp6080
(dp6081
g62
(dp6082
sg71
g6067
sg64
(lp6083
g57
(g58
g59
NtRp6084
(dp6085
g62
(dp6086
g70
I4
ssg71
g6080
sg64
(lp6087
S'Web2py Web Framework'
p6088
asbasbasbag57
(g73
g59
NtRp6089
(dp6090
g62
(dp6091
sg71
g6019
sg64
(lp6092
g57
(g78
g59
NtRp6093
(dp6094
g62
(dp6095
g82
g83
ssg71
g6089
sg64
(lp6096
S'keywords'
p6097
asbag57
(g78
g59
NtRp6098
(dp6099
g62
(dp6100
g89
g90
ssg71
g6089
sg64
(lp6101
S':'
asbag57
(g78
g59
NtRp6102
(dp6103
g62
(dp6104
sg71
g6089
sg64
(lp6105
g57
(g58
g59
NtRp6106
(dp6107
g62
(dp6108
g70
I4
ssg71
g6102
sg64
(lp6109
S'web2py, python, framework'
p6110
asbasbasbasbasbasbasbag57
(g73
g59
NtRp6111
(dp6112
g62
(dp6113
sg71
g4896
sg64
(lp6114
g57
(g78
g59
NtRp6115
(dp6116
g62
(dp6117
g82
g83
ssg71
g6111
sg64
(lp6118
S'models_to_run'
p6119
asbag57
(g78
g59
NtRp6120
(dp6121
g62
(dp6122
g89
g90
ssg71
g6111
sg64
(lp6123
S':'
asbag57
(g78
g59
NtRp6124
(dp6125
g62
(dp6126
sg71
g6111
sg64
(lp6127
g57
(g58
g59
NtRp6128
(dp6129
g62
(dp6130
g70
I5
ssg71
g6124
sg64
(lp6131
g57
(g66
g59
NtRp6132
(dp6133
g62
(dp6134
g70
I4
ssg71
Nsg64
(lp6135
g57
(g73
g59
NtRp6136
(dp6137
g62
(dp6138
sg71
g6132
sg64
(lp6139
g57
(g78
g59
NtRp6140
(dp6141
g62
(dp6142
sg71
g6136
sg64
(lp6143
g57
(g58
g59
NtRp6144
(dp6145
g62
(dp6146
g70
I4
ssg71
g6140
sg64
(lp6147
S'^\\w+\\.py$'
p6148
asbasbasbag57
(g73
g59
NtRp6149
(dp6150
g62
(dp6151
sg71
g6132
sg64
(lp6152
g57
(g78
g59
NtRp6153
(dp6154
g62
(dp6155
sg71
g6149
sg64
(lp6156
g57
(g58
g59
NtRp6157
(dp6158
g62
(dp6159
g70
I4
ssg71
g6153
sg64
(lp6160
S'^initial/\\w+\\.py$'
p6161
asbasbasbag57
(g73
g59
NtRp6162
(dp6163
g62
(dp6164
sg71
g6132
sg64
(lp6165
g57
(g78
g59
NtRp6166
(dp6167
g62
(dp6168
sg71
g6162
sg64
(lp6169
g57
(g58
g59
NtRp6170
(dp6171
g62
(dp6172
g70
I4
ssg71
g6166
sg64
(lp6173
S'^initial/show_cliente/\\w+\\.py$'
p6174
asbasbasbasbasbasbasbag57
(g73
g59
NtRp6175
(dp6176
g62
(dp6177
sg71
g4896
sg64
(lp6178
g57
(g78
g59
NtRp6179
(dp6180
g62
(dp6181
g82
g83
ssg71
g6175
sg64
(lp6182
S'postprocessing'
p6183
asbag57
(g78
g59
NtRp6184
(dp6185
g62
(dp6186
g89
g90
ssg71
g6175
sg64
(lp6187
S':'
asbag57
(g78
g59
NtRp6188
(dp6189
g62
(dp6190
sg71
g6175
sg64
(lp6191
g57
(g58
g59
NtRp6192
(dp6193
g62
(dp6194
g70
I5
ssg71
g6188
sg64
(lp6195
g57
(g66
g59
NtRp6196
(dp6197
g62
(dp6198
g70
I4
ssg71
Nsg64
(lp6199
sbasbasbasbag57
(g73
g59
NtRp6200
(dp6201
g62
(dp6202
sg71
g4896
sg64
(lp6203
g57
(g78
g59
NtRp6204
(dp6205
g62
(dp6206
g82
g83
ssg71
g6200
sg64
(lp6207
S'session_cookie_expires'
p6208
asbag57
(g78
g59
NtRp6209
(dp6210
g62
(dp6211
g89
g90
ssg71
g6200
sg64
(lp6212
S':'
asbag57
(g78
g59
NtRp6213
(dp6214
g62
(dp6215
sg71
g6200
sg64
(lp6216
g57
(g58
g59
NtRp6217
(dp6218
g62
(dp6219
g70
I5
ssg71
g6213
sg64
(lp6220
S'None'
p6221
asbasbasbag57
(g73
g59
NtRp6222
(dp6223
g62
(dp6224
sg71
g4896
sg64
(lp6225
g57
(g78
g59
NtRp6226
(dp6227
g62
(dp6228
g82
g83
ssg71
g6222
sg64
(lp6229
S'session_data_name'
p6230
asbag57
(g78
g59
NtRp6231
(dp6232
g62
(dp6233
g89
g90
ssg71
g6222
sg64
(lp6234
S':'
asbag57
(g78
g59
NtRp6235
(dp6236
g62
(dp6237
sg71
g6222
sg64
(lp6238
g57
(g58
g59
NtRp6239
(dp6240
g62
(dp6241
g70
I5
ssg71
g6235
sg64
(lp6242
S'session_data_projeto'
p6243
asbasbasbag57
(g73
g59
NtRp6244
(dp6245
g62
(dp6246
sg71
g4896
sg64
(lp6247
g57
(g78
g59
NtRp6248
(dp6249
g62
(dp6250
g82
g83
ssg71
g6244
sg64
(lp6251
S'session_file'
p6252
asbag57
(g78
g59
NtRp6253
(dp6254
g62
(dp6255
g89
g90
ssg71
g6244
sg64
(lp6256
S':'
asbag57
(g78
g59
NtRp6257
(dp6258
g62
(dp6259
sg71
g6244
sg64
(lp6260
g57
(g58
g59
NtRp6261
(dp6262
g62
(dp6263
g70
I5
ssg71
g6257
sg64
(lp6264
S"<open file '/var/www/hosts3/applications/projeto/sessions/127.0.0.1-7e2a6bd5-c6a5-4313-8cd5-3d3bebe589eb', mode 'rb+' at 0x7f4f481eb150>"
p6265
asbasbasbag57
(g73
g59
NtRp6266
(dp6267
g62
(dp6268
sg71
g4896
sg64
(lp6269
g57
(g78
g59
NtRp6270
(dp6271
g62
(dp6272
g82
g83
ssg71
g6266
sg64
(lp6273
S'session_filename'
p6274
asbag57
(g78
g59
NtRp6275
(dp6276
g62
(dp6277
g89
g90
ssg71
g6266
sg64
(lp6278
S':'
asbag57
(g78
g59
NtRp6279
(dp6280
g62
(dp6281
sg71
g6266
sg64
(lp6282
g57
(g58
g59
NtRp6283
(dp6284
g62
(dp6285
g70
I5
ssg71
g6279
sg64
(lp6286
S'/var/www/hosts3/applications/projeto/sessions/127.0.0.1-7e2a6bd5-c6a5-4313-8cd5-3d3bebe589eb'
p6287
asbasbasbag57
(g73
g59
NtRp6288
(dp6289
g62
(dp6290
sg71
g4896
sg64
(lp6291
g57
(g78
g59
NtRp6292
(dp6293
g62
(dp6294
g82
g83
ssg71
g6288
sg64
(lp6295
S'session_id'
p6296
asbag57
(g78
g59
NtRp6297
(dp6298
g62
(dp6299
g89
g90
ssg71
g6288
sg64
(lp6300
S':'
asbag57
(g78
g59
NtRp6301
(dp6302
g62
(dp6303
sg71
g6288
sg64
(lp6304
g57
(g58
g59
NtRp6305
(dp6306
g62
(dp6307
g70
I5
ssg71
g6301
sg64
(lp6308
g1589
asbasbasbag57
(g73
g59
NtRp6309
(dp6310
g62
(dp6311
sg71
g4896
sg64
(lp6312
g57
(g78
g59
NtRp6313
(dp6314
g62
(dp6315
g82
g83
ssg71
g6309
sg64
(lp6316
S'session_id_name'
p6317
asbag57
(g78
g59
NtRp6318
(dp6319
g62
(dp6320
g89
g90
ssg71
g6309
sg64
(lp6321
S':'
asbag57
(g78
g59
NtRp6322
(dp6323
g62
(dp6324
sg71
g6309
sg64
(lp6325
g57
(g58
g59
NtRp6326
(dp6327
g62
(dp6328
g70
I5
ssg71
g6322
sg64
(lp6329
g4953
asbasbasbag57
(g73
g59
NtRp6330
(dp6331
g62
(dp6332
sg71
g4896
sg64
(lp6333
g57
(g78
g59
NtRp6334
(dp6335
g62
(dp6336
g82
g83
ssg71
g6330
sg64
(lp6337
S'session_locked'
p6338
asbag57
(g78
g59
NtRp6339
(dp6340
g62
(dp6341
g89
g90
ssg71
g6330
sg64
(lp6342
S':'
asbag57
(g78
g59
NtRp6343
(dp6344
g62
(dp6345
sg71
g6330
sg64
(lp6346
g57
(g58
g59
NtRp6347
(dp6348
g62
(dp6349
g70
I5
ssg71
g6343
sg64
(lp6350
g2926
asbasbasbag57
(g73
g59
NtRp6351
(dp6352
g62
(dp6353
sg71
g4896
sg64
(lp6354
g57
(g78
g59
NtRp6355
(dp6356
g62
(dp6357
g82
g83
ssg71
g6351
sg64
(lp6358
S'session_new'
p6359
asbag57
(g78
g59
NtRp6360
(dp6361
g62
(dp6362
g89
g90
ssg71
g6351
sg64
(lp6363
S':'
asbag57
(g78
g59
NtRp6364
(dp6365
g62
(dp6366
sg71
g6351
sg64
(lp6367
g57
(g58
g59
NtRp6368
(dp6369
g62
(dp6370
g70
I5
ssg71
g6364
sg64
(lp6371
g100
asbasbasbag57
(g73
g59
NtRp6372
(dp6373
g62
(dp6374
sg71
g4896
sg64
(lp6375
g57
(g78
g59
NtRp6376
(dp6377
g62
(dp6378
g82
g83
ssg71
g6372
sg64
(lp6379
S'session_storage_type'
p6380
asbag57
(g78
g59
NtRp6381
(dp6382
g62
(dp6383
g89
g90
ssg71
g6372
sg64
(lp6384
S':'
asbag57
(g78
g59
NtRp6385
(dp6386
g62
(dp6387
sg71
g6372
sg64
(lp6388
g57
(g58
g59
NtRp6389
(dp6390
g62
(dp6391
g70
I5
ssg71
g6385
sg64
(lp6392
g4356
asbasbasbag57
(g73
g59
NtRp6393
(dp6394
g62
(dp6395
sg71
g4896
sg64
(lp6396
g57
(g78
g59
NtRp6397
(dp6398
g62
(dp6399
g82
g83
ssg71
g6393
sg64
(lp6400
S'status'
p6401
asbag57
(g78
g59
NtRp6402
(dp6403
g62
(dp6404
g89
g90
ssg71
g6393
sg64
(lp6405
S':'
asbag57
(g78
g59
NtRp6406
(dp6407
g62
(dp6408
sg71
g6393
sg64
(lp6409
g57
(g58
g59
NtRp6410
(dp6411
g62
(dp6412
g70
I5
ssg71
g6406
sg64
(lp6413
S'200'
p6414
asbasbasbag57
(g73
g59
NtRp6415
(dp6416
g62
(dp6417
sg71
g4896
sg64
(lp6418
g57
(g78
g59
NtRp6419
(dp6420
g62
(dp6421
g82
g83
ssg71
g6415
sg64
(lp6422
S'subtitle'
p6423
asbag57
(g78
g59
NtRp6424
(dp6425
g62
(dp6426
g89
g90
ssg71
g6415
sg64
(lp6427
S':'
asbag57
(g78
g59
NtRp6428
(dp6429
g62
(dp6430
sg71
g6415
sg64
(lp6431
g57
(g58
g59
NtRp6432
(dp6433
g62
(dp6434
g70
I5
ssg71
g6428
sg64
(lp6435
g5428
(S's\r\x00\x00\x00customize me!'
tRp6436
asbasbasbag57
(g73
g59
NtRp6437
(dp6438
g62
(dp6439
sg71
g4896
sg64
(lp6440
g57
(g78
g59
NtRp6441
(dp6442
g62
(dp6443
g82
g83
ssg71
g6437
sg64
(lp6444
S'title'
p6445
asbag57
(g78
g59
NtRp6446
(dp6447
g62
(dp6448
g89
g90
ssg71
g6437
sg64
(lp6449
S':'
asbag57
(g78
g59
NtRp6450
(dp6451
g62
(dp6452
sg71
g6437
sg64
(lp6453
g57
(g58
g59
NtRp6454
(dp6455
g62
(dp6456
g70
I5
ssg71
g6450
sg64
(lp6457
S'Clientes'
p6458
asbasbasbag57
(g73
g59
NtRp6459
(dp6460
g62
(dp6461
sg71
g4896
sg64
(lp6462
g57
(g78
g59
NtRp6463
(dp6464
g62
(dp6465
g82
g83
ssg71
g6459
sg64
(lp6466
S'view'
p6467
asbag57
(g78
g59
NtRp6468
(dp6469
g62
(dp6470
g89
g90
ssg71
g6459
sg64
(lp6471
S':'
asbag57
(g78
g59
NtRp6472
(dp6473
g62
(dp6474
sg71
g6459
sg64
(lp6475
g57
(g58
g59
NtRp6476
(dp6477
g62
(dp6478
g70
I5
ssg71
g6472
sg64
(lp6479
S'initial/show_cliente.html'
p6480
asbasbasbasbasbsS'locals'
p6481
(dp6482
ssS'traceback'
p6483
S'Traceback (most recent call last):\n  File "/var/www/hosts3/gluon/restricted.py", line 212, in restricted\n    exec ccode in environment\n  File "/var/www/hosts3/applications/projeto/controllers/initial.py", line 196, in <module>\n  File "/var/www/hosts3/gluon/globals.py", line 193, in <lambda>\n    self._caller = lambda f: f()\n  File "/var/www/hosts3/gluon/tools.py", line 2929, in f\n    return action(*a, **b)\n  File "/var/www/hosts3/applications/projeto/controllers/initial.py", line 43, in show_cliente\n    links = [lambda row: A(\'hosts\', _class=\'btn\',\nTypeError: grid() got an unexpected keyword argument \'edit\'\n'
p6484
s.