(dp1
S'output'
p2
S"<type 'exceptions.SyntaxError'> Object exists and cannot be redefined: id"
p3
sS'layer'
p4
S'/var/www/web2py_curso/applications/projeto/controllers/initial.py'
p5
sS'code'
p6
S'# coding: utf-8\n\ndef home():\n\tnome = "Fernando"\n\tresponse.title = "Titulo home"\n\treturn dict(nome=nome)\n\ndef contact():\n\treturn "form"\n\ndef about():\n\treturn "sobre"\n\ndef user():\n\tif request.args(0) == \'register\':\n        \tdb.auth_user.bio.writable = db.auth_user.bio.readable = False\n\treturn dict(user=auth())\n\ndef register():\n\treturn auth.register()\n\ndef login():\n        return auth.login()\n\ndef account():\n    return dict(register=auth.register(),\n                login=auth.login())\n\t\ndef download():\n\treturn response.download(request, db)\n\n\ndef show_cliente():\n\tCliente.id=False\n\tgrid = SQLFORM.grid(db.cliente,\n\t\tuser_signature=True, searchable=True, \n\t\tpaginate=50, deletable=True, editable=True, \n\t\tdetails=False, ignore_rw = True, maxtextlength=26,  \n    \tlinks = [lambda row: A(\'hosts\', _class=\'btn\', _title=\'View  Post\', _href=URL("default", "/cliente_host", vars=dict(f=row.id)))]\n    \t)\n\treturn dict(grid=grid)\n\n\n\n\n\n\ndef exemplo():\n#\treturn "teste"\n\treturn response.render("default/teste.html", nome="fernando", sobrenome="vieira", lista=["item1", "item2", "item3"])\n\ndef teste1():\n\tprint "Action index"\n\tprint request.args\n\tprint request.vars \t\n\tprint request.post_vars #somente entradas de formul\xc3\xa1rio\n    \tprint request.get_vars  #somente entradas de url\n    \t#nome = request.vars[\'nome\']\n        mensagem = "Bem Vindo"\n        form = "<form action=\'\' method=\'POST\'><input name=\'nome\' id=\'nome\'/><input type=\'Submit\'></form><br>"\n        if \'nome\' in request.vars:\n\t\tform = "<p>Bem vindo %(nome)s</p>" % request.vars + form\t\t\n\t\t#mensagem = mensagem + " usu\xc3\xa1rio %(nome)s" % request.vars\t#mostrando variavel da url\n        \t#mensagem = mensagem + " usu\xc3\xa1rio %s" %str(nome)\t\t\t#mostrando uma variavel local    \n\treturn form\n\ndef teste2():\n\treturn "<form><label>Nome</label><input /></form><br><a href=\'http://www.w3schools.com\'>Visit W3Schools</a>"\n\t#return dict(nome="fernando")\n\t#return response.render("teste.html", dict(nome="fernando"))\n\ndef soma(x, y):\n\treturn x + y\n\n \n\nresponse._vars=response._caller(show_cliente)\n'
p7
sS'snapshot'
p8
(dp9
S'exception'
p10
(dp11
S'__getslice__'
p12
S"<method-wrapper '__getslice__' of exceptions.SyntaxError object>"
p13
sS'text'
p14
S'None'
p15
sS'__str__'
p16
S"<method-wrapper '__str__' of exceptions.SyntaxError object>"
p17
sS'__reduce__'
p18
S'<built-in method __reduce__ of exceptions.SyntaxError object>'
p19
sS'__dict__'
p20
S'{}'
p21
sS'__sizeof__'
p22
S'<built-in method __sizeof__ of exceptions.SyntaxError object>'
p23
sS'__init__'
p24
S"<method-wrapper '__init__' of exceptions.SyntaxError object>"
p25
sS'__setattr__'
p26
S"<method-wrapper '__setattr__' of exceptions.SyntaxError object>"
p27
sS'__reduce_ex__'
p28
S'<built-in method __reduce_ex__ of exceptions.SyntaxError object>'
p29
sS'__new__'
p30
S'<built-in method __new__ of type object>'
p31
sS'__format__'
p32
S'<built-in method __format__ of exceptions.SyntaxError object>'
p33
sS'__class__'
p34
S"<type 'exceptions.SyntaxError'>"
p35
sS'filename'
p36
S'None'
p37
sS'lineno'
p38
S'None'
p39
sS'msg'
p40
S"'Object exists and cannot be redefined: id'"
p41
sS'__doc__'
p42
S"'Invalid syntax.'"
p43
sS'__getitem__'
p44
S"<method-wrapper '__getitem__' of exceptions.SyntaxError object>"
p45
sS'__setstate__'
p46
S'<built-in method __setstate__ of exceptions.SyntaxError object>'
p47
sS'__getattribute__'
p48
S"<method-wrapper '__getattribute__' of exceptions.SyntaxError object>"
p49
sS'print_file_and_line'
p50
S'None'
p51
sS'args'
p52
S"('Object exists and cannot be redefined: id',)"
p53
sS'__subclasshook__'
p54
S'<built-in method __subclasshook__ of type object>'
p55
sS'offset'
p56
S'None'
p57
sS'__unicode__'
p58
S'<built-in method __unicode__ of exceptions.SyntaxError object>'
p59
sS'__delattr__'
p60
S"<method-wrapper '__delattr__' of exceptions.SyntaxError object>"
p61
sS'__repr__'
p62
S"<method-wrapper '__repr__' of exceptions.SyntaxError object>"
p63
sS'__hash__'
p64
S"<method-wrapper '__hash__' of exceptions.SyntaxError object>"
p65
ssS'evalue'
p66
S'Object exists and cannot be redefined: id'
p67
sS'request'
p68
ccopy_reg
_reconstructor
p69
(cgluon.html
BEAUTIFY
p70
c__builtin__
object
p71
NtRp72
(dp73
S'attributes'
p74
(dp75
sS'components'
p76
(lp77
g69
(cgluon.html
TABLE
p78
g71
NtRp79
(dp80
g74
(dp81
S'level'
p82
I5
ssS'parent'
p83
Nsg76
(lp84
g69
(cgluon.html
TR
p85
g71
NtRp86
(dp87
g74
(dp88
sg83
g79
sg76
(lp89
g69
(cgluon.html
TD
p90
g71
NtRp91
(dp92
g74
(dp93
S'_style'
p94
S'font-weight:bold;vertical-align:top'
p95
ssg83
g86
sg76
(lp96
S'ajax'
p97
asbag69
(g90
g71
NtRp98
(dp99
g74
(dp100
S'_valign'
p101
S'top'
p102
ssg83
g86
sg76
(lp103
S':'
asbag69
(g90
g71
NtRp104
(dp105
g74
(dp106
sg83
g86
sg76
(lp107
g69
(g70
g71
NtRp108
(dp109
g74
(dp110
g82
I5
ssg83
g104
sg76
(lp111
S'False'
p112
asbasbasbag69
(g85
g71
NtRp113
(dp114
g74
(dp115
sg83
g79
sg76
(lp116
g69
(g90
g71
NtRp117
(dp118
g74
(dp119
g94
g95
ssg83
g113
sg76
(lp120
S'application'
p121
asbag69
(g90
g71
NtRp122
(dp123
g74
(dp124
g101
g102
ssg83
g113
sg76
(lp125
S':'
asbag69
(g90
g71
NtRp126
(dp127
g74
(dp128
sg83
g113
sg76
(lp129
g69
(g70
g71
NtRp130
(dp131
g74
(dp132
g82
I5
ssg83
g126
sg76
(lp133
S'projeto'
p134
asbasbasbag69
(g85
g71
NtRp135
(dp136
g74
(dp137
sg83
g79
sg76
(lp138
g69
(g90
g71
NtRp139
(dp140
g74
(dp141
g94
g95
ssg83
g135
sg76
(lp142
g52
asbag69
(g90
g71
NtRp143
(dp144
g74
(dp145
g101
g102
ssg83
g135
sg76
(lp146
S':'
asbag69
(g90
g71
NtRp147
(dp148
g74
(dp149
sg83
g135
sg76
(lp150
g69
(g70
g71
NtRp151
(dp152
g74
(dp153
g82
I5
ssg83
g147
sg76
(lp154
g69
(g78
g71
NtRp155
(dp156
g74
(dp157
g82
I4
ssg83
Nsg76
(lp158
sbasbasbasbag69
(g85
g71
NtRp159
(dp160
g74
(dp161
sg83
g79
sg76
(lp162
g69
(g90
g71
NtRp163
(dp164
g74
(dp165
g94
g95
ssg83
g159
sg76
(lp166
S'body'
p167
asbag69
(g90
g71
NtRp168
(dp169
g74
(dp170
g101
g102
ssg83
g159
sg76
(lp171
S':'
asbag69
(g90
g71
NtRp172
(dp173
g74
(dp174
sg83
g159
sg76
(lp175
g69
(g70
g71
NtRp176
(dp177
g74
(dp178
g82
I5
ssg83
g172
sg76
(lp179
S'<cStringIO.StringO object at 0x7fa6100d6260>'
p180
asbasbasbag69
(g85
g71
NtRp181
(dp182
g74
(dp183
sg83
g79
sg76
(lp184
g69
(g90
g71
NtRp185
(dp186
g74
(dp187
g94
g95
ssg83
g181
sg76
(lp188
S'cid'
p189
asbag69
(g90
g71
NtRp190
(dp191
g74
(dp192
g101
g102
ssg83
g181
sg76
(lp193
S':'
asbag69
(g90
g71
NtRp194
(dp195
g74
(dp196
sg83
g181
sg76
(lp197
g69
(g70
g71
NtRp198
(dp199
g74
(dp200
g82
I5
ssg83
g194
sg76
(lp201
S'None'
p202
asbasbasbag69
(g85
g71
NtRp203
(dp204
g74
(dp205
sg83
g79
sg76
(lp206
g69
(g90
g71
NtRp207
(dp208
g74
(dp209
g94
g95
ssg83
g203
sg76
(lp210
S'client'
p211
asbag69
(g90
g71
NtRp212
(dp213
g74
(dp214
g101
g102
ssg83
g203
sg76
(lp215
S':'
asbag69
(g90
g71
NtRp216
(dp217
g74
(dp218
sg83
g203
sg76
(lp219
g69
(g70
g71
NtRp220
(dp221
g74
(dp222
g82
I5
ssg83
g216
sg76
(lp223
S'127.0.0.1'
p224
asbasbasbag69
(g85
g71
NtRp225
(dp226
g74
(dp227
sg83
g79
sg76
(lp228
g69
(g90
g71
NtRp229
(dp230
g74
(dp231
g94
g95
ssg83
g225
sg76
(lp232
S'controller'
p233
asbag69
(g90
g71
NtRp234
(dp235
g74
(dp236
g101
g102
ssg83
g225
sg76
(lp237
S':'
asbag69
(g90
g71
NtRp238
(dp239
g74
(dp240
sg83
g225
sg76
(lp241
g69
(g70
g71
NtRp242
(dp243
g74
(dp244
g82
I5
ssg83
g238
sg76
(lp245
S'initial'
p246
asbasbasbag69
(g85
g71
NtRp247
(dp248
g74
(dp249
sg83
g79
sg76
(lp250
g69
(g90
g71
NtRp251
(dp252
g74
(dp253
g94
g95
ssg83
g247
sg76
(lp254
S'cookies'
p255
asbag69
(g90
g71
NtRp256
(dp257
g74
(dp258
g101
g102
ssg83
g247
sg76
(lp259
S':'
asbag69
(g90
g71
NtRp260
(dp261
g74
(dp262
sg83
g247
sg76
(lp263
g69
(g70
g71
NtRp264
(dp265
g74
(dp266
g82
I5
ssg83
g260
sg76
(lp267
g69
(g78
g71
NtRp268
(dp269
g74
(dp270
g82
I4
ssg83
Nsg76
(lp271
g69
(g85
g71
NtRp272
(dp273
g74
(dp274
sg83
g268
sg76
(lp275
g69
(g90
g71
NtRp276
(dp277
g74
(dp278
g94
g95
ssg83
g272
sg76
(lp279
S'session_id_admin'
p280
asbag69
(g90
g71
NtRp281
(dp282
g74
(dp283
g101
g102
ssg83
g272
sg76
(lp284
S':'
asbag69
(g90
g71
NtRp285
(dp286
g74
(dp287
sg83
g272
sg76
(lp288
g69
(g70
g71
NtRp289
(dp290
g74
(dp291
g82
I4
ssg83
g285
sg76
(lp292
S'127.0.0.1-75ca2d58-c3fc-4afe-8196-91c64acc2735'
p293
ag69
(g78
g71
NtRp294
(dp295
g74
(dp296
g82
I3
ssg83
Nsg76
(lp297
g69
(g85
g71
NtRp298
(dp299
g74
(dp300
sg83
g294
sg76
(lp301
g69
(g90
g71
NtRp302
(dp303
g74
(dp304
g94
g95
ssg83
g298
sg76
(lp305
S'comment'
p306
asbag69
(g90
g71
NtRp307
(dp308
g74
(dp309
g101
g102
ssg83
g298
sg76
(lp310
S':'
asbag69
(g90
g71
NtRp311
(dp312
g74
(dp313
sg83
g298
sg76
(lp314
g69
(g70
g71
NtRp315
(dp316
g74
(dp317
g82
I3
ssg83
g311
sg76
(lp318
S''
asbasbasbag69
(g85
g71
NtRp319
(dp320
g74
(dp321
sg83
g294
sg76
(lp322
g69
(g90
g71
NtRp323
(dp324
g74
(dp325
g94
g95
ssg83
g319
sg76
(lp326
S'domain'
p327
asbag69
(g90
g71
NtRp328
(dp329
g74
(dp330
g101
g102
ssg83
g319
sg76
(lp331
S':'
asbag69
(g90
g71
NtRp332
(dp333
g74
(dp334
sg83
g319
sg76
(lp335
g69
(g70
g71
NtRp336
(dp337
g74
(dp338
g82
I3
ssg83
g332
sg76
(lp339
S''
asbasbasbag69
(g85
g71
NtRp340
(dp341
g74
(dp342
sg83
g294
sg76
(lp343
g69
(g90
g71
NtRp344
(dp345
g74
(dp346
g94
g95
ssg83
g340
sg76
(lp347
S'expires'
p348
asbag69
(g90
g71
NtRp349
(dp350
g74
(dp351
g101
g102
ssg83
g340
sg76
(lp352
S':'
asbag69
(g90
g71
NtRp353
(dp354
g74
(dp355
sg83
g340
sg76
(lp356
g69
(g70
g71
NtRp357
(dp358
g74
(dp359
g82
I3
ssg83
g353
sg76
(lp360
S''
asbasbasbag69
(g85
g71
NtRp361
(dp362
g74
(dp363
sg83
g294
sg76
(lp364
g69
(g90
g71
NtRp365
(dp366
g74
(dp367
g94
g95
ssg83
g361
sg76
(lp368
S'httponly'
p369
asbag69
(g90
g71
NtRp370
(dp371
g74
(dp372
g101
g102
ssg83
g361
sg76
(lp373
S':'
asbag69
(g90
g71
NtRp374
(dp375
g74
(dp376
sg83
g361
sg76
(lp377
g69
(g70
g71
NtRp378
(dp379
g74
(dp380
g82
I3
ssg83
g374
sg76
(lp381
S''
asbasbasbag69
(g85
g71
NtRp382
(dp383
g74
(dp384
sg83
g294
sg76
(lp385
g69
(g90
g71
NtRp386
(dp387
g74
(dp388
g94
g95
ssg83
g382
sg76
(lp389
S'max-age'
p390
asbag69
(g90
g71
NtRp391
(dp392
g74
(dp393
g101
g102
ssg83
g382
sg76
(lp394
S':'
asbag69
(g90
g71
NtRp395
(dp396
g74
(dp397
sg83
g382
sg76
(lp398
g69
(g70
g71
NtRp399
(dp400
g74
(dp401
g82
I3
ssg83
g395
sg76
(lp402
S''
asbasbasbag69
(g85
g71
NtRp403
(dp404
g74
(dp405
sg83
g294
sg76
(lp406
g69
(g90
g71
NtRp407
(dp408
g74
(dp409
g94
g95
ssg83
g403
sg76
(lp410
S'path'
p411
asbag69
(g90
g71
NtRp412
(dp413
g74
(dp414
g101
g102
ssg83
g403
sg76
(lp415
S':'
asbag69
(g90
g71
NtRp416
(dp417
g74
(dp418
sg83
g403
sg76
(lp419
g69
(g70
g71
NtRp420
(dp421
g74
(dp422
g82
I3
ssg83
g416
sg76
(lp423
S''
asbasbasbag69
(g85
g71
NtRp424
(dp425
g74
(dp426
sg83
g294
sg76
(lp427
g69
(g90
g71
NtRp428
(dp429
g74
(dp430
g94
g95
ssg83
g424
sg76
(lp431
S'secure'
p432
asbag69
(g90
g71
NtRp433
(dp434
g74
(dp435
g101
g102
ssg83
g424
sg76
(lp436
S':'
asbag69
(g90
g71
NtRp437
(dp438
g74
(dp439
sg83
g424
sg76
(lp440
g69
(g70
g71
NtRp441
(dp442
g74
(dp443
g82
I3
ssg83
g437
sg76
(lp444
S''
asbasbasbag69
(g85
g71
NtRp445
(dp446
g74
(dp447
sg83
g294
sg76
(lp448
g69
(g90
g71
NtRp449
(dp450
g74
(dp451
g94
g95
ssg83
g445
sg76
(lp452
S'version'
p453
asbag69
(g90
g71
NtRp454
(dp455
g74
(dp456
g101
g102
ssg83
g445
sg76
(lp457
S':'
asbag69
(g90
g71
NtRp458
(dp459
g74
(dp460
sg83
g445
sg76
(lp461
g69
(g70
g71
NtRp462
(dp463
g74
(dp464
g82
I3
ssg83
g458
sg76
(lp465
S''
asbasbasbasbasbasbasbag69
(g85
g71
NtRp466
(dp467
g74
(dp468
sg83
g268
sg76
(lp469
g69
(g90
g71
NtRp470
(dp471
g74
(dp472
g94
g95
ssg83
g466
sg76
(lp473
S'session_id_app1'
p474
asbag69
(g90
g71
NtRp475
(dp476
g74
(dp477
g101
g102
ssg83
g466
sg76
(lp478
S':'
asbag69
(g90
g71
NtRp479
(dp480
g74
(dp481
sg83
g466
sg76
(lp482
g69
(g70
g71
NtRp483
(dp484
g74
(dp485
g82
I4
ssg83
g479
sg76
(lp486
S'127.0.0.1-a471a1ee-4015-4648-af73-a55442df0be1'
p487
ag69
(g78
g71
NtRp488
(dp489
g74
(dp490
g82
I3
ssg83
Nsg76
(lp491
g69
(g85
g71
NtRp492
(dp493
g74
(dp494
sg83
g488
sg76
(lp495
g69
(g90
g71
NtRp496
(dp497
g74
(dp498
g94
g95
ssg83
g492
sg76
(lp499
g306
asbag69
(g90
g71
NtRp500
(dp501
g74
(dp502
g101
g102
ssg83
g492
sg76
(lp503
S':'
asbag69
(g90
g71
NtRp504
(dp505
g74
(dp506
sg83
g492
sg76
(lp507
g69
(g70
g71
NtRp508
(dp509
g74
(dp510
g82
I3
ssg83
g504
sg76
(lp511
S''
asbasbasbag69
(g85
g71
NtRp512
(dp513
g74
(dp514
sg83
g488
sg76
(lp515
g69
(g90
g71
NtRp516
(dp517
g74
(dp518
g94
g95
ssg83
g512
sg76
(lp519
g327
asbag69
(g90
g71
NtRp520
(dp521
g74
(dp522
g101
g102
ssg83
g512
sg76
(lp523
S':'
asbag69
(g90
g71
NtRp524
(dp525
g74
(dp526
sg83
g512
sg76
(lp527
g69
(g70
g71
NtRp528
(dp529
g74
(dp530
g82
I3
ssg83
g524
sg76
(lp531
S''
asbasbasbag69
(g85
g71
NtRp532
(dp533
g74
(dp534
sg83
g488
sg76
(lp535
g69
(g90
g71
NtRp536
(dp537
g74
(dp538
g94
g95
ssg83
g532
sg76
(lp539
g348
asbag69
(g90
g71
NtRp540
(dp541
g74
(dp542
g101
g102
ssg83
g532
sg76
(lp543
S':'
asbag69
(g90
g71
NtRp544
(dp545
g74
(dp546
sg83
g532
sg76
(lp547
g69
(g70
g71
NtRp548
(dp549
g74
(dp550
g82
I3
ssg83
g544
sg76
(lp551
S''
asbasbasbag69
(g85
g71
NtRp552
(dp553
g74
(dp554
sg83
g488
sg76
(lp555
g69
(g90
g71
NtRp556
(dp557
g74
(dp558
g94
g95
ssg83
g552
sg76
(lp559
g369
asbag69
(g90
g71
NtRp560
(dp561
g74
(dp562
g101
g102
ssg83
g552
sg76
(lp563
S':'
asbag69
(g90
g71
NtRp564
(dp565
g74
(dp566
sg83
g552
sg76
(lp567
g69
(g70
g71
NtRp568
(dp569
g74
(dp570
g82
I3
ssg83
g564
sg76
(lp571
S''
asbasbasbag69
(g85
g71
NtRp572
(dp573
g74
(dp574
sg83
g488
sg76
(lp575
g69
(g90
g71
NtRp576
(dp577
g74
(dp578
g94
g95
ssg83
g572
sg76
(lp579
g390
asbag69
(g90
g71
NtRp580
(dp581
g74
(dp582
g101
g102
ssg83
g572
sg76
(lp583
S':'
asbag69
(g90
g71
NtRp584
(dp585
g74
(dp586
sg83
g572
sg76
(lp587
g69
(g70
g71
NtRp588
(dp589
g74
(dp590
g82
I3
ssg83
g584
sg76
(lp591
S''
asbasbasbag69
(g85
g71
NtRp592
(dp593
g74
(dp594
sg83
g488
sg76
(lp595
g69
(g90
g71
NtRp596
(dp597
g74
(dp598
g94
g95
ssg83
g592
sg76
(lp599
g411
asbag69
(g90
g71
NtRp600
(dp601
g74
(dp602
g101
g102
ssg83
g592
sg76
(lp603
S':'
asbag69
(g90
g71
NtRp604
(dp605
g74
(dp606
sg83
g592
sg76
(lp607
g69
(g70
g71
NtRp608
(dp609
g74
(dp610
g82
I3
ssg83
g604
sg76
(lp611
S''
asbasbasbag69
(g85
g71
NtRp612
(dp613
g74
(dp614
sg83
g488
sg76
(lp615
g69
(g90
g71
NtRp616
(dp617
g74
(dp618
g94
g95
ssg83
g612
sg76
(lp619
g432
asbag69
(g90
g71
NtRp620
(dp621
g74
(dp622
g101
g102
ssg83
g612
sg76
(lp623
S':'
asbag69
(g90
g71
NtRp624
(dp625
g74
(dp626
sg83
g612
sg76
(lp627
g69
(g70
g71
NtRp628
(dp629
g74
(dp630
g82
I3
ssg83
g624
sg76
(lp631
S''
asbasbasbag69
(g85
g71
NtRp632
(dp633
g74
(dp634
sg83
g488
sg76
(lp635
g69
(g90
g71
NtRp636
(dp637
g74
(dp638
g94
g95
ssg83
g632
sg76
(lp639
g453
asbag69
(g90
g71
NtRp640
(dp641
g74
(dp642
g101
g102
ssg83
g632
sg76
(lp643
S':'
asbag69
(g90
g71
NtRp644
(dp645
g74
(dp646
sg83
g632
sg76
(lp647
g69
(g70
g71
NtRp648
(dp649
g74
(dp650
g82
I3
ssg83
g644
sg76
(lp651
S''
asbasbasbasbasbasbasbag69
(g85
g71
NtRp652
(dp653
g74
(dp654
sg83
g268
sg76
(lp655
g69
(g90
g71
NtRp656
(dp657
g74
(dp658
g94
g95
ssg83
g652
sg76
(lp659
S'session_id_home'
p660
asbag69
(g90
g71
NtRp661
(dp662
g74
(dp663
g101
g102
ssg83
g652
sg76
(lp664
S':'
asbag69
(g90
g71
NtRp665
(dp666
g74
(dp667
sg83
g652
sg76
(lp668
g69
(g70
g71
NtRp669
(dp670
g74
(dp671
g82
I4
ssg83
g665
sg76
(lp672
S'127.0.0.1-c729d278-1eb3-4f14-837c-7fb9c9f5e39b'
p673
ag69
(g78
g71
NtRp674
(dp675
g74
(dp676
g82
I3
ssg83
Nsg76
(lp677
g69
(g85
g71
NtRp678
(dp679
g74
(dp680
sg83
g674
sg76
(lp681
g69
(g90
g71
NtRp682
(dp683
g74
(dp684
g94
g95
ssg83
g678
sg76
(lp685
g306
asbag69
(g90
g71
NtRp686
(dp687
g74
(dp688
g101
g102
ssg83
g678
sg76
(lp689
S':'
asbag69
(g90
g71
NtRp690
(dp691
g74
(dp692
sg83
g678
sg76
(lp693
g69
(g70
g71
NtRp694
(dp695
g74
(dp696
g82
I3
ssg83
g690
sg76
(lp697
S''
asbasbasbag69
(g85
g71
NtRp698
(dp699
g74
(dp700
sg83
g674
sg76
(lp701
g69
(g90
g71
NtRp702
(dp703
g74
(dp704
g94
g95
ssg83
g698
sg76
(lp705
g327
asbag69
(g90
g71
NtRp706
(dp707
g74
(dp708
g101
g102
ssg83
g698
sg76
(lp709
S':'
asbag69
(g90
g71
NtRp710
(dp711
g74
(dp712
sg83
g698
sg76
(lp713
g69
(g70
g71
NtRp714
(dp715
g74
(dp716
g82
I3
ssg83
g710
sg76
(lp717
S''
asbasbasbag69
(g85
g71
NtRp718
(dp719
g74
(dp720
sg83
g674
sg76
(lp721
g69
(g90
g71
NtRp722
(dp723
g74
(dp724
g94
g95
ssg83
g718
sg76
(lp725
g348
asbag69
(g90
g71
NtRp726
(dp727
g74
(dp728
g101
g102
ssg83
g718
sg76
(lp729
S':'
asbag69
(g90
g71
NtRp730
(dp731
g74
(dp732
sg83
g718
sg76
(lp733
g69
(g70
g71
NtRp734
(dp735
g74
(dp736
g82
I3
ssg83
g730
sg76
(lp737
S''
asbasbasbag69
(g85
g71
NtRp738
(dp739
g74
(dp740
sg83
g674
sg76
(lp741
g69
(g90
g71
NtRp742
(dp743
g74
(dp744
g94
g95
ssg83
g738
sg76
(lp745
g369
asbag69
(g90
g71
NtRp746
(dp747
g74
(dp748
g101
g102
ssg83
g738
sg76
(lp749
S':'
asbag69
(g90
g71
NtRp750
(dp751
g74
(dp752
sg83
g738
sg76
(lp753
g69
(g70
g71
NtRp754
(dp755
g74
(dp756
g82
I3
ssg83
g750
sg76
(lp757
S''
asbasbasbag69
(g85
g71
NtRp758
(dp759
g74
(dp760
sg83
g674
sg76
(lp761
g69
(g90
g71
NtRp762
(dp763
g74
(dp764
g94
g95
ssg83
g758
sg76
(lp765
g390
asbag69
(g90
g71
NtRp766
(dp767
g74
(dp768
g101
g102
ssg83
g758
sg76
(lp769
S':'
asbag69
(g90
g71
NtRp770
(dp771
g74
(dp772
sg83
g758
sg76
(lp773
g69
(g70
g71
NtRp774
(dp775
g74
(dp776
g82
I3
ssg83
g770
sg76
(lp777
S''
asbasbasbag69
(g85
g71
NtRp778
(dp779
g74
(dp780
sg83
g674
sg76
(lp781
g69
(g90
g71
NtRp782
(dp783
g74
(dp784
g94
g95
ssg83
g778
sg76
(lp785
g411
asbag69
(g90
g71
NtRp786
(dp787
g74
(dp788
g101
g102
ssg83
g778
sg76
(lp789
S':'
asbag69
(g90
g71
NtRp790
(dp791
g74
(dp792
sg83
g778
sg76
(lp793
g69
(g70
g71
NtRp794
(dp795
g74
(dp796
g82
I3
ssg83
g790
sg76
(lp797
S''
asbasbasbag69
(g85
g71
NtRp798
(dp799
g74
(dp800
sg83
g674
sg76
(lp801
g69
(g90
g71
NtRp802
(dp803
g74
(dp804
g94
g95
ssg83
g798
sg76
(lp805
g432
asbag69
(g90
g71
NtRp806
(dp807
g74
(dp808
g101
g102
ssg83
g798
sg76
(lp809
S':'
asbag69
(g90
g71
NtRp810
(dp811
g74
(dp812
sg83
g798
sg76
(lp813
g69
(g70
g71
NtRp814
(dp815
g74
(dp816
g82
I3
ssg83
g810
sg76
(lp817
S''
asbasbasbag69
(g85
g71
NtRp818
(dp819
g74
(dp820
sg83
g674
sg76
(lp821
g69
(g90
g71
NtRp822
(dp823
g74
(dp824
g94
g95
ssg83
g818
sg76
(lp825
g453
asbag69
(g90
g71
NtRp826
(dp827
g74
(dp828
g101
g102
ssg83
g818
sg76
(lp829
S':'
asbag69
(g90
g71
NtRp830
(dp831
g74
(dp832
sg83
g818
sg76
(lp833
g69
(g70
g71
NtRp834
(dp835
g74
(dp836
g82
I3
ssg83
g830
sg76
(lp837
S''
asbasbasbasbasbasbasbag69
(g85
g71
NtRp838
(dp839
g74
(dp840
sg83
g268
sg76
(lp841
g69
(g90
g71
NtRp842
(dp843
g74
(dp844
g94
g95
ssg83
g838
sg76
(lp845
S'session_id_myapp'
p846
asbag69
(g90
g71
NtRp847
(dp848
g74
(dp849
g101
g102
ssg83
g838
sg76
(lp850
S':'
asbag69
(g90
g71
NtRp851
(dp852
g74
(dp853
sg83
g838
sg76
(lp854
g69
(g70
g71
NtRp855
(dp856
g74
(dp857
g82
I4
ssg83
g851
sg76
(lp858
S'127.0.0.1-c99b0081-e7aa-49e2-aea8-026f8113fd00'
p859
ag69
(g78
g71
NtRp860
(dp861
g74
(dp862
g82
I3
ssg83
Nsg76
(lp863
g69
(g85
g71
NtRp864
(dp865
g74
(dp866
sg83
g860
sg76
(lp867
g69
(g90
g71
NtRp868
(dp869
g74
(dp870
g94
g95
ssg83
g864
sg76
(lp871
g306
asbag69
(g90
g71
NtRp872
(dp873
g74
(dp874
g101
g102
ssg83
g864
sg76
(lp875
S':'
asbag69
(g90
g71
NtRp876
(dp877
g74
(dp878
sg83
g864
sg76
(lp879
g69
(g70
g71
NtRp880
(dp881
g74
(dp882
g82
I3
ssg83
g876
sg76
(lp883
S''
asbasbasbag69
(g85
g71
NtRp884
(dp885
g74
(dp886
sg83
g860
sg76
(lp887
g69
(g90
g71
NtRp888
(dp889
g74
(dp890
g94
g95
ssg83
g884
sg76
(lp891
g327
asbag69
(g90
g71
NtRp892
(dp893
g74
(dp894
g101
g102
ssg83
g884
sg76
(lp895
S':'
asbag69
(g90
g71
NtRp896
(dp897
g74
(dp898
sg83
g884
sg76
(lp899
g69
(g70
g71
NtRp900
(dp901
g74
(dp902
g82
I3
ssg83
g896
sg76
(lp903
S''
asbasbasbag69
(g85
g71
NtRp904
(dp905
g74
(dp906
sg83
g860
sg76
(lp907
g69
(g90
g71
NtRp908
(dp909
g74
(dp910
g94
g95
ssg83
g904
sg76
(lp911
g348
asbag69
(g90
g71
NtRp912
(dp913
g74
(dp914
g101
g102
ssg83
g904
sg76
(lp915
S':'
asbag69
(g90
g71
NtRp916
(dp917
g74
(dp918
sg83
g904
sg76
(lp919
g69
(g70
g71
NtRp920
(dp921
g74
(dp922
g82
I3
ssg83
g916
sg76
(lp923
S''
asbasbasbag69
(g85
g71
NtRp924
(dp925
g74
(dp926
sg83
g860
sg76
(lp927
g69
(g90
g71
NtRp928
(dp929
g74
(dp930
g94
g95
ssg83
g924
sg76
(lp931
g369
asbag69
(g90
g71
NtRp932
(dp933
g74
(dp934
g101
g102
ssg83
g924
sg76
(lp935
S':'
asbag69
(g90
g71
NtRp936
(dp937
g74
(dp938
sg83
g924
sg76
(lp939
g69
(g70
g71
NtRp940
(dp941
g74
(dp942
g82
I3
ssg83
g936
sg76
(lp943
S''
asbasbasbag69
(g85
g71
NtRp944
(dp945
g74
(dp946
sg83
g860
sg76
(lp947
g69
(g90
g71
NtRp948
(dp949
g74
(dp950
g94
g95
ssg83
g944
sg76
(lp951
g390
asbag69
(g90
g71
NtRp952
(dp953
g74
(dp954
g101
g102
ssg83
g944
sg76
(lp955
S':'
asbag69
(g90
g71
NtRp956
(dp957
g74
(dp958
sg83
g944
sg76
(lp959
g69
(g70
g71
NtRp960
(dp961
g74
(dp962
g82
I3
ssg83
g956
sg76
(lp963
S''
asbasbasbag69
(g85
g71
NtRp964
(dp965
g74
(dp966
sg83
g860
sg76
(lp967
g69
(g90
g71
NtRp968
(dp969
g74
(dp970
g94
g95
ssg83
g964
sg76
(lp971
g411
asbag69
(g90
g71
NtRp972
(dp973
g74
(dp974
g101
g102
ssg83
g964
sg76
(lp975
S':'
asbag69
(g90
g71
NtRp976
(dp977
g74
(dp978
sg83
g964
sg76
(lp979
g69
(g70
g71
NtRp980
(dp981
g74
(dp982
g82
I3
ssg83
g976
sg76
(lp983
S''
asbasbasbag69
(g85
g71
NtRp984
(dp985
g74
(dp986
sg83
g860
sg76
(lp987
g69
(g90
g71
NtRp988
(dp989
g74
(dp990
g94
g95
ssg83
g984
sg76
(lp991
g432
asbag69
(g90
g71
NtRp992
(dp993
g74
(dp994
g101
g102
ssg83
g984
sg76
(lp995
S':'
asbag69
(g90
g71
NtRp996
(dp997
g74
(dp998
sg83
g984
sg76
(lp999
g69
(g70
g71
NtRp1000
(dp1001
g74
(dp1002
g82
I3
ssg83
g996
sg76
(lp1003
S''
asbasbasbag69
(g85
g71
NtRp1004
(dp1005
g74
(dp1006
sg83
g860
sg76
(lp1007
g69
(g90
g71
NtRp1008
(dp1009
g74
(dp1010
g94
g95
ssg83
g1004
sg76
(lp1011
g453
asbag69
(g90
g71
NtRp1012
(dp1013
g74
(dp1014
g101
g102
ssg83
g1004
sg76
(lp1015
S':'
asbag69
(g90
g71
NtRp1016
(dp1017
g74
(dp1018
sg83
g1004
sg76
(lp1019
g69
(g70
g71
NtRp1020
(dp1021
g74
(dp1022
g82
I3
ssg83
g1016
sg76
(lp1023
S''
asbasbasbasbasbasbasbag69
(g85
g71
NtRp1024
(dp1025
g74
(dp1026
sg83
g268
sg76
(lp1027
g69
(g90
g71
NtRp1028
(dp1029
g74
(dp1030
g94
g95
ssg83
g1024
sg76
(lp1031
S'session_id_projeto'
p1032
asbag69
(g90
g71
NtRp1033
(dp1034
g74
(dp1035
g101
g102
ssg83
g1024
sg76
(lp1036
S':'
asbag69
(g90
g71
NtRp1037
(dp1038
g74
(dp1039
sg83
g1024
sg76
(lp1040
g69
(g70
g71
NtRp1041
(dp1042
g74
(dp1043
g82
I4
ssg83
g1037
sg76
(lp1044
S'127.0.0.1-18527971-1df2-4c1d-9da6-3d7a58f07f33'
p1045
ag69
(g78
g71
NtRp1046
(dp1047
g74
(dp1048
g82
I3
ssg83
Nsg76
(lp1049
g69
(g85
g71
NtRp1050
(dp1051
g74
(dp1052
sg83
g1046
sg76
(lp1053
g69
(g90
g71
NtRp1054
(dp1055
g74
(dp1056
g94
g95
ssg83
g1050
sg76
(lp1057
g306
asbag69
(g90
g71
NtRp1058
(dp1059
g74
(dp1060
g101
g102
ssg83
g1050
sg76
(lp1061
S':'
asbag69
(g90
g71
NtRp1062
(dp1063
g74
(dp1064
sg83
g1050
sg76
(lp1065
g69
(g70
g71
NtRp1066
(dp1067
g74
(dp1068
g82
I3
ssg83
g1062
sg76
(lp1069
S''
asbasbasbag69
(g85
g71
NtRp1070
(dp1071
g74
(dp1072
sg83
g1046
sg76
(lp1073
g69
(g90
g71
NtRp1074
(dp1075
g74
(dp1076
g94
g95
ssg83
g1070
sg76
(lp1077
g327
asbag69
(g90
g71
NtRp1078
(dp1079
g74
(dp1080
g101
g102
ssg83
g1070
sg76
(lp1081
S':'
asbag69
(g90
g71
NtRp1082
(dp1083
g74
(dp1084
sg83
g1070
sg76
(lp1085
g69
(g70
g71
NtRp1086
(dp1087
g74
(dp1088
g82
I3
ssg83
g1082
sg76
(lp1089
S''
asbasbasbag69
(g85
g71
NtRp1090
(dp1091
g74
(dp1092
sg83
g1046
sg76
(lp1093
g69
(g90
g71
NtRp1094
(dp1095
g74
(dp1096
g94
g95
ssg83
g1090
sg76
(lp1097
g348
asbag69
(g90
g71
NtRp1098
(dp1099
g74
(dp1100
g101
g102
ssg83
g1090
sg76
(lp1101
S':'
asbag69
(g90
g71
NtRp1102
(dp1103
g74
(dp1104
sg83
g1090
sg76
(lp1105
g69
(g70
g71
NtRp1106
(dp1107
g74
(dp1108
g82
I3
ssg83
g1102
sg76
(lp1109
S''
asbasbasbag69
(g85
g71
NtRp1110
(dp1111
g74
(dp1112
sg83
g1046
sg76
(lp1113
g69
(g90
g71
NtRp1114
(dp1115
g74
(dp1116
g94
g95
ssg83
g1110
sg76
(lp1117
g369
asbag69
(g90
g71
NtRp1118
(dp1119
g74
(dp1120
g101
g102
ssg83
g1110
sg76
(lp1121
S':'
asbag69
(g90
g71
NtRp1122
(dp1123
g74
(dp1124
sg83
g1110
sg76
(lp1125
g69
(g70
g71
NtRp1126
(dp1127
g74
(dp1128
g82
I3
ssg83
g1122
sg76
(lp1129
S''
asbasbasbag69
(g85
g71
NtRp1130
(dp1131
g74
(dp1132
sg83
g1046
sg76
(lp1133
g69
(g90
g71
NtRp1134
(dp1135
g74
(dp1136
g94
g95
ssg83
g1130
sg76
(lp1137
g390
asbag69
(g90
g71
NtRp1138
(dp1139
g74
(dp1140
g101
g102
ssg83
g1130
sg76
(lp1141
S':'
asbag69
(g90
g71
NtRp1142
(dp1143
g74
(dp1144
sg83
g1130
sg76
(lp1145
g69
(g70
g71
NtRp1146
(dp1147
g74
(dp1148
g82
I3
ssg83
g1142
sg76
(lp1149
S''
asbasbasbag69
(g85
g71
NtRp1150
(dp1151
g74
(dp1152
sg83
g1046
sg76
(lp1153
g69
(g90
g71
NtRp1154
(dp1155
g74
(dp1156
g94
g95
ssg83
g1150
sg76
(lp1157
g411
asbag69
(g90
g71
NtRp1158
(dp1159
g74
(dp1160
g101
g102
ssg83
g1150
sg76
(lp1161
S':'
asbag69
(g90
g71
NtRp1162
(dp1163
g74
(dp1164
sg83
g1150
sg76
(lp1165
g69
(g70
g71
NtRp1166
(dp1167
g74
(dp1168
g82
I3
ssg83
g1162
sg76
(lp1169
S''
asbasbasbag69
(g85
g71
NtRp1170
(dp1171
g74
(dp1172
sg83
g1046
sg76
(lp1173
g69
(g90
g71
NtRp1174
(dp1175
g74
(dp1176
g94
g95
ssg83
g1170
sg76
(lp1177
g432
asbag69
(g90
g71
NtRp1178
(dp1179
g74
(dp1180
g101
g102
ssg83
g1170
sg76
(lp1181
S':'
asbag69
(g90
g71
NtRp1182
(dp1183
g74
(dp1184
sg83
g1170
sg76
(lp1185
g69
(g70
g71
NtRp1186
(dp1187
g74
(dp1188
g82
I3
ssg83
g1182
sg76
(lp1189
S''
asbasbasbag69
(g85
g71
NtRp1190
(dp1191
g74
(dp1192
sg83
g1046
sg76
(lp1193
g69
(g90
g71
NtRp1194
(dp1195
g74
(dp1196
g94
g95
ssg83
g1190
sg76
(lp1197
g453
asbag69
(g90
g71
NtRp1198
(dp1199
g74
(dp1200
g101
g102
ssg83
g1190
sg76
(lp1201
S':'
asbag69
(g90
g71
NtRp1202
(dp1203
g74
(dp1204
sg83
g1190
sg76
(lp1205
g69
(g70
g71
NtRp1206
(dp1207
g74
(dp1208
g82
I3
ssg83
g1202
sg76
(lp1209
S''
asbasbasbasbasbasbasbag69
(g85
g71
NtRp1210
(dp1211
g74
(dp1212
sg83
g268
sg76
(lp1213
g69
(g90
g71
NtRp1214
(dp1215
g74
(dp1216
g94
g95
ssg83
g1210
sg76
(lp1217
S'session_id_welcome'
p1218
asbag69
(g90
g71
NtRp1219
(dp1220
g74
(dp1221
g101
g102
ssg83
g1210
sg76
(lp1222
S':'
asbag69
(g90
g71
NtRp1223
(dp1224
g74
(dp1225
sg83
g1210
sg76
(lp1226
g69
(g70
g71
NtRp1227
(dp1228
g74
(dp1229
g82
I4
ssg83
g1223
sg76
(lp1230
S'127.0.0.1-afd606de-6ac2-4961-8ee8-48f4b81be3de'
p1231
ag69
(g78
g71
NtRp1232
(dp1233
g74
(dp1234
g82
I3
ssg83
Nsg76
(lp1235
g69
(g85
g71
NtRp1236
(dp1237
g74
(dp1238
sg83
g1232
sg76
(lp1239
g69
(g90
g71
NtRp1240
(dp1241
g74
(dp1242
g94
g95
ssg83
g1236
sg76
(lp1243
g306
asbag69
(g90
g71
NtRp1244
(dp1245
g74
(dp1246
g101
g102
ssg83
g1236
sg76
(lp1247
S':'
asbag69
(g90
g71
NtRp1248
(dp1249
g74
(dp1250
sg83
g1236
sg76
(lp1251
g69
(g70
g71
NtRp1252
(dp1253
g74
(dp1254
g82
I3
ssg83
g1248
sg76
(lp1255
S''
asbasbasbag69
(g85
g71
NtRp1256
(dp1257
g74
(dp1258
sg83
g1232
sg76
(lp1259
g69
(g90
g71
NtRp1260
(dp1261
g74
(dp1262
g94
g95
ssg83
g1256
sg76
(lp1263
g327
asbag69
(g90
g71
NtRp1264
(dp1265
g74
(dp1266
g101
g102
ssg83
g1256
sg76
(lp1267
S':'
asbag69
(g90
g71
NtRp1268
(dp1269
g74
(dp1270
sg83
g1256
sg76
(lp1271
g69
(g70
g71
NtRp1272
(dp1273
g74
(dp1274
g82
I3
ssg83
g1268
sg76
(lp1275
S''
asbasbasbag69
(g85
g71
NtRp1276
(dp1277
g74
(dp1278
sg83
g1232
sg76
(lp1279
g69
(g90
g71
NtRp1280
(dp1281
g74
(dp1282
g94
g95
ssg83
g1276
sg76
(lp1283
g348
asbag69
(g90
g71
NtRp1284
(dp1285
g74
(dp1286
g101
g102
ssg83
g1276
sg76
(lp1287
S':'
asbag69
(g90
g71
NtRp1288
(dp1289
g74
(dp1290
sg83
g1276
sg76
(lp1291
g69
(g70
g71
NtRp1292
(dp1293
g74
(dp1294
g82
I3
ssg83
g1288
sg76
(lp1295
S''
asbasbasbag69
(g85
g71
NtRp1296
(dp1297
g74
(dp1298
sg83
g1232
sg76
(lp1299
g69
(g90
g71
NtRp1300
(dp1301
g74
(dp1302
g94
g95
ssg83
g1296
sg76
(lp1303
g369
asbag69
(g90
g71
NtRp1304
(dp1305
g74
(dp1306
g101
g102
ssg83
g1296
sg76
(lp1307
S':'
asbag69
(g90
g71
NtRp1308
(dp1309
g74
(dp1310
sg83
g1296
sg76
(lp1311
g69
(g70
g71
NtRp1312
(dp1313
g74
(dp1314
g82
I3
ssg83
g1308
sg76
(lp1315
S''
asbasbasbag69
(g85
g71
NtRp1316
(dp1317
g74
(dp1318
sg83
g1232
sg76
(lp1319
g69
(g90
g71
NtRp1320
(dp1321
g74
(dp1322
g94
g95
ssg83
g1316
sg76
(lp1323
g390
asbag69
(g90
g71
NtRp1324
(dp1325
g74
(dp1326
g101
g102
ssg83
g1316
sg76
(lp1327
S':'
asbag69
(g90
g71
NtRp1328
(dp1329
g74
(dp1330
sg83
g1316
sg76
(lp1331
g69
(g70
g71
NtRp1332
(dp1333
g74
(dp1334
g82
I3
ssg83
g1328
sg76
(lp1335
S''
asbasbasbag69
(g85
g71
NtRp1336
(dp1337
g74
(dp1338
sg83
g1232
sg76
(lp1339
g69
(g90
g71
NtRp1340
(dp1341
g74
(dp1342
g94
g95
ssg83
g1336
sg76
(lp1343
g411
asbag69
(g90
g71
NtRp1344
(dp1345
g74
(dp1346
g101
g102
ssg83
g1336
sg76
(lp1347
S':'
asbag69
(g90
g71
NtRp1348
(dp1349
g74
(dp1350
sg83
g1336
sg76
(lp1351
g69
(g70
g71
NtRp1352
(dp1353
g74
(dp1354
g82
I3
ssg83
g1348
sg76
(lp1355
S''
asbasbasbag69
(g85
g71
NtRp1356
(dp1357
g74
(dp1358
sg83
g1232
sg76
(lp1359
g69
(g90
g71
NtRp1360
(dp1361
g74
(dp1362
g94
g95
ssg83
g1356
sg76
(lp1363
g432
asbag69
(g90
g71
NtRp1364
(dp1365
g74
(dp1366
g101
g102
ssg83
g1356
sg76
(lp1367
S':'
asbag69
(g90
g71
NtRp1368
(dp1369
g74
(dp1370
sg83
g1356
sg76
(lp1371
g69
(g70
g71
NtRp1372
(dp1373
g74
(dp1374
g82
I3
ssg83
g1368
sg76
(lp1375
S''
asbasbasbag69
(g85
g71
NtRp1376
(dp1377
g74
(dp1378
sg83
g1232
sg76
(lp1379
g69
(g90
g71
NtRp1380
(dp1381
g74
(dp1382
g94
g95
ssg83
g1376
sg76
(lp1383
g453
asbag69
(g90
g71
NtRp1384
(dp1385
g74
(dp1386
g101
g102
ssg83
g1376
sg76
(lp1387
S':'
asbag69
(g90
g71
NtRp1388
(dp1389
g74
(dp1390
sg83
g1376
sg76
(lp1391
g69
(g70
g71
NtRp1392
(dp1393
g74
(dp1394
g82
I3
ssg83
g1388
sg76
(lp1395
S''
asbasbasbasbasbasbasbasbasbasbasbag69
(g85
g71
NtRp1396
(dp1397
g74
(dp1398
sg83
g79
sg76
(lp1399
g69
(g90
g71
NtRp1400
(dp1401
g74
(dp1402
g94
g95
ssg83
g1396
sg76
(lp1403
S'env'
p1404
asbag69
(g90
g71
NtRp1405
(dp1406
g74
(dp1407
g101
g102
ssg83
g1396
sg76
(lp1408
S':'
asbag69
(g90
g71
NtRp1409
(dp1410
g74
(dp1411
sg83
g1396
sg76
(lp1412
g69
(g70
g71
NtRp1413
(dp1414
g74
(dp1415
g82
I5
ssg83
g1409
sg76
(lp1416
g69
(g78
g71
NtRp1417
(dp1418
g74
(dp1419
g82
I4
ssg83
Nsg76
(lp1420
g69
(g85
g71
NtRp1421
(dp1422
g74
(dp1423
sg83
g1417
sg76
(lp1424
g69
(g90
g71
NtRp1425
(dp1426
g74
(dp1427
g94
g95
ssg83
g1421
sg76
(lp1428
S'app_folders'
p1429
asbag69
(g90
g71
NtRp1430
(dp1431
g74
(dp1432
g101
g102
ssg83
g1421
sg76
(lp1433
S':'
asbag69
(g90
g71
NtRp1434
(dp1435
g74
(dp1436
sg83
g1421
sg76
(lp1437
g69
(g70
g71
NtRp1438
(dp1439
g74
(dp1440
g82
I4
ssg83
g1434
sg76
(lp1441
S"set(['/var/www/web2py_curso/applications/projeto/'])"
p1442
asbasbasbag69
(g85
g71
NtRp1443
(dp1444
g74
(dp1445
sg83
g1417
sg76
(lp1446
g69
(g90
g71
NtRp1447
(dp1448
g74
(dp1449
g94
g95
ssg83
g1443
sg76
(lp1450
S'applications_parent'
p1451
asbag69
(g90
g71
NtRp1452
(dp1453
g74
(dp1454
g101
g102
ssg83
g1443
sg76
(lp1455
S':'
asbag69
(g90
g71
NtRp1456
(dp1457
g74
(dp1458
sg83
g1443
sg76
(lp1459
g69
(g70
g71
NtRp1460
(dp1461
g74
(dp1462
g82
I4
ssg83
g1456
sg76
(lp1463
S'/var/www/web2py_curso'
p1464
asbasbasbag69
(g85
g71
NtRp1465
(dp1466
g74
(dp1467
sg83
g1417
sg76
(lp1468
g69
(g90
g71
NtRp1469
(dp1470
g74
(dp1471
g94
g95
ssg83
g1465
sg76
(lp1472
S'cmd_args'
p1473
asbag69
(g90
g71
NtRp1474
(dp1475
g74
(dp1476
g101
g102
ssg83
g1465
sg76
(lp1477
S':'
asbag69
(g90
g71
NtRp1478
(dp1479
g74
(dp1480
sg83
g1465
sg76
(lp1481
g69
(g70
g71
NtRp1482
(dp1483
g74
(dp1484
g82
I4
ssg83
g1478
sg76
(lp1485
g69
(g78
g71
NtRp1486
(dp1487
g74
(dp1488
g82
I3
ssg83
Nsg76
(lp1489
sbasbasbasbag69
(g85
g71
NtRp1490
(dp1491
g74
(dp1492
sg83
g1417
sg76
(lp1493
g69
(g90
g71
NtRp1494
(dp1495
g74
(dp1496
g94
g95
ssg83
g1490
sg76
(lp1497
S'cmd_options'
p1498
asbag69
(g90
g71
NtRp1499
(dp1500
g74
(dp1501
g101
g102
ssg83
g1490
sg76
(lp1502
S':'
asbag69
(g90
g71
NtRp1503
(dp1504
g74
(dp1505
sg83
g1490
sg76
(lp1506
g69
(g70
g71
NtRp1507
(dp1508
g74
(dp1509
g82
I4
ssg83
g1503
sg76
(lp1510
S"<Values at 0x31033b0: {'verbose': False, 'ip': '127.0.0.1', 'with_scheduler': False, 'ips': [], 'shutdown_timeout': 5, 'taskbar': False, 'port': 8000, 'maxthreads': None, 'softcron': False, 'server_name': 'fernado-desktop', 'bpython': False, 'nogui': False, 'pid_filename': 'httpserver.pid', 'extcron': False, 'runcron': False, 'run_system_tests': False, 'test': None, 'folder': '/var/www/web2py_curso', 'config': '', 'minthreads': None, 'winservice': '', 'shell': None, 'run': '', 'log_filename': 'httpserver.log', 'debuglevel': 30, 'args': [''], 'socket_timeout': 5, 'ssl_ca_certificate': None, 'scheduler': None, 'profiler_filename': None, 'ssl_private_key': '', 'scheduler_groups': None, 'password': '123456', 'request_queue_size': 5, 'ssl_certificate': '', 'cronjob': False, 'numthreads': None, 'quiet': False, 'interfaces': None, 'import_models': False, 'timeout': 10, 'plain': False, 'nobanner': False}>"
p1511
asbasbasbag69
(g85
g71
NtRp1512
(dp1513
g74
(dp1514
sg83
g1417
sg76
(lp1515
g69
(g90
g71
NtRp1516
(dp1517
g74
(dp1518
g94
g95
ssg83
g1512
sg76
(lp1519
S'db_sessions'
p1520
asbag69
(g90
g71
NtRp1521
(dp1522
g74
(dp1523
g101
g102
ssg83
g1512
sg76
(lp1524
S':'
asbag69
(g90
g71
NtRp1525
(dp1526
g74
(dp1527
sg83
g1512
sg76
(lp1528
g69
(g70
g71
NtRp1529
(dp1530
g74
(dp1531
g82
I4
ssg83
g1525
sg76
(lp1532
S'set([])'
p1533
asbasbasbag69
(g85
g71
NtRp1534
(dp1535
g74
(dp1536
sg83
g1417
sg76
(lp1537
g69
(g90
g71
NtRp1538
(dp1539
g74
(dp1540
g94
g95
ssg83
g1534
sg76
(lp1541
S'debugging'
p1542
asbag69
(g90
g71
NtRp1543
(dp1544
g74
(dp1545
g101
g102
ssg83
g1534
sg76
(lp1546
S':'
asbag69
(g90
g71
NtRp1547
(dp1548
g74
(dp1549
sg83
g1534
sg76
(lp1550
g69
(g70
g71
NtRp1551
(dp1552
g74
(dp1553
g82
I4
ssg83
g1547
sg76
(lp1554
g112
asbasbasbag69
(g85
g71
NtRp1555
(dp1556
g74
(dp1557
sg83
g1417
sg76
(lp1558
g69
(g90
g71
NtRp1559
(dp1560
g74
(dp1561
g94
g95
ssg83
g1555
sg76
(lp1562
S'gluon_parent'
p1563
asbag69
(g90
g71
NtRp1564
(dp1565
g74
(dp1566
g101
g102
ssg83
g1555
sg76
(lp1567
S':'
asbag69
(g90
g71
NtRp1568
(dp1569
g74
(dp1570
sg83
g1555
sg76
(lp1571
g69
(g70
g71
NtRp1572
(dp1573
g74
(dp1574
g82
I4
ssg83
g1568
sg76
(lp1575
S'/var/www/web2py_curso'
p1576
asbasbasbag69
(g85
g71
NtRp1577
(dp1578
g74
(dp1579
sg83
g1417
sg76
(lp1580
g69
(g90
g71
NtRp1581
(dp1582
g74
(dp1583
g94
g95
ssg83
g1577
sg76
(lp1584
S'http_accept'
p1585
asbag69
(g90
g71
NtRp1586
(dp1587
g74
(dp1588
g101
g102
ssg83
g1577
sg76
(lp1589
S':'
asbag69
(g90
g71
NtRp1590
(dp1591
g74
(dp1592
sg83
g1577
sg76
(lp1593
g69
(g70
g71
NtRp1594
(dp1595
g74
(dp1596
g82
I4
ssg83
g1590
sg76
(lp1597
S'text/html,application/xhtml+xml,application/xml;q=0.9,*/*;q=0.8'
p1598
asbasbasbag69
(g85
g71
NtRp1599
(dp1600
g74
(dp1601
sg83
g1417
sg76
(lp1602
g69
(g90
g71
NtRp1603
(dp1604
g74
(dp1605
g94
g95
ssg83
g1599
sg76
(lp1606
S'http_accept_charset'
p1607
asbag69
(g90
g71
NtRp1608
(dp1609
g74
(dp1610
g101
g102
ssg83
g1599
sg76
(lp1611
S':'
asbag69
(g90
g71
NtRp1612
(dp1613
g74
(dp1614
sg83
g1599
sg76
(lp1615
g69
(g70
g71
NtRp1616
(dp1617
g74
(dp1618
g82
I4
ssg83
g1612
sg76
(lp1619
S'ISO-8859-1,utf-8;q=0.7,*;q=0.3'
p1620
asbasbasbag69
(g85
g71
NtRp1621
(dp1622
g74
(dp1623
sg83
g1417
sg76
(lp1624
g69
(g90
g71
NtRp1625
(dp1626
g74
(dp1627
g94
g95
ssg83
g1621
sg76
(lp1628
S'http_accept_encoding'
p1629
asbag69
(g90
g71
NtRp1630
(dp1631
g74
(dp1632
g101
g102
ssg83
g1621
sg76
(lp1633
S':'
asbag69
(g90
g71
NtRp1634
(dp1635
g74
(dp1636
sg83
g1621
sg76
(lp1637
g69
(g70
g71
NtRp1638
(dp1639
g74
(dp1640
g82
I4
ssg83
g1634
sg76
(lp1641
S'gzip,deflate,sdch'
p1642
asbasbasbag69
(g85
g71
NtRp1643
(dp1644
g74
(dp1645
sg83
g1417
sg76
(lp1646
g69
(g90
g71
NtRp1647
(dp1648
g74
(dp1649
g94
g95
ssg83
g1643
sg76
(lp1650
S'http_accept_language'
p1651
asbag69
(g90
g71
NtRp1652
(dp1653
g74
(dp1654
g101
g102
ssg83
g1643
sg76
(lp1655
S':'
asbag69
(g90
g71
NtRp1656
(dp1657
g74
(dp1658
sg83
g1643
sg76
(lp1659
g69
(g70
g71
NtRp1660
(dp1661
g74
(dp1662
g82
I4
ssg83
g1656
sg76
(lp1663
S'pt-BR,pt;q=0.8,en-US;q=0.6,en;q=0.4'
p1664
asbasbasbag69
(g85
g71
NtRp1665
(dp1666
g74
(dp1667
sg83
g1417
sg76
(lp1668
g69
(g90
g71
NtRp1669
(dp1670
g74
(dp1671
g94
g95
ssg83
g1665
sg76
(lp1672
S'http_cache_control'
p1673
asbag69
(g90
g71
NtRp1674
(dp1675
g74
(dp1676
g101
g102
ssg83
g1665
sg76
(lp1677
S':'
asbag69
(g90
g71
NtRp1678
(dp1679
g74
(dp1680
sg83
g1665
sg76
(lp1681
g69
(g70
g71
NtRp1682
(dp1683
g74
(dp1684
g82
I4
ssg83
g1678
sg76
(lp1685
S'max-age=0'
p1686
asbasbasbag69
(g85
g71
NtRp1687
(dp1688
g74
(dp1689
sg83
g1417
sg76
(lp1690
g69
(g90
g71
NtRp1691
(dp1692
g74
(dp1693
g94
g95
ssg83
g1687
sg76
(lp1694
S'http_connection'
p1695
asbag69
(g90
g71
NtRp1696
(dp1697
g74
(dp1698
g101
g102
ssg83
g1687
sg76
(lp1699
S':'
asbag69
(g90
g71
NtRp1700
(dp1701
g74
(dp1702
sg83
g1687
sg76
(lp1703
g69
(g70
g71
NtRp1704
(dp1705
g74
(dp1706
g82
I4
ssg83
g1700
sg76
(lp1707
S'keep-alive'
p1708
asbasbasbag69
(g85
g71
NtRp1709
(dp1710
g74
(dp1711
sg83
g1417
sg76
(lp1712
g69
(g90
g71
NtRp1713
(dp1714
g74
(dp1715
g94
g95
ssg83
g1709
sg76
(lp1716
S'http_cookie'
p1717
asbag69
(g90
g71
NtRp1718
(dp1719
g74
(dp1720
g101
g102
ssg83
g1709
sg76
(lp1721
S':'
asbag69
(g90
g71
NtRp1722
(dp1723
g74
(dp1724
sg83
g1709
sg76
(lp1725
g69
(g70
g71
NtRp1726
(dp1727
g74
(dp1728
g82
I4
ssg83
g1722
sg76
(lp1729
S'session_id_myapp=127.0.0.1-c99b0081-e7aa-49e2-aea8-026f8113fd00; session_id_app1=127.0.0.1-a471a1ee-4015-4648-af73-a55442df0be1; session_id_admin=127.0.0.1-75ca2d58-c3fc-4afe-8196-91c64acc2735; session_id_welcome=127.0.0.1-afd606de-6ac2-4961-8ee8-48f4b81be3de; session_id_home=127.0.0.1-c729d278-1eb3-4f14-837c-7fb9c9f5e39b; session_id_projeto=127.0.0.1-18527971-1df2-4c1d-9da6-3d7a58f07f33'
p1730
asbasbasbag69
(g85
g71
NtRp1731
(dp1732
g74
(dp1733
sg83
g1417
sg76
(lp1734
g69
(g90
g71
NtRp1735
(dp1736
g74
(dp1737
g94
g95
ssg83
g1731
sg76
(lp1738
S'http_host'
p1739
asbag69
(g90
g71
NtRp1740
(dp1741
g74
(dp1742
g101
g102
ssg83
g1731
sg76
(lp1743
S':'
asbag69
(g90
g71
NtRp1744
(dp1745
g74
(dp1746
sg83
g1731
sg76
(lp1747
g69
(g70
g71
NtRp1748
(dp1749
g74
(dp1750
g82
I4
ssg83
g1744
sg76
(lp1751
S'127.0.0.1:8000'
p1752
asbasbasbag69
(g85
g71
NtRp1753
(dp1754
g74
(dp1755
sg83
g1417
sg76
(lp1756
g69
(g90
g71
NtRp1757
(dp1758
g74
(dp1759
g94
g95
ssg83
g1753
sg76
(lp1760
S'http_user_agent'
p1761
asbag69
(g90
g71
NtRp1762
(dp1763
g74
(dp1764
g101
g102
ssg83
g1753
sg76
(lp1765
S':'
asbag69
(g90
g71
NtRp1766
(dp1767
g74
(dp1768
sg83
g1753
sg76
(lp1769
g69
(g70
g71
NtRp1770
(dp1771
g74
(dp1772
g82
I4
ssg83
g1766
sg76
(lp1773
S'Mozilla/5.0 (X11; Linux x86_64) AppleWebKit/537.4 (KHTML, like Gecko) Ubuntu/12.10 Chromium/22.0.1229.94 Chrome/22.0.1229.94 Safari/537.4'
p1774
asbasbasbag69
(g85
g71
NtRp1775
(dp1776
g74
(dp1777
sg83
g1417
sg76
(lp1778
g69
(g90
g71
NtRp1779
(dp1780
g74
(dp1781
g94
g95
ssg83
g1775
sg76
(lp1782
S'is_jython'
p1783
asbag69
(g90
g71
NtRp1784
(dp1785
g74
(dp1786
g101
g102
ssg83
g1775
sg76
(lp1787
S':'
asbag69
(g90
g71
NtRp1788
(dp1789
g74
(dp1790
sg83
g1775
sg76
(lp1791
g69
(g70
g71
NtRp1792
(dp1793
g74
(dp1794
g82
I4
ssg83
g1788
sg76
(lp1795
g112
asbasbasbag69
(g85
g71
NtRp1796
(dp1797
g74
(dp1798
sg83
g1417
sg76
(lp1799
g69
(g90
g71
NtRp1800
(dp1801
g74
(dp1802
g94
g95
ssg83
g1796
sg76
(lp1803
S'is_pypy'
p1804
asbag69
(g90
g71
NtRp1805
(dp1806
g74
(dp1807
g101
g102
ssg83
g1796
sg76
(lp1808
S':'
asbag69
(g90
g71
NtRp1809
(dp1810
g74
(dp1811
sg83
g1796
sg76
(lp1812
g69
(g70
g71
NtRp1813
(dp1814
g74
(dp1815
g82
I4
ssg83
g1809
sg76
(lp1816
g112
asbasbasbag69
(g85
g71
NtRp1817
(dp1818
g74
(dp1819
sg83
g1417
sg76
(lp1820
g69
(g90
g71
NtRp1821
(dp1822
g74
(dp1823
g94
g95
ssg83
g1817
sg76
(lp1824
S'local_hosts'
p1825
asbag69
(g90
g71
NtRp1826
(dp1827
g74
(dp1828
g101
g102
ssg83
g1817
sg76
(lp1829
S':'
asbag69
(g90
g71
NtRp1830
(dp1831
g74
(dp1832
sg83
g1817
sg76
(lp1833
g69
(g70
g71
NtRp1834
(dp1835
g74
(dp1836
g82
I4
ssg83
g1830
sg76
(lp1837
g69
(g78
g71
NtRp1838
(dp1839
g74
(dp1840
g82
I3
ssg83
Nsg76
(lp1841
g69
(g85
g71
NtRp1842
(dp1843
g74
(dp1844
sg83
g1838
sg76
(lp1845
g69
(g90
g71
NtRp1846
(dp1847
g74
(dp1848
sg83
g1842
sg76
(lp1849
g69
(g70
g71
NtRp1850
(dp1851
g74
(dp1852
g82
I3
ssg83
g1846
sg76
(lp1853
S'127.0.1.1'
p1854
asbasbasbag69
(g85
g71
NtRp1855
(dp1856
g74
(dp1857
sg83
g1838
sg76
(lp1858
g69
(g90
g71
NtRp1859
(dp1860
g74
(dp1861
sg83
g1855
sg76
(lp1862
g69
(g70
g71
NtRp1863
(dp1864
g74
(dp1865
g82
I3
ssg83
g1859
sg76
(lp1866
S'::1'
p1867
asbasbasbag69
(g85
g71
NtRp1868
(dp1869
g74
(dp1870
sg83
g1838
sg76
(lp1871
g69
(g90
g71
NtRp1872
(dp1873
g74
(dp1874
sg83
g1868
sg76
(lp1875
g69
(g70
g71
NtRp1876
(dp1877
g74
(dp1878
g82
I3
ssg83
g1872
sg76
(lp1879
S'fernado-desktop'
p1880
asbasbasbag69
(g85
g71
NtRp1881
(dp1882
g74
(dp1883
sg83
g1838
sg76
(lp1884
g69
(g90
g71
NtRp1885
(dp1886
g74
(dp1887
sg83
g1881
sg76
(lp1888
g69
(g70
g71
NtRp1889
(dp1890
g74
(dp1891
g82
I3
ssg83
g1885
sg76
(lp1892
S'::ffff:127.0.0.1'
p1893
asbasbasbag69
(g85
g71
NtRp1894
(dp1895
g74
(dp1896
sg83
g1838
sg76
(lp1897
g69
(g90
g71
NtRp1898
(dp1899
g74
(dp1900
sg83
g1894
sg76
(lp1901
g69
(g70
g71
NtRp1902
(dp1903
g74
(dp1904
g82
I3
ssg83
g1898
sg76
(lp1905
S'127.0.0.1'
p1906
asbasbasbasbasbasbasbag69
(g85
g71
NtRp1907
(dp1908
g74
(dp1909
sg83
g1417
sg76
(lp1910
g69
(g90
g71
NtRp1911
(dp1912
g74
(dp1913
g94
g95
ssg83
g1907
sg76
(lp1914
S'path_info'
p1915
asbag69
(g90
g71
NtRp1916
(dp1917
g74
(dp1918
g101
g102
ssg83
g1907
sg76
(lp1919
S':'
asbag69
(g90
g71
NtRp1920
(dp1921
g74
(dp1922
sg83
g1907
sg76
(lp1923
g69
(g70
g71
NtRp1924
(dp1925
g74
(dp1926
g82
I4
ssg83
g1920
sg76
(lp1927
S'/show_cliente'
p1928
asbasbasbag69
(g85
g71
NtRp1929
(dp1930
g74
(dp1931
sg83
g1417
sg76
(lp1932
g69
(g90
g71
NtRp1933
(dp1934
g74
(dp1935
g94
g95
ssg83
g1929
sg76
(lp1936
S'query_string'
p1937
asbag69
(g90
g71
NtRp1938
(dp1939
g74
(dp1940
g101
g102
ssg83
g1929
sg76
(lp1941
S':'
asbag69
(g90
g71
NtRp1942
(dp1943
g74
(dp1944
sg83
g1929
sg76
(lp1945
g69
(g70
g71
NtRp1946
(dp1947
g74
(dp1948
g82
I4
ssg83
g1942
sg76
(lp1949
S'_signature=98af6b627d350ccba3c4541226578ad961a78761'
p1950
asbasbasbag69
(g85
g71
NtRp1951
(dp1952
g74
(dp1953
sg83
g1417
sg76
(lp1954
g69
(g90
g71
NtRp1955
(dp1956
g74
(dp1957
g94
g95
ssg83
g1951
sg76
(lp1958
S'remote_addr'
p1959
asbag69
(g90
g71
NtRp1960
(dp1961
g74
(dp1962
g101
g102
ssg83
g1951
sg76
(lp1963
S':'
asbag69
(g90
g71
NtRp1964
(dp1965
g74
(dp1966
sg83
g1951
sg76
(lp1967
g69
(g70
g71
NtRp1968
(dp1969
g74
(dp1970
g82
I4
ssg83
g1964
sg76
(lp1971
g224
asbasbasbag69
(g85
g71
NtRp1972
(dp1973
g74
(dp1974
sg83
g1417
sg76
(lp1975
g69
(g90
g71
NtRp1976
(dp1977
g74
(dp1978
g94
g95
ssg83
g1972
sg76
(lp1979
S'remote_port'
p1980
asbag69
(g90
g71
NtRp1981
(dp1982
g74
(dp1983
g101
g102
ssg83
g1972
sg76
(lp1984
S':'
asbag69
(g90
g71
NtRp1985
(dp1986
g74
(dp1987
sg83
g1972
sg76
(lp1988
g69
(g70
g71
NtRp1989
(dp1990
g74
(dp1991
g82
I4
ssg83
g1985
sg76
(lp1992
S'47119'
p1993
asbasbasbag69
(g85
g71
NtRp1994
(dp1995
g74
(dp1996
sg83
g1417
sg76
(lp1997
g69
(g90
g71
NtRp1998
(dp1999
g74
(dp2000
g94
g95
ssg83
g1994
sg76
(lp2001
S'request_method'
p2002
asbag69
(g90
g71
NtRp2003
(dp2004
g74
(dp2005
g101
g102
ssg83
g1994
sg76
(lp2006
S':'
asbag69
(g90
g71
NtRp2007
(dp2008
g74
(dp2009
sg83
g1994
sg76
(lp2010
g69
(g70
g71
NtRp2011
(dp2012
g74
(dp2013
g82
I4
ssg83
g2007
sg76
(lp2014
S'GET'
p2015
asbasbasbag69
(g85
g71
NtRp2016
(dp2017
g74
(dp2018
sg83
g1417
sg76
(lp2019
g69
(g90
g71
NtRp2020
(dp2021
g74
(dp2022
g94
g95
ssg83
g2016
sg76
(lp2023
S'request_uri'
p2024
asbag69
(g90
g71
NtRp2025
(dp2026
g74
(dp2027
g101
g102
ssg83
g2016
sg76
(lp2028
S':'
asbag69
(g90
g71
NtRp2029
(dp2030
g74
(dp2031
sg83
g2016
sg76
(lp2032
g69
(g70
g71
NtRp2033
(dp2034
g74
(dp2035
g82
I4
ssg83
g2029
sg76
(lp2036
S'/projeto/initial/show_cliente?_signature=98af6b627d350ccba3c4541226578ad961a78761'
p2037
asbasbasbag69
(g85
g71
NtRp2038
(dp2039
g74
(dp2040
sg83
g1417
sg76
(lp2041
g69
(g90
g71
NtRp2042
(dp2043
g74
(dp2044
g94
g95
ssg83
g2038
sg76
(lp2045
S'script_name'
p2046
asbag69
(g90
g71
NtRp2047
(dp2048
g74
(dp2049
g101
g102
ssg83
g2038
sg76
(lp2050
S':'
asbag69
(g90
g71
NtRp2051
(dp2052
g74
(dp2053
sg83
g2038
sg76
(lp2054
g69
(g70
g71
NtRp2055
(dp2056
g74
(dp2057
g82
I4
ssg83
g2051
sg76
(lp2058
S''
asbasbasbag69
(g85
g71
NtRp2059
(dp2060
g74
(dp2061
sg83
g1417
sg76
(lp2062
g69
(g90
g71
NtRp2063
(dp2064
g74
(dp2065
g94
g95
ssg83
g2059
sg76
(lp2066
S'server_name'
p2067
asbag69
(g90
g71
NtRp2068
(dp2069
g74
(dp2070
g101
g102
ssg83
g2059
sg76
(lp2071
S':'
asbag69
(g90
g71
NtRp2072
(dp2073
g74
(dp2074
sg83
g2059
sg76
(lp2075
g69
(g70
g71
NtRp2076
(dp2077
g74
(dp2078
g82
I4
ssg83
g2072
sg76
(lp2079
S'fernado-desktop'
p2080
asbasbasbag69
(g85
g71
NtRp2081
(dp2082
g74
(dp2083
sg83
g1417
sg76
(lp2084
g69
(g90
g71
NtRp2085
(dp2086
g74
(dp2087
g94
g95
ssg83
g2081
sg76
(lp2088
S'server_port'
p2089
asbag69
(g90
g71
NtRp2090
(dp2091
g74
(dp2092
g101
g102
ssg83
g2081
sg76
(lp2093
S':'
asbag69
(g90
g71
NtRp2094
(dp2095
g74
(dp2096
sg83
g2081
sg76
(lp2097
g69
(g70
g71
NtRp2098
(dp2099
g74
(dp2100
g82
I4
ssg83
g2094
sg76
(lp2101
S'8000'
p2102
asbasbasbag69
(g85
g71
NtRp2103
(dp2104
g74
(dp2105
sg83
g1417
sg76
(lp2106
g69
(g90
g71
NtRp2107
(dp2108
g74
(dp2109
g94
g95
ssg83
g2103
sg76
(lp2110
S'server_protocol'
p2111
asbag69
(g90
g71
NtRp2112
(dp2113
g74
(dp2114
g101
g102
ssg83
g2103
sg76
(lp2115
S':'
asbag69
(g90
g71
NtRp2116
(dp2117
g74
(dp2118
sg83
g2103
sg76
(lp2119
g69
(g70
g71
NtRp2120
(dp2121
g74
(dp2122
g82
I4
ssg83
g2116
sg76
(lp2123
S'HTTP/1.1'
p2124
asbasbasbag69
(g85
g71
NtRp2125
(dp2126
g74
(dp2127
sg83
g1417
sg76
(lp2128
g69
(g90
g71
NtRp2129
(dp2130
g74
(dp2131
g94
g95
ssg83
g2125
sg76
(lp2132
S'server_software'
p2133
asbag69
(g90
g71
NtRp2134
(dp2135
g74
(dp2136
g101
g102
ssg83
g2125
sg76
(lp2137
S':'
asbag69
(g90
g71
NtRp2138
(dp2139
g74
(dp2140
sg83
g2125
sg76
(lp2141
g69
(g70
g71
NtRp2142
(dp2143
g74
(dp2144
g82
I4
ssg83
g2138
sg76
(lp2145
S'Rocket 1.2.6'
p2146
asbasbasbag69
(g85
g71
NtRp2147
(dp2148
g74
(dp2149
sg83
g1417
sg76
(lp2150
g69
(g90
g71
NtRp2151
(dp2152
g74
(dp2153
g94
g95
ssg83
g2147
sg76
(lp2154
S'web2py_original_uri'
p2155
asbag69
(g90
g71
NtRp2156
(dp2157
g74
(dp2158
g101
g102
ssg83
g2147
sg76
(lp2159
S':'
asbag69
(g90
g71
NtRp2160
(dp2161
g74
(dp2162
sg83
g2147
sg76
(lp2163
g69
(g70
g71
NtRp2164
(dp2165
g74
(dp2166
g82
I4
ssg83
g2160
sg76
(lp2167
S'/show_cliente?_signature=98af6b627d350ccba3c4541226578ad961a78761'
p2168
asbasbasbag69
(g85
g71
NtRp2169
(dp2170
g74
(dp2171
sg83
g1417
sg76
(lp2172
g69
(g90
g71
NtRp2173
(dp2174
g74
(dp2175
g94
g95
ssg83
g2169
sg76
(lp2176
S'web2py_path'
p2177
asbag69
(g90
g71
NtRp2178
(dp2179
g74
(dp2180
g101
g102
ssg83
g2169
sg76
(lp2181
S':'
asbag69
(g90
g71
NtRp2182
(dp2183
g74
(dp2184
sg83
g2169
sg76
(lp2185
g69
(g70
g71
NtRp2186
(dp2187
g74
(dp2188
g82
I4
ssg83
g2182
sg76
(lp2189
g1464
asbasbasbag69
(g85
g71
NtRp2190
(dp2191
g74
(dp2192
sg83
g1417
sg76
(lp2193
g69
(g90
g71
NtRp2194
(dp2195
g74
(dp2196
g94
g95
ssg83
g2190
sg76
(lp2197
S'web2py_version'
p2198
asbag69
(g90
g71
NtRp2199
(dp2200
g74
(dp2201
g101
g102
ssg83
g2190
sg76
(lp2202
S':'
asbag69
(g90
g71
NtRp2203
(dp2204
g74
(dp2205
sg83
g2190
sg76
(lp2206
g69
(g70
g71
NtRp2207
(dp2208
g74
(dp2209
g82
I4
ssg83
g2203
sg76
(lp2210
g69
(g78
g71
NtRp2211
(dp2212
g74
(dp2213
g82
I3
ssg83
Nsg76
(lp2214
g69
(g85
g71
NtRp2215
(dp2216
g74
(dp2217
sg83
g2211
sg76
(lp2218
g69
(g90
g71
NtRp2219
(dp2220
g74
(dp2221
sg83
g2215
sg76
(lp2222
g69
(g70
g71
NtRp2223
(dp2224
g74
(dp2225
g82
I3
ssg83
g2219
sg76
(lp2226
S'2'
asbasbasbag69
(g85
g71
NtRp2227
(dp2228
g74
(dp2229
sg83
g2211
sg76
(lp2230
g69
(g90
g71
NtRp2231
(dp2232
g74
(dp2233
sg83
g2227
sg76
(lp2234
g69
(g70
g71
NtRp2235
(dp2236
g74
(dp2237
g82
I3
ssg83
g2231
sg76
(lp2238
S'3'
asbasbasbag69
(g85
g71
NtRp2239
(dp2240
g74
(dp2241
sg83
g2211
sg76
(lp2242
g69
(g90
g71
NtRp2243
(dp2244
g74
(dp2245
sg83
g2239
sg76
(lp2246
g69
(g70
g71
NtRp2247
(dp2248
g74
(dp2249
g82
I3
ssg83
g2243
sg76
(lp2250
S'2'
asbasbasbag69
(g85
g71
NtRp2251
(dp2252
g74
(dp2253
sg83
g2211
sg76
(lp2254
g69
(g90
g71
NtRp2255
(dp2256
g74
(dp2257
sg83
g2251
sg76
(lp2258
g69
(g70
g71
NtRp2259
(dp2260
g74
(dp2261
g82
I3
ssg83
g2255
sg76
(lp2262
S'datetime.datetime(2012, 12, 17, 15, 3, 30)'
p2263
asbasbasbag69
(g85
g71
NtRp2264
(dp2265
g74
(dp2266
sg83
g2211
sg76
(lp2267
g69
(g90
g71
NtRp2268
(dp2269
g74
(dp2270
sg83
g2264
sg76
(lp2271
g69
(g70
g71
NtRp2272
(dp2273
g74
(dp2274
g82
I3
ssg83
g2268
sg76
(lp2275
S'stable'
p2276
asbasbasbasbasbasbasbag69
(g85
g71
NtRp2277
(dp2278
g74
(dp2279
sg83
g1417
sg76
(lp2280
g69
(g90
g71
NtRp2281
(dp2282
g74
(dp2283
g94
g95
ssg83
g2277
sg76
(lp2284
S'wsgi_errors'
p2285
asbag69
(g90
g71
NtRp2286
(dp2287
g74
(dp2288
g101
g102
ssg83
g2277
sg76
(lp2289
S':'
asbag69
(g90
g71
NtRp2290
(dp2291
g74
(dp2292
sg83
g2277
sg76
(lp2293
g69
(g70
g71
NtRp2294
(dp2295
g74
(dp2296
g82
I4
ssg83
g2290
sg76
(lp2297
S"<open file '<stderr>', mode 'w' at 0x7fa62cf8b270>"
p2298
asbasbasbag69
(g85
g71
NtRp2299
(dp2300
g74
(dp2301
sg83
g1417
sg76
(lp2302
g69
(g90
g71
NtRp2303
(dp2304
g74
(dp2305
g94
g95
ssg83
g2299
sg76
(lp2306
S'wsgi_file_wrapper'
p2307
asbag69
(g90
g71
NtRp2308
(dp2309
g74
(dp2310
g101
g102
ssg83
g2299
sg76
(lp2311
S':'
asbag69
(g90
g71
NtRp2312
(dp2313
g74
(dp2314
sg83
g2299
sg76
(lp2315
g69
(g70
g71
NtRp2316
(dp2317
g74
(dp2318
g82
I4
ssg83
g2312
sg76
(lp2319
S'<class wsgiref.util.FileWrapper at 0x3058a10>'
p2320
asbasbasbag69
(g85
g71
NtRp2321
(dp2322
g74
(dp2323
sg83
g1417
sg76
(lp2324
g69
(g90
g71
NtRp2325
(dp2326
g74
(dp2327
g94
g95
ssg83
g2321
sg76
(lp2328
S'wsgi_input'
p2329
asbag69
(g90
g71
NtRp2330
(dp2331
g74
(dp2332
g101
g102
ssg83
g2321
sg76
(lp2333
S':'
asbag69
(g90
g71
NtRp2334
(dp2335
g74
(dp2336
sg83
g2321
sg76
(lp2337
g69
(g70
g71
NtRp2338
(dp2339
g74
(dp2340
g82
I4
ssg83
g2334
sg76
(lp2341
S'<socket._fileobject object at 0x7fa6100d1050>'
p2342
asbasbasbag69
(g85
g71
NtRp2343
(dp2344
g74
(dp2345
sg83
g1417
sg76
(lp2346
g69
(g90
g71
NtRp2347
(dp2348
g74
(dp2349
g94
g95
ssg83
g2343
sg76
(lp2350
S'wsgi_multiprocess'
p2351
asbag69
(g90
g71
NtRp2352
(dp2353
g74
(dp2354
g101
g102
ssg83
g2343
sg76
(lp2355
S':'
asbag69
(g90
g71
NtRp2356
(dp2357
g74
(dp2358
sg83
g2343
sg76
(lp2359
g69
(g70
g71
NtRp2360
(dp2361
g74
(dp2362
g82
I4
ssg83
g2356
sg76
(lp2363
g112
asbasbasbag69
(g85
g71
NtRp2364
(dp2365
g74
(dp2366
sg83
g1417
sg76
(lp2367
g69
(g90
g71
NtRp2368
(dp2369
g74
(dp2370
g94
g95
ssg83
g2364
sg76
(lp2371
S'wsgi_multithread'
p2372
asbag69
(g90
g71
NtRp2373
(dp2374
g74
(dp2375
g101
g102
ssg83
g2364
sg76
(lp2376
S':'
asbag69
(g90
g71
NtRp2377
(dp2378
g74
(dp2379
sg83
g2364
sg76
(lp2380
g69
(g70
g71
NtRp2381
(dp2382
g74
(dp2383
g82
I4
ssg83
g2377
sg76
(lp2384
S'True'
p2385
asbasbasbag69
(g85
g71
NtRp2386
(dp2387
g74
(dp2388
sg83
g1417
sg76
(lp2389
g69
(g90
g71
NtRp2390
(dp2391
g74
(dp2392
g94
g95
ssg83
g2386
sg76
(lp2393
S'wsgi_run_once'
p2394
asbag69
(g90
g71
NtRp2395
(dp2396
g74
(dp2397
g101
g102
ssg83
g2386
sg76
(lp2398
S':'
asbag69
(g90
g71
NtRp2399
(dp2400
g74
(dp2401
sg83
g2386
sg76
(lp2402
g69
(g70
g71
NtRp2403
(dp2404
g74
(dp2405
g82
I4
ssg83
g2399
sg76
(lp2406
g112
asbasbasbag69
(g85
g71
NtRp2407
(dp2408
g74
(dp2409
sg83
g1417
sg76
(lp2410
g69
(g90
g71
NtRp2411
(dp2412
g74
(dp2413
g94
g95
ssg83
g2407
sg76
(lp2414
S'wsgi_url_scheme'
p2415
asbag69
(g90
g71
NtRp2416
(dp2417
g74
(dp2418
g101
g102
ssg83
g2407
sg76
(lp2419
S':'
asbag69
(g90
g71
NtRp2420
(dp2421
g74
(dp2422
sg83
g2407
sg76
(lp2423
g69
(g70
g71
NtRp2424
(dp2425
g74
(dp2426
g82
I4
ssg83
g2420
sg76
(lp2427
S'http'
p2428
asbasbasbag69
(g85
g71
NtRp2429
(dp2430
g74
(dp2431
sg83
g1417
sg76
(lp2432
g69
(g90
g71
NtRp2433
(dp2434
g74
(dp2435
g94
g95
ssg83
g2429
sg76
(lp2436
S'wsgi_version'
p2437
asbag69
(g90
g71
NtRp2438
(dp2439
g74
(dp2440
g101
g102
ssg83
g2429
sg76
(lp2441
S':'
asbag69
(g90
g71
NtRp2442
(dp2443
g74
(dp2444
sg83
g2429
sg76
(lp2445
g69
(g70
g71
NtRp2446
(dp2447
g74
(dp2448
g82
I4
ssg83
g2442
sg76
(lp2449
g69
(g78
g71
NtRp2450
(dp2451
g74
(dp2452
g82
I3
ssg83
Nsg76
(lp2453
g69
(g85
g71
NtRp2454
(dp2455
g74
(dp2456
sg83
g2450
sg76
(lp2457
g69
(g90
g71
NtRp2458
(dp2459
g74
(dp2460
sg83
g2454
sg76
(lp2461
g69
(g70
g71
NtRp2462
(dp2463
g74
(dp2464
g82
I3
ssg83
g2458
sg76
(lp2465
S'1'
asbasbasbag69
(g85
g71
NtRp2466
(dp2467
g74
(dp2468
sg83
g2450
sg76
(lp2469
g69
(g90
g71
NtRp2470
(dp2471
g74
(dp2472
sg83
g2466
sg76
(lp2473
g69
(g70
g71
NtRp2474
(dp2475
g74
(dp2476
g82
I3
ssg83
g2470
sg76
(lp2477
S'0'
asbasbasbasbasbasbasbasbasbasbasbag69
(g85
g71
NtRp2478
(dp2479
g74
(dp2480
sg83
g79
sg76
(lp2481
g69
(g90
g71
NtRp2482
(dp2483
g74
(dp2484
g94
g95
ssg83
g2478
sg76
(lp2485
S'extension'
p2486
asbag69
(g90
g71
NtRp2487
(dp2488
g74
(dp2489
g101
g102
ssg83
g2478
sg76
(lp2490
S':'
asbag69
(g90
g71
NtRp2491
(dp2492
g74
(dp2493
sg83
g2478
sg76
(lp2494
g69
(g70
g71
NtRp2495
(dp2496
g74
(dp2497
g82
I5
ssg83
g2491
sg76
(lp2498
S'html'
p2499
asbasbasbag69
(g85
g71
NtRp2500
(dp2501
g74
(dp2502
sg83
g79
sg76
(lp2503
g69
(g90
g71
NtRp2504
(dp2505
g74
(dp2506
g94
g95
ssg83
g2500
sg76
(lp2507
S'folder'
p2508
asbag69
(g90
g71
NtRp2509
(dp2510
g74
(dp2511
g101
g102
ssg83
g2500
sg76
(lp2512
S':'
asbag69
(g90
g71
NtRp2513
(dp2514
g74
(dp2515
sg83
g2500
sg76
(lp2516
g69
(g70
g71
NtRp2517
(dp2518
g74
(dp2519
g82
I5
ssg83
g2513
sg76
(lp2520
S'/var/www/web2py_curso/applications/projeto/'
p2521
asbasbasbag69
(g85
g71
NtRp2522
(dp2523
g74
(dp2524
sg83
g79
sg76
(lp2525
g69
(g90
g71
NtRp2526
(dp2527
g74
(dp2528
g94
g95
ssg83
g2522
sg76
(lp2529
S'function'
p2530
asbag69
(g90
g71
NtRp2531
(dp2532
g74
(dp2533
g101
g102
ssg83
g2522
sg76
(lp2534
S':'
asbag69
(g90
g71
NtRp2535
(dp2536
g74
(dp2537
sg83
g2522
sg76
(lp2538
g69
(g70
g71
NtRp2539
(dp2540
g74
(dp2541
g82
I5
ssg83
g2535
sg76
(lp2542
S'show_cliente'
p2543
asbasbasbag69
(g85
g71
NtRp2544
(dp2545
g74
(dp2546
sg83
g79
sg76
(lp2547
g69
(g90
g71
NtRp2548
(dp2549
g74
(dp2550
g94
g95
ssg83
g2544
sg76
(lp2551
S'get_vars'
p2552
asbag69
(g90
g71
NtRp2553
(dp2554
g74
(dp2555
g101
g102
ssg83
g2544
sg76
(lp2556
S':'
asbag69
(g90
g71
NtRp2557
(dp2558
g74
(dp2559
sg83
g2544
sg76
(lp2560
g69
(g70
g71
NtRp2561
(dp2562
g74
(dp2563
g82
I5
ssg83
g2557
sg76
(lp2564
g69
(g78
g71
NtRp2565
(dp2566
g74
(dp2567
g82
I4
ssg83
Nsg76
(lp2568
sbasbasbasbag69
(g85
g71
NtRp2569
(dp2570
g74
(dp2571
sg83
g79
sg76
(lp2572
g69
(g90
g71
NtRp2573
(dp2574
g74
(dp2575
g94
g95
ssg83
g2569
sg76
(lp2576
S'global_settings'
p2577
asbag69
(g90
g71
NtRp2578
(dp2579
g74
(dp2580
g101
g102
ssg83
g2569
sg76
(lp2581
S':'
asbag69
(g90
g71
NtRp2582
(dp2583
g74
(dp2584
sg83
g2569
sg76
(lp2585
g69
(g70
g71
NtRp2586
(dp2587
g74
(dp2588
g82
I5
ssg83
g2582
sg76
(lp2589
g69
(g78
g71
NtRp2590
(dp2591
g74
(dp2592
g82
I4
ssg83
Nsg76
(lp2593
g69
(g85
g71
NtRp2594
(dp2595
g74
(dp2596
sg83
g2590
sg76
(lp2597
g69
(g90
g71
NtRp2598
(dp2599
g74
(dp2600
g94
g95
ssg83
g2594
sg76
(lp2601
g1429
asbag69
(g90
g71
NtRp2602
(dp2603
g74
(dp2604
g101
g102
ssg83
g2594
sg76
(lp2605
S':'
asbag69
(g90
g71
NtRp2606
(dp2607
g74
(dp2608
sg83
g2594
sg76
(lp2609
g69
(g70
g71
NtRp2610
(dp2611
g74
(dp2612
g82
I4
ssg83
g2606
sg76
(lp2613
S"set(['/var/www/web2py_curso/applications/projeto/'])"
p2614
asbasbasbag69
(g85
g71
NtRp2615
(dp2616
g74
(dp2617
sg83
g2590
sg76
(lp2618
g69
(g90
g71
NtRp2619
(dp2620
g74
(dp2621
g94
g95
ssg83
g2615
sg76
(lp2622
g1451
asbag69
(g90
g71
NtRp2623
(dp2624
g74
(dp2625
g101
g102
ssg83
g2615
sg76
(lp2626
S':'
asbag69
(g90
g71
NtRp2627
(dp2628
g74
(dp2629
sg83
g2615
sg76
(lp2630
g69
(g70
g71
NtRp2631
(dp2632
g74
(dp2633
g82
I4
ssg83
g2627
sg76
(lp2634
g1464
asbasbasbag69
(g85
g71
NtRp2635
(dp2636
g74
(dp2637
sg83
g2590
sg76
(lp2638
g69
(g90
g71
NtRp2639
(dp2640
g74
(dp2641
g94
g95
ssg83
g2635
sg76
(lp2642
g1473
asbag69
(g90
g71
NtRp2643
(dp2644
g74
(dp2645
g101
g102
ssg83
g2635
sg76
(lp2646
S':'
asbag69
(g90
g71
NtRp2647
(dp2648
g74
(dp2649
sg83
g2635
sg76
(lp2650
g69
(g70
g71
NtRp2651
(dp2652
g74
(dp2653
g82
I4
ssg83
g2647
sg76
(lp2654
g69
(g78
g71
NtRp2655
(dp2656
g74
(dp2657
g82
I3
ssg83
Nsg76
(lp2658
sbasbasbasbag69
(g85
g71
NtRp2659
(dp2660
g74
(dp2661
sg83
g2590
sg76
(lp2662
g69
(g90
g71
NtRp2663
(dp2664
g74
(dp2665
g94
g95
ssg83
g2659
sg76
(lp2666
g1498
asbag69
(g90
g71
NtRp2667
(dp2668
g74
(dp2669
g101
g102
ssg83
g2659
sg76
(lp2670
S':'
asbag69
(g90
g71
NtRp2671
(dp2672
g74
(dp2673
sg83
g2659
sg76
(lp2674
g69
(g70
g71
NtRp2675
(dp2676
g74
(dp2677
g82
I4
ssg83
g2671
sg76
(lp2678
S"<Values at 0x31033b0: {'verbose': False, 'ip': '127.0.0.1', 'with_scheduler': False, 'ips': [], 'shutdown_timeout': 5, 'taskbar': False, 'port': 8000, 'maxthreads': None, 'softcron': False, 'server_name': 'fernado-desktop', 'bpython': False, 'nogui': False, 'pid_filename': 'httpserver.pid', 'extcron': False, 'runcron': False, 'run_system_tests': False, 'test': None, 'folder': '/var/www/web2py_curso', 'config': '', 'minthreads': None, 'winservice': '', 'shell': None, 'run': '', 'log_filename': 'httpserver.log', 'debuglevel': 30, 'args': [''], 'socket_timeout': 5, 'ssl_ca_certificate': None, 'scheduler': None, 'profiler_filename': None, 'ssl_private_key': '', 'scheduler_groups': None, 'password': '123456', 'request_queue_size': 5, 'ssl_certificate': '', 'cronjob': False, 'numthreads': None, 'quiet': False, 'interfaces': None, 'import_models': False, 'timeout': 10, 'plain': False, 'nobanner': False}>"
p2679
asbasbasbag69
(g85
g71
NtRp2680
(dp2681
g74
(dp2682
sg83
g2590
sg76
(lp2683
g69
(g90
g71
NtRp2684
(dp2685
g74
(dp2686
g94
g95
ssg83
g2680
sg76
(lp2687
g1520
asbag69
(g90
g71
NtRp2688
(dp2689
g74
(dp2690
g101
g102
ssg83
g2680
sg76
(lp2691
S':'
asbag69
(g90
g71
NtRp2692
(dp2693
g74
(dp2694
sg83
g2680
sg76
(lp2695
g69
(g70
g71
NtRp2696
(dp2697
g74
(dp2698
g82
I4
ssg83
g2692
sg76
(lp2699
S'set([])'
p2700
asbasbasbag69
(g85
g71
NtRp2701
(dp2702
g74
(dp2703
sg83
g2590
sg76
(lp2704
g69
(g90
g71
NtRp2705
(dp2706
g74
(dp2707
g94
g95
ssg83
g2701
sg76
(lp2708
g1542
asbag69
(g90
g71
NtRp2709
(dp2710
g74
(dp2711
g101
g102
ssg83
g2701
sg76
(lp2712
S':'
asbag69
(g90
g71
NtRp2713
(dp2714
g74
(dp2715
sg83
g2701
sg76
(lp2716
g69
(g70
g71
NtRp2717
(dp2718
g74
(dp2719
g82
I4
ssg83
g2713
sg76
(lp2720
g112
asbasbasbag69
(g85
g71
NtRp2721
(dp2722
g74
(dp2723
sg83
g2590
sg76
(lp2724
g69
(g90
g71
NtRp2725
(dp2726
g74
(dp2727
g94
g95
ssg83
g2721
sg76
(lp2728
g1563
asbag69
(g90
g71
NtRp2729
(dp2730
g74
(dp2731
g101
g102
ssg83
g2721
sg76
(lp2732
S':'
asbag69
(g90
g71
NtRp2733
(dp2734
g74
(dp2735
sg83
g2721
sg76
(lp2736
g69
(g70
g71
NtRp2737
(dp2738
g74
(dp2739
g82
I4
ssg83
g2733
sg76
(lp2740
g1576
asbasbasbag69
(g85
g71
NtRp2741
(dp2742
g74
(dp2743
sg83
g2590
sg76
(lp2744
g69
(g90
g71
NtRp2745
(dp2746
g74
(dp2747
g94
g95
ssg83
g2741
sg76
(lp2748
g1783
asbag69
(g90
g71
NtRp2749
(dp2750
g74
(dp2751
g101
g102
ssg83
g2741
sg76
(lp2752
S':'
asbag69
(g90
g71
NtRp2753
(dp2754
g74
(dp2755
sg83
g2741
sg76
(lp2756
g69
(g70
g71
NtRp2757
(dp2758
g74
(dp2759
g82
I4
ssg83
g2753
sg76
(lp2760
g112
asbasbasbag69
(g85
g71
NtRp2761
(dp2762
g74
(dp2763
sg83
g2590
sg76
(lp2764
g69
(g90
g71
NtRp2765
(dp2766
g74
(dp2767
g94
g95
ssg83
g2761
sg76
(lp2768
g1804
asbag69
(g90
g71
NtRp2769
(dp2770
g74
(dp2771
g101
g102
ssg83
g2761
sg76
(lp2772
S':'
asbag69
(g90
g71
NtRp2773
(dp2774
g74
(dp2775
sg83
g2761
sg76
(lp2776
g69
(g70
g71
NtRp2777
(dp2778
g74
(dp2779
g82
I4
ssg83
g2773
sg76
(lp2780
g112
asbasbasbag69
(g85
g71
NtRp2781
(dp2782
g74
(dp2783
sg83
g2590
sg76
(lp2784
g69
(g90
g71
NtRp2785
(dp2786
g74
(dp2787
g94
g95
ssg83
g2781
sg76
(lp2788
g1825
asbag69
(g90
g71
NtRp2789
(dp2790
g74
(dp2791
g101
g102
ssg83
g2781
sg76
(lp2792
S':'
asbag69
(g90
g71
NtRp2793
(dp2794
g74
(dp2795
sg83
g2781
sg76
(lp2796
g69
(g70
g71
NtRp2797
(dp2798
g74
(dp2799
g82
I4
ssg83
g2793
sg76
(lp2800
g69
(g78
g71
NtRp2801
(dp2802
g74
(dp2803
g82
I3
ssg83
Nsg76
(lp2804
g69
(g85
g71
NtRp2805
(dp2806
g74
(dp2807
sg83
g2801
sg76
(lp2808
g69
(g90
g71
NtRp2809
(dp2810
g74
(dp2811
sg83
g2805
sg76
(lp2812
g69
(g70
g71
NtRp2813
(dp2814
g74
(dp2815
g82
I3
ssg83
g2809
sg76
(lp2816
g1854
asbasbasbag69
(g85
g71
NtRp2817
(dp2818
g74
(dp2819
sg83
g2801
sg76
(lp2820
g69
(g90
g71
NtRp2821
(dp2822
g74
(dp2823
sg83
g2817
sg76
(lp2824
g69
(g70
g71
NtRp2825
(dp2826
g74
(dp2827
g82
I3
ssg83
g2821
sg76
(lp2828
g1867
asbasbasbag69
(g85
g71
NtRp2829
(dp2830
g74
(dp2831
sg83
g2801
sg76
(lp2832
g69
(g90
g71
NtRp2833
(dp2834
g74
(dp2835
sg83
g2829
sg76
(lp2836
g69
(g70
g71
NtRp2837
(dp2838
g74
(dp2839
g82
I3
ssg83
g2833
sg76
(lp2840
g1880
asbasbasbag69
(g85
g71
NtRp2841
(dp2842
g74
(dp2843
sg83
g2801
sg76
(lp2844
g69
(g90
g71
NtRp2845
(dp2846
g74
(dp2847
sg83
g2841
sg76
(lp2848
g69
(g70
g71
NtRp2849
(dp2850
g74
(dp2851
g82
I3
ssg83
g2845
sg76
(lp2852
g1893
asbasbasbag69
(g85
g71
NtRp2853
(dp2854
g74
(dp2855
sg83
g2801
sg76
(lp2856
g69
(g90
g71
NtRp2857
(dp2858
g74
(dp2859
sg83
g2853
sg76
(lp2860
g69
(g70
g71
NtRp2861
(dp2862
g74
(dp2863
g82
I3
ssg83
g2857
sg76
(lp2864
g1906
asbasbasbasbasbasbasbag69
(g85
g71
NtRp2865
(dp2866
g74
(dp2867
sg83
g2590
sg76
(lp2868
g69
(g90
g71
NtRp2869
(dp2870
g74
(dp2871
g94
g95
ssg83
g2865
sg76
(lp2872
g2198
asbag69
(g90
g71
NtRp2873
(dp2874
g74
(dp2875
g101
g102
ssg83
g2865
sg76
(lp2876
S':'
asbag69
(g90
g71
NtRp2877
(dp2878
g74
(dp2879
sg83
g2865
sg76
(lp2880
g69
(g70
g71
NtRp2881
(dp2882
g74
(dp2883
g82
I4
ssg83
g2877
sg76
(lp2884
g69
(g78
g71
NtRp2885
(dp2886
g74
(dp2887
g82
I3
ssg83
Nsg76
(lp2888
g69
(g85
g71
NtRp2889
(dp2890
g74
(dp2891
sg83
g2885
sg76
(lp2892
g69
(g90
g71
NtRp2893
(dp2894
g74
(dp2895
sg83
g2889
sg76
(lp2896
g69
(g70
g71
NtRp2897
(dp2898
g74
(dp2899
g82
I3
ssg83
g2893
sg76
(lp2900
S'2'
asbasbasbag69
(g85
g71
NtRp2901
(dp2902
g74
(dp2903
sg83
g2885
sg76
(lp2904
g69
(g90
g71
NtRp2905
(dp2906
g74
(dp2907
sg83
g2901
sg76
(lp2908
g69
(g70
g71
NtRp2909
(dp2910
g74
(dp2911
g82
I3
ssg83
g2905
sg76
(lp2912
S'3'
asbasbasbag69
(g85
g71
NtRp2913
(dp2914
g74
(dp2915
sg83
g2885
sg76
(lp2916
g69
(g90
g71
NtRp2917
(dp2918
g74
(dp2919
sg83
g2913
sg76
(lp2920
g69
(g70
g71
NtRp2921
(dp2922
g74
(dp2923
g82
I3
ssg83
g2917
sg76
(lp2924
S'2'
asbasbasbag69
(g85
g71
NtRp2925
(dp2926
g74
(dp2927
sg83
g2885
sg76
(lp2928
g69
(g90
g71
NtRp2929
(dp2930
g74
(dp2931
sg83
g2925
sg76
(lp2932
g69
(g70
g71
NtRp2933
(dp2934
g74
(dp2935
g82
I3
ssg83
g2929
sg76
(lp2936
S'datetime.datetime(2012, 12, 17, 15, 3, 30)'
p2937
asbasbasbag69
(g85
g71
NtRp2938
(dp2939
g74
(dp2940
sg83
g2885
sg76
(lp2941
g69
(g90
g71
NtRp2942
(dp2943
g74
(dp2944
sg83
g2938
sg76
(lp2945
g69
(g70
g71
NtRp2946
(dp2947
g74
(dp2948
g82
I3
ssg83
g2942
sg76
(lp2949
g2276
asbasbasbasbasbasbasbasbasbasbasbag69
(g85
g71
NtRp2950
(dp2951
g74
(dp2952
sg83
g79
sg76
(lp2953
g69
(g90
g71
NtRp2954
(dp2955
g74
(dp2956
g94
g95
ssg83
g2950
sg76
(lp2957
S'is_https'
p2958
asbag69
(g90
g71
NtRp2959
(dp2960
g74
(dp2961
g101
g102
ssg83
g2950
sg76
(lp2962
S':'
asbag69
(g90
g71
NtRp2963
(dp2964
g74
(dp2965
sg83
g2950
sg76
(lp2966
g69
(g70
g71
NtRp2967
(dp2968
g74
(dp2969
g82
I5
ssg83
g2963
sg76
(lp2970
g112
asbasbasbag69
(g85
g71
NtRp2971
(dp2972
g74
(dp2973
sg83
g79
sg76
(lp2974
g69
(g90
g71
NtRp2975
(dp2976
g74
(dp2977
g94
g95
ssg83
g2971
sg76
(lp2978
S'is_local'
p2979
asbag69
(g90
g71
NtRp2980
(dp2981
g74
(dp2982
g101
g102
ssg83
g2971
sg76
(lp2983
S':'
asbag69
(g90
g71
NtRp2984
(dp2985
g74
(dp2986
sg83
g2971
sg76
(lp2987
g69
(g70
g71
NtRp2988
(dp2989
g74
(dp2990
g82
I5
ssg83
g2984
sg76
(lp2991
g2385
asbasbasbag69
(g85
g71
NtRp2992
(dp2993
g74
(dp2994
sg83
g79
sg76
(lp2995
g69
(g90
g71
NtRp2996
(dp2997
g74
(dp2998
g94
g95
ssg83
g2992
sg76
(lp2999
S'is_restful'
p3000
asbag69
(g90
g71
NtRp3001
(dp3002
g74
(dp3003
g101
g102
ssg83
g2992
sg76
(lp3004
S':'
asbag69
(g90
g71
NtRp3005
(dp3006
g74
(dp3007
sg83
g2992
sg76
(lp3008
g69
(g70
g71
NtRp3009
(dp3010
g74
(dp3011
g82
I5
ssg83
g3005
sg76
(lp3012
g112
asbasbasbag69
(g85
g71
NtRp3013
(dp3014
g74
(dp3015
sg83
g79
sg76
(lp3016
g69
(g90
g71
NtRp3017
(dp3018
g74
(dp3019
g94
g95
ssg83
g3013
sg76
(lp3020
S'now'
p3021
asbag69
(g90
g71
NtRp3022
(dp3023
g74
(dp3024
g101
g102
ssg83
g3013
sg76
(lp3025
S':'
asbag69
(g90
g71
NtRp3026
(dp3027
g74
(dp3028
sg83
g3013
sg76
(lp3029
g69
(g70
g71
NtRp3030
(dp3031
g74
(dp3032
g82
I5
ssg83
g3026
sg76
(lp3033
S'datetime.datetime(2013, 1, 28, 11, 28, 49, 58405)'
p3034
asbasbasbag69
(g85
g71
NtRp3035
(dp3036
g74
(dp3037
sg83
g79
sg76
(lp3038
g69
(g90
g71
NtRp3039
(dp3040
g74
(dp3041
g94
g95
ssg83
g3035
sg76
(lp3042
S'post_vars'
p3043
asbag69
(g90
g71
NtRp3044
(dp3045
g74
(dp3046
g101
g102
ssg83
g3035
sg76
(lp3047
S':'
asbag69
(g90
g71
NtRp3048
(dp3049
g74
(dp3050
sg83
g3035
sg76
(lp3051
g69
(g70
g71
NtRp3052
(dp3053
g74
(dp3054
g82
I5
ssg83
g3048
sg76
(lp3055
g69
(g78
g71
NtRp3056
(dp3057
g74
(dp3058
g82
I4
ssg83
Nsg76
(lp3059
sbasbasbasbag69
(g85
g71
NtRp3060
(dp3061
g74
(dp3062
sg83
g79
sg76
(lp3063
g69
(g90
g71
NtRp3064
(dp3065
g74
(dp3066
g94
g95
ssg83
g3060
sg76
(lp3067
S'url'
p3068
asbag69
(g90
g71
NtRp3069
(dp3070
g74
(dp3071
g101
g102
ssg83
g3060
sg76
(lp3072
S':'
asbag69
(g90
g71
NtRp3073
(dp3074
g74
(dp3075
sg83
g3060
sg76
(lp3076
g69
(g70
g71
NtRp3077
(dp3078
g74
(dp3079
g82
I5
ssg83
g3073
sg76
(lp3080
g1928
asbasbasbag69
(g85
g71
NtRp3081
(dp3082
g74
(dp3083
sg83
g79
sg76
(lp3084
g69
(g90
g71
NtRp3085
(dp3086
g74
(dp3087
g94
g95
ssg83
g3081
sg76
(lp3088
S'utcnow'
p3089
asbag69
(g90
g71
NtRp3090
(dp3091
g74
(dp3092
g101
g102
ssg83
g3081
sg76
(lp3093
S':'
asbag69
(g90
g71
NtRp3094
(dp3095
g74
(dp3096
sg83
g3081
sg76
(lp3097
g69
(g70
g71
NtRp3098
(dp3099
g74
(dp3100
g82
I5
ssg83
g3094
sg76
(lp3101
S'datetime.datetime(2013, 1, 28, 13, 28, 49, 58451)'
p3102
asbasbasbag69
(g85
g71
NtRp3103
(dp3104
g74
(dp3105
sg83
g79
sg76
(lp3106
g69
(g90
g71
NtRp3107
(dp3108
g74
(dp3109
g94
g95
ssg83
g3103
sg76
(lp3110
S'uuid'
p3111
asbag69
(g90
g71
NtRp3112
(dp3113
g74
(dp3114
g101
g102
ssg83
g3103
sg76
(lp3115
S':'
asbag69
(g90
g71
NtRp3116
(dp3117
g74
(dp3118
sg83
g3103
sg76
(lp3119
g69
(g70
g71
NtRp3120
(dp3121
g74
(dp3122
g82
I5
ssg83
g3116
sg76
(lp3123
S'projeto/127.0.0.1.2013-01-28.11-28-49.3234bf37-f1da-4c78-b9bc-3f2b8830b3ca'
p3124
asbasbasbag69
(g85
g71
NtRp3125
(dp3126
g74
(dp3127
sg83
g79
sg76
(lp3128
g69
(g90
g71
NtRp3129
(dp3130
g74
(dp3131
g94
g95
ssg83
g3125
sg76
(lp3132
S'vars'
p3133
asbag69
(g90
g71
NtRp3134
(dp3135
g74
(dp3136
g101
g102
ssg83
g3125
sg76
(lp3137
S':'
asbag69
(g90
g71
NtRp3138
(dp3139
g74
(dp3140
sg83
g3125
sg76
(lp3141
g69
(g70
g71
NtRp3142
(dp3143
g74
(dp3144
g82
I5
ssg83
g3138
sg76
(lp3145
g69
(g78
g71
NtRp3146
(dp3147
g74
(dp3148
g82
I4
ssg83
Nsg76
(lp3149
sbasbasbasbag69
(g85
g71
NtRp3150
(dp3151
g74
(dp3152
sg83
g79
sg76
(lp3153
g69
(g90
g71
NtRp3154
(dp3155
g74
(dp3156
g94
g95
ssg83
g3150
sg76
(lp3157
S'wsgi'
p3158
asbag69
(g90
g71
NtRp3159
(dp3160
g74
(dp3161
g101
g102
ssg83
g3150
sg76
(lp3162
S':'
asbag69
(g90
g71
NtRp3163
(dp3164
g74
(dp3165
sg83
g3150
sg76
(lp3166
g69
(g70
g71
NtRp3167
(dp3168
g74
(dp3169
g82
I5
ssg83
g3163
sg76
(lp3170
g69
(g78
g71
NtRp3171
(dp3172
g74
(dp3173
g82
I4
ssg83
Nsg76
(lp3174
g69
(g85
g71
NtRp3175
(dp3176
g74
(dp3177
sg83
g3171
sg76
(lp3178
g69
(g90
g71
NtRp3179
(dp3180
g74
(dp3181
g94
g95
ssg83
g3175
sg76
(lp3182
S'environ'
p3183
asbag69
(g90
g71
NtRp3184
(dp3185
g74
(dp3186
g101
g102
ssg83
g3175
sg76
(lp3187
S':'
asbag69
(g90
g71
NtRp3188
(dp3189
g74
(dp3190
sg83
g3175
sg76
(lp3191
g69
(g70
g71
NtRp3192
(dp3193
g74
(dp3194
g82
I4
ssg83
g3188
sg76
(lp3195
g69
(g78
g71
NtRp3196
(dp3197
g74
(dp3198
g82
I3
ssg83
Nsg76
(lp3199
g69
(g85
g71
NtRp3200
(dp3201
g74
(dp3202
sg83
g3196
sg76
(lp3203
g69
(g90
g71
NtRp3204
(dp3205
g74
(dp3206
g94
g95
ssg83
g3200
sg76
(lp3207
S'HTTP_ACCEPT'
p3208
asbag69
(g90
g71
NtRp3209
(dp3210
g74
(dp3211
g101
g102
ssg83
g3200
sg76
(lp3212
S':'
asbag69
(g90
g71
NtRp3213
(dp3214
g74
(dp3215
sg83
g3200
sg76
(lp3216
g69
(g70
g71
NtRp3217
(dp3218
g74
(dp3219
g82
I3
ssg83
g3213
sg76
(lp3220
g1598
asbasbasbag69
(g85
g71
NtRp3221
(dp3222
g74
(dp3223
sg83
g3196
sg76
(lp3224
g69
(g90
g71
NtRp3225
(dp3226
g74
(dp3227
g94
g95
ssg83
g3221
sg76
(lp3228
S'HTTP_ACCEPT_CHARSET'
p3229
asbag69
(g90
g71
NtRp3230
(dp3231
g74
(dp3232
g101
g102
ssg83
g3221
sg76
(lp3233
S':'
asbag69
(g90
g71
NtRp3234
(dp3235
g74
(dp3236
sg83
g3221
sg76
(lp3237
g69
(g70
g71
NtRp3238
(dp3239
g74
(dp3240
g82
I3
ssg83
g3234
sg76
(lp3241
g1620
asbasbasbag69
(g85
g71
NtRp3242
(dp3243
g74
(dp3244
sg83
g3196
sg76
(lp3245
g69
(g90
g71
NtRp3246
(dp3247
g74
(dp3248
g94
g95
ssg83
g3242
sg76
(lp3249
S'HTTP_ACCEPT_ENCODING'
p3250
asbag69
(g90
g71
NtRp3251
(dp3252
g74
(dp3253
g101
g102
ssg83
g3242
sg76
(lp3254
S':'
asbag69
(g90
g71
NtRp3255
(dp3256
g74
(dp3257
sg83
g3242
sg76
(lp3258
g69
(g70
g71
NtRp3259
(dp3260
g74
(dp3261
g82
I3
ssg83
g3255
sg76
(lp3262
g1642
asbasbasbag69
(g85
g71
NtRp3263
(dp3264
g74
(dp3265
sg83
g3196
sg76
(lp3266
g69
(g90
g71
NtRp3267
(dp3268
g74
(dp3269
g94
g95
ssg83
g3263
sg76
(lp3270
S'HTTP_ACCEPT_LANGUAGE'
p3271
asbag69
(g90
g71
NtRp3272
(dp3273
g74
(dp3274
g101
g102
ssg83
g3263
sg76
(lp3275
S':'
asbag69
(g90
g71
NtRp3276
(dp3277
g74
(dp3278
sg83
g3263
sg76
(lp3279
g69
(g70
g71
NtRp3280
(dp3281
g74
(dp3282
g82
I3
ssg83
g3276
sg76
(lp3283
g1664
asbasbasbag69
(g85
g71
NtRp3284
(dp3285
g74
(dp3286
sg83
g3196
sg76
(lp3287
g69
(g90
g71
NtRp3288
(dp3289
g74
(dp3290
g94
g95
ssg83
g3284
sg76
(lp3291
S'HTTP_CACHE_CONTROL'
p3292
asbag69
(g90
g71
NtRp3293
(dp3294
g74
(dp3295
g101
g102
ssg83
g3284
sg76
(lp3296
S':'
asbag69
(g90
g71
NtRp3297
(dp3298
g74
(dp3299
sg83
g3284
sg76
(lp3300
g69
(g70
g71
NtRp3301
(dp3302
g74
(dp3303
g82
I3
ssg83
g3297
sg76
(lp3304
g1686
asbasbasbag69
(g85
g71
NtRp3305
(dp3306
g74
(dp3307
sg83
g3196
sg76
(lp3308
g69
(g90
g71
NtRp3309
(dp3310
g74
(dp3311
g94
g95
ssg83
g3305
sg76
(lp3312
S'HTTP_CONNECTION'
p3313
asbag69
(g90
g71
NtRp3314
(dp3315
g74
(dp3316
g101
g102
ssg83
g3305
sg76
(lp3317
S':'
asbag69
(g90
g71
NtRp3318
(dp3319
g74
(dp3320
sg83
g3305
sg76
(lp3321
g69
(g70
g71
NtRp3322
(dp3323
g74
(dp3324
g82
I3
ssg83
g3318
sg76
(lp3325
g1708
asbasbasbag69
(g85
g71
NtRp3326
(dp3327
g74
(dp3328
sg83
g3196
sg76
(lp3329
g69
(g90
g71
NtRp3330
(dp3331
g74
(dp3332
g94
g95
ssg83
g3326
sg76
(lp3333
S'HTTP_COOKIE'
p3334
asbag69
(g90
g71
NtRp3335
(dp3336
g74
(dp3337
g101
g102
ssg83
g3326
sg76
(lp3338
S':'
asbag69
(g90
g71
NtRp3339
(dp3340
g74
(dp3341
sg83
g3326
sg76
(lp3342
g69
(g70
g71
NtRp3343
(dp3344
g74
(dp3345
g82
I3
ssg83
g3339
sg76
(lp3346
g1730
asbasbasbag69
(g85
g71
NtRp3347
(dp3348
g74
(dp3349
sg83
g3196
sg76
(lp3350
g69
(g90
g71
NtRp3351
(dp3352
g74
(dp3353
g94
g95
ssg83
g3347
sg76
(lp3354
S'HTTP_HOST'
p3355
asbag69
(g90
g71
NtRp3356
(dp3357
g74
(dp3358
g101
g102
ssg83
g3347
sg76
(lp3359
S':'
asbag69
(g90
g71
NtRp3360
(dp3361
g74
(dp3362
sg83
g3347
sg76
(lp3363
g69
(g70
g71
NtRp3364
(dp3365
g74
(dp3366
g82
I3
ssg83
g3360
sg76
(lp3367
g1752
asbasbasbag69
(g85
g71
NtRp3368
(dp3369
g74
(dp3370
sg83
g3196
sg76
(lp3371
g69
(g90
g71
NtRp3372
(dp3373
g74
(dp3374
g94
g95
ssg83
g3368
sg76
(lp3375
S'HTTP_USER_AGENT'
p3376
asbag69
(g90
g71
NtRp3377
(dp3378
g74
(dp3379
g101
g102
ssg83
g3368
sg76
(lp3380
S':'
asbag69
(g90
g71
NtRp3381
(dp3382
g74
(dp3383
sg83
g3368
sg76
(lp3384
g69
(g70
g71
NtRp3385
(dp3386
g74
(dp3387
g82
I3
ssg83
g3381
sg76
(lp3388
g1774
asbasbasbag69
(g85
g71
NtRp3389
(dp3390
g74
(dp3391
sg83
g3196
sg76
(lp3392
g69
(g90
g71
NtRp3393
(dp3394
g74
(dp3395
g94
g95
ssg83
g3389
sg76
(lp3396
S'PATH_INFO'
p3397
asbag69
(g90
g71
NtRp3398
(dp3399
g74
(dp3400
g101
g102
ssg83
g3389
sg76
(lp3401
S':'
asbag69
(g90
g71
NtRp3402
(dp3403
g74
(dp3404
sg83
g3389
sg76
(lp3405
g69
(g70
g71
NtRp3406
(dp3407
g74
(dp3408
g82
I3
ssg83
g3402
sg76
(lp3409
g1928
asbasbasbag69
(g85
g71
NtRp3410
(dp3411
g74
(dp3412
sg83
g3196
sg76
(lp3413
g69
(g90
g71
NtRp3414
(dp3415
g74
(dp3416
g94
g95
ssg83
g3410
sg76
(lp3417
S'QUERY_STRING'
p3418
asbag69
(g90
g71
NtRp3419
(dp3420
g74
(dp3421
g101
g102
ssg83
g3410
sg76
(lp3422
S':'
asbag69
(g90
g71
NtRp3423
(dp3424
g74
(dp3425
sg83
g3410
sg76
(lp3426
g69
(g70
g71
NtRp3427
(dp3428
g74
(dp3429
g82
I3
ssg83
g3423
sg76
(lp3430
g1950
asbasbasbag69
(g85
g71
NtRp3431
(dp3432
g74
(dp3433
sg83
g3196
sg76
(lp3434
g69
(g90
g71
NtRp3435
(dp3436
g74
(dp3437
g94
g95
ssg83
g3431
sg76
(lp3438
S'REMOTE_ADDR'
p3439
asbag69
(g90
g71
NtRp3440
(dp3441
g74
(dp3442
g101
g102
ssg83
g3431
sg76
(lp3443
S':'
asbag69
(g90
g71
NtRp3444
(dp3445
g74
(dp3446
sg83
g3431
sg76
(lp3447
g69
(g70
g71
NtRp3448
(dp3449
g74
(dp3450
g82
I3
ssg83
g3444
sg76
(lp3451
g224
asbasbasbag69
(g85
g71
NtRp3452
(dp3453
g74
(dp3454
sg83
g3196
sg76
(lp3455
g69
(g90
g71
NtRp3456
(dp3457
g74
(dp3458
g94
g95
ssg83
g3452
sg76
(lp3459
S'REMOTE_PORT'
p3460
asbag69
(g90
g71
NtRp3461
(dp3462
g74
(dp3463
g101
g102
ssg83
g3452
sg76
(lp3464
S':'
asbag69
(g90
g71
NtRp3465
(dp3466
g74
(dp3467
sg83
g3452
sg76
(lp3468
g69
(g70
g71
NtRp3469
(dp3470
g74
(dp3471
g82
I3
ssg83
g3465
sg76
(lp3472
g1993
asbasbasbag69
(g85
g71
NtRp3473
(dp3474
g74
(dp3475
sg83
g3196
sg76
(lp3476
g69
(g90
g71
NtRp3477
(dp3478
g74
(dp3479
g94
g95
ssg83
g3473
sg76
(lp3480
S'REQUEST_METHOD'
p3481
asbag69
(g90
g71
NtRp3482
(dp3483
g74
(dp3484
g101
g102
ssg83
g3473
sg76
(lp3485
S':'
asbag69
(g90
g71
NtRp3486
(dp3487
g74
(dp3488
sg83
g3473
sg76
(lp3489
g69
(g70
g71
NtRp3490
(dp3491
g74
(dp3492
g82
I3
ssg83
g3486
sg76
(lp3493
g2015
asbasbasbag69
(g85
g71
NtRp3494
(dp3495
g74
(dp3496
sg83
g3196
sg76
(lp3497
g69
(g90
g71
NtRp3498
(dp3499
g74
(dp3500
g94
g95
ssg83
g3494
sg76
(lp3501
S'REQUEST_URI'
p3502
asbag69
(g90
g71
NtRp3503
(dp3504
g74
(dp3505
g101
g102
ssg83
g3494
sg76
(lp3506
S':'
asbag69
(g90
g71
NtRp3507
(dp3508
g74
(dp3509
sg83
g3494
sg76
(lp3510
g69
(g70
g71
NtRp3511
(dp3512
g74
(dp3513
g82
I3
ssg83
g3507
sg76
(lp3514
g2037
asbasbasbag69
(g85
g71
NtRp3515
(dp3516
g74
(dp3517
sg83
g3196
sg76
(lp3518
g69
(g90
g71
NtRp3519
(dp3520
g74
(dp3521
g94
g95
ssg83
g3515
sg76
(lp3522
S'SCRIPT_NAME'
p3523
asbag69
(g90
g71
NtRp3524
(dp3525
g74
(dp3526
g101
g102
ssg83
g3515
sg76
(lp3527
S':'
asbag69
(g90
g71
NtRp3528
(dp3529
g74
(dp3530
sg83
g3515
sg76
(lp3531
g69
(g70
g71
NtRp3532
(dp3533
g74
(dp3534
g82
I3
ssg83
g3528
sg76
(lp3535
S''
asbasbasbag69
(g85
g71
NtRp3536
(dp3537
g74
(dp3538
sg83
g3196
sg76
(lp3539
g69
(g90
g71
NtRp3540
(dp3541
g74
(dp3542
g94
g95
ssg83
g3536
sg76
(lp3543
S'SERVER_NAME'
p3544
asbag69
(g90
g71
NtRp3545
(dp3546
g74
(dp3547
g101
g102
ssg83
g3536
sg76
(lp3548
S':'
asbag69
(g90
g71
NtRp3549
(dp3550
g74
(dp3551
sg83
g3536
sg76
(lp3552
g69
(g70
g71
NtRp3553
(dp3554
g74
(dp3555
g82
I3
ssg83
g3549
sg76
(lp3556
g2080
asbasbasbag69
(g85
g71
NtRp3557
(dp3558
g74
(dp3559
sg83
g3196
sg76
(lp3560
g69
(g90
g71
NtRp3561
(dp3562
g74
(dp3563
g94
g95
ssg83
g3557
sg76
(lp3564
S'SERVER_PORT'
p3565
asbag69
(g90
g71
NtRp3566
(dp3567
g74
(dp3568
g101
g102
ssg83
g3557
sg76
(lp3569
S':'
asbag69
(g90
g71
NtRp3570
(dp3571
g74
(dp3572
sg83
g3557
sg76
(lp3573
g69
(g70
g71
NtRp3574
(dp3575
g74
(dp3576
g82
I3
ssg83
g3570
sg76
(lp3577
g2102
asbasbasbag69
(g85
g71
NtRp3578
(dp3579
g74
(dp3580
sg83
g3196
sg76
(lp3581
g69
(g90
g71
NtRp3582
(dp3583
g74
(dp3584
g94
g95
ssg83
g3578
sg76
(lp3585
S'SERVER_PROTOCOL'
p3586
asbag69
(g90
g71
NtRp3587
(dp3588
g74
(dp3589
g101
g102
ssg83
g3578
sg76
(lp3590
S':'
asbag69
(g90
g71
NtRp3591
(dp3592
g74
(dp3593
sg83
g3578
sg76
(lp3594
g69
(g70
g71
NtRp3595
(dp3596
g74
(dp3597
g82
I3
ssg83
g3591
sg76
(lp3598
g2124
asbasbasbag69
(g85
g71
NtRp3599
(dp3600
g74
(dp3601
sg83
g3196
sg76
(lp3602
g69
(g90
g71
NtRp3603
(dp3604
g74
(dp3605
g94
g95
ssg83
g3599
sg76
(lp3606
S'SERVER_SOFTWARE'
p3607
asbag69
(g90
g71
NtRp3608
(dp3609
g74
(dp3610
g101
g102
ssg83
g3599
sg76
(lp3611
S':'
asbag69
(g90
g71
NtRp3612
(dp3613
g74
(dp3614
sg83
g3599
sg76
(lp3615
g69
(g70
g71
NtRp3616
(dp3617
g74
(dp3618
g82
I3
ssg83
g3612
sg76
(lp3619
g2146
asbasbasbag69
(g85
g71
NtRp3620
(dp3621
g74
(dp3622
sg83
g3196
sg76
(lp3623
g69
(g90
g71
NtRp3624
(dp3625
g74
(dp3626
g94
g95
ssg83
g3620
sg76
(lp3627
S'WEB2PY_ORIGINAL_URI'
p3628
asbag69
(g90
g71
NtRp3629
(dp3630
g74
(dp3631
g101
g102
ssg83
g3620
sg76
(lp3632
S':'
asbag69
(g90
g71
NtRp3633
(dp3634
g74
(dp3635
sg83
g3620
sg76
(lp3636
g69
(g70
g71
NtRp3637
(dp3638
g74
(dp3639
g82
I3
ssg83
g3633
sg76
(lp3640
g2168
asbasbasbag69
(g85
g71
NtRp3641
(dp3642
g74
(dp3643
sg83
g3196
sg76
(lp3644
g69
(g90
g71
NtRp3645
(dp3646
g74
(dp3647
g94
g95
ssg83
g3641
sg76
(lp3648
S'wsgi.errors'
p3649
asbag69
(g90
g71
NtRp3650
(dp3651
g74
(dp3652
g101
g102
ssg83
g3641
sg76
(lp3653
S':'
asbag69
(g90
g71
NtRp3654
(dp3655
g74
(dp3656
sg83
g3641
sg76
(lp3657
g69
(g70
g71
NtRp3658
(dp3659
g74
(dp3660
g82
I3
ssg83
g3654
sg76
(lp3661
S"<open file '<stderr>', mode 'w' at 0x7fa62cf8b270>"
p3662
asbasbasbag69
(g85
g71
NtRp3663
(dp3664
g74
(dp3665
sg83
g3196
sg76
(lp3666
g69
(g90
g71
NtRp3667
(dp3668
g74
(dp3669
g94
g95
ssg83
g3663
sg76
(lp3670
S'wsgi.file_wrapper'
p3671
asbag69
(g90
g71
NtRp3672
(dp3673
g74
(dp3674
g101
g102
ssg83
g3663
sg76
(lp3675
S':'
asbag69
(g90
g71
NtRp3676
(dp3677
g74
(dp3678
sg83
g3663
sg76
(lp3679
g69
(g70
g71
NtRp3680
(dp3681
g74
(dp3682
g82
I3
ssg83
g3676
sg76
(lp3683
S'<class wsgiref.util.FileWrapper at 0x3058a10>'
p3684
asbasbasbag69
(g85
g71
NtRp3685
(dp3686
g74
(dp3687
sg83
g3196
sg76
(lp3688
g69
(g90
g71
NtRp3689
(dp3690
g74
(dp3691
g94
g95
ssg83
g3685
sg76
(lp3692
S'wsgi.input'
p3693
asbag69
(g90
g71
NtRp3694
(dp3695
g74
(dp3696
g101
g102
ssg83
g3685
sg76
(lp3697
S':'
asbag69
(g90
g71
NtRp3698
(dp3699
g74
(dp3700
sg83
g3685
sg76
(lp3701
g69
(g70
g71
NtRp3702
(dp3703
g74
(dp3704
g82
I3
ssg83
g3698
sg76
(lp3705
S'<cStringIO.StringO object at 0x7fa6100d6260>'
p3706
asbasbasbag69
(g85
g71
NtRp3707
(dp3708
g74
(dp3709
sg83
g3196
sg76
(lp3710
g69
(g90
g71
NtRp3711
(dp3712
g74
(dp3713
g94
g95
ssg83
g3707
sg76
(lp3714
S'wsgi.multiprocess'
p3715
asbag69
(g90
g71
NtRp3716
(dp3717
g74
(dp3718
g101
g102
ssg83
g3707
sg76
(lp3719
S':'
asbag69
(g90
g71
NtRp3720
(dp3721
g74
(dp3722
sg83
g3707
sg76
(lp3723
g69
(g70
g71
NtRp3724
(dp3725
g74
(dp3726
g82
I3
ssg83
g3720
sg76
(lp3727
g112
asbasbasbag69
(g85
g71
NtRp3728
(dp3729
g74
(dp3730
sg83
g3196
sg76
(lp3731
g69
(g90
g71
NtRp3732
(dp3733
g74
(dp3734
g94
g95
ssg83
g3728
sg76
(lp3735
S'wsgi.multithread'
p3736
asbag69
(g90
g71
NtRp3737
(dp3738
g74
(dp3739
g101
g102
ssg83
g3728
sg76
(lp3740
S':'
asbag69
(g90
g71
NtRp3741
(dp3742
g74
(dp3743
sg83
g3728
sg76
(lp3744
g69
(g70
g71
NtRp3745
(dp3746
g74
(dp3747
g82
I3
ssg83
g3741
sg76
(lp3748
g2385
asbasbasbag69
(g85
g71
NtRp3749
(dp3750
g74
(dp3751
sg83
g3196
sg76
(lp3752
g69
(g90
g71
NtRp3753
(dp3754
g74
(dp3755
g94
g95
ssg83
g3749
sg76
(lp3756
S'wsgi.run_once'
p3757
asbag69
(g90
g71
NtRp3758
(dp3759
g74
(dp3760
g101
g102
ssg83
g3749
sg76
(lp3761
S':'
asbag69
(g90
g71
NtRp3762
(dp3763
g74
(dp3764
sg83
g3749
sg76
(lp3765
g69
(g70
g71
NtRp3766
(dp3767
g74
(dp3768
g82
I3
ssg83
g3762
sg76
(lp3769
g112
asbasbasbag69
(g85
g71
NtRp3770
(dp3771
g74
(dp3772
sg83
g3196
sg76
(lp3773
g69
(g90
g71
NtRp3774
(dp3775
g74
(dp3776
g94
g95
ssg83
g3770
sg76
(lp3777
S'wsgi.url_scheme'
p3778
asbag69
(g90
g71
NtRp3779
(dp3780
g74
(dp3781
g101
g102
ssg83
g3770
sg76
(lp3782
S':'
asbag69
(g90
g71
NtRp3783
(dp3784
g74
(dp3785
sg83
g3770
sg76
(lp3786
g69
(g70
g71
NtRp3787
(dp3788
g74
(dp3789
g82
I3
ssg83
g3783
sg76
(lp3790
g2428
asbasbasbag69
(g85
g71
NtRp3791
(dp3792
g74
(dp3793
sg83
g3196
sg76
(lp3794
g69
(g90
g71
NtRp3795
(dp3796
g74
(dp3797
g94
g95
ssg83
g3791
sg76
(lp3798
S'wsgi.version'
p3799
asbag69
(g90
g71
NtRp3800
(dp3801
g74
(dp3802
g101
g102
ssg83
g3791
sg76
(lp3803
S':'
asbag69
(g90
g71
NtRp3804
(dp3805
g74
(dp3806
sg83
g3791
sg76
(lp3807
g69
(g70
g71
NtRp3808
(dp3809
g74
(dp3810
g82
I3
ssg83
g3804
sg76
(lp3811
S'1'
asbasbasbasbasbasbasbasbasbasbasbasbasbsS'frames'
p3812
(lp3813
(dp3814
S'file'
p3815
S'/var/www/web2py_curso/gluon/restricted.py'
p3816
sS'dump'
p3817
(dp3818
S'environment'
p3819
S"{'A': <class 'gluon.html.A'>, 'Auth': <class 'gluon.tools.Auth'>, 'B': <class 'gluon.html.B'>, 'BEAUTIFY': <class 'gluon.html.BEAUTIFY'>, 'BODY': <class 'gluon.html.BODY'>, 'BR': <class 'gluon.html.BR'>, 'BUTTON': <class 'gluon.html.BUTTON'>, 'Blog': <Table blog (id,title,description)>, 'CAT': <class 'gluon.html.CAT'>, 'CENTER': <class 'gluon.html.CENTER'>, ...}"
p3820
sS'ccode'
p3821
S'<code object <module> at 0x7fa6182ec730, file "/...ications/projeto/controllers/initial.py", line 3>'
p3822
ssS'lnum'
p3823
I212
sS'lines'
p3824
(dp3825
I207
S'    try:'
p3826
sI208
S'        if isinstance(code, types.CodeType):'
p3827
sI209
S'            ccode = code'
p3828
sI210
S'        else:'
p3829
sI211
S'            ccode = compile2(code, layer)'
p3830
sI212
S'        exec ccode in environment'
p3831
sI213
S'    except HTTP:'
p3832
sI214
S'        raise'
p3833
sI215
S'    except RestrictedError:'
p3834
sI216
S'        # do not encapsulate (obfuscate) the original RestrictedError'
p3835
ssS'call'
p3836
S'(code=\'# coding: utf-8\\n\\ndef home():\\n\\tnome = "Fernando"\\n... \\n\\nresponse._vars=response._caller(show_cliente)\\n\', environment={\'A\': <class \'gluon.html.A\'>, \'Auth\': <class \'gluon.tools.Auth\'>, \'B\': <class \'gluon.html.B\'>, \'BEAUTIFY\': <class \'gluon.html.BEAUTIFY\'>, \'BODY\': <class \'gluon.html.BODY\'>, \'BR\': <class \'gluon.html.BR\'>, \'BUTTON\': <class \'gluon.html.BUTTON\'>, \'Blog\': <Table blog (id,title,description)>, \'CAT\': <class \'gluon.html.CAT\'>, \'CENTER\': <class \'gluon.html.CENTER\'>, ...}, layer=\'/var/www/web2py_curso/applications/projeto/controllers/initial.py\')'
p3837
sS'func'
p3838
S'restricted'
p3839
sa(dp3840
g3815
S'/var/www/web2py_curso/applications/projeto/controllers/initial.py'
p3841
sg3817
(dp3842
sg3823
I77
sg3824
(dp3843
I66
S''
sI67
S'def teste2():'
p3844
sI68
S'\treturn "<form><label>Nome</label><input /></form><br><a href=\'http://www.w3schools.com\'>Visit W3Schools</a>"'
p3845
sI69
S'\t#return dict(nome="fernando")'
p3846
sI70
S'\t#return response.render("teste.html", dict(nome="fernando"))'
p3847
sI71
S''
sI72
S'def soma(x, y):'
p3848
sI73
S'\treturn x + y'
p3849
sI74
S''
sI75
S''
ssg3836
S'()'
p3850
sg3838
S'<module>'
p3851
sa(dp3852
g3815
S'/var/www/web2py_curso/gluon/globals.py'
p3853
sg3817
(dp3854
S'self'
p3855
S'undefined'
p3856
sS'f'
S'<function show_cliente>'
p3857
ssg3823
I193
sg3824
(dp3858
I192
S'        self._vars = None'
p3859
sI193
S'        self._caller = lambda f: f()'
p3860
sI194
S'        self._view_environment = None'
p3861
sI195
S'        self._custom_commit = None'
p3862
sI196
S'        self._custom_rollback = None'
p3863
sI197
S''
sI188
S'        self.menu = []             # used by the default view layout'
p3864
sI189
S'        self.files = []            # used by web2py_ajax.html'
p3865
sI190
S'        self.generic_patterns = []  # patterns to allow generic views'
p3866
sI191
S"        self.delimiters = ('{{', '}}')"
p3867
ssg3836
S'(f=<function show_cliente>)'
p3868
sg3838
S'<lambda>'
p3869
sa(dp3870
g3815
S'/var/www/web2py_curso/applications/projeto/controllers/initial.py'
p3871
sg3817
(dp3872
S'global Cliente'
p3873
S'<Table cliente (id,nome,email)>'
p3874
sS'builtinFalse'
p3875
g112
sS'Cliente.id'
p3876
S'<gluon.dal.Field object>'
p3877
ssg3823
I34
sg3824
(dp3878
I32
S''
sI33
S'def show_cliente():'
p3879
sI34
S'\tCliente.id=False'
p3880
sI35
S'\tgrid = SQLFORM.grid(db.cliente,'
p3881
sI36
S'\t\tuser_signature=True, searchable=True,'
p3882
sI37
S'\t\tpaginate=50, deletable=True, editable=True,'
p3883
sI38
S'\t\tdetails=False, ignore_rw = True, maxtextlength=26,'
p3884
sI29
S'def download():'
p3885
sI30
S'\treturn response.download(request, db)'
p3886
sI31
S''
ssg3836
S'()'
p3887
sg3838
S'show_cliente'
p3888
sa(dp3889
g3815
S'/var/www/web2py_curso/gluon/dal.py'
p3890
sg3817
(dp3891
S'builtinSyntaxError'
p3892
S"<type 'exceptions.SyntaxError'>"
p3893
sS'key'
p3894
S"'id'"
p3895
ssg3823
I7804
sg3824
(dp3896
I7808
S'        if isinstance(key, dict):'
p3897
sI7799
S''
sI7800
S'    __getattr__ = __getitem__'
p3898
sI7801
S''
sI7802
S'    def __setattr__(self, key, value):'
p3899
sI7803
S"        if key[:1]!='_' and key in self:"
p3900
sI7804
S"            raise SyntaxError('Object exists and cannot be redefined: %s' % key)"
p3901
sI7805
S'        osetattr(self,key,value)'
p3902
sI7806
S''
sI7807
S'    def __delitem__(self, key):'
p3903
ssg3836
S"(self=<Table cliente (id,nome,email)>, key='id', value=False)"
p3904
sg3838
g26
sasS'pyver'
p3905
S'Python 2.7.3: /usr/bin/python'
p3906
sS'session'
p3907
g69
(g70
g71
NtRp3908
(dp3909
g74
(dp3910
sg76
(lp3911
g69
(g78
g71
NtRp3912
(dp3913
g74
(dp3914
g82
I5
ssg83
Nsg76
(lp3915
g69
(g85
g71
NtRp3916
(dp3917
g74
(dp3918
sg83
g3912
sg76
(lp3919
g69
(g90
g71
NtRp3920
(dp3921
g74
(dp3922
g94
g95
ssg83
g3916
sg76
(lp3923
S'auth'
p3924
asbag69
(g90
g71
NtRp3925
(dp3926
g74
(dp3927
g101
g102
ssg83
g3916
sg76
(lp3928
S':'
asbag69
(g90
g71
NtRp3929
(dp3930
g74
(dp3931
sg83
g3916
sg76
(lp3932
g69
(g70
g71
NtRp3933
(dp3934
g74
(dp3935
g82
I5
ssg83
g3929
sg76
(lp3936
g69
(g78
g71
NtRp3937
(dp3938
g74
(dp3939
g82
I4
ssg83
Nsg76
(lp3940
g69
(g85
g71
NtRp3941
(dp3942
g74
(dp3943
sg83
g3937
sg76
(lp3944
g69
(g90
g71
NtRp3945
(dp3946
g74
(dp3947
g94
g95
ssg83
g3941
sg76
(lp3948
S'expiration'
p3949
asbag69
(g90
g71
NtRp3950
(dp3951
g74
(dp3952
g101
g102
ssg83
g3941
sg76
(lp3953
S':'
asbag69
(g90
g71
NtRp3954
(dp3955
g74
(dp3956
sg83
g3941
sg76
(lp3957
g69
(g70
g71
NtRp3958
(dp3959
g74
(dp3960
g82
I4
ssg83
g3954
sg76
(lp3961
S'3600'
p3962
asbasbasbag69
(g85
g71
NtRp3963
(dp3964
g74
(dp3965
sg83
g3937
sg76
(lp3966
g69
(g90
g71
NtRp3967
(dp3968
g74
(dp3969
g94
g95
ssg83
g3963
sg76
(lp3970
S'hmac_key'
p3971
asbag69
(g90
g71
NtRp3972
(dp3973
g74
(dp3974
g101
g102
ssg83
g3963
sg76
(lp3975
S':'
asbag69
(g90
g71
NtRp3976
(dp3977
g74
(dp3978
sg83
g3963
sg76
(lp3979
g69
(g70
g71
NtRp3980
(dp3981
g74
(dp3982
g82
I4
ssg83
g3976
sg76
(lp3983
S'd8374fb5-f80b-4eb3-b1a3-e4fc2d9fd33e'
p3984
asbasbasbag69
(g85
g71
NtRp3985
(dp3986
g74
(dp3987
sg83
g3937
sg76
(lp3988
g69
(g90
g71
NtRp3989
(dp3990
g74
(dp3991
g94
g95
ssg83
g3985
sg76
(lp3992
S'last_visit'
p3993
asbag69
(g90
g71
NtRp3994
(dp3995
g74
(dp3996
g101
g102
ssg83
g3985
sg76
(lp3997
S':'
asbag69
(g90
g71
NtRp3998
(dp3999
g74
(dp4000
sg83
g3985
sg76
(lp4001
g69
(g70
g71
NtRp4002
(dp4003
g74
(dp4004
g82
I4
ssg83
g3998
sg76
(lp4005
S'datetime.datetime(2013, 1, 28, 11, 27, 28, 515145)'
p4006
asbasbasbag69
(g85
g71
NtRp4007
(dp4008
g74
(dp4009
sg83
g3937
sg76
(lp4010
g69
(g90
g71
NtRp4011
(dp4012
g74
(dp4013
g94
g95
ssg83
g4007
sg76
(lp4014
S'remember'
p4015
asbag69
(g90
g71
NtRp4016
(dp4017
g74
(dp4018
g101
g102
ssg83
g4007
sg76
(lp4019
S':'
asbag69
(g90
g71
NtRp4020
(dp4021
g74
(dp4022
sg83
g4007
sg76
(lp4023
g69
(g70
g71
NtRp4024
(dp4025
g74
(dp4026
g82
I4
ssg83
g4020
sg76
(lp4027
g112
asbasbasbag69
(g85
g71
NtRp4028
(dp4029
g74
(dp4030
sg83
g3937
sg76
(lp4031
g69
(g90
g71
NtRp4032
(dp4033
g74
(dp4034
g94
g95
ssg83
g4028
sg76
(lp4035
S'user'
p4036
asbag69
(g90
g71
NtRp4037
(dp4038
g74
(dp4039
g101
g102
ssg83
g4028
sg76
(lp4040
S':'
asbag69
(g90
g71
NtRp4041
(dp4042
g74
(dp4043
sg83
g4028
sg76
(lp4044
g69
(g70
g71
NtRp4045
(dp4046
g74
(dp4047
g82
I4
ssg83
g4041
sg76
(lp4048
g69
(g78
g71
NtRp4049
(dp4050
g74
(dp4051
g82
I3
ssg83
Nsg76
(lp4052
g69
(g85
g71
NtRp4053
(dp4054
g74
(dp4055
sg83
g4049
sg76
(lp4056
g69
(g90
g71
NtRp4057
(dp4058
g74
(dp4059
g94
g95
ssg83
g4053
sg76
(lp4060
S'bio'
p4061
asbag69
(g90
g71
NtRp4062
(dp4063
g74
(dp4064
g101
g102
ssg83
g4053
sg76
(lp4065
S':'
asbag69
(g90
g71
NtRp4066
(dp4067
g74
(dp4068
sg83
g4053
sg76
(lp4069
g69
(g70
g71
NtRp4070
(dp4071
g74
(dp4072
g82
I3
ssg83
g4066
sg76
(lp4073
S'None'
p4074
asbasbasbag69
(g85
g71
NtRp4075
(dp4076
g74
(dp4077
sg83
g4049
sg76
(lp4078
g69
(g90
g71
NtRp4079
(dp4080
g74
(dp4081
g94
g95
ssg83
g4075
sg76
(lp4082
S'email'
p4083
asbag69
(g90
g71
NtRp4084
(dp4085
g74
(dp4086
g101
g102
ssg83
g4075
sg76
(lp4087
S':'
asbag69
(g90
g71
NtRp4088
(dp4089
g74
(dp4090
sg83
g4075
sg76
(lp4091
g69
(g70
g71
NtRp4092
(dp4093
g74
(dp4094
g82
I3
ssg83
g4088
sg76
(lp4095
S'fernando@ad2.com.br'
p4096
asbasbasbag69
(g85
g71
NtRp4097
(dp4098
g74
(dp4099
sg83
g4049
sg76
(lp4100
g69
(g90
g71
NtRp4101
(dp4102
g74
(dp4103
g94
g95
ssg83
g4097
sg76
(lp4104
S'first_name'
p4105
asbag69
(g90
g71
NtRp4106
(dp4107
g74
(dp4108
g101
g102
ssg83
g4097
sg76
(lp4109
S':'
asbag69
(g90
g71
NtRp4110
(dp4111
g74
(dp4112
sg83
g4097
sg76
(lp4113
g69
(g70
g71
NtRp4114
(dp4115
g74
(dp4116
g82
I3
ssg83
g4110
sg76
(lp4117
S'Dend'
p4118
asbasbasbag69
(g85
g71
NtRp4119
(dp4120
g74
(dp4121
sg83
g4049
sg76
(lp4122
g69
(g90
g71
NtRp4123
(dp4124
g74
(dp4125
g94
g95
ssg83
g4119
sg76
(lp4126
S'gender'
p4127
asbag69
(g90
g71
NtRp4128
(dp4129
g74
(dp4130
g101
g102
ssg83
g4119
sg76
(lp4131
S':'
asbag69
(g90
g71
NtRp4132
(dp4133
g74
(dp4134
sg83
g4119
sg76
(lp4135
g69
(g70
g71
NtRp4136
(dp4137
g74
(dp4138
g82
I3
ssg83
g4132
sg76
(lp4139
S'masculino'
p4140
asbasbasbag69
(g85
g71
NtRp4141
(dp4142
g74
(dp4143
sg83
g4049
sg76
(lp4144
g69
(g90
g71
NtRp4145
(dp4146
g74
(dp4147
g94
g95
ssg83
g4141
sg76
(lp4148
S'id'
p4149
asbag69
(g90
g71
NtRp4150
(dp4151
g74
(dp4152
g101
g102
ssg83
g4141
sg76
(lp4153
S':'
asbag69
(g90
g71
NtRp4154
(dp4155
g74
(dp4156
sg83
g4141
sg76
(lp4157
g69
(g70
g71
NtRp4158
(dp4159
g74
(dp4160
g82
I3
ssg83
g4154
sg76
(lp4161
S'5'
asbasbasbag69
(g85
g71
NtRp4162
(dp4163
g74
(dp4164
sg83
g4049
sg76
(lp4165
g69
(g90
g71
NtRp4166
(dp4167
g74
(dp4168
g94
g95
ssg83
g4162
sg76
(lp4169
S'last_name'
p4170
asbag69
(g90
g71
NtRp4171
(dp4172
g74
(dp4173
g101
g102
ssg83
g4162
sg76
(lp4174
S':'
asbag69
(g90
g71
NtRp4175
(dp4176
g74
(dp4177
sg83
g4162
sg76
(lp4178
g69
(g70
g71
NtRp4179
(dp4180
g74
(dp4181
g82
I3
ssg83
g4175
sg76
(lp4182
S'delkson'
p4183
asbasbasbag69
(g85
g71
NtRp4184
(dp4185
g74
(dp4186
sg83
g4049
sg76
(lp4187
g69
(g90
g71
NtRp4188
(dp4189
g74
(dp4190
g94
g95
ssg83
g4184
sg76
(lp4191
S'photo'
p4192
asbag69
(g90
g71
NtRp4193
(dp4194
g74
(dp4195
g101
g102
ssg83
g4184
sg76
(lp4196
S':'
asbag69
(g90
g71
NtRp4197
(dp4198
g74
(dp4199
sg83
g4184
sg76
(lp4200
g69
(g70
g71
NtRp4201
(dp4202
g74
(dp4203
g82
I3
ssg83
g4197
sg76
(lp4204
S'auth_user.photo.852c1e9d624a7670.746563686e6f6c6f676965735f7068702e706e67.png'
p4205
asbasbasbag69
(g85
g71
NtRp4206
(dp4207
g74
(dp4208
sg83
g4049
sg76
(lp4209
g69
(g90
g71
NtRp4210
(dp4211
g74
(dp4212
g94
g95
ssg83
g4206
sg76
(lp4213
S'registration_id'
p4214
asbag69
(g90
g71
NtRp4215
(dp4216
g74
(dp4217
g101
g102
ssg83
g4206
sg76
(lp4218
S':'
asbag69
(g90
g71
NtRp4219
(dp4220
g74
(dp4221
sg83
g4206
sg76
(lp4222
g69
(g70
g71
NtRp4223
(dp4224
g74
(dp4225
g82
I3
ssg83
g4219
sg76
(lp4226
S''
asbasbasbag69
(g85
g71
NtRp4227
(dp4228
g74
(dp4229
sg83
g4049
sg76
(lp4230
g69
(g90
g71
NtRp4231
(dp4232
g74
(dp4233
g94
g95
ssg83
g4227
sg76
(lp4234
S'registration_key'
p4235
asbag69
(g90
g71
NtRp4236
(dp4237
g74
(dp4238
g101
g102
ssg83
g4227
sg76
(lp4239
S':'
asbag69
(g90
g71
NtRp4240
(dp4241
g74
(dp4242
sg83
g4227
sg76
(lp4243
g69
(g70
g71
NtRp4244
(dp4245
g74
(dp4246
g82
I3
ssg83
g4240
sg76
(lp4247
S''
asbasbasbag69
(g85
g71
NtRp4248
(dp4249
g74
(dp4250
sg83
g4049
sg76
(lp4251
g69
(g90
g71
NtRp4252
(dp4253
g74
(dp4254
g94
g95
ssg83
g4248
sg76
(lp4255
S'reset_password_key'
p4256
asbag69
(g90
g71
NtRp4257
(dp4258
g74
(dp4259
g101
g102
ssg83
g4248
sg76
(lp4260
S':'
asbag69
(g90
g71
NtRp4261
(dp4262
g74
(dp4263
sg83
g4248
sg76
(lp4264
g69
(g70
g71
NtRp4265
(dp4266
g74
(dp4267
g82
I3
ssg83
g4261
sg76
(lp4268
S''
asbasbasbasbasbasbasbag69
(g85
g71
NtRp4269
(dp4270
g74
(dp4271
sg83
g3937
sg76
(lp4272
g69
(g90
g71
NtRp4273
(dp4274
g74
(dp4275
g94
g95
ssg83
g4269
sg76
(lp4276
S'user_groups'
p4277
asbag69
(g90
g71
NtRp4278
(dp4279
g74
(dp4280
g101
g102
ssg83
g4269
sg76
(lp4281
S':'
asbag69
(g90
g71
NtRp4282
(dp4283
g74
(dp4284
sg83
g4269
sg76
(lp4285
g69
(g70
g71
NtRp4286
(dp4287
g74
(dp4288
g82
I4
ssg83
g4282
sg76
(lp4289
g69
(g78
g71
NtRp4290
(dp4291
g74
(dp4292
g82
I3
ssg83
Nsg76
(lp4293
g69
(g85
g71
NtRp4294
(dp4295
g74
(dp4296
sg83
g4290
sg76
(lp4297
g69
(g90
g71
NtRp4298
(dp4299
g74
(dp4300
g94
g95
ssg83
g4294
sg76
(lp4301
S'5'
asbag69
(g90
g71
NtRp4302
(dp4303
g74
(dp4304
g101
g102
ssg83
g4294
sg76
(lp4305
S':'
asbag69
(g90
g71
NtRp4306
(dp4307
g74
(dp4308
sg83
g4294
sg76
(lp4309
g69
(g70
g71
NtRp4310
(dp4311
g74
(dp4312
g82
I3
ssg83
g4306
sg76
(lp4313
S'user_5'
p4314
asbasbasbasbasbasbasbasbasbasbasbag69
(g85
g71
NtRp4315
(dp4316
g74
(dp4317
sg83
g3912
sg76
(lp4318
g69
(g90
g71
NtRp4319
(dp4320
g74
(dp4321
g94
g95
ssg83
g4315
sg76
(lp4322
S'flash'
p4323
asbag69
(g90
g71
NtRp4324
(dp4325
g74
(dp4326
g101
g102
ssg83
g4315
sg76
(lp4327
S':'
asbag69
(g90
g71
NtRp4328
(dp4329
g74
(dp4330
sg83
g4315
sg76
(lp4331
g69
(g70
g71
NtRp4332
(dp4333
g74
(dp4334
g82
I5
ssg83
g4328
sg76
(lp4335
S'None'
p4336
asbasbasbasbasbsS'etype'
p4337
S"<type 'exceptions.SyntaxError'>"
p4338
sS'date'
p4339
S'Mon Jan 28 11:28:49 2013'
p4340
sS'response'
p4341
g69
(g70
g71
NtRp4342
(dp4343
g74
(dp4344
sg76
(lp4345
g69
(g78
g71
NtRp4346
(dp4347
g74
(dp4348
g82
I5
ssg83
Nsg76
(lp4349
g69
(g85
g71
NtRp4350
(dp4351
g74
(dp4352
sg83
g4346
sg76
(lp4353
g69
(g90
g71
NtRp4354
(dp4355
g74
(dp4356
g94
g95
ssg83
g4350
sg76
(lp4357
g167
asbag69
(g90
g71
NtRp4358
(dp4359
g74
(dp4360
g101
g102
ssg83
g4350
sg76
(lp4361
S':'
asbag69
(g90
g71
NtRp4362
(dp4363
g74
(dp4364
sg83
g4350
sg76
(lp4365
g69
(g70
g71
NtRp4366
(dp4367
g74
(dp4368
g82
I5
ssg83
g4362
sg76
(lp4369
S'<cStringIO.StringO object at 0x7fa6100ad0a0>'
p4370
asbasbasbag69
(g85
g71
NtRp4371
(dp4372
g74
(dp4373
sg83
g4346
sg76
(lp4374
g69
(g90
g71
NtRp4375
(dp4376
g74
(dp4377
g94
g95
ssg83
g4371
sg76
(lp4378
g255
asbag69
(g90
g71
NtRp4379
(dp4380
g74
(dp4381
g101
g102
ssg83
g4371
sg76
(lp4382
S':'
asbag69
(g90
g71
NtRp4383
(dp4384
g74
(dp4385
sg83
g4371
sg76
(lp4386
g69
(g70
g71
NtRp4387
(dp4388
g74
(dp4389
g82
I5
ssg83
g4383
sg76
(lp4390
g69
(g78
g71
NtRp4391
(dp4392
g74
(dp4393
g82
I4
ssg83
Nsg76
(lp4394
g69
(g85
g71
NtRp4395
(dp4396
g74
(dp4397
sg83
g4391
sg76
(lp4398
g69
(g90
g71
NtRp4399
(dp4400
g74
(dp4401
g94
g95
ssg83
g4395
sg76
(lp4402
S'session_id_projeto'
p4403
asbag69
(g90
g71
NtRp4404
(dp4405
g74
(dp4406
g101
g102
ssg83
g4395
sg76
(lp4407
S':'
asbag69
(g90
g71
NtRp4408
(dp4409
g74
(dp4410
sg83
g4395
sg76
(lp4411
g69
(g70
g71
NtRp4412
(dp4413
g74
(dp4414
g82
I4
ssg83
g4408
sg76
(lp4415
g1045
ag69
(g78
g71
NtRp4416
(dp4417
g74
(dp4418
g82
I3
ssg83
Nsg76
(lp4419
g69
(g85
g71
NtRp4420
(dp4421
g74
(dp4422
sg83
g4416
sg76
(lp4423
g69
(g90
g71
NtRp4424
(dp4425
g74
(dp4426
g94
g95
ssg83
g4420
sg76
(lp4427
g306
asbag69
(g90
g71
NtRp4428
(dp4429
g74
(dp4430
g101
g102
ssg83
g4420
sg76
(lp4431
S':'
asbag69
(g90
g71
NtRp4432
(dp4433
g74
(dp4434
sg83
g4420
sg76
(lp4435
g69
(g70
g71
NtRp4436
(dp4437
g74
(dp4438
g82
I3
ssg83
g4432
sg76
(lp4439
S''
asbasbasbag69
(g85
g71
NtRp4440
(dp4441
g74
(dp4442
sg83
g4416
sg76
(lp4443
g69
(g90
g71
NtRp4444
(dp4445
g74
(dp4446
g94
g95
ssg83
g4440
sg76
(lp4447
g327
asbag69
(g90
g71
NtRp4448
(dp4449
g74
(dp4450
g101
g102
ssg83
g4440
sg76
(lp4451
S':'
asbag69
(g90
g71
NtRp4452
(dp4453
g74
(dp4454
sg83
g4440
sg76
(lp4455
g69
(g70
g71
NtRp4456
(dp4457
g74
(dp4458
g82
I3
ssg83
g4452
sg76
(lp4459
S''
asbasbasbag69
(g85
g71
NtRp4460
(dp4461
g74
(dp4462
sg83
g4416
sg76
(lp4463
g69
(g90
g71
NtRp4464
(dp4465
g74
(dp4466
g94
g95
ssg83
g4460
sg76
(lp4467
g348
asbag69
(g90
g71
NtRp4468
(dp4469
g74
(dp4470
g101
g102
ssg83
g4460
sg76
(lp4471
S':'
asbag69
(g90
g71
NtRp4472
(dp4473
g74
(dp4474
sg83
g4460
sg76
(lp4475
g69
(g70
g71
NtRp4476
(dp4477
g74
(dp4478
g82
I3
ssg83
g4472
sg76
(lp4479
S''
asbasbasbag69
(g85
g71
NtRp4480
(dp4481
g74
(dp4482
sg83
g4416
sg76
(lp4483
g69
(g90
g71
NtRp4484
(dp4485
g74
(dp4486
g94
g95
ssg83
g4480
sg76
(lp4487
g369
asbag69
(g90
g71
NtRp4488
(dp4489
g74
(dp4490
g101
g102
ssg83
g4480
sg76
(lp4491
S':'
asbag69
(g90
g71
NtRp4492
(dp4493
g74
(dp4494
sg83
g4480
sg76
(lp4495
g69
(g70
g71
NtRp4496
(dp4497
g74
(dp4498
g82
I3
ssg83
g4492
sg76
(lp4499
S''
asbasbasbag69
(g85
g71
NtRp4500
(dp4501
g74
(dp4502
sg83
g4416
sg76
(lp4503
g69
(g90
g71
NtRp4504
(dp4505
g74
(dp4506
g94
g95
ssg83
g4500
sg76
(lp4507
g390
asbag69
(g90
g71
NtRp4508
(dp4509
g74
(dp4510
g101
g102
ssg83
g4500
sg76
(lp4511
S':'
asbag69
(g90
g71
NtRp4512
(dp4513
g74
(dp4514
sg83
g4500
sg76
(lp4515
g69
(g70
g71
NtRp4516
(dp4517
g74
(dp4518
g82
I3
ssg83
g4512
sg76
(lp4519
S''
asbasbasbag69
(g85
g71
NtRp4520
(dp4521
g74
(dp4522
sg83
g4416
sg76
(lp4523
g69
(g90
g71
NtRp4524
(dp4525
g74
(dp4526
g94
g95
ssg83
g4520
sg76
(lp4527
g411
asbag69
(g90
g71
NtRp4528
(dp4529
g74
(dp4530
g101
g102
ssg83
g4520
sg76
(lp4531
S':'
asbag69
(g90
g71
NtRp4532
(dp4533
g74
(dp4534
sg83
g4520
sg76
(lp4535
g69
(g70
g71
NtRp4536
(dp4537
g74
(dp4538
g82
I3
ssg83
g4532
sg76
(lp4539
S'/'
asbasbasbag69
(g85
g71
NtRp4540
(dp4541
g74
(dp4542
sg83
g4416
sg76
(lp4543
g69
(g90
g71
NtRp4544
(dp4545
g74
(dp4546
g94
g95
ssg83
g4540
sg76
(lp4547
g432
asbag69
(g90
g71
NtRp4548
(dp4549
g74
(dp4550
g101
g102
ssg83
g4540
sg76
(lp4551
S':'
asbag69
(g90
g71
NtRp4552
(dp4553
g74
(dp4554
sg83
g4540
sg76
(lp4555
g69
(g70
g71
NtRp4556
(dp4557
g74
(dp4558
g82
I3
ssg83
g4552
sg76
(lp4559
S''
asbasbasbag69
(g85
g71
NtRp4560
(dp4561
g74
(dp4562
sg83
g4416
sg76
(lp4563
g69
(g90
g71
NtRp4564
(dp4565
g74
(dp4566
g94
g95
ssg83
g4560
sg76
(lp4567
g453
asbag69
(g90
g71
NtRp4568
(dp4569
g74
(dp4570
g101
g102
ssg83
g4560
sg76
(lp4571
S':'
asbag69
(g90
g71
NtRp4572
(dp4573
g74
(dp4574
sg83
g4560
sg76
(lp4575
g69
(g70
g71
NtRp4576
(dp4577
g74
(dp4578
g82
I3
ssg83
g4572
sg76
(lp4579
S''
asbasbasbasbasbasbasbasbasbasbasbag69
(g85
g71
NtRp4580
(dp4581
g74
(dp4582
sg83
g4346
sg76
(lp4583
g69
(g90
g71
NtRp4584
(dp4585
g74
(dp4586
g94
g95
ssg83
g4580
sg76
(lp4587
S'delimiters'
p4588
asbag69
(g90
g71
NtRp4589
(dp4590
g74
(dp4591
g101
g102
ssg83
g4580
sg76
(lp4592
S':'
asbag69
(g90
g71
NtRp4593
(dp4594
g74
(dp4595
sg83
g4580
sg76
(lp4596
g69
(g70
g71
NtRp4597
(dp4598
g74
(dp4599
g82
I5
ssg83
g4593
sg76
(lp4600
g69
(g78
g71
NtRp4601
(dp4602
g74
(dp4603
g82
I4
ssg83
Nsg76
(lp4604
g69
(g85
g71
NtRp4605
(dp4606
g74
(dp4607
sg83
g4601
sg76
(lp4608
g69
(g90
g71
NtRp4609
(dp4610
g74
(dp4611
sg83
g4605
sg76
(lp4612
g69
(g70
g71
NtRp4613
(dp4614
g74
(dp4615
g82
I4
ssg83
g4609
sg76
(lp4616
S'{{'
p4617
asbasbasbag69
(g85
g71
NtRp4618
(dp4619
g74
(dp4620
sg83
g4601
sg76
(lp4621
g69
(g90
g71
NtRp4622
(dp4623
g74
(dp4624
sg83
g4618
sg76
(lp4625
g69
(g70
g71
NtRp4626
(dp4627
g74
(dp4628
g82
I4
ssg83
g4622
sg76
(lp4629
S'}}'
p4630
asbasbasbasbasbasbasbag69
(g85
g71
NtRp4631
(dp4632
g74
(dp4633
sg83
g4346
sg76
(lp4634
g69
(g90
g71
NtRp4635
(dp4636
g74
(dp4637
g94
g95
ssg83
g4631
sg76
(lp4638
S'files'
p4639
asbag69
(g90
g71
NtRp4640
(dp4641
g74
(dp4642
g101
g102
ssg83
g4631
sg76
(lp4643
S':'
asbag69
(g90
g71
NtRp4644
(dp4645
g74
(dp4646
sg83
g4631
sg76
(lp4647
g69
(g70
g71
NtRp4648
(dp4649
g74
(dp4650
g82
I5
ssg83
g4644
sg76
(lp4651
g69
(g78
g71
NtRp4652
(dp4653
g74
(dp4654
g82
I4
ssg83
Nsg76
(lp4655
sbasbasbasbag69
(g85
g71
NtRp4656
(dp4657
g74
(dp4658
sg83
g4346
sg76
(lp4659
g69
(g90
g71
NtRp4660
(dp4661
g74
(dp4662
g94
g95
ssg83
g4656
sg76
(lp4663
S'flash'
p4664
asbag69
(g90
g71
NtRp4665
(dp4666
g74
(dp4667
g101
g102
ssg83
g4656
sg76
(lp4668
S':'
asbag69
(g90
g71
NtRp4669
(dp4670
g74
(dp4671
sg83
g4656
sg76
(lp4672
g69
(g70
g71
NtRp4673
(dp4674
g74
(dp4675
g82
I5
ssg83
g4669
sg76
(lp4676
S''
asbasbasbag69
(g85
g71
NtRp4677
(dp4678
g74
(dp4679
sg83
g4346
sg76
(lp4680
g69
(g90
g71
NtRp4681
(dp4682
g74
(dp4683
g94
g95
ssg83
g4677
sg76
(lp4684
S'generic_patterns'
p4685
asbag69
(g90
g71
NtRp4686
(dp4687
g74
(dp4688
g101
g102
ssg83
g4677
sg76
(lp4689
S':'
asbag69
(g90
g71
NtRp4690
(dp4691
g74
(dp4692
sg83
g4677
sg76
(lp4693
g69
(g70
g71
NtRp4694
(dp4695
g74
(dp4696
g82
I5
ssg83
g4690
sg76
(lp4697
g69
(g78
g71
NtRp4698
(dp4699
g74
(dp4700
g82
I4
ssg83
Nsg76
(lp4701
g69
(g85
g71
NtRp4702
(dp4703
g74
(dp4704
sg83
g4698
sg76
(lp4705
g69
(g90
g71
NtRp4706
(dp4707
g74
(dp4708
sg83
g4702
sg76
(lp4709
g69
(g70
g71
NtRp4710
(dp4711
g74
(dp4712
g82
I4
ssg83
g4706
sg76
(lp4713
S'*'
asbasbasbasbasbasbasbag69
(g85
g71
NtRp4714
(dp4715
g74
(dp4716
sg83
g4346
sg76
(lp4717
g69
(g90
g71
NtRp4718
(dp4719
g74
(dp4720
g94
g95
ssg83
g4714
sg76
(lp4721
S'headers'
p4722
asbag69
(g90
g71
NtRp4723
(dp4724
g74
(dp4725
g101
g102
ssg83
g4714
sg76
(lp4726
S':'
asbag69
(g90
g71
NtRp4727
(dp4728
g74
(dp4729
sg83
g4714
sg76
(lp4730
g69
(g70
g71
NtRp4731
(dp4732
g74
(dp4733
g82
I5
ssg83
g4727
sg76
(lp4734
g69
(g78
g71
NtRp4735
(dp4736
g74
(dp4737
g82
I4
ssg83
Nsg76
(lp4738
g69
(g85
g71
NtRp4739
(dp4740
g74
(dp4741
sg83
g4735
sg76
(lp4742
g69
(g90
g71
NtRp4743
(dp4744
g74
(dp4745
g94
g95
ssg83
g4739
sg76
(lp4746
S'X-Powered-By'
p4747
asbag69
(g90
g71
NtRp4748
(dp4749
g74
(dp4750
g101
g102
ssg83
g4739
sg76
(lp4751
S':'
asbag69
(g90
g71
NtRp4752
(dp4753
g74
(dp4754
sg83
g4739
sg76
(lp4755
g69
(g70
g71
NtRp4756
(dp4757
g74
(dp4758
g82
I4
ssg83
g4752
sg76
(lp4759
S'web2py'
p4760
asbasbasbasbasbasbasbag69
(g85
g71
NtRp4761
(dp4762
g74
(dp4763
sg83
g4346
sg76
(lp4764
g69
(g90
g71
NtRp4765
(dp4766
g74
(dp4767
g94
g95
ssg83
g4761
sg76
(lp4768
S'menu'
p4769
asbag69
(g90
g71
NtRp4770
(dp4771
g74
(dp4772
g101
g102
ssg83
g4761
sg76
(lp4773
S':'
asbag69
(g90
g71
NtRp4774
(dp4775
g74
(dp4776
sg83
g4761
sg76
(lp4777
g69
(g70
g71
NtRp4778
(dp4779
g74
(dp4780
g82
I5
ssg83
g4774
sg76
(lp4781
g69
(g78
g71
NtRp4782
(dp4783
g74
(dp4784
g82
I4
ssg83
Nsg76
(lp4785
sbasbasbasbag69
(g85
g71
NtRp4786
(dp4787
g74
(dp4788
sg83
g4346
sg76
(lp4789
g69
(g90
g71
NtRp4790
(dp4791
g74
(dp4792
g94
g95
ssg83
g4786
sg76
(lp4793
S'meta'
p4794
asbag69
(g90
g71
NtRp4795
(dp4796
g74
(dp4797
g101
g102
ssg83
g4786
sg76
(lp4798
S':'
asbag69
(g90
g71
NtRp4799
(dp4800
g74
(dp4801
sg83
g4786
sg76
(lp4802
g69
(g70
g71
NtRp4803
(dp4804
g74
(dp4805
g82
I5
ssg83
g4799
sg76
(lp4806
g69
(g78
g71
NtRp4807
(dp4808
g74
(dp4809
g82
I4
ssg83
Nsg76
(lp4810
g69
(g85
g71
NtRp4811
(dp4812
g74
(dp4813
sg83
g4807
sg76
(lp4814
g69
(g90
g71
NtRp4815
(dp4816
g74
(dp4817
g94
g95
ssg83
g4811
sg76
(lp4818
S'keywords'
p4819
asbag69
(g90
g71
NtRp4820
(dp4821
g74
(dp4822
g101
g102
ssg83
g4811
sg76
(lp4823
S':'
asbag69
(g90
g71
NtRp4824
(dp4825
g74
(dp4826
sg83
g4811
sg76
(lp4827
g69
(g70
g71
NtRp4828
(dp4829
g74
(dp4830
g82
I4
ssg83
g4824
sg76
(lp4831
S'chave, outra, e outra'
p4832
asbasbasbasbasbasbasbag69
(g85
g71
NtRp4833
(dp4834
g74
(dp4835
sg83
g4346
sg76
(lp4836
g69
(g90
g71
NtRp4837
(dp4838
g74
(dp4839
g94
g95
ssg83
g4833
sg76
(lp4840
S'models_to_run'
p4841
asbag69
(g90
g71
NtRp4842
(dp4843
g74
(dp4844
g101
g102
ssg83
g4833
sg76
(lp4845
S':'
asbag69
(g90
g71
NtRp4846
(dp4847
g74
(dp4848
sg83
g4833
sg76
(lp4849
g69
(g70
g71
NtRp4850
(dp4851
g74
(dp4852
g82
I5
ssg83
g4846
sg76
(lp4853
g69
(g78
g71
NtRp4854
(dp4855
g74
(dp4856
g82
I4
ssg83
Nsg76
(lp4857
g69
(g85
g71
NtRp4858
(dp4859
g74
(dp4860
sg83
g4854
sg76
(lp4861
g69
(g90
g71
NtRp4862
(dp4863
g74
(dp4864
sg83
g4858
sg76
(lp4865
g69
(g70
g71
NtRp4866
(dp4867
g74
(dp4868
g82
I4
ssg83
g4862
sg76
(lp4869
S'^\\w+\\.py$'
p4870
asbasbasbag69
(g85
g71
NtRp4871
(dp4872
g74
(dp4873
sg83
g4854
sg76
(lp4874
g69
(g90
g71
NtRp4875
(dp4876
g74
(dp4877
sg83
g4871
sg76
(lp4878
g69
(g70
g71
NtRp4879
(dp4880
g74
(dp4881
g82
I4
ssg83
g4875
sg76
(lp4882
S'^initial/\\w+\\.py$'
p4883
asbasbasbag69
(g85
g71
NtRp4884
(dp4885
g74
(dp4886
sg83
g4854
sg76
(lp4887
g69
(g90
g71
NtRp4888
(dp4889
g74
(dp4890
sg83
g4884
sg76
(lp4891
g69
(g70
g71
NtRp4892
(dp4893
g74
(dp4894
g82
I4
ssg83
g4888
sg76
(lp4895
S'^initial/show_cliente/\\w+\\.py$'
p4896
asbasbasbasbasbasbasbag69
(g85
g71
NtRp4897
(dp4898
g74
(dp4899
sg83
g4346
sg76
(lp4900
g69
(g90
g71
NtRp4901
(dp4902
g74
(dp4903
g94
g95
ssg83
g4897
sg76
(lp4904
S'postprocessing'
p4905
asbag69
(g90
g71
NtRp4906
(dp4907
g74
(dp4908
g101
g102
ssg83
g4897
sg76
(lp4909
S':'
asbag69
(g90
g71
NtRp4910
(dp4911
g74
(dp4912
sg83
g4897
sg76
(lp4913
g69
(g70
g71
NtRp4914
(dp4915
g74
(dp4916
g82
I5
ssg83
g4910
sg76
(lp4917
g69
(g78
g71
NtRp4918
(dp4919
g74
(dp4920
g82
I4
ssg83
Nsg76
(lp4921
sbasbasbasbag69
(g85
g71
NtRp4922
(dp4923
g74
(dp4924
sg83
g4346
sg76
(lp4925
g69
(g90
g71
NtRp4926
(dp4927
g74
(dp4928
g94
g95
ssg83
g4922
sg76
(lp4929
S'session_cookie_expires'
p4930
asbag69
(g90
g71
NtRp4931
(dp4932
g74
(dp4933
g101
g102
ssg83
g4922
sg76
(lp4934
S':'
asbag69
(g90
g71
NtRp4935
(dp4936
g74
(dp4937
sg83
g4922
sg76
(lp4938
g69
(g70
g71
NtRp4939
(dp4940
g74
(dp4941
g82
I5
ssg83
g4935
sg76
(lp4942
S'None'
p4943
asbasbasbag69
(g85
g71
NtRp4944
(dp4945
g74
(dp4946
sg83
g4346
sg76
(lp4947
g69
(g90
g71
NtRp4948
(dp4949
g74
(dp4950
g94
g95
ssg83
g4944
sg76
(lp4951
S'session_data_name'
p4952
asbag69
(g90
g71
NtRp4953
(dp4954
g74
(dp4955
g101
g102
ssg83
g4944
sg76
(lp4956
S':'
asbag69
(g90
g71
NtRp4957
(dp4958
g74
(dp4959
sg83
g4944
sg76
(lp4960
g69
(g70
g71
NtRp4961
(dp4962
g74
(dp4963
g82
I5
ssg83
g4957
sg76
(lp4964
S'session_data_projeto'
p4965
asbasbasbag69
(g85
g71
NtRp4966
(dp4967
g74
(dp4968
sg83
g4346
sg76
(lp4969
g69
(g90
g71
NtRp4970
(dp4971
g74
(dp4972
g94
g95
ssg83
g4966
sg76
(lp4973
S'session_file'
p4974
asbag69
(g90
g71
NtRp4975
(dp4976
g74
(dp4977
g101
g102
ssg83
g4966
sg76
(lp4978
S':'
asbag69
(g90
g71
NtRp4979
(dp4980
g74
(dp4981
sg83
g4966
sg76
(lp4982
g69
(g70
g71
NtRp4983
(dp4984
g74
(dp4985
g82
I5
ssg83
g4979
sg76
(lp4986
S"<open file '/var/www/web2py_curso/applications/projeto/sessions/127.0.0.1-18527971-1df2-4c1d-9da6-3d7a58f07f33', mode 'rb+' at 0x7fa6100d2660>"
p4987
asbasbasbag69
(g85
g71
NtRp4988
(dp4989
g74
(dp4990
sg83
g4346
sg76
(lp4991
g69
(g90
g71
NtRp4992
(dp4993
g74
(dp4994
g94
g95
ssg83
g4988
sg76
(lp4995
S'session_filename'
p4996
asbag69
(g90
g71
NtRp4997
(dp4998
g74
(dp4999
g101
g102
ssg83
g4988
sg76
(lp5000
S':'
asbag69
(g90
g71
NtRp5001
(dp5002
g74
(dp5003
sg83
g4988
sg76
(lp5004
g69
(g70
g71
NtRp5005
(dp5006
g74
(dp5007
g82
I5
ssg83
g5001
sg76
(lp5008
S'/var/www/web2py_curso/applications/projeto/sessions/127.0.0.1-18527971-1df2-4c1d-9da6-3d7a58f07f33'
p5009
asbasbasbag69
(g85
g71
NtRp5010
(dp5011
g74
(dp5012
sg83
g4346
sg76
(lp5013
g69
(g90
g71
NtRp5014
(dp5015
g74
(dp5016
g94
g95
ssg83
g5010
sg76
(lp5017
S'session_id'
p5018
asbag69
(g90
g71
NtRp5019
(dp5020
g74
(dp5021
g101
g102
ssg83
g5010
sg76
(lp5022
S':'
asbag69
(g90
g71
NtRp5023
(dp5024
g74
(dp5025
sg83
g5010
sg76
(lp5026
g69
(g70
g71
NtRp5027
(dp5028
g74
(dp5029
g82
I5
ssg83
g5023
sg76
(lp5030
g1045
asbasbasbag69
(g85
g71
NtRp5031
(dp5032
g74
(dp5033
sg83
g4346
sg76
(lp5034
g69
(g90
g71
NtRp5035
(dp5036
g74
(dp5037
g94
g95
ssg83
g5031
sg76
(lp5038
S'session_id_name'
p5039
asbag69
(g90
g71
NtRp5040
(dp5041
g74
(dp5042
g101
g102
ssg83
g5031
sg76
(lp5043
S':'
asbag69
(g90
g71
NtRp5044
(dp5045
g74
(dp5046
sg83
g5031
sg76
(lp5047
g69
(g70
g71
NtRp5048
(dp5049
g74
(dp5050
g82
I5
ssg83
g5044
sg76
(lp5051
g4403
asbasbasbag69
(g85
g71
NtRp5052
(dp5053
g74
(dp5054
sg83
g4346
sg76
(lp5055
g69
(g90
g71
NtRp5056
(dp5057
g74
(dp5058
g94
g95
ssg83
g5052
sg76
(lp5059
S'session_locked'
p5060
asbag69
(g90
g71
NtRp5061
(dp5062
g74
(dp5063
g101
g102
ssg83
g5052
sg76
(lp5064
S':'
asbag69
(g90
g71
NtRp5065
(dp5066
g74
(dp5067
sg83
g5052
sg76
(lp5068
g69
(g70
g71
NtRp5069
(dp5070
g74
(dp5071
g82
I5
ssg83
g5065
sg76
(lp5072
g2385
asbasbasbag69
(g85
g71
NtRp5073
(dp5074
g74
(dp5075
sg83
g4346
sg76
(lp5076
g69
(g90
g71
NtRp5077
(dp5078
g74
(dp5079
g94
g95
ssg83
g5073
sg76
(lp5080
S'session_new'
p5081
asbag69
(g90
g71
NtRp5082
(dp5083
g74
(dp5084
g101
g102
ssg83
g5073
sg76
(lp5085
S':'
asbag69
(g90
g71
NtRp5086
(dp5087
g74
(dp5088
sg83
g5073
sg76
(lp5089
g69
(g70
g71
NtRp5090
(dp5091
g74
(dp5092
g82
I5
ssg83
g5086
sg76
(lp5093
g112
asbasbasbag69
(g85
g71
NtRp5094
(dp5095
g74
(dp5096
sg83
g4346
sg76
(lp5097
g69
(g90
g71
NtRp5098
(dp5099
g74
(dp5100
g94
g95
ssg83
g5094
sg76
(lp5101
S'session_storage_type'
p5102
asbag69
(g90
g71
NtRp5103
(dp5104
g74
(dp5105
g101
g102
ssg83
g5094
sg76
(lp5106
S':'
asbag69
(g90
g71
NtRp5107
(dp5108
g74
(dp5109
sg83
g5094
sg76
(lp5110
g69
(g70
g71
NtRp5111
(dp5112
g74
(dp5113
g82
I5
ssg83
g5107
sg76
(lp5114
g3815
asbasbasbag69
(g85
g71
NtRp5115
(dp5116
g74
(dp5117
sg83
g4346
sg76
(lp5118
g69
(g90
g71
NtRp5119
(dp5120
g74
(dp5121
g94
g95
ssg83
g5115
sg76
(lp5122
S'status'
p5123
asbag69
(g90
g71
NtRp5124
(dp5125
g74
(dp5126
g101
g102
ssg83
g5115
sg76
(lp5127
S':'
asbag69
(g90
g71
NtRp5128
(dp5129
g74
(dp5130
sg83
g5115
sg76
(lp5131
g69
(g70
g71
NtRp5132
(dp5133
g74
(dp5134
g82
I5
ssg83
g5128
sg76
(lp5135
S'200'
p5136
asbasbasbag69
(g85
g71
NtRp5137
(dp5138
g74
(dp5139
sg83
g4346
sg76
(lp5140
g69
(g90
g71
NtRp5141
(dp5142
g74
(dp5143
g94
g95
ssg83
g5137
sg76
(lp5144
S'title'
p5145
asbag69
(g90
g71
NtRp5146
(dp5147
g74
(dp5148
g101
g102
ssg83
g5137
sg76
(lp5149
S':'
asbag69
(g90
g71
NtRp5150
(dp5151
g74
(dp5152
sg83
g5137
sg76
(lp5153
g69
(g70
g71
NtRp5154
(dp5155
g74
(dp5156
g82
I5
ssg83
g5150
sg76
(lp5157
S'titulo response'
p5158
asbasbasbag69
(g85
g71
NtRp5159
(dp5160
g74
(dp5161
sg83
g4346
sg76
(lp5162
g69
(g90
g71
NtRp5163
(dp5164
g74
(dp5165
g94
g95
ssg83
g5159
sg76
(lp5166
S'view'
p5167
asbag69
(g90
g71
NtRp5168
(dp5169
g74
(dp5170
g101
g102
ssg83
g5159
sg76
(lp5171
S':'
asbag69
(g90
g71
NtRp5172
(dp5173
g74
(dp5174
sg83
g5159
sg76
(lp5175
g69
(g70
g71
NtRp5176
(dp5177
g74
(dp5178
g82
I5
ssg83
g5172
sg76
(lp5179
S'initial/show_cliente.html'
p5180
asbasbasbasbasbsS'locals'
p5181
(dp5182
S'self'
p5183
S'<Table cliente (id,nome,email)>'
p5184
sS'value'
p5185
g112
sS'key'
p5186
S"'id'"
p5187
sssS'traceback'
p5188
S'Traceback (most recent call last):\n  File "/var/www/web2py_curso/gluon/restricted.py", line 212, in restricted\n    exec ccode in environment\n  File "/var/www/web2py_curso/applications/projeto/controllers/initial.py", line 77, in <module>\n  File "/var/www/web2py_curso/gluon/globals.py", line 193, in <lambda>\n    self._caller = lambda f: f()\n  File "/var/www/web2py_curso/applications/projeto/controllers/initial.py", line 34, in show_cliente\n    Cliente.id=False\n  File "/var/www/web2py_curso/gluon/dal.py", line 7804, in __setattr__\n    raise SyntaxError(\'Object exists and cannot be redefined: %s\' % key)\nSyntaxError: Object exists and cannot be redefined: id\n'
p5189
s.