(dp1
S'output'
p2
S"<type 'exceptions.SyntaxError'> invalid syntax (initial.py, line 71)"
p3
sS'layer'
p4
S'/var/www/web2py_curso/applications/projeto/controllers/initial.py'
p5
sS'code'
p6
S'# coding: utf-8\n\ndef home():\n\tnome = "Fernando"\n\tresponse.title = "Titulo home"\n\treturn dict(nome=nome)\n\ndef contact():\n\treturn "form"\n\ndef about():\n\treturn "sobre"\n\ndef user():\n\tif request.args(0) == \'register\':\n        \tdb.auth_user.bio.writable = db.auth_user.bio.readable = False\n\treturn dict(user=auth())\n\ndef register():\n\treturn auth.register()\n\ndef login():\n        return auth.login()\n\ndef account():\n    return dict(register=auth.register(),\n                login=auth.login())\n\t\ndef download():\n\treturn response.download(request, db)\n\n\n\ndef show_cliente():\n\tresponse.title="Clientes"\n\tdb.args=Cliente.id.readable=False\n\tgrid = SQLFORM.grid(Cliente,\n\t\tuser_signature=True, searchable=True, \n\t\tpaginate=50, deletable=True, editable=True, \n\t\tdetails=False, ignore_rw = True, maxtextlength=26,  \n    \tlinks = [lambda row: A(\'hosts\', _class=\'btn\', \n\t\t\t_title=\'ver servidores\', \n\t\t\t_href=URL("initial", "/cliente_host", \n\t\t\tvars=dict(f=row.id)))]\n    \t)\n\treturn response.render("initial/show_grid.html", grid=grid)\n\ndef show_servidor():\n\tresponse.title="Servidores"\n\tdb.args=Servidor.id.readable=False\n\tgrid = SQLFORM.grid(Servidor,\n\t\tuser_signature=True, searchable=True, \n\t\tpaginate=50, deletable=True, editable=True, \n\t\tdetails=False, ignore_rw = True, maxtextlength=26,  \n    \tlinks = [lambda row: A(\'hosts\', _class=\'btn\', _title=\'ver servidores\', _href=URL("default", "/cliente_host", vars=dict(f=row.id)))]\n\t\t)\n\treturn response.render("initial/show_grid.html", grid=grid)\n\ndef show_distro():\n\tresponse.title="Distribui\xc3\xa7\xc3\xb5es"\n\tdb.args=Distro.id.readable=False\n\tgrid = SQLFORM.grid(Distro,\n\t\tuser_signature=True, searchable=True, \n\t\tpaginate=50, deletable=True, editable=True, \n\t\tdetails=False, ignore_rw = True, maxtextlength=26,  \n    \tlinks = [lambda row: A(\'hosts\', _class=\'btn\', _title=\'ver servidores\', _href=URL("default", "/cliente_host", vars=dict(f=row.id)))]\n\t\t)\n\treturn response.render("initial/show_grid.html", grid=grid)\n\ndef cliente_host():\n\tresponse.title = db.hosts.id_cliente[]\n\tfiltro = request.vars[\'f\']\n\tprint filtro\n\t#cliente = db.executesql(\'SELECT nome FROM cliente WHERE id = %s;\' %str(filtro))\n\t\n\tdb.hosts.id.readable=False\n\tquery=((db.hosts.id_cliente == filtro))\n\tfields = (db.hosts.id, db.hosts.id_servidor, db.hosts.id_distro, \n\t\t\t\tdb.hosts.servicos, db.hosts.nome)\n\theaders = {\'host.id\':   \'ID\',\n           \'host.id_servidor\': \'Servidor\',\n           \'host.id_distro\': \'Distro\',\n          \'host.nome\': \'Nome\',\n\t   \'host.servicos\': \'Servicos\'}\n\tgrid = SQLFORM.grid(query=query, fields=fields, headers=headers, \n\t\t\t\t\t\tdetails=False, maxtextlength=23)\n\n\treturn response.render("initial/show_grid.html", grid=grid)\n\n\n\n\ndef exemplo():\n#\treturn "teste"\n\treturn response.render("default/teste.html", nome="fernando", sobrenome="vieira", lista=["item1", "item2", "item3"])\n\ndef teste1():\n\tprint "Action index"\n\tprint request.args\n\tprint request.vars \t\n\tprint request.post_vars #somente entradas de formul\xc3\xa1rio\n    \tprint request.get_vars  #somente entradas de url\n    \t#nome = request.vars[\'nome\']\n        mensagem = "Bem Vindo"\n        form = "<form action=\'\' method=\'POST\'><input name=\'nome\' id=\'nome\'/><input type=\'Submit\'></form><br>"\n        if \'nome\' in request.vars:\n\t\tform = "<p>Bem vindo %(nome)s</p>" % request.vars + form\t\t\n\t\t#mensagem = mensagem + " usu\xc3\xa1rio %(nome)s" % request.vars\t#mostrando variavel da url\n        \t#mensagem = mensagem + " usu\xc3\xa1rio %s" %str(nome)\t\t\t#mostrando uma variavel local    \n\treturn form\n\ndef teste2():\n\treturn "<form><label>Nome</label><input /></form><br><a href=\'http://www.w3schools.com\'>Visit W3Schools</a>"\n\t#return dict(nome="fernando")\n\t#return response.render("teste.html", dict(nome="fernando"))\n\ndef soma(x, y):\n\treturn x + y\n\n \n\nresponse._vars=response._caller(cliente_host)\n'
p7
sS'snapshot'
p8
(dp9
S'exception'
p10
(dp11
S'__getslice__'
p12
S"<method-wrapper '__getslice__' of exceptions.SyntaxError object>"
p13
sS'text'
p14
S"'\\tresponse.title = db.hosts.id_cliente[]\\n'"
p15
sS'__str__'
p16
S"<method-wrapper '__str__' of exceptions.SyntaxError object>"
p17
sS'__reduce__'
p18
S'<built-in method __reduce__ of exceptions.SyntaxError object>'
p19
sS'__dict__'
p20
S'{}'
p21
sS'__sizeof__'
p22
S'<built-in method __sizeof__ of exceptions.SyntaxError object>'
p23
sS'__init__'
p24
S"<method-wrapper '__init__' of exceptions.SyntaxError object>"
p25
sS'__setattr__'
p26
S"<method-wrapper '__setattr__' of exceptions.SyntaxError object>"
p27
sS'__reduce_ex__'
p28
S'<built-in method __reduce_ex__ of exceptions.SyntaxError object>'
p29
sS'__new__'
p30
S'<built-in method __new__ of type object>'
p31
sS'__format__'
p32
S'<built-in method __format__ of exceptions.SyntaxError object>'
p33
sS'__class__'
p34
S"<type 'exceptions.SyntaxError'>"
p35
sS'filename'
p36
S"'/var/www/web2py_curso/applications/projeto/controllers/initial.py'"
p37
sS'lineno'
p38
S'71'
p39
sS'msg'
p40
S"'invalid syntax'"
p41
sS'__doc__'
p42
S"'Invalid syntax.'"
p43
sS'__getitem__'
p44
S"<method-wrapper '__getitem__' of exceptions.SyntaxError object>"
p45
sS'__setstate__'
p46
S'<built-in method __setstate__ of exceptions.SyntaxError object>'
p47
sS'__getattribute__'
p48
S"<method-wrapper '__getattribute__' of exceptions.SyntaxError object>"
p49
sS'print_file_and_line'
p50
S'None'
p51
sS'args'
p52
S"('invalid syntax', ('/var/www/web2py_curso/applications/projeto/controllers/initial.py', 71, 39, '\\tresponse.title = db.hosts.id_cliente[]\\n'))"
p53
sS'__subclasshook__'
p54
S'<built-in method __subclasshook__ of type object>'
p55
sS'offset'
p56
S'39'
p57
sS'__unicode__'
p58
S'<built-in method __unicode__ of exceptions.SyntaxError object>'
p59
sS'__delattr__'
p60
S"<method-wrapper '__delattr__' of exceptions.SyntaxError object>"
p61
sS'__repr__'
p62
S"<method-wrapper '__repr__' of exceptions.SyntaxError object>"
p63
sS'__hash__'
p64
S"<method-wrapper '__hash__' of exceptions.SyntaxError object>"
p65
ssS'evalue'
p66
S'invalid syntax (initial.py, line 71)'
p67
sS'request'
p68
ccopy_reg
_reconstructor
p69
(cgluon.html
BEAUTIFY
p70
c__builtin__
object
p71
NtRp72
(dp73
S'attributes'
p74
(dp75
sS'components'
p76
(lp77
g69
(cgluon.html
TABLE
p78
g71
NtRp79
(dp80
g74
(dp81
S'level'
p82
I5
ssS'parent'
p83
Nsg76
(lp84
g69
(cgluon.html
TR
p85
g71
NtRp86
(dp87
g74
(dp88
sg83
g79
sg76
(lp89
g69
(cgluon.html
TD
p90
g71
NtRp91
(dp92
g74
(dp93
S'_style'
p94
S'font-weight:bold;vertical-align:top'
p95
ssg83
g86
sg76
(lp96
S'ajax'
p97
asbag69
(g90
g71
NtRp98
(dp99
g74
(dp100
S'_valign'
p101
S'top'
p102
ssg83
g86
sg76
(lp103
S':'
asbag69
(g90
g71
NtRp104
(dp105
g74
(dp106
sg83
g86
sg76
(lp107
g69
(g70
g71
NtRp108
(dp109
g74
(dp110
g82
I5
ssg83
g104
sg76
(lp111
S'False'
p112
asbasbasbag69
(g85
g71
NtRp113
(dp114
g74
(dp115
sg83
g79
sg76
(lp116
g69
(g90
g71
NtRp117
(dp118
g74
(dp119
g94
g95
ssg83
g113
sg76
(lp120
S'application'
p121
asbag69
(g90
g71
NtRp122
(dp123
g74
(dp124
g101
g102
ssg83
g113
sg76
(lp125
S':'
asbag69
(g90
g71
NtRp126
(dp127
g74
(dp128
sg83
g113
sg76
(lp129
g69
(g70
g71
NtRp130
(dp131
g74
(dp132
g82
I5
ssg83
g126
sg76
(lp133
S'projeto'
p134
asbasbasbag69
(g85
g71
NtRp135
(dp136
g74
(dp137
sg83
g79
sg76
(lp138
g69
(g90
g71
NtRp139
(dp140
g74
(dp141
g94
g95
ssg83
g135
sg76
(lp142
g52
asbag69
(g90
g71
NtRp143
(dp144
g74
(dp145
g101
g102
ssg83
g135
sg76
(lp146
S':'
asbag69
(g90
g71
NtRp147
(dp148
g74
(dp149
sg83
g135
sg76
(lp150
g69
(g70
g71
NtRp151
(dp152
g74
(dp153
g82
I5
ssg83
g147
sg76
(lp154
g69
(g78
g71
NtRp155
(dp156
g74
(dp157
g82
I4
ssg83
Nsg76
(lp158
sbasbasbasbag69
(g85
g71
NtRp159
(dp160
g74
(dp161
sg83
g79
sg76
(lp162
g69
(g90
g71
NtRp163
(dp164
g74
(dp165
g94
g95
ssg83
g159
sg76
(lp166
S'body'
p167
asbag69
(g90
g71
NtRp168
(dp169
g74
(dp170
g101
g102
ssg83
g159
sg76
(lp171
S':'
asbag69
(g90
g71
NtRp172
(dp173
g74
(dp174
sg83
g159
sg76
(lp175
g69
(g70
g71
NtRp176
(dp177
g74
(dp178
g82
I5
ssg83
g172
sg76
(lp179
S'<cStringIO.StringO object at 0x7f409c0beb58>'
p180
asbasbasbag69
(g85
g71
NtRp181
(dp182
g74
(dp183
sg83
g79
sg76
(lp184
g69
(g90
g71
NtRp185
(dp186
g74
(dp187
g94
g95
ssg83
g181
sg76
(lp188
S'cid'
p189
asbag69
(g90
g71
NtRp190
(dp191
g74
(dp192
g101
g102
ssg83
g181
sg76
(lp193
S':'
asbag69
(g90
g71
NtRp194
(dp195
g74
(dp196
sg83
g181
sg76
(lp197
g69
(g70
g71
NtRp198
(dp199
g74
(dp200
g82
I5
ssg83
g194
sg76
(lp201
S'None'
p202
asbasbasbag69
(g85
g71
NtRp203
(dp204
g74
(dp205
sg83
g79
sg76
(lp206
g69
(g90
g71
NtRp207
(dp208
g74
(dp209
g94
g95
ssg83
g203
sg76
(lp210
S'client'
p211
asbag69
(g90
g71
NtRp212
(dp213
g74
(dp214
g101
g102
ssg83
g203
sg76
(lp215
S':'
asbag69
(g90
g71
NtRp216
(dp217
g74
(dp218
sg83
g203
sg76
(lp219
g69
(g70
g71
NtRp220
(dp221
g74
(dp222
g82
I5
ssg83
g216
sg76
(lp223
S'127.0.0.1'
p224
asbasbasbag69
(g85
g71
NtRp225
(dp226
g74
(dp227
sg83
g79
sg76
(lp228
g69
(g90
g71
NtRp229
(dp230
g74
(dp231
g94
g95
ssg83
g225
sg76
(lp232
S'controller'
p233
asbag69
(g90
g71
NtRp234
(dp235
g74
(dp236
g101
g102
ssg83
g225
sg76
(lp237
S':'
asbag69
(g90
g71
NtRp238
(dp239
g74
(dp240
sg83
g225
sg76
(lp241
g69
(g70
g71
NtRp242
(dp243
g74
(dp244
g82
I5
ssg83
g238
sg76
(lp245
S'initial'
p246
asbasbasbag69
(g85
g71
NtRp247
(dp248
g74
(dp249
sg83
g79
sg76
(lp250
g69
(g90
g71
NtRp251
(dp252
g74
(dp253
g94
g95
ssg83
g247
sg76
(lp254
S'cookies'
p255
asbag69
(g90
g71
NtRp256
(dp257
g74
(dp258
g101
g102
ssg83
g247
sg76
(lp259
S':'
asbag69
(g90
g71
NtRp260
(dp261
g74
(dp262
sg83
g247
sg76
(lp263
g69
(g70
g71
NtRp264
(dp265
g74
(dp266
g82
I5
ssg83
g260
sg76
(lp267
g69
(g78
g71
NtRp268
(dp269
g74
(dp270
g82
I4
ssg83
Nsg76
(lp271
g69
(g85
g71
NtRp272
(dp273
g74
(dp274
sg83
g268
sg76
(lp275
g69
(g90
g71
NtRp276
(dp277
g74
(dp278
g94
g95
ssg83
g272
sg76
(lp279
S'admin'
p280
asbag69
(g90
g71
NtRp281
(dp282
g74
(dp283
g101
g102
ssg83
g272
sg76
(lp284
S':'
asbag69
(g90
g71
NtRp285
(dp286
g74
(dp287
sg83
g272
sg76
(lp288
g69
(g70
g71
NtRp289
(dp290
g74
(dp291
g82
I4
ssg83
g285
sg76
(lp292
S'admin'
p293
ag69
(g78
g71
NtRp294
(dp295
g74
(dp296
g82
I3
ssg83
Nsg76
(lp297
g69
(g85
g71
NtRp298
(dp299
g74
(dp300
sg83
g294
sg76
(lp301
g69
(g90
g71
NtRp302
(dp303
g74
(dp304
g94
g95
ssg83
g298
sg76
(lp305
S'comment'
p306
asbag69
(g90
g71
NtRp307
(dp308
g74
(dp309
g101
g102
ssg83
g298
sg76
(lp310
S':'
asbag69
(g90
g71
NtRp311
(dp312
g74
(dp313
sg83
g298
sg76
(lp314
g69
(g70
g71
NtRp315
(dp316
g74
(dp317
g82
I3
ssg83
g311
sg76
(lp318
S''
asbasbasbag69
(g85
g71
NtRp319
(dp320
g74
(dp321
sg83
g294
sg76
(lp322
g69
(g90
g71
NtRp323
(dp324
g74
(dp325
g94
g95
ssg83
g319
sg76
(lp326
S'domain'
p327
asbag69
(g90
g71
NtRp328
(dp329
g74
(dp330
g101
g102
ssg83
g319
sg76
(lp331
S':'
asbag69
(g90
g71
NtRp332
(dp333
g74
(dp334
sg83
g319
sg76
(lp335
g69
(g70
g71
NtRp336
(dp337
g74
(dp338
g82
I3
ssg83
g332
sg76
(lp339
S''
asbasbasbag69
(g85
g71
NtRp340
(dp341
g74
(dp342
sg83
g294
sg76
(lp343
g69
(g90
g71
NtRp344
(dp345
g74
(dp346
g94
g95
ssg83
g340
sg76
(lp347
S'expires'
p348
asbag69
(g90
g71
NtRp349
(dp350
g74
(dp351
g101
g102
ssg83
g340
sg76
(lp352
S':'
asbag69
(g90
g71
NtRp353
(dp354
g74
(dp355
sg83
g340
sg76
(lp356
g69
(g70
g71
NtRp357
(dp358
g74
(dp359
g82
I3
ssg83
g353
sg76
(lp360
S''
asbasbasbag69
(g85
g71
NtRp361
(dp362
g74
(dp363
sg83
g294
sg76
(lp364
g69
(g90
g71
NtRp365
(dp366
g74
(dp367
g94
g95
ssg83
g361
sg76
(lp368
S'httponly'
p369
asbag69
(g90
g71
NtRp370
(dp371
g74
(dp372
g101
g102
ssg83
g361
sg76
(lp373
S':'
asbag69
(g90
g71
NtRp374
(dp375
g74
(dp376
sg83
g361
sg76
(lp377
g69
(g70
g71
NtRp378
(dp379
g74
(dp380
g82
I3
ssg83
g374
sg76
(lp381
S''
asbasbasbag69
(g85
g71
NtRp382
(dp383
g74
(dp384
sg83
g294
sg76
(lp385
g69
(g90
g71
NtRp386
(dp387
g74
(dp388
g94
g95
ssg83
g382
sg76
(lp389
S'max-age'
p390
asbag69
(g90
g71
NtRp391
(dp392
g74
(dp393
g101
g102
ssg83
g382
sg76
(lp394
S':'
asbag69
(g90
g71
NtRp395
(dp396
g74
(dp397
sg83
g382
sg76
(lp398
g69
(g70
g71
NtRp399
(dp400
g74
(dp401
g82
I3
ssg83
g395
sg76
(lp402
S''
asbasbasbag69
(g85
g71
NtRp403
(dp404
g74
(dp405
sg83
g294
sg76
(lp406
g69
(g90
g71
NtRp407
(dp408
g74
(dp409
g94
g95
ssg83
g403
sg76
(lp410
S'path'
p411
asbag69
(g90
g71
NtRp412
(dp413
g74
(dp414
g101
g102
ssg83
g403
sg76
(lp415
S':'
asbag69
(g90
g71
NtRp416
(dp417
g74
(dp418
sg83
g403
sg76
(lp419
g69
(g70
g71
NtRp420
(dp421
g74
(dp422
g82
I3
ssg83
g416
sg76
(lp423
S''
asbasbasbag69
(g85
g71
NtRp424
(dp425
g74
(dp426
sg83
g294
sg76
(lp427
g69
(g90
g71
NtRp428
(dp429
g74
(dp430
g94
g95
ssg83
g424
sg76
(lp431
S'secure'
p432
asbag69
(g90
g71
NtRp433
(dp434
g74
(dp435
g101
g102
ssg83
g424
sg76
(lp436
S':'
asbag69
(g90
g71
NtRp437
(dp438
g74
(dp439
sg83
g424
sg76
(lp440
g69
(g70
g71
NtRp441
(dp442
g74
(dp443
g82
I3
ssg83
g437
sg76
(lp444
S''
asbasbasbag69
(g85
g71
NtRp445
(dp446
g74
(dp447
sg83
g294
sg76
(lp448
g69
(g90
g71
NtRp449
(dp450
g74
(dp451
g94
g95
ssg83
g445
sg76
(lp452
S'version'
p453
asbag69
(g90
g71
NtRp454
(dp455
g74
(dp456
g101
g102
ssg83
g445
sg76
(lp457
S':'
asbag69
(g90
g71
NtRp458
(dp459
g74
(dp460
sg83
g445
sg76
(lp461
g69
(g70
g71
NtRp462
(dp463
g74
(dp464
g82
I3
ssg83
g458
sg76
(lp465
S''
asbasbasbasbasbasbasbag69
(g85
g71
NtRp466
(dp467
g74
(dp468
sg83
g268
sg76
(lp469
g69
(g90
g71
NtRp470
(dp471
g74
(dp472
g94
g95
ssg83
g466
sg76
(lp473
S'cookie'
p474
asbag69
(g90
g71
NtRp475
(dp476
g74
(dp477
g101
g102
ssg83
g466
sg76
(lp478
S':'
asbag69
(g90
g71
NtRp479
(dp480
g74
(dp481
sg83
g466
sg76
(lp482
g69
(g70
g71
NtRp483
(dp484
g74
(dp485
g82
I4
ssg83
g479
sg76
(lp486
S'1649423593'
p487
ag69
(g78
g71
NtRp488
(dp489
g74
(dp490
g82
I3
ssg83
Nsg76
(lp491
g69
(g85
g71
NtRp492
(dp493
g74
(dp494
sg83
g488
sg76
(lp495
g69
(g90
g71
NtRp496
(dp497
g74
(dp498
g94
g95
ssg83
g492
sg76
(lp499
g306
asbag69
(g90
g71
NtRp500
(dp501
g74
(dp502
g101
g102
ssg83
g492
sg76
(lp503
S':'
asbag69
(g90
g71
NtRp504
(dp505
g74
(dp506
sg83
g492
sg76
(lp507
g69
(g70
g71
NtRp508
(dp509
g74
(dp510
g82
I3
ssg83
g504
sg76
(lp511
S''
asbasbasbag69
(g85
g71
NtRp512
(dp513
g74
(dp514
sg83
g488
sg76
(lp515
g69
(g90
g71
NtRp516
(dp517
g74
(dp518
g94
g95
ssg83
g512
sg76
(lp519
g327
asbag69
(g90
g71
NtRp520
(dp521
g74
(dp522
g101
g102
ssg83
g512
sg76
(lp523
S':'
asbag69
(g90
g71
NtRp524
(dp525
g74
(dp526
sg83
g512
sg76
(lp527
g69
(g70
g71
NtRp528
(dp529
g74
(dp530
g82
I3
ssg83
g524
sg76
(lp531
S''
asbasbasbag69
(g85
g71
NtRp532
(dp533
g74
(dp534
sg83
g488
sg76
(lp535
g69
(g90
g71
NtRp536
(dp537
g74
(dp538
g94
g95
ssg83
g532
sg76
(lp539
g348
asbag69
(g90
g71
NtRp540
(dp541
g74
(dp542
g101
g102
ssg83
g532
sg76
(lp543
S':'
asbag69
(g90
g71
NtRp544
(dp545
g74
(dp546
sg83
g532
sg76
(lp547
g69
(g70
g71
NtRp548
(dp549
g74
(dp550
g82
I3
ssg83
g544
sg76
(lp551
S''
asbasbasbag69
(g85
g71
NtRp552
(dp553
g74
(dp554
sg83
g488
sg76
(lp555
g69
(g90
g71
NtRp556
(dp557
g74
(dp558
g94
g95
ssg83
g552
sg76
(lp559
g369
asbag69
(g90
g71
NtRp560
(dp561
g74
(dp562
g101
g102
ssg83
g552
sg76
(lp563
S':'
asbag69
(g90
g71
NtRp564
(dp565
g74
(dp566
sg83
g552
sg76
(lp567
g69
(g70
g71
NtRp568
(dp569
g74
(dp570
g82
I3
ssg83
g564
sg76
(lp571
S''
asbasbasbag69
(g85
g71
NtRp572
(dp573
g74
(dp574
sg83
g488
sg76
(lp575
g69
(g90
g71
NtRp576
(dp577
g74
(dp578
g94
g95
ssg83
g572
sg76
(lp579
g390
asbag69
(g90
g71
NtRp580
(dp581
g74
(dp582
g101
g102
ssg83
g572
sg76
(lp583
S':'
asbag69
(g90
g71
NtRp584
(dp585
g74
(dp586
sg83
g572
sg76
(lp587
g69
(g70
g71
NtRp588
(dp589
g74
(dp590
g82
I3
ssg83
g584
sg76
(lp591
S''
asbasbasbag69
(g85
g71
NtRp592
(dp593
g74
(dp594
sg83
g488
sg76
(lp595
g69
(g90
g71
NtRp596
(dp597
g74
(dp598
g94
g95
ssg83
g592
sg76
(lp599
g411
asbag69
(g90
g71
NtRp600
(dp601
g74
(dp602
g101
g102
ssg83
g592
sg76
(lp603
S':'
asbag69
(g90
g71
NtRp604
(dp605
g74
(dp606
sg83
g592
sg76
(lp607
g69
(g70
g71
NtRp608
(dp609
g74
(dp610
g82
I3
ssg83
g604
sg76
(lp611
S''
asbasbasbag69
(g85
g71
NtRp612
(dp613
g74
(dp614
sg83
g488
sg76
(lp615
g69
(g90
g71
NtRp616
(dp617
g74
(dp618
g94
g95
ssg83
g612
sg76
(lp619
g432
asbag69
(g90
g71
NtRp620
(dp621
g74
(dp622
g101
g102
ssg83
g612
sg76
(lp623
S':'
asbag69
(g90
g71
NtRp624
(dp625
g74
(dp626
sg83
g612
sg76
(lp627
g69
(g70
g71
NtRp628
(dp629
g74
(dp630
g82
I3
ssg83
g624
sg76
(lp631
S''
asbasbasbag69
(g85
g71
NtRp632
(dp633
g74
(dp634
sg83
g488
sg76
(lp635
g69
(g90
g71
NtRp636
(dp637
g74
(dp638
g94
g95
ssg83
g632
sg76
(lp639
g453
asbag69
(g90
g71
NtRp640
(dp641
g74
(dp642
g101
g102
ssg83
g632
sg76
(lp643
S':'
asbag69
(g90
g71
NtRp644
(dp645
g74
(dp646
sg83
g632
sg76
(lp647
g69
(g70
g71
NtRp648
(dp649
g74
(dp650
g82
I3
ssg83
g644
sg76
(lp651
S''
asbasbasbasbasbasbasbag69
(g85
g71
NtRp652
(dp653
g74
(dp654
sg83
g268
sg76
(lp655
g69
(g90
g71
NtRp656
(dp657
g74
(dp658
g94
g95
ssg83
g652
sg76
(lp659
S'hw_type'
p660
asbag69
(g90
g71
NtRp661
(dp662
g74
(dp663
g101
g102
ssg83
g652
sg76
(lp664
S':'
asbag69
(g90
g71
NtRp665
(dp666
g74
(dp667
sg83
g652
sg76
(lp668
g69
(g70
g71
NtRp669
(dp670
g74
(dp671
g82
I4
ssg83
g665
sg76
(lp672
S'MX60'
p673
ag69
(g78
g71
NtRp674
(dp675
g74
(dp676
g82
I3
ssg83
Nsg76
(lp677
g69
(g85
g71
NtRp678
(dp679
g74
(dp680
sg83
g674
sg76
(lp681
g69
(g90
g71
NtRp682
(dp683
g74
(dp684
g94
g95
ssg83
g678
sg76
(lp685
g306
asbag69
(g90
g71
NtRp686
(dp687
g74
(dp688
g101
g102
ssg83
g678
sg76
(lp689
S':'
asbag69
(g90
g71
NtRp690
(dp691
g74
(dp692
sg83
g678
sg76
(lp693
g69
(g70
g71
NtRp694
(dp695
g74
(dp696
g82
I3
ssg83
g690
sg76
(lp697
S''
asbasbasbag69
(g85
g71
NtRp698
(dp699
g74
(dp700
sg83
g674
sg76
(lp701
g69
(g90
g71
NtRp702
(dp703
g74
(dp704
g94
g95
ssg83
g698
sg76
(lp705
g327
asbag69
(g90
g71
NtRp706
(dp707
g74
(dp708
g101
g102
ssg83
g698
sg76
(lp709
S':'
asbag69
(g90
g71
NtRp710
(dp711
g74
(dp712
sg83
g698
sg76
(lp713
g69
(g70
g71
NtRp714
(dp715
g74
(dp716
g82
I3
ssg83
g710
sg76
(lp717
S''
asbasbasbag69
(g85
g71
NtRp718
(dp719
g74
(dp720
sg83
g674
sg76
(lp721
g69
(g90
g71
NtRp722
(dp723
g74
(dp724
g94
g95
ssg83
g718
sg76
(lp725
g348
asbag69
(g90
g71
NtRp726
(dp727
g74
(dp728
g101
g102
ssg83
g718
sg76
(lp729
S':'
asbag69
(g90
g71
NtRp730
(dp731
g74
(dp732
sg83
g718
sg76
(lp733
g69
(g70
g71
NtRp734
(dp735
g74
(dp736
g82
I3
ssg83
g730
sg76
(lp737
S''
asbasbasbag69
(g85
g71
NtRp738
(dp739
g74
(dp740
sg83
g674
sg76
(lp741
g69
(g90
g71
NtRp742
(dp743
g74
(dp744
g94
g95
ssg83
g738
sg76
(lp745
g369
asbag69
(g90
g71
NtRp746
(dp747
g74
(dp748
g101
g102
ssg83
g738
sg76
(lp749
S':'
asbag69
(g90
g71
NtRp750
(dp751
g74
(dp752
sg83
g738
sg76
(lp753
g69
(g70
g71
NtRp754
(dp755
g74
(dp756
g82
I3
ssg83
g750
sg76
(lp757
S''
asbasbasbag69
(g85
g71
NtRp758
(dp759
g74
(dp760
sg83
g674
sg76
(lp761
g69
(g90
g71
NtRp762
(dp763
g74
(dp764
g94
g95
ssg83
g758
sg76
(lp765
g390
asbag69
(g90
g71
NtRp766
(dp767
g74
(dp768
g101
g102
ssg83
g758
sg76
(lp769
S':'
asbag69
(g90
g71
NtRp770
(dp771
g74
(dp772
sg83
g758
sg76
(lp773
g69
(g70
g71
NtRp774
(dp775
g74
(dp776
g82
I3
ssg83
g770
sg76
(lp777
S''
asbasbasbag69
(g85
g71
NtRp778
(dp779
g74
(dp780
sg83
g674
sg76
(lp781
g69
(g90
g71
NtRp782
(dp783
g74
(dp784
g94
g95
ssg83
g778
sg76
(lp785
g411
asbag69
(g90
g71
NtRp786
(dp787
g74
(dp788
g101
g102
ssg83
g778
sg76
(lp789
S':'
asbag69
(g90
g71
NtRp790
(dp791
g74
(dp792
sg83
g778
sg76
(lp793
g69
(g70
g71
NtRp794
(dp795
g74
(dp796
g82
I3
ssg83
g790
sg76
(lp797
S''
asbasbasbag69
(g85
g71
NtRp798
(dp799
g74
(dp800
sg83
g674
sg76
(lp801
g69
(g90
g71
NtRp802
(dp803
g74
(dp804
g94
g95
ssg83
g798
sg76
(lp805
g432
asbag69
(g90
g71
NtRp806
(dp807
g74
(dp808
g101
g102
ssg83
g798
sg76
(lp809
S':'
asbag69
(g90
g71
NtRp810
(dp811
g74
(dp812
sg83
g798
sg76
(lp813
g69
(g70
g71
NtRp814
(dp815
g74
(dp816
g82
I3
ssg83
g810
sg76
(lp817
S''
asbasbasbag69
(g85
g71
NtRp818
(dp819
g74
(dp820
sg83
g674
sg76
(lp821
g69
(g90
g71
NtRp822
(dp823
g74
(dp824
g94
g95
ssg83
g818
sg76
(lp825
g453
asbag69
(g90
g71
NtRp826
(dp827
g74
(dp828
g101
g102
ssg83
g818
sg76
(lp829
S':'
asbag69
(g90
g71
NtRp830
(dp831
g74
(dp832
sg83
g818
sg76
(lp833
g69
(g70
g71
NtRp834
(dp835
g74
(dp836
g82
I3
ssg83
g830
sg76
(lp837
S''
asbasbasbasbasbasbasbag69
(g85
g71
NtRp838
(dp839
g74
(dp840
sg83
g268
sg76
(lp841
g69
(g90
g71
NtRp842
(dp843
g74
(dp844
g94
g95
ssg83
g838
sg76
(lp845
S'hw_version'
p846
asbag69
(g90
g71
NtRp847
(dp848
g74
(dp849
g101
g102
ssg83
g838
sg76
(lp850
S':'
asbag69
(g90
g71
NtRp851
(dp852
g74
(dp853
sg83
g838
sg76
(lp854
g69
(g70
g71
NtRp855
(dp856
g74
(dp857
g82
I4
ssg83
g851
sg76
(lp858
S'Rev%201.9.82.316'
p859
ag69
(g78
g71
NtRp860
(dp861
g74
(dp862
g82
I3
ssg83
Nsg76
(lp863
g69
(g85
g71
NtRp864
(dp865
g74
(dp866
sg83
g860
sg76
(lp867
g69
(g90
g71
NtRp868
(dp869
g74
(dp870
g94
g95
ssg83
g864
sg76
(lp871
g306
asbag69
(g90
g71
NtRp872
(dp873
g74
(dp874
g101
g102
ssg83
g864
sg76
(lp875
S':'
asbag69
(g90
g71
NtRp876
(dp877
g74
(dp878
sg83
g864
sg76
(lp879
g69
(g70
g71
NtRp880
(dp881
g74
(dp882
g82
I3
ssg83
g876
sg76
(lp883
S''
asbasbasbag69
(g85
g71
NtRp884
(dp885
g74
(dp886
sg83
g860
sg76
(lp887
g69
(g90
g71
NtRp888
(dp889
g74
(dp890
g94
g95
ssg83
g884
sg76
(lp891
g327
asbag69
(g90
g71
NtRp892
(dp893
g74
(dp894
g101
g102
ssg83
g884
sg76
(lp895
S':'
asbag69
(g90
g71
NtRp896
(dp897
g74
(dp898
sg83
g884
sg76
(lp899
g69
(g70
g71
NtRp900
(dp901
g74
(dp902
g82
I3
ssg83
g896
sg76
(lp903
S''
asbasbasbag69
(g85
g71
NtRp904
(dp905
g74
(dp906
sg83
g860
sg76
(lp907
g69
(g90
g71
NtRp908
(dp909
g74
(dp910
g94
g95
ssg83
g904
sg76
(lp911
g348
asbag69
(g90
g71
NtRp912
(dp913
g74
(dp914
g101
g102
ssg83
g904
sg76
(lp915
S':'
asbag69
(g90
g71
NtRp916
(dp917
g74
(dp918
sg83
g904
sg76
(lp919
g69
(g70
g71
NtRp920
(dp921
g74
(dp922
g82
I3
ssg83
g916
sg76
(lp923
S''
asbasbasbag69
(g85
g71
NtRp924
(dp925
g74
(dp926
sg83
g860
sg76
(lp927
g69
(g90
g71
NtRp928
(dp929
g74
(dp930
g94
g95
ssg83
g924
sg76
(lp931
g369
asbag69
(g90
g71
NtRp932
(dp933
g74
(dp934
g101
g102
ssg83
g924
sg76
(lp935
S':'
asbag69
(g90
g71
NtRp936
(dp937
g74
(dp938
sg83
g924
sg76
(lp939
g69
(g70
g71
NtRp940
(dp941
g74
(dp942
g82
I3
ssg83
g936
sg76
(lp943
S''
asbasbasbag69
(g85
g71
NtRp944
(dp945
g74
(dp946
sg83
g860
sg76
(lp947
g69
(g90
g71
NtRp948
(dp949
g74
(dp950
g94
g95
ssg83
g944
sg76
(lp951
g390
asbag69
(g90
g71
NtRp952
(dp953
g74
(dp954
g101
g102
ssg83
g944
sg76
(lp955
S':'
asbag69
(g90
g71
NtRp956
(dp957
g74
(dp958
sg83
g944
sg76
(lp959
g69
(g70
g71
NtRp960
(dp961
g74
(dp962
g82
I3
ssg83
g956
sg76
(lp963
S''
asbasbasbag69
(g85
g71
NtRp964
(dp965
g74
(dp966
sg83
g860
sg76
(lp967
g69
(g90
g71
NtRp968
(dp969
g74
(dp970
g94
g95
ssg83
g964
sg76
(lp971
g411
asbag69
(g90
g71
NtRp972
(dp973
g74
(dp974
g101
g102
ssg83
g964
sg76
(lp975
S':'
asbag69
(g90
g71
NtRp976
(dp977
g74
(dp978
sg83
g964
sg76
(lp979
g69
(g70
g71
NtRp980
(dp981
g74
(dp982
g82
I3
ssg83
g976
sg76
(lp983
S''
asbasbasbag69
(g85
g71
NtRp984
(dp985
g74
(dp986
sg83
g860
sg76
(lp987
g69
(g90
g71
NtRp988
(dp989
g74
(dp990
g94
g95
ssg83
g984
sg76
(lp991
g432
asbag69
(g90
g71
NtRp992
(dp993
g74
(dp994
g101
g102
ssg83
g984
sg76
(lp995
S':'
asbag69
(g90
g71
NtRp996
(dp997
g74
(dp998
sg83
g984
sg76
(lp999
g69
(g70
g71
NtRp1000
(dp1001
g74
(dp1002
g82
I3
ssg83
g996
sg76
(lp1003
S''
asbasbasbag69
(g85
g71
NtRp1004
(dp1005
g74
(dp1006
sg83
g860
sg76
(lp1007
g69
(g90
g71
NtRp1008
(dp1009
g74
(dp1010
g94
g95
ssg83
g1004
sg76
(lp1011
g453
asbag69
(g90
g71
NtRp1012
(dp1013
g74
(dp1014
g101
g102
ssg83
g1004
sg76
(lp1015
S':'
asbag69
(g90
g71
NtRp1016
(dp1017
g74
(dp1018
sg83
g1004
sg76
(lp1019
g69
(g70
g71
NtRp1020
(dp1021
g74
(dp1022
g82
I3
ssg83
g1016
sg76
(lp1023
S''
asbasbasbasbasbasbasbag69
(g85
g71
NtRp1024
(dp1025
g74
(dp1026
sg83
g268
sg76
(lp1027
g69
(g90
g71
NtRp1028
(dp1029
g74
(dp1030
g94
g95
ssg83
g1024
sg76
(lp1031
S'language'
p1032
asbag69
(g90
g71
NtRp1033
(dp1034
g74
(dp1035
g101
g102
ssg83
g1024
sg76
(lp1036
S':'
asbag69
(g90
g71
NtRp1037
(dp1038
g74
(dp1039
sg83
g1024
sg76
(lp1040
g69
(g70
g71
NtRp1041
(dp1042
g74
(dp1043
g82
I4
ssg83
g1037
sg76
(lp1044
S'1'
ag69
(g78
g71
NtRp1045
(dp1046
g74
(dp1047
g82
I3
ssg83
Nsg76
(lp1048
g69
(g85
g71
NtRp1049
(dp1050
g74
(dp1051
sg83
g1045
sg76
(lp1052
g69
(g90
g71
NtRp1053
(dp1054
g74
(dp1055
g94
g95
ssg83
g1049
sg76
(lp1056
g306
asbag69
(g90
g71
NtRp1057
(dp1058
g74
(dp1059
g101
g102
ssg83
g1049
sg76
(lp1060
S':'
asbag69
(g90
g71
NtRp1061
(dp1062
g74
(dp1063
sg83
g1049
sg76
(lp1064
g69
(g70
g71
NtRp1065
(dp1066
g74
(dp1067
g82
I3
ssg83
g1061
sg76
(lp1068
S''
asbasbasbag69
(g85
g71
NtRp1069
(dp1070
g74
(dp1071
sg83
g1045
sg76
(lp1072
g69
(g90
g71
NtRp1073
(dp1074
g74
(dp1075
g94
g95
ssg83
g1069
sg76
(lp1076
g327
asbag69
(g90
g71
NtRp1077
(dp1078
g74
(dp1079
g101
g102
ssg83
g1069
sg76
(lp1080
S':'
asbag69
(g90
g71
NtRp1081
(dp1082
g74
(dp1083
sg83
g1069
sg76
(lp1084
g69
(g70
g71
NtRp1085
(dp1086
g74
(dp1087
g82
I3
ssg83
g1081
sg76
(lp1088
S''
asbasbasbag69
(g85
g71
NtRp1089
(dp1090
g74
(dp1091
sg83
g1045
sg76
(lp1092
g69
(g90
g71
NtRp1093
(dp1094
g74
(dp1095
g94
g95
ssg83
g1089
sg76
(lp1096
g348
asbag69
(g90
g71
NtRp1097
(dp1098
g74
(dp1099
g101
g102
ssg83
g1089
sg76
(lp1100
S':'
asbag69
(g90
g71
NtRp1101
(dp1102
g74
(dp1103
sg83
g1089
sg76
(lp1104
g69
(g70
g71
NtRp1105
(dp1106
g74
(dp1107
g82
I3
ssg83
g1101
sg76
(lp1108
S''
asbasbasbag69
(g85
g71
NtRp1109
(dp1110
g74
(dp1111
sg83
g1045
sg76
(lp1112
g69
(g90
g71
NtRp1113
(dp1114
g74
(dp1115
g94
g95
ssg83
g1109
sg76
(lp1116
g369
asbag69
(g90
g71
NtRp1117
(dp1118
g74
(dp1119
g101
g102
ssg83
g1109
sg76
(lp1120
S':'
asbag69
(g90
g71
NtRp1121
(dp1122
g74
(dp1123
sg83
g1109
sg76
(lp1124
g69
(g70
g71
NtRp1125
(dp1126
g74
(dp1127
g82
I3
ssg83
g1121
sg76
(lp1128
S''
asbasbasbag69
(g85
g71
NtRp1129
(dp1130
g74
(dp1131
sg83
g1045
sg76
(lp1132
g69
(g90
g71
NtRp1133
(dp1134
g74
(dp1135
g94
g95
ssg83
g1129
sg76
(lp1136
g390
asbag69
(g90
g71
NtRp1137
(dp1138
g74
(dp1139
g101
g102
ssg83
g1129
sg76
(lp1140
S':'
asbag69
(g90
g71
NtRp1141
(dp1142
g74
(dp1143
sg83
g1129
sg76
(lp1144
g69
(g70
g71
NtRp1145
(dp1146
g74
(dp1147
g82
I3
ssg83
g1141
sg76
(lp1148
S''
asbasbasbag69
(g85
g71
NtRp1149
(dp1150
g74
(dp1151
sg83
g1045
sg76
(lp1152
g69
(g90
g71
NtRp1153
(dp1154
g74
(dp1155
g94
g95
ssg83
g1149
sg76
(lp1156
g411
asbag69
(g90
g71
NtRp1157
(dp1158
g74
(dp1159
g101
g102
ssg83
g1149
sg76
(lp1160
S':'
asbag69
(g90
g71
NtRp1161
(dp1162
g74
(dp1163
sg83
g1149
sg76
(lp1164
g69
(g70
g71
NtRp1165
(dp1166
g74
(dp1167
g82
I3
ssg83
g1161
sg76
(lp1168
S''
asbasbasbag69
(g85
g71
NtRp1169
(dp1170
g74
(dp1171
sg83
g1045
sg76
(lp1172
g69
(g90
g71
NtRp1173
(dp1174
g74
(dp1175
g94
g95
ssg83
g1169
sg76
(lp1176
g432
asbag69
(g90
g71
NtRp1177
(dp1178
g74
(dp1179
g101
g102
ssg83
g1169
sg76
(lp1180
S':'
asbag69
(g90
g71
NtRp1181
(dp1182
g74
(dp1183
sg83
g1169
sg76
(lp1184
g69
(g70
g71
NtRp1185
(dp1186
g74
(dp1187
g82
I3
ssg83
g1181
sg76
(lp1188
S''
asbasbasbag69
(g85
g71
NtRp1189
(dp1190
g74
(dp1191
sg83
g1045
sg76
(lp1192
g69
(g90
g71
NtRp1193
(dp1194
g74
(dp1195
g94
g95
ssg83
g1189
sg76
(lp1196
g453
asbag69
(g90
g71
NtRp1197
(dp1198
g74
(dp1199
g101
g102
ssg83
g1189
sg76
(lp1200
S':'
asbag69
(g90
g71
NtRp1201
(dp1202
g74
(dp1203
sg83
g1189
sg76
(lp1204
g69
(g70
g71
NtRp1205
(dp1206
g74
(dp1207
g82
I3
ssg83
g1201
sg76
(lp1208
S''
asbasbasbasbasbasbasbag69
(g85
g71
NtRp1209
(dp1210
g74
(dp1211
sg83
g268
sg76
(lp1212
g69
(g90
g71
NtRp1213
(dp1214
g74
(dp1215
g94
g95
ssg83
g1209
sg76
(lp1216
S'model'
p1217
asbag69
(g90
g71
NtRp1218
(dp1219
g74
(dp1220
g101
g102
ssg83
g1209
sg76
(lp1221
S':'
asbag69
(g90
g71
NtRp1222
(dp1223
g74
(dp1224
sg83
g1209
sg76
(lp1225
g69
(g70
g71
NtRp1226
(dp1227
g74
(dp1228
g82
I4
ssg83
g1222
sg76
(lp1229
S'MX'
p1230
ag69
(g78
g71
NtRp1231
(dp1232
g74
(dp1233
g82
I3
ssg83
Nsg76
(lp1234
g69
(g85
g71
NtRp1235
(dp1236
g74
(dp1237
sg83
g1231
sg76
(lp1238
g69
(g90
g71
NtRp1239
(dp1240
g74
(dp1241
g94
g95
ssg83
g1235
sg76
(lp1242
g306
asbag69
(g90
g71
NtRp1243
(dp1244
g74
(dp1245
g101
g102
ssg83
g1235
sg76
(lp1246
S':'
asbag69
(g90
g71
NtRp1247
(dp1248
g74
(dp1249
sg83
g1235
sg76
(lp1250
g69
(g70
g71
NtRp1251
(dp1252
g74
(dp1253
g82
I3
ssg83
g1247
sg76
(lp1254
S''
asbasbasbag69
(g85
g71
NtRp1255
(dp1256
g74
(dp1257
sg83
g1231
sg76
(lp1258
g69
(g90
g71
NtRp1259
(dp1260
g74
(dp1261
g94
g95
ssg83
g1255
sg76
(lp1262
g327
asbag69
(g90
g71
NtRp1263
(dp1264
g74
(dp1265
g101
g102
ssg83
g1255
sg76
(lp1266
S':'
asbag69
(g90
g71
NtRp1267
(dp1268
g74
(dp1269
sg83
g1255
sg76
(lp1270
g69
(g70
g71
NtRp1271
(dp1272
g74
(dp1273
g82
I3
ssg83
g1267
sg76
(lp1274
S''
asbasbasbag69
(g85
g71
NtRp1275
(dp1276
g74
(dp1277
sg83
g1231
sg76
(lp1278
g69
(g90
g71
NtRp1279
(dp1280
g74
(dp1281
g94
g95
ssg83
g1275
sg76
(lp1282
g348
asbag69
(g90
g71
NtRp1283
(dp1284
g74
(dp1285
g101
g102
ssg83
g1275
sg76
(lp1286
S':'
asbag69
(g90
g71
NtRp1287
(dp1288
g74
(dp1289
sg83
g1275
sg76
(lp1290
g69
(g70
g71
NtRp1291
(dp1292
g74
(dp1293
g82
I3
ssg83
g1287
sg76
(lp1294
S''
asbasbasbag69
(g85
g71
NtRp1295
(dp1296
g74
(dp1297
sg83
g1231
sg76
(lp1298
g69
(g90
g71
NtRp1299
(dp1300
g74
(dp1301
g94
g95
ssg83
g1295
sg76
(lp1302
g369
asbag69
(g90
g71
NtRp1303
(dp1304
g74
(dp1305
g101
g102
ssg83
g1295
sg76
(lp1306
S':'
asbag69
(g90
g71
NtRp1307
(dp1308
g74
(dp1309
sg83
g1295
sg76
(lp1310
g69
(g70
g71
NtRp1311
(dp1312
g74
(dp1313
g82
I3
ssg83
g1307
sg76
(lp1314
S''
asbasbasbag69
(g85
g71
NtRp1315
(dp1316
g74
(dp1317
sg83
g1231
sg76
(lp1318
g69
(g90
g71
NtRp1319
(dp1320
g74
(dp1321
g94
g95
ssg83
g1315
sg76
(lp1322
g390
asbag69
(g90
g71
NtRp1323
(dp1324
g74
(dp1325
g101
g102
ssg83
g1315
sg76
(lp1326
S':'
asbag69
(g90
g71
NtRp1327
(dp1328
g74
(dp1329
sg83
g1315
sg76
(lp1330
g69
(g70
g71
NtRp1331
(dp1332
g74
(dp1333
g82
I3
ssg83
g1327
sg76
(lp1334
S''
asbasbasbag69
(g85
g71
NtRp1335
(dp1336
g74
(dp1337
sg83
g1231
sg76
(lp1338
g69
(g90
g71
NtRp1339
(dp1340
g74
(dp1341
g94
g95
ssg83
g1335
sg76
(lp1342
g411
asbag69
(g90
g71
NtRp1343
(dp1344
g74
(dp1345
g101
g102
ssg83
g1335
sg76
(lp1346
S':'
asbag69
(g90
g71
NtRp1347
(dp1348
g74
(dp1349
sg83
g1335
sg76
(lp1350
g69
(g70
g71
NtRp1351
(dp1352
g74
(dp1353
g82
I3
ssg83
g1347
sg76
(lp1354
S''
asbasbasbag69
(g85
g71
NtRp1355
(dp1356
g74
(dp1357
sg83
g1231
sg76
(lp1358
g69
(g90
g71
NtRp1359
(dp1360
g74
(dp1361
g94
g95
ssg83
g1355
sg76
(lp1362
g432
asbag69
(g90
g71
NtRp1363
(dp1364
g74
(dp1365
g101
g102
ssg83
g1355
sg76
(lp1366
S':'
asbag69
(g90
g71
NtRp1367
(dp1368
g74
(dp1369
sg83
g1355
sg76
(lp1370
g69
(g70
g71
NtRp1371
(dp1372
g74
(dp1373
g82
I3
ssg83
g1367
sg76
(lp1374
S''
asbasbasbag69
(g85
g71
NtRp1375
(dp1376
g74
(dp1377
sg83
g1231
sg76
(lp1378
g69
(g90
g71
NtRp1379
(dp1380
g74
(dp1381
g94
g95
ssg83
g1375
sg76
(lp1382
g453
asbag69
(g90
g71
NtRp1383
(dp1384
g74
(dp1385
g101
g102
ssg83
g1375
sg76
(lp1386
S':'
asbag69
(g90
g71
NtRp1387
(dp1388
g74
(dp1389
sg83
g1375
sg76
(lp1390
g69
(g70
g71
NtRp1391
(dp1392
g74
(dp1393
g82
I3
ssg83
g1387
sg76
(lp1394
S''
asbasbasbasbasbasbasbag69
(g85
g71
NtRp1395
(dp1396
g74
(dp1397
sg83
g268
sg76
(lp1398
g69
(g90
g71
NtRp1399
(dp1400
g74
(dp1401
g94
g95
ssg83
g1395
sg76
(lp1402
S'nr'
p1403
asbag69
(g90
g71
NtRp1404
(dp1405
g74
(dp1406
g101
g102
ssg83
g1395
sg76
(lp1407
S':'
asbag69
(g90
g71
NtRp1408
(dp1409
g74
(dp1410
sg83
g1395
sg76
(lp1411
g69
(g70
g71
NtRp1412
(dp1413
g74
(dp1414
g82
I4
ssg83
g1408
sg76
(lp1415
S'0'
ag69
(g78
g71
NtRp1416
(dp1417
g74
(dp1418
g82
I3
ssg83
Nsg76
(lp1419
g69
(g85
g71
NtRp1420
(dp1421
g74
(dp1422
sg83
g1416
sg76
(lp1423
g69
(g90
g71
NtRp1424
(dp1425
g74
(dp1426
g94
g95
ssg83
g1420
sg76
(lp1427
g306
asbag69
(g90
g71
NtRp1428
(dp1429
g74
(dp1430
g101
g102
ssg83
g1420
sg76
(lp1431
S':'
asbag69
(g90
g71
NtRp1432
(dp1433
g74
(dp1434
sg83
g1420
sg76
(lp1435
g69
(g70
g71
NtRp1436
(dp1437
g74
(dp1438
g82
I3
ssg83
g1432
sg76
(lp1439
S''
asbasbasbag69
(g85
g71
NtRp1440
(dp1441
g74
(dp1442
sg83
g1416
sg76
(lp1443
g69
(g90
g71
NtRp1444
(dp1445
g74
(dp1446
g94
g95
ssg83
g1440
sg76
(lp1447
g327
asbag69
(g90
g71
NtRp1448
(dp1449
g74
(dp1450
g101
g102
ssg83
g1440
sg76
(lp1451
S':'
asbag69
(g90
g71
NtRp1452
(dp1453
g74
(dp1454
sg83
g1440
sg76
(lp1455
g69
(g70
g71
NtRp1456
(dp1457
g74
(dp1458
g82
I3
ssg83
g1452
sg76
(lp1459
S''
asbasbasbag69
(g85
g71
NtRp1460
(dp1461
g74
(dp1462
sg83
g1416
sg76
(lp1463
g69
(g90
g71
NtRp1464
(dp1465
g74
(dp1466
g94
g95
ssg83
g1460
sg76
(lp1467
g348
asbag69
(g90
g71
NtRp1468
(dp1469
g74
(dp1470
g101
g102
ssg83
g1460
sg76
(lp1471
S':'
asbag69
(g90
g71
NtRp1472
(dp1473
g74
(dp1474
sg83
g1460
sg76
(lp1475
g69
(g70
g71
NtRp1476
(dp1477
g74
(dp1478
g82
I3
ssg83
g1472
sg76
(lp1479
S''
asbasbasbag69
(g85
g71
NtRp1480
(dp1481
g74
(dp1482
sg83
g1416
sg76
(lp1483
g69
(g90
g71
NtRp1484
(dp1485
g74
(dp1486
g94
g95
ssg83
g1480
sg76
(lp1487
g369
asbag69
(g90
g71
NtRp1488
(dp1489
g74
(dp1490
g101
g102
ssg83
g1480
sg76
(lp1491
S':'
asbag69
(g90
g71
NtRp1492
(dp1493
g74
(dp1494
sg83
g1480
sg76
(lp1495
g69
(g70
g71
NtRp1496
(dp1497
g74
(dp1498
g82
I3
ssg83
g1492
sg76
(lp1499
S''
asbasbasbag69
(g85
g71
NtRp1500
(dp1501
g74
(dp1502
sg83
g1416
sg76
(lp1503
g69
(g90
g71
NtRp1504
(dp1505
g74
(dp1506
g94
g95
ssg83
g1500
sg76
(lp1507
g390
asbag69
(g90
g71
NtRp1508
(dp1509
g74
(dp1510
g101
g102
ssg83
g1500
sg76
(lp1511
S':'
asbag69
(g90
g71
NtRp1512
(dp1513
g74
(dp1514
sg83
g1500
sg76
(lp1515
g69
(g70
g71
NtRp1516
(dp1517
g74
(dp1518
g82
I3
ssg83
g1512
sg76
(lp1519
S''
asbasbasbag69
(g85
g71
NtRp1520
(dp1521
g74
(dp1522
sg83
g1416
sg76
(lp1523
g69
(g90
g71
NtRp1524
(dp1525
g74
(dp1526
g94
g95
ssg83
g1520
sg76
(lp1527
g411
asbag69
(g90
g71
NtRp1528
(dp1529
g74
(dp1530
g101
g102
ssg83
g1520
sg76
(lp1531
S':'
asbag69
(g90
g71
NtRp1532
(dp1533
g74
(dp1534
sg83
g1520
sg76
(lp1535
g69
(g70
g71
NtRp1536
(dp1537
g74
(dp1538
g82
I3
ssg83
g1532
sg76
(lp1539
S''
asbasbasbag69
(g85
g71
NtRp1540
(dp1541
g74
(dp1542
sg83
g1416
sg76
(lp1543
g69
(g90
g71
NtRp1544
(dp1545
g74
(dp1546
g94
g95
ssg83
g1540
sg76
(lp1547
g432
asbag69
(g90
g71
NtRp1548
(dp1549
g74
(dp1550
g101
g102
ssg83
g1540
sg76
(lp1551
S':'
asbag69
(g90
g71
NtRp1552
(dp1553
g74
(dp1554
sg83
g1540
sg76
(lp1555
g69
(g70
g71
NtRp1556
(dp1557
g74
(dp1558
g82
I3
ssg83
g1552
sg76
(lp1559
S''
asbasbasbag69
(g85
g71
NtRp1560
(dp1561
g74
(dp1562
sg83
g1416
sg76
(lp1563
g69
(g90
g71
NtRp1564
(dp1565
g74
(dp1566
g94
g95
ssg83
g1560
sg76
(lp1567
g453
asbag69
(g90
g71
NtRp1568
(dp1569
g74
(dp1570
g101
g102
ssg83
g1560
sg76
(lp1571
S':'
asbag69
(g90
g71
NtRp1572
(dp1573
g74
(dp1574
sg83
g1560
sg76
(lp1575
g69
(g70
g71
NtRp1576
(dp1577
g74
(dp1578
g82
I3
ssg83
g1572
sg76
(lp1579
S''
asbasbasbasbasbasbasbag69
(g85
g71
NtRp1580
(dp1581
g74
(dp1582
sg83
g268
sg76
(lp1583
g69
(g90
g71
NtRp1584
(dp1585
g74
(dp1586
g94
g95
ssg83
g1580
sg76
(lp1587
S'session_id_projeto'
p1588
asbag69
(g90
g71
NtRp1589
(dp1590
g74
(dp1591
g101
g102
ssg83
g1580
sg76
(lp1592
S':'
asbag69
(g90
g71
NtRp1593
(dp1594
g74
(dp1595
sg83
g1580
sg76
(lp1596
g69
(g70
g71
NtRp1597
(dp1598
g74
(dp1599
g82
I4
ssg83
g1593
sg76
(lp1600
S'127.0.0.1-629334d6-13f2-4139-967a-cef5d9c213f5'
p1601
ag69
(g78
g71
NtRp1602
(dp1603
g74
(dp1604
g82
I3
ssg83
Nsg76
(lp1605
g69
(g85
g71
NtRp1606
(dp1607
g74
(dp1608
sg83
g1602
sg76
(lp1609
g69
(g90
g71
NtRp1610
(dp1611
g74
(dp1612
g94
g95
ssg83
g1606
sg76
(lp1613
g306
asbag69
(g90
g71
NtRp1614
(dp1615
g74
(dp1616
g101
g102
ssg83
g1606
sg76
(lp1617
S':'
asbag69
(g90
g71
NtRp1618
(dp1619
g74
(dp1620
sg83
g1606
sg76
(lp1621
g69
(g70
g71
NtRp1622
(dp1623
g74
(dp1624
g82
I3
ssg83
g1618
sg76
(lp1625
S''
asbasbasbag69
(g85
g71
NtRp1626
(dp1627
g74
(dp1628
sg83
g1602
sg76
(lp1629
g69
(g90
g71
NtRp1630
(dp1631
g74
(dp1632
g94
g95
ssg83
g1626
sg76
(lp1633
g327
asbag69
(g90
g71
NtRp1634
(dp1635
g74
(dp1636
g101
g102
ssg83
g1626
sg76
(lp1637
S':'
asbag69
(g90
g71
NtRp1638
(dp1639
g74
(dp1640
sg83
g1626
sg76
(lp1641
g69
(g70
g71
NtRp1642
(dp1643
g74
(dp1644
g82
I3
ssg83
g1638
sg76
(lp1645
S''
asbasbasbag69
(g85
g71
NtRp1646
(dp1647
g74
(dp1648
sg83
g1602
sg76
(lp1649
g69
(g90
g71
NtRp1650
(dp1651
g74
(dp1652
g94
g95
ssg83
g1646
sg76
(lp1653
g348
asbag69
(g90
g71
NtRp1654
(dp1655
g74
(dp1656
g101
g102
ssg83
g1646
sg76
(lp1657
S':'
asbag69
(g90
g71
NtRp1658
(dp1659
g74
(dp1660
sg83
g1646
sg76
(lp1661
g69
(g70
g71
NtRp1662
(dp1663
g74
(dp1664
g82
I3
ssg83
g1658
sg76
(lp1665
S''
asbasbasbag69
(g85
g71
NtRp1666
(dp1667
g74
(dp1668
sg83
g1602
sg76
(lp1669
g69
(g90
g71
NtRp1670
(dp1671
g74
(dp1672
g94
g95
ssg83
g1666
sg76
(lp1673
g369
asbag69
(g90
g71
NtRp1674
(dp1675
g74
(dp1676
g101
g102
ssg83
g1666
sg76
(lp1677
S':'
asbag69
(g90
g71
NtRp1678
(dp1679
g74
(dp1680
sg83
g1666
sg76
(lp1681
g69
(g70
g71
NtRp1682
(dp1683
g74
(dp1684
g82
I3
ssg83
g1678
sg76
(lp1685
S''
asbasbasbag69
(g85
g71
NtRp1686
(dp1687
g74
(dp1688
sg83
g1602
sg76
(lp1689
g69
(g90
g71
NtRp1690
(dp1691
g74
(dp1692
g94
g95
ssg83
g1686
sg76
(lp1693
g390
asbag69
(g90
g71
NtRp1694
(dp1695
g74
(dp1696
g101
g102
ssg83
g1686
sg76
(lp1697
S':'
asbag69
(g90
g71
NtRp1698
(dp1699
g74
(dp1700
sg83
g1686
sg76
(lp1701
g69
(g70
g71
NtRp1702
(dp1703
g74
(dp1704
g82
I3
ssg83
g1698
sg76
(lp1705
S''
asbasbasbag69
(g85
g71
NtRp1706
(dp1707
g74
(dp1708
sg83
g1602
sg76
(lp1709
g69
(g90
g71
NtRp1710
(dp1711
g74
(dp1712
g94
g95
ssg83
g1706
sg76
(lp1713
g411
asbag69
(g90
g71
NtRp1714
(dp1715
g74
(dp1716
g101
g102
ssg83
g1706
sg76
(lp1717
S':'
asbag69
(g90
g71
NtRp1718
(dp1719
g74
(dp1720
sg83
g1706
sg76
(lp1721
g69
(g70
g71
NtRp1722
(dp1723
g74
(dp1724
g82
I3
ssg83
g1718
sg76
(lp1725
S''
asbasbasbag69
(g85
g71
NtRp1726
(dp1727
g74
(dp1728
sg83
g1602
sg76
(lp1729
g69
(g90
g71
NtRp1730
(dp1731
g74
(dp1732
g94
g95
ssg83
g1726
sg76
(lp1733
g432
asbag69
(g90
g71
NtRp1734
(dp1735
g74
(dp1736
g101
g102
ssg83
g1726
sg76
(lp1737
S':'
asbag69
(g90
g71
NtRp1738
(dp1739
g74
(dp1740
sg83
g1726
sg76
(lp1741
g69
(g70
g71
NtRp1742
(dp1743
g74
(dp1744
g82
I3
ssg83
g1738
sg76
(lp1745
S''
asbasbasbag69
(g85
g71
NtRp1746
(dp1747
g74
(dp1748
sg83
g1602
sg76
(lp1749
g69
(g90
g71
NtRp1750
(dp1751
g74
(dp1752
g94
g95
ssg83
g1746
sg76
(lp1753
g453
asbag69
(g90
g71
NtRp1754
(dp1755
g74
(dp1756
g101
g102
ssg83
g1746
sg76
(lp1757
S':'
asbag69
(g90
g71
NtRp1758
(dp1759
g74
(dp1760
sg83
g1746
sg76
(lp1761
g69
(g70
g71
NtRp1762
(dp1763
g74
(dp1764
g82
I3
ssg83
g1758
sg76
(lp1765
S''
asbasbasbasbasbasbasbag69
(g85
g71
NtRp1766
(dp1767
g74
(dp1768
sg83
g268
sg76
(lp1769
g69
(g90
g71
NtRp1770
(dp1771
g74
(dp1772
g94
g95
ssg83
g1766
sg76
(lp1773
S'types'
p1774
asbag69
(g90
g71
NtRp1775
(dp1776
g74
(dp1777
g101
g102
ssg83
g1766
sg76
(lp1778
S':'
asbag69
(g90
g71
NtRp1779
(dp1780
g74
(dp1781
sg83
g1766
sg76
(lp1782
g69
(g70
g71
NtRp1783
(dp1784
g74
(dp1785
g82
I4
ssg83
g1779
sg76
(lp1786
S'Rev%201.0.1%20MX60-32S%20%20Kernel%201.0.11%20%28F%29'
p1787
ag69
(g78
g71
NtRp1788
(dp1789
g74
(dp1790
g82
I3
ssg83
Nsg76
(lp1791
g69
(g85
g71
NtRp1792
(dp1793
g74
(dp1794
sg83
g1788
sg76
(lp1795
g69
(g90
g71
NtRp1796
(dp1797
g74
(dp1798
g94
g95
ssg83
g1792
sg76
(lp1799
g306
asbag69
(g90
g71
NtRp1800
(dp1801
g74
(dp1802
g101
g102
ssg83
g1792
sg76
(lp1803
S':'
asbag69
(g90
g71
NtRp1804
(dp1805
g74
(dp1806
sg83
g1792
sg76
(lp1807
g69
(g70
g71
NtRp1808
(dp1809
g74
(dp1810
g82
I3
ssg83
g1804
sg76
(lp1811
S''
asbasbasbag69
(g85
g71
NtRp1812
(dp1813
g74
(dp1814
sg83
g1788
sg76
(lp1815
g69
(g90
g71
NtRp1816
(dp1817
g74
(dp1818
g94
g95
ssg83
g1812
sg76
(lp1819
g327
asbag69
(g90
g71
NtRp1820
(dp1821
g74
(dp1822
g101
g102
ssg83
g1812
sg76
(lp1823
S':'
asbag69
(g90
g71
NtRp1824
(dp1825
g74
(dp1826
sg83
g1812
sg76
(lp1827
g69
(g70
g71
NtRp1828
(dp1829
g74
(dp1830
g82
I3
ssg83
g1824
sg76
(lp1831
S''
asbasbasbag69
(g85
g71
NtRp1832
(dp1833
g74
(dp1834
sg83
g1788
sg76
(lp1835
g69
(g90
g71
NtRp1836
(dp1837
g74
(dp1838
g94
g95
ssg83
g1832
sg76
(lp1839
g348
asbag69
(g90
g71
NtRp1840
(dp1841
g74
(dp1842
g101
g102
ssg83
g1832
sg76
(lp1843
S':'
asbag69
(g90
g71
NtRp1844
(dp1845
g74
(dp1846
sg83
g1832
sg76
(lp1847
g69
(g70
g71
NtRp1848
(dp1849
g74
(dp1850
g82
I3
ssg83
g1844
sg76
(lp1851
S''
asbasbasbag69
(g85
g71
NtRp1852
(dp1853
g74
(dp1854
sg83
g1788
sg76
(lp1855
g69
(g90
g71
NtRp1856
(dp1857
g74
(dp1858
g94
g95
ssg83
g1852
sg76
(lp1859
g369
asbag69
(g90
g71
NtRp1860
(dp1861
g74
(dp1862
g101
g102
ssg83
g1852
sg76
(lp1863
S':'
asbag69
(g90
g71
NtRp1864
(dp1865
g74
(dp1866
sg83
g1852
sg76
(lp1867
g69
(g70
g71
NtRp1868
(dp1869
g74
(dp1870
g82
I3
ssg83
g1864
sg76
(lp1871
S''
asbasbasbag69
(g85
g71
NtRp1872
(dp1873
g74
(dp1874
sg83
g1788
sg76
(lp1875
g69
(g90
g71
NtRp1876
(dp1877
g74
(dp1878
g94
g95
ssg83
g1872
sg76
(lp1879
g390
asbag69
(g90
g71
NtRp1880
(dp1881
g74
(dp1882
g101
g102
ssg83
g1872
sg76
(lp1883
S':'
asbag69
(g90
g71
NtRp1884
(dp1885
g74
(dp1886
sg83
g1872
sg76
(lp1887
g69
(g70
g71
NtRp1888
(dp1889
g74
(dp1890
g82
I3
ssg83
g1884
sg76
(lp1891
S''
asbasbasbag69
(g85
g71
NtRp1892
(dp1893
g74
(dp1894
sg83
g1788
sg76
(lp1895
g69
(g90
g71
NtRp1896
(dp1897
g74
(dp1898
g94
g95
ssg83
g1892
sg76
(lp1899
g411
asbag69
(g90
g71
NtRp1900
(dp1901
g74
(dp1902
g101
g102
ssg83
g1892
sg76
(lp1903
S':'
asbag69
(g90
g71
NtRp1904
(dp1905
g74
(dp1906
sg83
g1892
sg76
(lp1907
g69
(g70
g71
NtRp1908
(dp1909
g74
(dp1910
g82
I3
ssg83
g1904
sg76
(lp1911
S''
asbasbasbag69
(g85
g71
NtRp1912
(dp1913
g74
(dp1914
sg83
g1788
sg76
(lp1915
g69
(g90
g71
NtRp1916
(dp1917
g74
(dp1918
g94
g95
ssg83
g1912
sg76
(lp1919
g432
asbag69
(g90
g71
NtRp1920
(dp1921
g74
(dp1922
g101
g102
ssg83
g1912
sg76
(lp1923
S':'
asbag69
(g90
g71
NtRp1924
(dp1925
g74
(dp1926
sg83
g1912
sg76
(lp1927
g69
(g70
g71
NtRp1928
(dp1929
g74
(dp1930
g82
I3
ssg83
g1924
sg76
(lp1931
S''
asbasbasbag69
(g85
g71
NtRp1932
(dp1933
g74
(dp1934
sg83
g1788
sg76
(lp1935
g69
(g90
g71
NtRp1936
(dp1937
g74
(dp1938
g94
g95
ssg83
g1932
sg76
(lp1939
g453
asbag69
(g90
g71
NtRp1940
(dp1941
g74
(dp1942
g101
g102
ssg83
g1932
sg76
(lp1943
S':'
asbag69
(g90
g71
NtRp1944
(dp1945
g74
(dp1946
sg83
g1932
sg76
(lp1947
g69
(g70
g71
NtRp1948
(dp1949
g74
(dp1950
g82
I3
ssg83
g1944
sg76
(lp1951
S''
asbasbasbasbasbasbasbasbasbasbasbag69
(g85
g71
NtRp1952
(dp1953
g74
(dp1954
sg83
g79
sg76
(lp1955
g69
(g90
g71
NtRp1956
(dp1957
g74
(dp1958
g94
g95
ssg83
g1952
sg76
(lp1959
S'env'
p1960
asbag69
(g90
g71
NtRp1961
(dp1962
g74
(dp1963
g101
g102
ssg83
g1952
sg76
(lp1964
S':'
asbag69
(g90
g71
NtRp1965
(dp1966
g74
(dp1967
sg83
g1952
sg76
(lp1968
g69
(g70
g71
NtRp1969
(dp1970
g74
(dp1971
g82
I5
ssg83
g1965
sg76
(lp1972
g69
(g78
g71
NtRp1973
(dp1974
g74
(dp1975
g82
I4
ssg83
Nsg76
(lp1976
g69
(g85
g71
NtRp1977
(dp1978
g74
(dp1979
sg83
g1973
sg76
(lp1980
g69
(g90
g71
NtRp1981
(dp1982
g74
(dp1983
g94
g95
ssg83
g1977
sg76
(lp1984
S'app_folders'
p1985
asbag69
(g90
g71
NtRp1986
(dp1987
g74
(dp1988
g101
g102
ssg83
g1977
sg76
(lp1989
S':'
asbag69
(g90
g71
NtRp1990
(dp1991
g74
(dp1992
sg83
g1977
sg76
(lp1993
g69
(g70
g71
NtRp1994
(dp1995
g74
(dp1996
g82
I4
ssg83
g1990
sg76
(lp1997
S"set(['/var/www/web2py_curso/applications/projeto/'])"
p1998
asbasbasbag69
(g85
g71
NtRp1999
(dp2000
g74
(dp2001
sg83
g1973
sg76
(lp2002
g69
(g90
g71
NtRp2003
(dp2004
g74
(dp2005
g94
g95
ssg83
g1999
sg76
(lp2006
S'applications_parent'
p2007
asbag69
(g90
g71
NtRp2008
(dp2009
g74
(dp2010
g101
g102
ssg83
g1999
sg76
(lp2011
S':'
asbag69
(g90
g71
NtRp2012
(dp2013
g74
(dp2014
sg83
g1999
sg76
(lp2015
g69
(g70
g71
NtRp2016
(dp2017
g74
(dp2018
g82
I4
ssg83
g2012
sg76
(lp2019
S'/var/www/web2py_curso'
p2020
asbasbasbag69
(g85
g71
NtRp2021
(dp2022
g74
(dp2023
sg83
g1973
sg76
(lp2024
g69
(g90
g71
NtRp2025
(dp2026
g74
(dp2027
g94
g95
ssg83
g2021
sg76
(lp2028
S'cmd_args'
p2029
asbag69
(g90
g71
NtRp2030
(dp2031
g74
(dp2032
g101
g102
ssg83
g2021
sg76
(lp2033
S':'
asbag69
(g90
g71
NtRp2034
(dp2035
g74
(dp2036
sg83
g2021
sg76
(lp2037
g69
(g70
g71
NtRp2038
(dp2039
g74
(dp2040
g82
I4
ssg83
g2034
sg76
(lp2041
g69
(g78
g71
NtRp2042
(dp2043
g74
(dp2044
g82
I3
ssg83
Nsg76
(lp2045
sbasbasbasbag69
(g85
g71
NtRp2046
(dp2047
g74
(dp2048
sg83
g1973
sg76
(lp2049
g69
(g90
g71
NtRp2050
(dp2051
g74
(dp2052
g94
g95
ssg83
g2046
sg76
(lp2053
S'cmd_options'
p2054
asbag69
(g90
g71
NtRp2055
(dp2056
g74
(dp2057
g101
g102
ssg83
g2046
sg76
(lp2058
S':'
asbag69
(g90
g71
NtRp2059
(dp2060
g74
(dp2061
sg83
g2046
sg76
(lp2062
g69
(g70
g71
NtRp2063
(dp2064
g74
(dp2065
g82
I4
ssg83
g2059
sg76
(lp2066
S"<Values at 0x27e83b0: {'verbose': False, 'ip': '127.0.0.1', 'with_scheduler': False, 'ips': [], 'shutdown_timeout': 5, 'taskbar': False, 'port': 8000, 'maxthreads': None, 'softcron': False, 'server_name': 'fernado-desktop', 'bpython': False, 'nogui': False, 'pid_filename': 'httpserver.pid', 'extcron': False, 'runcron': False, 'run_system_tests': False, 'test': None, 'folder': '/var/www/web2py_curso', 'config': '', 'minthreads': None, 'winservice': '', 'shell': None, 'run': '', 'log_filename': 'httpserver.log', 'debuglevel': 30, 'args': [''], 'socket_timeout': 5, 'ssl_ca_certificate': None, 'scheduler': None, 'profiler_filename': None, 'ssl_private_key': '', 'scheduler_groups': None, 'password': '123456', 'request_queue_size': 5, 'ssl_certificate': '', 'cronjob': False, 'numthreads': None, 'quiet': False, 'interfaces': None, 'import_models': False, 'timeout': 10, 'plain': False, 'nobanner': False}>"
p2067
asbasbasbag69
(g85
g71
NtRp2068
(dp2069
g74
(dp2070
sg83
g1973
sg76
(lp2071
g69
(g90
g71
NtRp2072
(dp2073
g74
(dp2074
g94
g95
ssg83
g2068
sg76
(lp2075
S'db_sessions'
p2076
asbag69
(g90
g71
NtRp2077
(dp2078
g74
(dp2079
g101
g102
ssg83
g2068
sg76
(lp2080
S':'
asbag69
(g90
g71
NtRp2081
(dp2082
g74
(dp2083
sg83
g2068
sg76
(lp2084
g69
(g70
g71
NtRp2085
(dp2086
g74
(dp2087
g82
I4
ssg83
g2081
sg76
(lp2088
S'set([])'
p2089
asbasbasbag69
(g85
g71
NtRp2090
(dp2091
g74
(dp2092
sg83
g1973
sg76
(lp2093
g69
(g90
g71
NtRp2094
(dp2095
g74
(dp2096
g94
g95
ssg83
g2090
sg76
(lp2097
S'debugging'
p2098
asbag69
(g90
g71
NtRp2099
(dp2100
g74
(dp2101
g101
g102
ssg83
g2090
sg76
(lp2102
S':'
asbag69
(g90
g71
NtRp2103
(dp2104
g74
(dp2105
sg83
g2090
sg76
(lp2106
g69
(g70
g71
NtRp2107
(dp2108
g74
(dp2109
g82
I4
ssg83
g2103
sg76
(lp2110
g112
asbasbasbag69
(g85
g71
NtRp2111
(dp2112
g74
(dp2113
sg83
g1973
sg76
(lp2114
g69
(g90
g71
NtRp2115
(dp2116
g74
(dp2117
g94
g95
ssg83
g2111
sg76
(lp2118
S'gluon_parent'
p2119
asbag69
(g90
g71
NtRp2120
(dp2121
g74
(dp2122
g101
g102
ssg83
g2111
sg76
(lp2123
S':'
asbag69
(g90
g71
NtRp2124
(dp2125
g74
(dp2126
sg83
g2111
sg76
(lp2127
g69
(g70
g71
NtRp2128
(dp2129
g74
(dp2130
g82
I4
ssg83
g2124
sg76
(lp2131
S'/var/www/web2py_curso'
p2132
asbasbasbag69
(g85
g71
NtRp2133
(dp2134
g74
(dp2135
sg83
g1973
sg76
(lp2136
g69
(g90
g71
NtRp2137
(dp2138
g74
(dp2139
g94
g95
ssg83
g2133
sg76
(lp2140
S'http_accept'
p2141
asbag69
(g90
g71
NtRp2142
(dp2143
g74
(dp2144
g101
g102
ssg83
g2133
sg76
(lp2145
S':'
asbag69
(g90
g71
NtRp2146
(dp2147
g74
(dp2148
sg83
g2133
sg76
(lp2149
g69
(g70
g71
NtRp2150
(dp2151
g74
(dp2152
g82
I4
ssg83
g2146
sg76
(lp2153
S'text/html,application/xhtml+xml,application/xml;q=0.9,*/*;q=0.8'
p2154
asbasbasbag69
(g85
g71
NtRp2155
(dp2156
g74
(dp2157
sg83
g1973
sg76
(lp2158
g69
(g90
g71
NtRp2159
(dp2160
g74
(dp2161
g94
g95
ssg83
g2155
sg76
(lp2162
S'http_accept_charset'
p2163
asbag69
(g90
g71
NtRp2164
(dp2165
g74
(dp2166
g101
g102
ssg83
g2155
sg76
(lp2167
S':'
asbag69
(g90
g71
NtRp2168
(dp2169
g74
(dp2170
sg83
g2155
sg76
(lp2171
g69
(g70
g71
NtRp2172
(dp2173
g74
(dp2174
g82
I4
ssg83
g2168
sg76
(lp2175
S'ISO-8859-1,utf-8;q=0.7,*;q=0.3'
p2176
asbasbasbag69
(g85
g71
NtRp2177
(dp2178
g74
(dp2179
sg83
g1973
sg76
(lp2180
g69
(g90
g71
NtRp2181
(dp2182
g74
(dp2183
g94
g95
ssg83
g2177
sg76
(lp2184
S'http_accept_encoding'
p2185
asbag69
(g90
g71
NtRp2186
(dp2187
g74
(dp2188
g101
g102
ssg83
g2177
sg76
(lp2189
S':'
asbag69
(g90
g71
NtRp2190
(dp2191
g74
(dp2192
sg83
g2177
sg76
(lp2193
g69
(g70
g71
NtRp2194
(dp2195
g74
(dp2196
g82
I4
ssg83
g2190
sg76
(lp2197
S'gzip,deflate,sdch'
p2198
asbasbasbag69
(g85
g71
NtRp2199
(dp2200
g74
(dp2201
sg83
g1973
sg76
(lp2202
g69
(g90
g71
NtRp2203
(dp2204
g74
(dp2205
g94
g95
ssg83
g2199
sg76
(lp2206
S'http_accept_language'
p2207
asbag69
(g90
g71
NtRp2208
(dp2209
g74
(dp2210
g101
g102
ssg83
g2199
sg76
(lp2211
S':'
asbag69
(g90
g71
NtRp2212
(dp2213
g74
(dp2214
sg83
g2199
sg76
(lp2215
g69
(g70
g71
NtRp2216
(dp2217
g74
(dp2218
g82
I4
ssg83
g2212
sg76
(lp2219
S'pt-BR,pt;q=0.8,en-US;q=0.6,en;q=0.4'
p2220
asbasbasbag69
(g85
g71
NtRp2221
(dp2222
g74
(dp2223
sg83
g1973
sg76
(lp2224
g69
(g90
g71
NtRp2225
(dp2226
g74
(dp2227
g94
g95
ssg83
g2221
sg76
(lp2228
S'http_cache_control'
p2229
asbag69
(g90
g71
NtRp2230
(dp2231
g74
(dp2232
g101
g102
ssg83
g2221
sg76
(lp2233
S':'
asbag69
(g90
g71
NtRp2234
(dp2235
g74
(dp2236
sg83
g2221
sg76
(lp2237
g69
(g70
g71
NtRp2238
(dp2239
g74
(dp2240
g82
I4
ssg83
g2234
sg76
(lp2241
S'max-age=0'
p2242
asbasbasbag69
(g85
g71
NtRp2243
(dp2244
g74
(dp2245
sg83
g1973
sg76
(lp2246
g69
(g90
g71
NtRp2247
(dp2248
g74
(dp2249
g94
g95
ssg83
g2243
sg76
(lp2250
S'http_connection'
p2251
asbag69
(g90
g71
NtRp2252
(dp2253
g74
(dp2254
g101
g102
ssg83
g2243
sg76
(lp2255
S':'
asbag69
(g90
g71
NtRp2256
(dp2257
g74
(dp2258
sg83
g2243
sg76
(lp2259
g69
(g70
g71
NtRp2260
(dp2261
g74
(dp2262
g82
I4
ssg83
g2256
sg76
(lp2263
S'keep-alive'
p2264
asbasbasbag69
(g85
g71
NtRp2265
(dp2266
g74
(dp2267
sg83
g1973
sg76
(lp2268
g69
(g90
g71
NtRp2269
(dp2270
g74
(dp2271
g94
g95
ssg83
g2265
sg76
(lp2272
S'http_cookie'
p2273
asbag69
(g90
g71
NtRp2274
(dp2275
g74
(dp2276
g101
g102
ssg83
g2265
sg76
(lp2277
S':'
asbag69
(g90
g71
NtRp2278
(dp2279
g74
(dp2280
sg83
g2265
sg76
(lp2281
g69
(g70
g71
NtRp2282
(dp2283
g74
(dp2284
g82
I4
ssg83
g2278
sg76
(lp2285
S'hw_type=MX60; hw_version=Rev%201.9.82.316; types=Rev%201.0.1%20MX60-32S%20%20Kernel%201.0.11%20%28F%29; language=1; admin=admin; cookie=1649423593; nr=0; model=MX; session_id_projeto=127.0.0.1-629334d6-13f2-4139-967a-cef5d9c213f5'
p2286
asbasbasbag69
(g85
g71
NtRp2287
(dp2288
g74
(dp2289
sg83
g1973
sg76
(lp2290
g69
(g90
g71
NtRp2291
(dp2292
g74
(dp2293
g94
g95
ssg83
g2287
sg76
(lp2294
S'http_host'
p2295
asbag69
(g90
g71
NtRp2296
(dp2297
g74
(dp2298
g101
g102
ssg83
g2287
sg76
(lp2299
S':'
asbag69
(g90
g71
NtRp2300
(dp2301
g74
(dp2302
sg83
g2287
sg76
(lp2303
g69
(g70
g71
NtRp2304
(dp2305
g74
(dp2306
g82
I4
ssg83
g2300
sg76
(lp2307
S'127.0.0.1:8000'
p2308
asbasbasbag69
(g85
g71
NtRp2309
(dp2310
g74
(dp2311
sg83
g1973
sg76
(lp2312
g69
(g90
g71
NtRp2313
(dp2314
g74
(dp2315
g94
g95
ssg83
g2309
sg76
(lp2316
S'http_referer'
p2317
asbag69
(g90
g71
NtRp2318
(dp2319
g74
(dp2320
g101
g102
ssg83
g2309
sg76
(lp2321
S':'
asbag69
(g90
g71
NtRp2322
(dp2323
g74
(dp2324
sg83
g2309
sg76
(lp2325
g69
(g70
g71
NtRp2326
(dp2327
g74
(dp2328
g82
I4
ssg83
g2322
sg76
(lp2329
S'http://127.0.0.1:8000/cliente_host/edit/hosts/1?f=1&_signature=a5cac74e4b0502f397070713f595c0b2ad137b93'
p2330
asbasbasbag69
(g85
g71
NtRp2331
(dp2332
g74
(dp2333
sg83
g1973
sg76
(lp2334
g69
(g90
g71
NtRp2335
(dp2336
g74
(dp2337
g94
g95
ssg83
g2331
sg76
(lp2338
S'http_user_agent'
p2339
asbag69
(g90
g71
NtRp2340
(dp2341
g74
(dp2342
g101
g102
ssg83
g2331
sg76
(lp2343
S':'
asbag69
(g90
g71
NtRp2344
(dp2345
g74
(dp2346
sg83
g2331
sg76
(lp2347
g69
(g70
g71
NtRp2348
(dp2349
g74
(dp2350
g82
I4
ssg83
g2344
sg76
(lp2351
S'Mozilla/5.0 (X11; Linux x86_64) AppleWebKit/537.4 (KHTML, like Gecko) Ubuntu/12.10 Chromium/22.0.1229.94 Chrome/22.0.1229.94 Safari/537.4'
p2352
asbasbasbag69
(g85
g71
NtRp2353
(dp2354
g74
(dp2355
sg83
g1973
sg76
(lp2356
g69
(g90
g71
NtRp2357
(dp2358
g74
(dp2359
g94
g95
ssg83
g2353
sg76
(lp2360
S'is_jython'
p2361
asbag69
(g90
g71
NtRp2362
(dp2363
g74
(dp2364
g101
g102
ssg83
g2353
sg76
(lp2365
S':'
asbag69
(g90
g71
NtRp2366
(dp2367
g74
(dp2368
sg83
g2353
sg76
(lp2369
g69
(g70
g71
NtRp2370
(dp2371
g74
(dp2372
g82
I4
ssg83
g2366
sg76
(lp2373
g112
asbasbasbag69
(g85
g71
NtRp2374
(dp2375
g74
(dp2376
sg83
g1973
sg76
(lp2377
g69
(g90
g71
NtRp2378
(dp2379
g74
(dp2380
g94
g95
ssg83
g2374
sg76
(lp2381
S'is_pypy'
p2382
asbag69
(g90
g71
NtRp2383
(dp2384
g74
(dp2385
g101
g102
ssg83
g2374
sg76
(lp2386
S':'
asbag69
(g90
g71
NtRp2387
(dp2388
g74
(dp2389
sg83
g2374
sg76
(lp2390
g69
(g70
g71
NtRp2391
(dp2392
g74
(dp2393
g82
I4
ssg83
g2387
sg76
(lp2394
g112
asbasbasbag69
(g85
g71
NtRp2395
(dp2396
g74
(dp2397
sg83
g1973
sg76
(lp2398
g69
(g90
g71
NtRp2399
(dp2400
g74
(dp2401
g94
g95
ssg83
g2395
sg76
(lp2402
S'local_hosts'
p2403
asbag69
(g90
g71
NtRp2404
(dp2405
g74
(dp2406
g101
g102
ssg83
g2395
sg76
(lp2407
S':'
asbag69
(g90
g71
NtRp2408
(dp2409
g74
(dp2410
sg83
g2395
sg76
(lp2411
g69
(g70
g71
NtRp2412
(dp2413
g74
(dp2414
g82
I4
ssg83
g2408
sg76
(lp2415
g69
(g78
g71
NtRp2416
(dp2417
g74
(dp2418
g82
I3
ssg83
Nsg76
(lp2419
g69
(g85
g71
NtRp2420
(dp2421
g74
(dp2422
sg83
g2416
sg76
(lp2423
g69
(g90
g71
NtRp2424
(dp2425
g74
(dp2426
sg83
g2420
sg76
(lp2427
g69
(g70
g71
NtRp2428
(dp2429
g74
(dp2430
g82
I3
ssg83
g2424
sg76
(lp2431
S'127.0.1.1'
p2432
asbasbasbag69
(g85
g71
NtRp2433
(dp2434
g74
(dp2435
sg83
g2416
sg76
(lp2436
g69
(g90
g71
NtRp2437
(dp2438
g74
(dp2439
sg83
g2433
sg76
(lp2440
g69
(g70
g71
NtRp2441
(dp2442
g74
(dp2443
g82
I3
ssg83
g2437
sg76
(lp2444
S'::1'
p2445
asbasbasbag69
(g85
g71
NtRp2446
(dp2447
g74
(dp2448
sg83
g2416
sg76
(lp2449
g69
(g90
g71
NtRp2450
(dp2451
g74
(dp2452
sg83
g2446
sg76
(lp2453
g69
(g70
g71
NtRp2454
(dp2455
g74
(dp2456
g82
I3
ssg83
g2450
sg76
(lp2457
S'fernado-desktop'
p2458
asbasbasbag69
(g85
g71
NtRp2459
(dp2460
g74
(dp2461
sg83
g2416
sg76
(lp2462
g69
(g90
g71
NtRp2463
(dp2464
g74
(dp2465
sg83
g2459
sg76
(lp2466
g69
(g70
g71
NtRp2467
(dp2468
g74
(dp2469
g82
I3
ssg83
g2463
sg76
(lp2470
S'::ffff:127.0.0.1'
p2471
asbasbasbag69
(g85
g71
NtRp2472
(dp2473
g74
(dp2474
sg83
g2416
sg76
(lp2475
g69
(g90
g71
NtRp2476
(dp2477
g74
(dp2478
sg83
g2472
sg76
(lp2479
g69
(g70
g71
NtRp2480
(dp2481
g74
(dp2482
g82
I3
ssg83
g2476
sg76
(lp2483
S'127.0.0.1'
p2484
asbasbasbasbasbasbasbag69
(g85
g71
NtRp2485
(dp2486
g74
(dp2487
sg83
g1973
sg76
(lp2488
g69
(g90
g71
NtRp2489
(dp2490
g74
(dp2491
g94
g95
ssg83
g2485
sg76
(lp2492
S'path_info'
p2493
asbag69
(g90
g71
NtRp2494
(dp2495
g74
(dp2496
g101
g102
ssg83
g2485
sg76
(lp2497
S':'
asbag69
(g90
g71
NtRp2498
(dp2499
g74
(dp2500
sg83
g2485
sg76
(lp2501
g69
(g70
g71
NtRp2502
(dp2503
g74
(dp2504
g82
I4
ssg83
g2498
sg76
(lp2505
S'/cliente_host'
p2506
asbasbasbag69
(g85
g71
NtRp2507
(dp2508
g74
(dp2509
sg83
g1973
sg76
(lp2510
g69
(g90
g71
NtRp2511
(dp2512
g74
(dp2513
g94
g95
ssg83
g2507
sg76
(lp2514
S'query_string'
p2515
asbag69
(g90
g71
NtRp2516
(dp2517
g74
(dp2518
g101
g102
ssg83
g2507
sg76
(lp2519
S':'
asbag69
(g90
g71
NtRp2520
(dp2521
g74
(dp2522
sg83
g2507
sg76
(lp2523
g69
(g70
g71
NtRp2524
(dp2525
g74
(dp2526
g82
I4
ssg83
g2520
sg76
(lp2527
S'f=1&_signature=86de4aafd146f90e64e869731932611b1684cfed'
p2528
asbasbasbag69
(g85
g71
NtRp2529
(dp2530
g74
(dp2531
sg83
g1973
sg76
(lp2532
g69
(g90
g71
NtRp2533
(dp2534
g74
(dp2535
g94
g95
ssg83
g2529
sg76
(lp2536
S'remote_addr'
p2537
asbag69
(g90
g71
NtRp2538
(dp2539
g74
(dp2540
g101
g102
ssg83
g2529
sg76
(lp2541
S':'
asbag69
(g90
g71
NtRp2542
(dp2543
g74
(dp2544
sg83
g2529
sg76
(lp2545
g69
(g70
g71
NtRp2546
(dp2547
g74
(dp2548
g82
I4
ssg83
g2542
sg76
(lp2549
g224
asbasbasbag69
(g85
g71
NtRp2550
(dp2551
g74
(dp2552
sg83
g1973
sg76
(lp2553
g69
(g90
g71
NtRp2554
(dp2555
g74
(dp2556
g94
g95
ssg83
g2550
sg76
(lp2557
S'remote_port'
p2558
asbag69
(g90
g71
NtRp2559
(dp2560
g74
(dp2561
g101
g102
ssg83
g2550
sg76
(lp2562
S':'
asbag69
(g90
g71
NtRp2563
(dp2564
g74
(dp2565
sg83
g2550
sg76
(lp2566
g69
(g70
g71
NtRp2567
(dp2568
g74
(dp2569
g82
I4
ssg83
g2563
sg76
(lp2570
S'53940'
p2571
asbasbasbag69
(g85
g71
NtRp2572
(dp2573
g74
(dp2574
sg83
g1973
sg76
(lp2575
g69
(g90
g71
NtRp2576
(dp2577
g74
(dp2578
g94
g95
ssg83
g2572
sg76
(lp2579
S'request_method'
p2580
asbag69
(g90
g71
NtRp2581
(dp2582
g74
(dp2583
g101
g102
ssg83
g2572
sg76
(lp2584
S':'
asbag69
(g90
g71
NtRp2585
(dp2586
g74
(dp2587
sg83
g2572
sg76
(lp2588
g69
(g70
g71
NtRp2589
(dp2590
g74
(dp2591
g82
I4
ssg83
g2585
sg76
(lp2592
S'GET'
p2593
asbasbasbag69
(g85
g71
NtRp2594
(dp2595
g74
(dp2596
sg83
g1973
sg76
(lp2597
g69
(g90
g71
NtRp2598
(dp2599
g74
(dp2600
g94
g95
ssg83
g2594
sg76
(lp2601
S'request_uri'
p2602
asbag69
(g90
g71
NtRp2603
(dp2604
g74
(dp2605
g101
g102
ssg83
g2594
sg76
(lp2606
S':'
asbag69
(g90
g71
NtRp2607
(dp2608
g74
(dp2609
sg83
g2594
sg76
(lp2610
g69
(g70
g71
NtRp2611
(dp2612
g74
(dp2613
g82
I4
ssg83
g2607
sg76
(lp2614
S'/projeto/initial/cliente_host?f=1&_signature=86de4aafd146f90e64e869731932611b1684cfed'
p2615
asbasbasbag69
(g85
g71
NtRp2616
(dp2617
g74
(dp2618
sg83
g1973
sg76
(lp2619
g69
(g90
g71
NtRp2620
(dp2621
g74
(dp2622
g94
g95
ssg83
g2616
sg76
(lp2623
S'script_name'
p2624
asbag69
(g90
g71
NtRp2625
(dp2626
g74
(dp2627
g101
g102
ssg83
g2616
sg76
(lp2628
S':'
asbag69
(g90
g71
NtRp2629
(dp2630
g74
(dp2631
sg83
g2616
sg76
(lp2632
g69
(g70
g71
NtRp2633
(dp2634
g74
(dp2635
g82
I4
ssg83
g2629
sg76
(lp2636
S''
asbasbasbag69
(g85
g71
NtRp2637
(dp2638
g74
(dp2639
sg83
g1973
sg76
(lp2640
g69
(g90
g71
NtRp2641
(dp2642
g74
(dp2643
g94
g95
ssg83
g2637
sg76
(lp2644
S'server_name'
p2645
asbag69
(g90
g71
NtRp2646
(dp2647
g74
(dp2648
g101
g102
ssg83
g2637
sg76
(lp2649
S':'
asbag69
(g90
g71
NtRp2650
(dp2651
g74
(dp2652
sg83
g2637
sg76
(lp2653
g69
(g70
g71
NtRp2654
(dp2655
g74
(dp2656
g82
I4
ssg83
g2650
sg76
(lp2657
S'fernado-desktop'
p2658
asbasbasbag69
(g85
g71
NtRp2659
(dp2660
g74
(dp2661
sg83
g1973
sg76
(lp2662
g69
(g90
g71
NtRp2663
(dp2664
g74
(dp2665
g94
g95
ssg83
g2659
sg76
(lp2666
S'server_port'
p2667
asbag69
(g90
g71
NtRp2668
(dp2669
g74
(dp2670
g101
g102
ssg83
g2659
sg76
(lp2671
S':'
asbag69
(g90
g71
NtRp2672
(dp2673
g74
(dp2674
sg83
g2659
sg76
(lp2675
g69
(g70
g71
NtRp2676
(dp2677
g74
(dp2678
g82
I4
ssg83
g2672
sg76
(lp2679
S'8000'
p2680
asbasbasbag69
(g85
g71
NtRp2681
(dp2682
g74
(dp2683
sg83
g1973
sg76
(lp2684
g69
(g90
g71
NtRp2685
(dp2686
g74
(dp2687
g94
g95
ssg83
g2681
sg76
(lp2688
S'server_protocol'
p2689
asbag69
(g90
g71
NtRp2690
(dp2691
g74
(dp2692
g101
g102
ssg83
g2681
sg76
(lp2693
S':'
asbag69
(g90
g71
NtRp2694
(dp2695
g74
(dp2696
sg83
g2681
sg76
(lp2697
g69
(g70
g71
NtRp2698
(dp2699
g74
(dp2700
g82
I4
ssg83
g2694
sg76
(lp2701
S'HTTP/1.1'
p2702
asbasbasbag69
(g85
g71
NtRp2703
(dp2704
g74
(dp2705
sg83
g1973
sg76
(lp2706
g69
(g90
g71
NtRp2707
(dp2708
g74
(dp2709
g94
g95
ssg83
g2703
sg76
(lp2710
S'server_software'
p2711
asbag69
(g90
g71
NtRp2712
(dp2713
g74
(dp2714
g101
g102
ssg83
g2703
sg76
(lp2715
S':'
asbag69
(g90
g71
NtRp2716
(dp2717
g74
(dp2718
sg83
g2703
sg76
(lp2719
g69
(g70
g71
NtRp2720
(dp2721
g74
(dp2722
g82
I4
ssg83
g2716
sg76
(lp2723
S'Rocket 1.2.6'
p2724
asbasbasbag69
(g85
g71
NtRp2725
(dp2726
g74
(dp2727
sg83
g1973
sg76
(lp2728
g69
(g90
g71
NtRp2729
(dp2730
g74
(dp2731
g94
g95
ssg83
g2725
sg76
(lp2732
S'web2py_original_uri'
p2733
asbag69
(g90
g71
NtRp2734
(dp2735
g74
(dp2736
g101
g102
ssg83
g2725
sg76
(lp2737
S':'
asbag69
(g90
g71
NtRp2738
(dp2739
g74
(dp2740
sg83
g2725
sg76
(lp2741
g69
(g70
g71
NtRp2742
(dp2743
g74
(dp2744
g82
I4
ssg83
g2738
sg76
(lp2745
S'/cliente_host?f=1&_signature=86de4aafd146f90e64e869731932611b1684cfed'
p2746
asbasbasbag69
(g85
g71
NtRp2747
(dp2748
g74
(dp2749
sg83
g1973
sg76
(lp2750
g69
(g90
g71
NtRp2751
(dp2752
g74
(dp2753
g94
g95
ssg83
g2747
sg76
(lp2754
S'web2py_path'
p2755
asbag69
(g90
g71
NtRp2756
(dp2757
g74
(dp2758
g101
g102
ssg83
g2747
sg76
(lp2759
S':'
asbag69
(g90
g71
NtRp2760
(dp2761
g74
(dp2762
sg83
g2747
sg76
(lp2763
g69
(g70
g71
NtRp2764
(dp2765
g74
(dp2766
g82
I4
ssg83
g2760
sg76
(lp2767
g2020
asbasbasbag69
(g85
g71
NtRp2768
(dp2769
g74
(dp2770
sg83
g1973
sg76
(lp2771
g69
(g90
g71
NtRp2772
(dp2773
g74
(dp2774
g94
g95
ssg83
g2768
sg76
(lp2775
S'web2py_version'
p2776
asbag69
(g90
g71
NtRp2777
(dp2778
g74
(dp2779
g101
g102
ssg83
g2768
sg76
(lp2780
S':'
asbag69
(g90
g71
NtRp2781
(dp2782
g74
(dp2783
sg83
g2768
sg76
(lp2784
g69
(g70
g71
NtRp2785
(dp2786
g74
(dp2787
g82
I4
ssg83
g2781
sg76
(lp2788
g69
(g78
g71
NtRp2789
(dp2790
g74
(dp2791
g82
I3
ssg83
Nsg76
(lp2792
g69
(g85
g71
NtRp2793
(dp2794
g74
(dp2795
sg83
g2789
sg76
(lp2796
g69
(g90
g71
NtRp2797
(dp2798
g74
(dp2799
sg83
g2793
sg76
(lp2800
g69
(g70
g71
NtRp2801
(dp2802
g74
(dp2803
g82
I3
ssg83
g2797
sg76
(lp2804
S'2'
asbasbasbag69
(g85
g71
NtRp2805
(dp2806
g74
(dp2807
sg83
g2789
sg76
(lp2808
g69
(g90
g71
NtRp2809
(dp2810
g74
(dp2811
sg83
g2805
sg76
(lp2812
g69
(g70
g71
NtRp2813
(dp2814
g74
(dp2815
g82
I3
ssg83
g2809
sg76
(lp2816
S'3'
asbasbasbag69
(g85
g71
NtRp2817
(dp2818
g74
(dp2819
sg83
g2789
sg76
(lp2820
g69
(g90
g71
NtRp2821
(dp2822
g74
(dp2823
sg83
g2817
sg76
(lp2824
g69
(g70
g71
NtRp2825
(dp2826
g74
(dp2827
g82
I3
ssg83
g2821
sg76
(lp2828
S'2'
asbasbasbag69
(g85
g71
NtRp2829
(dp2830
g74
(dp2831
sg83
g2789
sg76
(lp2832
g69
(g90
g71
NtRp2833
(dp2834
g74
(dp2835
sg83
g2829
sg76
(lp2836
g69
(g70
g71
NtRp2837
(dp2838
g74
(dp2839
g82
I3
ssg83
g2833
sg76
(lp2840
S'datetime.datetime(2012, 12, 17, 15, 3, 30)'
p2841
asbasbasbag69
(g85
g71
NtRp2842
(dp2843
g74
(dp2844
sg83
g2789
sg76
(lp2845
g69
(g90
g71
NtRp2846
(dp2847
g74
(dp2848
sg83
g2842
sg76
(lp2849
g69
(g70
g71
NtRp2850
(dp2851
g74
(dp2852
g82
I3
ssg83
g2846
sg76
(lp2853
S'stable'
p2854
asbasbasbasbasbasbasbag69
(g85
g71
NtRp2855
(dp2856
g74
(dp2857
sg83
g1973
sg76
(lp2858
g69
(g90
g71
NtRp2859
(dp2860
g74
(dp2861
g94
g95
ssg83
g2855
sg76
(lp2862
S'wsgi_errors'
p2863
asbag69
(g90
g71
NtRp2864
(dp2865
g74
(dp2866
g101
g102
ssg83
g2855
sg76
(lp2867
S':'
asbag69
(g90
g71
NtRp2868
(dp2869
g74
(dp2870
sg83
g2855
sg76
(lp2871
g69
(g70
g71
NtRp2872
(dp2873
g74
(dp2874
g82
I4
ssg83
g2868
sg76
(lp2875
S"<open file '<stderr>', mode 'w' at 0x7f40ba690270>"
p2876
asbasbasbag69
(g85
g71
NtRp2877
(dp2878
g74
(dp2879
sg83
g1973
sg76
(lp2880
g69
(g90
g71
NtRp2881
(dp2882
g74
(dp2883
g94
g95
ssg83
g2877
sg76
(lp2884
S'wsgi_file_wrapper'
p2885
asbag69
(g90
g71
NtRp2886
(dp2887
g74
(dp2888
g101
g102
ssg83
g2877
sg76
(lp2889
S':'
asbag69
(g90
g71
NtRp2890
(dp2891
g74
(dp2892
sg83
g2877
sg76
(lp2893
g69
(g70
g71
NtRp2894
(dp2895
g74
(dp2896
g82
I4
ssg83
g2890
sg76
(lp2897
S'<class wsgiref.util.FileWrapper at 0x273ca10>'
p2898
asbasbasbag69
(g85
g71
NtRp2899
(dp2900
g74
(dp2901
sg83
g1973
sg76
(lp2902
g69
(g90
g71
NtRp2903
(dp2904
g74
(dp2905
g94
g95
ssg83
g2899
sg76
(lp2906
S'wsgi_input'
p2907
asbag69
(g90
g71
NtRp2908
(dp2909
g74
(dp2910
g101
g102
ssg83
g2899
sg76
(lp2911
S':'
asbag69
(g90
g71
NtRp2912
(dp2913
g74
(dp2914
sg83
g2899
sg76
(lp2915
g69
(g70
g71
NtRp2916
(dp2917
g74
(dp2918
g82
I4
ssg83
g2912
sg76
(lp2919
S'<socket._fileobject object at 0x7f40a82484d0>'
p2920
asbasbasbag69
(g85
g71
NtRp2921
(dp2922
g74
(dp2923
sg83
g1973
sg76
(lp2924
g69
(g90
g71
NtRp2925
(dp2926
g74
(dp2927
g94
g95
ssg83
g2921
sg76
(lp2928
S'wsgi_multiprocess'
p2929
asbag69
(g90
g71
NtRp2930
(dp2931
g74
(dp2932
g101
g102
ssg83
g2921
sg76
(lp2933
S':'
asbag69
(g90
g71
NtRp2934
(dp2935
g74
(dp2936
sg83
g2921
sg76
(lp2937
g69
(g70
g71
NtRp2938
(dp2939
g74
(dp2940
g82
I4
ssg83
g2934
sg76
(lp2941
g112
asbasbasbag69
(g85
g71
NtRp2942
(dp2943
g74
(dp2944
sg83
g1973
sg76
(lp2945
g69
(g90
g71
NtRp2946
(dp2947
g74
(dp2948
g94
g95
ssg83
g2942
sg76
(lp2949
S'wsgi_multithread'
p2950
asbag69
(g90
g71
NtRp2951
(dp2952
g74
(dp2953
g101
g102
ssg83
g2942
sg76
(lp2954
S':'
asbag69
(g90
g71
NtRp2955
(dp2956
g74
(dp2957
sg83
g2942
sg76
(lp2958
g69
(g70
g71
NtRp2959
(dp2960
g74
(dp2961
g82
I4
ssg83
g2955
sg76
(lp2962
S'True'
p2963
asbasbasbag69
(g85
g71
NtRp2964
(dp2965
g74
(dp2966
sg83
g1973
sg76
(lp2967
g69
(g90
g71
NtRp2968
(dp2969
g74
(dp2970
g94
g95
ssg83
g2964
sg76
(lp2971
S'wsgi_run_once'
p2972
asbag69
(g90
g71
NtRp2973
(dp2974
g74
(dp2975
g101
g102
ssg83
g2964
sg76
(lp2976
S':'
asbag69
(g90
g71
NtRp2977
(dp2978
g74
(dp2979
sg83
g2964
sg76
(lp2980
g69
(g70
g71
NtRp2981
(dp2982
g74
(dp2983
g82
I4
ssg83
g2977
sg76
(lp2984
g112
asbasbasbag69
(g85
g71
NtRp2985
(dp2986
g74
(dp2987
sg83
g1973
sg76
(lp2988
g69
(g90
g71
NtRp2989
(dp2990
g74
(dp2991
g94
g95
ssg83
g2985
sg76
(lp2992
S'wsgi_url_scheme'
p2993
asbag69
(g90
g71
NtRp2994
(dp2995
g74
(dp2996
g101
g102
ssg83
g2985
sg76
(lp2997
S':'
asbag69
(g90
g71
NtRp2998
(dp2999
g74
(dp3000
sg83
g2985
sg76
(lp3001
g69
(g70
g71
NtRp3002
(dp3003
g74
(dp3004
g82
I4
ssg83
g2998
sg76
(lp3005
S'http'
p3006
asbasbasbag69
(g85
g71
NtRp3007
(dp3008
g74
(dp3009
sg83
g1973
sg76
(lp3010
g69
(g90
g71
NtRp3011
(dp3012
g74
(dp3013
g94
g95
ssg83
g3007
sg76
(lp3014
S'wsgi_version'
p3015
asbag69
(g90
g71
NtRp3016
(dp3017
g74
(dp3018
g101
g102
ssg83
g3007
sg76
(lp3019
S':'
asbag69
(g90
g71
NtRp3020
(dp3021
g74
(dp3022
sg83
g3007
sg76
(lp3023
g69
(g70
g71
NtRp3024
(dp3025
g74
(dp3026
g82
I4
ssg83
g3020
sg76
(lp3027
g69
(g78
g71
NtRp3028
(dp3029
g74
(dp3030
g82
I3
ssg83
Nsg76
(lp3031
g69
(g85
g71
NtRp3032
(dp3033
g74
(dp3034
sg83
g3028
sg76
(lp3035
g69
(g90
g71
NtRp3036
(dp3037
g74
(dp3038
sg83
g3032
sg76
(lp3039
g69
(g70
g71
NtRp3040
(dp3041
g74
(dp3042
g82
I3
ssg83
g3036
sg76
(lp3043
S'1'
asbasbasbag69
(g85
g71
NtRp3044
(dp3045
g74
(dp3046
sg83
g3028
sg76
(lp3047
g69
(g90
g71
NtRp3048
(dp3049
g74
(dp3050
sg83
g3044
sg76
(lp3051
g69
(g70
g71
NtRp3052
(dp3053
g74
(dp3054
g82
I3
ssg83
g3048
sg76
(lp3055
S'0'
asbasbasbasbasbasbasbasbasbasbasbag69
(g85
g71
NtRp3056
(dp3057
g74
(dp3058
sg83
g79
sg76
(lp3059
g69
(g90
g71
NtRp3060
(dp3061
g74
(dp3062
g94
g95
ssg83
g3056
sg76
(lp3063
S'extension'
p3064
asbag69
(g90
g71
NtRp3065
(dp3066
g74
(dp3067
g101
g102
ssg83
g3056
sg76
(lp3068
S':'
asbag69
(g90
g71
NtRp3069
(dp3070
g74
(dp3071
sg83
g3056
sg76
(lp3072
g69
(g70
g71
NtRp3073
(dp3074
g74
(dp3075
g82
I5
ssg83
g3069
sg76
(lp3076
S'html'
p3077
asbasbasbag69
(g85
g71
NtRp3078
(dp3079
g74
(dp3080
sg83
g79
sg76
(lp3081
g69
(g90
g71
NtRp3082
(dp3083
g74
(dp3084
g94
g95
ssg83
g3078
sg76
(lp3085
S'folder'
p3086
asbag69
(g90
g71
NtRp3087
(dp3088
g74
(dp3089
g101
g102
ssg83
g3078
sg76
(lp3090
S':'
asbag69
(g90
g71
NtRp3091
(dp3092
g74
(dp3093
sg83
g3078
sg76
(lp3094
g69
(g70
g71
NtRp3095
(dp3096
g74
(dp3097
g82
I5
ssg83
g3091
sg76
(lp3098
S'/var/www/web2py_curso/applications/projeto/'
p3099
asbasbasbag69
(g85
g71
NtRp3100
(dp3101
g74
(dp3102
sg83
g79
sg76
(lp3103
g69
(g90
g71
NtRp3104
(dp3105
g74
(dp3106
g94
g95
ssg83
g3100
sg76
(lp3107
S'function'
p3108
asbag69
(g90
g71
NtRp3109
(dp3110
g74
(dp3111
g101
g102
ssg83
g3100
sg76
(lp3112
S':'
asbag69
(g90
g71
NtRp3113
(dp3114
g74
(dp3115
sg83
g3100
sg76
(lp3116
g69
(g70
g71
NtRp3117
(dp3118
g74
(dp3119
g82
I5
ssg83
g3113
sg76
(lp3120
S'cliente_host'
p3121
asbasbasbag69
(g85
g71
NtRp3122
(dp3123
g74
(dp3124
sg83
g79
sg76
(lp3125
g69
(g90
g71
NtRp3126
(dp3127
g74
(dp3128
g94
g95
ssg83
g3122
sg76
(lp3129
S'get_vars'
p3130
asbag69
(g90
g71
NtRp3131
(dp3132
g74
(dp3133
g101
g102
ssg83
g3122
sg76
(lp3134
S':'
asbag69
(g90
g71
NtRp3135
(dp3136
g74
(dp3137
sg83
g3122
sg76
(lp3138
g69
(g70
g71
NtRp3139
(dp3140
g74
(dp3141
g82
I5
ssg83
g3135
sg76
(lp3142
g69
(g78
g71
NtRp3143
(dp3144
g74
(dp3145
g82
I4
ssg83
Nsg76
(lp3146
g69
(g85
g71
NtRp3147
(dp3148
g74
(dp3149
sg83
g3143
sg76
(lp3150
g69
(g90
g71
NtRp3151
(dp3152
g74
(dp3153
g94
g95
ssg83
g3147
sg76
(lp3154
S'f'
asbag69
(g90
g71
NtRp3155
(dp3156
g74
(dp3157
g101
g102
ssg83
g3147
sg76
(lp3158
S':'
asbag69
(g90
g71
NtRp3159
(dp3160
g74
(dp3161
sg83
g3147
sg76
(lp3162
g69
(g70
g71
NtRp3163
(dp3164
g74
(dp3165
g82
I4
ssg83
g3159
sg76
(lp3166
S'1'
asbasbasbasbasbasbasbag69
(g85
g71
NtRp3167
(dp3168
g74
(dp3169
sg83
g79
sg76
(lp3170
g69
(g90
g71
NtRp3171
(dp3172
g74
(dp3173
g94
g95
ssg83
g3167
sg76
(lp3174
S'global_settings'
p3175
asbag69
(g90
g71
NtRp3176
(dp3177
g74
(dp3178
g101
g102
ssg83
g3167
sg76
(lp3179
S':'
asbag69
(g90
g71
NtRp3180
(dp3181
g74
(dp3182
sg83
g3167
sg76
(lp3183
g69
(g70
g71
NtRp3184
(dp3185
g74
(dp3186
g82
I5
ssg83
g3180
sg76
(lp3187
g69
(g78
g71
NtRp3188
(dp3189
g74
(dp3190
g82
I4
ssg83
Nsg76
(lp3191
g69
(g85
g71
NtRp3192
(dp3193
g74
(dp3194
sg83
g3188
sg76
(lp3195
g69
(g90
g71
NtRp3196
(dp3197
g74
(dp3198
g94
g95
ssg83
g3192
sg76
(lp3199
g1985
asbag69
(g90
g71
NtRp3200
(dp3201
g74
(dp3202
g101
g102
ssg83
g3192
sg76
(lp3203
S':'
asbag69
(g90
g71
NtRp3204
(dp3205
g74
(dp3206
sg83
g3192
sg76
(lp3207
g69
(g70
g71
NtRp3208
(dp3209
g74
(dp3210
g82
I4
ssg83
g3204
sg76
(lp3211
S"set(['/var/www/web2py_curso/applications/projeto/'])"
p3212
asbasbasbag69
(g85
g71
NtRp3213
(dp3214
g74
(dp3215
sg83
g3188
sg76
(lp3216
g69
(g90
g71
NtRp3217
(dp3218
g74
(dp3219
g94
g95
ssg83
g3213
sg76
(lp3220
g2007
asbag69
(g90
g71
NtRp3221
(dp3222
g74
(dp3223
g101
g102
ssg83
g3213
sg76
(lp3224
S':'
asbag69
(g90
g71
NtRp3225
(dp3226
g74
(dp3227
sg83
g3213
sg76
(lp3228
g69
(g70
g71
NtRp3229
(dp3230
g74
(dp3231
g82
I4
ssg83
g3225
sg76
(lp3232
g2020
asbasbasbag69
(g85
g71
NtRp3233
(dp3234
g74
(dp3235
sg83
g3188
sg76
(lp3236
g69
(g90
g71
NtRp3237
(dp3238
g74
(dp3239
g94
g95
ssg83
g3233
sg76
(lp3240
g2029
asbag69
(g90
g71
NtRp3241
(dp3242
g74
(dp3243
g101
g102
ssg83
g3233
sg76
(lp3244
S':'
asbag69
(g90
g71
NtRp3245
(dp3246
g74
(dp3247
sg83
g3233
sg76
(lp3248
g69
(g70
g71
NtRp3249
(dp3250
g74
(dp3251
g82
I4
ssg83
g3245
sg76
(lp3252
g69
(g78
g71
NtRp3253
(dp3254
g74
(dp3255
g82
I3
ssg83
Nsg76
(lp3256
sbasbasbasbag69
(g85
g71
NtRp3257
(dp3258
g74
(dp3259
sg83
g3188
sg76
(lp3260
g69
(g90
g71
NtRp3261
(dp3262
g74
(dp3263
g94
g95
ssg83
g3257
sg76
(lp3264
g2054
asbag69
(g90
g71
NtRp3265
(dp3266
g74
(dp3267
g101
g102
ssg83
g3257
sg76
(lp3268
S':'
asbag69
(g90
g71
NtRp3269
(dp3270
g74
(dp3271
sg83
g3257
sg76
(lp3272
g69
(g70
g71
NtRp3273
(dp3274
g74
(dp3275
g82
I4
ssg83
g3269
sg76
(lp3276
S"<Values at 0x27e83b0: {'verbose': False, 'ip': '127.0.0.1', 'with_scheduler': False, 'ips': [], 'shutdown_timeout': 5, 'taskbar': False, 'port': 8000, 'maxthreads': None, 'softcron': False, 'server_name': 'fernado-desktop', 'bpython': False, 'nogui': False, 'pid_filename': 'httpserver.pid', 'extcron': False, 'runcron': False, 'run_system_tests': False, 'test': None, 'folder': '/var/www/web2py_curso', 'config': '', 'minthreads': None, 'winservice': '', 'shell': None, 'run': '', 'log_filename': 'httpserver.log', 'debuglevel': 30, 'args': [''], 'socket_timeout': 5, 'ssl_ca_certificate': None, 'scheduler': None, 'profiler_filename': None, 'ssl_private_key': '', 'scheduler_groups': None, 'password': '123456', 'request_queue_size': 5, 'ssl_certificate': '', 'cronjob': False, 'numthreads': None, 'quiet': False, 'interfaces': None, 'import_models': False, 'timeout': 10, 'plain': False, 'nobanner': False}>"
p3277
asbasbasbag69
(g85
g71
NtRp3278
(dp3279
g74
(dp3280
sg83
g3188
sg76
(lp3281
g69
(g90
g71
NtRp3282
(dp3283
g74
(dp3284
g94
g95
ssg83
g3278
sg76
(lp3285
g2076
asbag69
(g90
g71
NtRp3286
(dp3287
g74
(dp3288
g101
g102
ssg83
g3278
sg76
(lp3289
S':'
asbag69
(g90
g71
NtRp3290
(dp3291
g74
(dp3292
sg83
g3278
sg76
(lp3293
g69
(g70
g71
NtRp3294
(dp3295
g74
(dp3296
g82
I4
ssg83
g3290
sg76
(lp3297
S'set([])'
p3298
asbasbasbag69
(g85
g71
NtRp3299
(dp3300
g74
(dp3301
sg83
g3188
sg76
(lp3302
g69
(g90
g71
NtRp3303
(dp3304
g74
(dp3305
g94
g95
ssg83
g3299
sg76
(lp3306
g2098
asbag69
(g90
g71
NtRp3307
(dp3308
g74
(dp3309
g101
g102
ssg83
g3299
sg76
(lp3310
S':'
asbag69
(g90
g71
NtRp3311
(dp3312
g74
(dp3313
sg83
g3299
sg76
(lp3314
g69
(g70
g71
NtRp3315
(dp3316
g74
(dp3317
g82
I4
ssg83
g3311
sg76
(lp3318
g112
asbasbasbag69
(g85
g71
NtRp3319
(dp3320
g74
(dp3321
sg83
g3188
sg76
(lp3322
g69
(g90
g71
NtRp3323
(dp3324
g74
(dp3325
g94
g95
ssg83
g3319
sg76
(lp3326
g2119
asbag69
(g90
g71
NtRp3327
(dp3328
g74
(dp3329
g101
g102
ssg83
g3319
sg76
(lp3330
S':'
asbag69
(g90
g71
NtRp3331
(dp3332
g74
(dp3333
sg83
g3319
sg76
(lp3334
g69
(g70
g71
NtRp3335
(dp3336
g74
(dp3337
g82
I4
ssg83
g3331
sg76
(lp3338
g2132
asbasbasbag69
(g85
g71
NtRp3339
(dp3340
g74
(dp3341
sg83
g3188
sg76
(lp3342
g69
(g90
g71
NtRp3343
(dp3344
g74
(dp3345
g94
g95
ssg83
g3339
sg76
(lp3346
g2361
asbag69
(g90
g71
NtRp3347
(dp3348
g74
(dp3349
g101
g102
ssg83
g3339
sg76
(lp3350
S':'
asbag69
(g90
g71
NtRp3351
(dp3352
g74
(dp3353
sg83
g3339
sg76
(lp3354
g69
(g70
g71
NtRp3355
(dp3356
g74
(dp3357
g82
I4
ssg83
g3351
sg76
(lp3358
g112
asbasbasbag69
(g85
g71
NtRp3359
(dp3360
g74
(dp3361
sg83
g3188
sg76
(lp3362
g69
(g90
g71
NtRp3363
(dp3364
g74
(dp3365
g94
g95
ssg83
g3359
sg76
(lp3366
g2382
asbag69
(g90
g71
NtRp3367
(dp3368
g74
(dp3369
g101
g102
ssg83
g3359
sg76
(lp3370
S':'
asbag69
(g90
g71
NtRp3371
(dp3372
g74
(dp3373
sg83
g3359
sg76
(lp3374
g69
(g70
g71
NtRp3375
(dp3376
g74
(dp3377
g82
I4
ssg83
g3371
sg76
(lp3378
g112
asbasbasbag69
(g85
g71
NtRp3379
(dp3380
g74
(dp3381
sg83
g3188
sg76
(lp3382
g69
(g90
g71
NtRp3383
(dp3384
g74
(dp3385
g94
g95
ssg83
g3379
sg76
(lp3386
g2403
asbag69
(g90
g71
NtRp3387
(dp3388
g74
(dp3389
g101
g102
ssg83
g3379
sg76
(lp3390
S':'
asbag69
(g90
g71
NtRp3391
(dp3392
g74
(dp3393
sg83
g3379
sg76
(lp3394
g69
(g70
g71
NtRp3395
(dp3396
g74
(dp3397
g82
I4
ssg83
g3391
sg76
(lp3398
g69
(g78
g71
NtRp3399
(dp3400
g74
(dp3401
g82
I3
ssg83
Nsg76
(lp3402
g69
(g85
g71
NtRp3403
(dp3404
g74
(dp3405
sg83
g3399
sg76
(lp3406
g69
(g90
g71
NtRp3407
(dp3408
g74
(dp3409
sg83
g3403
sg76
(lp3410
g69
(g70
g71
NtRp3411
(dp3412
g74
(dp3413
g82
I3
ssg83
g3407
sg76
(lp3414
g2432
asbasbasbag69
(g85
g71
NtRp3415
(dp3416
g74
(dp3417
sg83
g3399
sg76
(lp3418
g69
(g90
g71
NtRp3419
(dp3420
g74
(dp3421
sg83
g3415
sg76
(lp3422
g69
(g70
g71
NtRp3423
(dp3424
g74
(dp3425
g82
I3
ssg83
g3419
sg76
(lp3426
g2445
asbasbasbag69
(g85
g71
NtRp3427
(dp3428
g74
(dp3429
sg83
g3399
sg76
(lp3430
g69
(g90
g71
NtRp3431
(dp3432
g74
(dp3433
sg83
g3427
sg76
(lp3434
g69
(g70
g71
NtRp3435
(dp3436
g74
(dp3437
g82
I3
ssg83
g3431
sg76
(lp3438
g2458
asbasbasbag69
(g85
g71
NtRp3439
(dp3440
g74
(dp3441
sg83
g3399
sg76
(lp3442
g69
(g90
g71
NtRp3443
(dp3444
g74
(dp3445
sg83
g3439
sg76
(lp3446
g69
(g70
g71
NtRp3447
(dp3448
g74
(dp3449
g82
I3
ssg83
g3443
sg76
(lp3450
g2471
asbasbasbag69
(g85
g71
NtRp3451
(dp3452
g74
(dp3453
sg83
g3399
sg76
(lp3454
g69
(g90
g71
NtRp3455
(dp3456
g74
(dp3457
sg83
g3451
sg76
(lp3458
g69
(g70
g71
NtRp3459
(dp3460
g74
(dp3461
g82
I3
ssg83
g3455
sg76
(lp3462
g2484
asbasbasbasbasbasbasbag69
(g85
g71
NtRp3463
(dp3464
g74
(dp3465
sg83
g3188
sg76
(lp3466
g69
(g90
g71
NtRp3467
(dp3468
g74
(dp3469
g94
g95
ssg83
g3463
sg76
(lp3470
g2776
asbag69
(g90
g71
NtRp3471
(dp3472
g74
(dp3473
g101
g102
ssg83
g3463
sg76
(lp3474
S':'
asbag69
(g90
g71
NtRp3475
(dp3476
g74
(dp3477
sg83
g3463
sg76
(lp3478
g69
(g70
g71
NtRp3479
(dp3480
g74
(dp3481
g82
I4
ssg83
g3475
sg76
(lp3482
g69
(g78
g71
NtRp3483
(dp3484
g74
(dp3485
g82
I3
ssg83
Nsg76
(lp3486
g69
(g85
g71
NtRp3487
(dp3488
g74
(dp3489
sg83
g3483
sg76
(lp3490
g69
(g90
g71
NtRp3491
(dp3492
g74
(dp3493
sg83
g3487
sg76
(lp3494
g69
(g70
g71
NtRp3495
(dp3496
g74
(dp3497
g82
I3
ssg83
g3491
sg76
(lp3498
S'2'
asbasbasbag69
(g85
g71
NtRp3499
(dp3500
g74
(dp3501
sg83
g3483
sg76
(lp3502
g69
(g90
g71
NtRp3503
(dp3504
g74
(dp3505
sg83
g3499
sg76
(lp3506
g69
(g70
g71
NtRp3507
(dp3508
g74
(dp3509
g82
I3
ssg83
g3503
sg76
(lp3510
S'3'
asbasbasbag69
(g85
g71
NtRp3511
(dp3512
g74
(dp3513
sg83
g3483
sg76
(lp3514
g69
(g90
g71
NtRp3515
(dp3516
g74
(dp3517
sg83
g3511
sg76
(lp3518
g69
(g70
g71
NtRp3519
(dp3520
g74
(dp3521
g82
I3
ssg83
g3515
sg76
(lp3522
S'2'
asbasbasbag69
(g85
g71
NtRp3523
(dp3524
g74
(dp3525
sg83
g3483
sg76
(lp3526
g69
(g90
g71
NtRp3527
(dp3528
g74
(dp3529
sg83
g3523
sg76
(lp3530
g69
(g70
g71
NtRp3531
(dp3532
g74
(dp3533
g82
I3
ssg83
g3527
sg76
(lp3534
S'datetime.datetime(2012, 12, 17, 15, 3, 30)'
p3535
asbasbasbag69
(g85
g71
NtRp3536
(dp3537
g74
(dp3538
sg83
g3483
sg76
(lp3539
g69
(g90
g71
NtRp3540
(dp3541
g74
(dp3542
sg83
g3536
sg76
(lp3543
g69
(g70
g71
NtRp3544
(dp3545
g74
(dp3546
g82
I3
ssg83
g3540
sg76
(lp3547
g2854
asbasbasbasbasbasbasbasbasbasbasbag69
(g85
g71
NtRp3548
(dp3549
g74
(dp3550
sg83
g79
sg76
(lp3551
g69
(g90
g71
NtRp3552
(dp3553
g74
(dp3554
g94
g95
ssg83
g3548
sg76
(lp3555
S'is_https'
p3556
asbag69
(g90
g71
NtRp3557
(dp3558
g74
(dp3559
g101
g102
ssg83
g3548
sg76
(lp3560
S':'
asbag69
(g90
g71
NtRp3561
(dp3562
g74
(dp3563
sg83
g3548
sg76
(lp3564
g69
(g70
g71
NtRp3565
(dp3566
g74
(dp3567
g82
I5
ssg83
g3561
sg76
(lp3568
g112
asbasbasbag69
(g85
g71
NtRp3569
(dp3570
g74
(dp3571
sg83
g79
sg76
(lp3572
g69
(g90
g71
NtRp3573
(dp3574
g74
(dp3575
g94
g95
ssg83
g3569
sg76
(lp3576
S'is_local'
p3577
asbag69
(g90
g71
NtRp3578
(dp3579
g74
(dp3580
g101
g102
ssg83
g3569
sg76
(lp3581
S':'
asbag69
(g90
g71
NtRp3582
(dp3583
g74
(dp3584
sg83
g3569
sg76
(lp3585
g69
(g70
g71
NtRp3586
(dp3587
g74
(dp3588
g82
I5
ssg83
g3582
sg76
(lp3589
g2963
asbasbasbag69
(g85
g71
NtRp3590
(dp3591
g74
(dp3592
sg83
g79
sg76
(lp3593
g69
(g90
g71
NtRp3594
(dp3595
g74
(dp3596
g94
g95
ssg83
g3590
sg76
(lp3597
S'is_restful'
p3598
asbag69
(g90
g71
NtRp3599
(dp3600
g74
(dp3601
g101
g102
ssg83
g3590
sg76
(lp3602
S':'
asbag69
(g90
g71
NtRp3603
(dp3604
g74
(dp3605
sg83
g3590
sg76
(lp3606
g69
(g70
g71
NtRp3607
(dp3608
g74
(dp3609
g82
I5
ssg83
g3603
sg76
(lp3610
g112
asbasbasbag69
(g85
g71
NtRp3611
(dp3612
g74
(dp3613
sg83
g79
sg76
(lp3614
g69
(g90
g71
NtRp3615
(dp3616
g74
(dp3617
g94
g95
ssg83
g3611
sg76
(lp3618
S'now'
p3619
asbag69
(g90
g71
NtRp3620
(dp3621
g74
(dp3622
g101
g102
ssg83
g3611
sg76
(lp3623
S':'
asbag69
(g90
g71
NtRp3624
(dp3625
g74
(dp3626
sg83
g3611
sg76
(lp3627
g69
(g70
g71
NtRp3628
(dp3629
g74
(dp3630
g82
I5
ssg83
g3624
sg76
(lp3631
S'datetime.datetime(2013, 1, 29, 9, 25, 20, 746996)'
p3632
asbasbasbag69
(g85
g71
NtRp3633
(dp3634
g74
(dp3635
sg83
g79
sg76
(lp3636
g69
(g90
g71
NtRp3637
(dp3638
g74
(dp3639
g94
g95
ssg83
g3633
sg76
(lp3640
S'post_vars'
p3641
asbag69
(g90
g71
NtRp3642
(dp3643
g74
(dp3644
g101
g102
ssg83
g3633
sg76
(lp3645
S':'
asbag69
(g90
g71
NtRp3646
(dp3647
g74
(dp3648
sg83
g3633
sg76
(lp3649
g69
(g70
g71
NtRp3650
(dp3651
g74
(dp3652
g82
I5
ssg83
g3646
sg76
(lp3653
g69
(g78
g71
NtRp3654
(dp3655
g74
(dp3656
g82
I4
ssg83
Nsg76
(lp3657
sbasbasbasbag69
(g85
g71
NtRp3658
(dp3659
g74
(dp3660
sg83
g79
sg76
(lp3661
g69
(g90
g71
NtRp3662
(dp3663
g74
(dp3664
g94
g95
ssg83
g3658
sg76
(lp3665
S'url'
p3666
asbag69
(g90
g71
NtRp3667
(dp3668
g74
(dp3669
g101
g102
ssg83
g3658
sg76
(lp3670
S':'
asbag69
(g90
g71
NtRp3671
(dp3672
g74
(dp3673
sg83
g3658
sg76
(lp3674
g69
(g70
g71
NtRp3675
(dp3676
g74
(dp3677
g82
I5
ssg83
g3671
sg76
(lp3678
g2506
asbasbasbag69
(g85
g71
NtRp3679
(dp3680
g74
(dp3681
sg83
g79
sg76
(lp3682
g69
(g90
g71
NtRp3683
(dp3684
g74
(dp3685
g94
g95
ssg83
g3679
sg76
(lp3686
S'utcnow'
p3687
asbag69
(g90
g71
NtRp3688
(dp3689
g74
(dp3690
g101
g102
ssg83
g3679
sg76
(lp3691
S':'
asbag69
(g90
g71
NtRp3692
(dp3693
g74
(dp3694
sg83
g3679
sg76
(lp3695
g69
(g70
g71
NtRp3696
(dp3697
g74
(dp3698
g82
I5
ssg83
g3692
sg76
(lp3699
S'datetime.datetime(2013, 1, 29, 11, 25, 20, 747053)'
p3700
asbasbasbag69
(g85
g71
NtRp3701
(dp3702
g74
(dp3703
sg83
g79
sg76
(lp3704
g69
(g90
g71
NtRp3705
(dp3706
g74
(dp3707
g94
g95
ssg83
g3701
sg76
(lp3708
S'uuid'
p3709
asbag69
(g90
g71
NtRp3710
(dp3711
g74
(dp3712
g101
g102
ssg83
g3701
sg76
(lp3713
S':'
asbag69
(g90
g71
NtRp3714
(dp3715
g74
(dp3716
sg83
g3701
sg76
(lp3717
g69
(g70
g71
NtRp3718
(dp3719
g74
(dp3720
g82
I5
ssg83
g3714
sg76
(lp3721
S'projeto/127.0.0.1.2013-01-29.09-25-20.035cc095-6a5e-4a3c-837f-8d04f9d10bde'
p3722
asbasbasbag69
(g85
g71
NtRp3723
(dp3724
g74
(dp3725
sg83
g79
sg76
(lp3726
g69
(g90
g71
NtRp3727
(dp3728
g74
(dp3729
g94
g95
ssg83
g3723
sg76
(lp3730
S'vars'
p3731
asbag69
(g90
g71
NtRp3732
(dp3733
g74
(dp3734
g101
g102
ssg83
g3723
sg76
(lp3735
S':'
asbag69
(g90
g71
NtRp3736
(dp3737
g74
(dp3738
sg83
g3723
sg76
(lp3739
g69
(g70
g71
NtRp3740
(dp3741
g74
(dp3742
g82
I5
ssg83
g3736
sg76
(lp3743
g69
(g78
g71
NtRp3744
(dp3745
g74
(dp3746
g82
I4
ssg83
Nsg76
(lp3747
g69
(g85
g71
NtRp3748
(dp3749
g74
(dp3750
sg83
g3744
sg76
(lp3751
g69
(g90
g71
NtRp3752
(dp3753
g74
(dp3754
g94
g95
ssg83
g3748
sg76
(lp3755
S'f'
asbag69
(g90
g71
NtRp3756
(dp3757
g74
(dp3758
g101
g102
ssg83
g3748
sg76
(lp3759
S':'
asbag69
(g90
g71
NtRp3760
(dp3761
g74
(dp3762
sg83
g3748
sg76
(lp3763
g69
(g70
g71
NtRp3764
(dp3765
g74
(dp3766
g82
I4
ssg83
g3760
sg76
(lp3767
S'1'
asbasbasbasbasbasbasbag69
(g85
g71
NtRp3768
(dp3769
g74
(dp3770
sg83
g79
sg76
(lp3771
g69
(g90
g71
NtRp3772
(dp3773
g74
(dp3774
g94
g95
ssg83
g3768
sg76
(lp3775
S'wsgi'
p3776
asbag69
(g90
g71
NtRp3777
(dp3778
g74
(dp3779
g101
g102
ssg83
g3768
sg76
(lp3780
S':'
asbag69
(g90
g71
NtRp3781
(dp3782
g74
(dp3783
sg83
g3768
sg76
(lp3784
g69
(g70
g71
NtRp3785
(dp3786
g74
(dp3787
g82
I5
ssg83
g3781
sg76
(lp3788
g69
(g78
g71
NtRp3789
(dp3790
g74
(dp3791
g82
I4
ssg83
Nsg76
(lp3792
g69
(g85
g71
NtRp3793
(dp3794
g74
(dp3795
sg83
g3789
sg76
(lp3796
g69
(g90
g71
NtRp3797
(dp3798
g74
(dp3799
g94
g95
ssg83
g3793
sg76
(lp3800
S'environ'
p3801
asbag69
(g90
g71
NtRp3802
(dp3803
g74
(dp3804
g101
g102
ssg83
g3793
sg76
(lp3805
S':'
asbag69
(g90
g71
NtRp3806
(dp3807
g74
(dp3808
sg83
g3793
sg76
(lp3809
g69
(g70
g71
NtRp3810
(dp3811
g74
(dp3812
g82
I4
ssg83
g3806
sg76
(lp3813
g69
(g78
g71
NtRp3814
(dp3815
g74
(dp3816
g82
I3
ssg83
Nsg76
(lp3817
g69
(g85
g71
NtRp3818
(dp3819
g74
(dp3820
sg83
g3814
sg76
(lp3821
g69
(g90
g71
NtRp3822
(dp3823
g74
(dp3824
g94
g95
ssg83
g3818
sg76
(lp3825
S'HTTP_ACCEPT'
p3826
asbag69
(g90
g71
NtRp3827
(dp3828
g74
(dp3829
g101
g102
ssg83
g3818
sg76
(lp3830
S':'
asbag69
(g90
g71
NtRp3831
(dp3832
g74
(dp3833
sg83
g3818
sg76
(lp3834
g69
(g70
g71
NtRp3835
(dp3836
g74
(dp3837
g82
I3
ssg83
g3831
sg76
(lp3838
g2154
asbasbasbag69
(g85
g71
NtRp3839
(dp3840
g74
(dp3841
sg83
g3814
sg76
(lp3842
g69
(g90
g71
NtRp3843
(dp3844
g74
(dp3845
g94
g95
ssg83
g3839
sg76
(lp3846
S'HTTP_ACCEPT_CHARSET'
p3847
asbag69
(g90
g71
NtRp3848
(dp3849
g74
(dp3850
g101
g102
ssg83
g3839
sg76
(lp3851
S':'
asbag69
(g90
g71
NtRp3852
(dp3853
g74
(dp3854
sg83
g3839
sg76
(lp3855
g69
(g70
g71
NtRp3856
(dp3857
g74
(dp3858
g82
I3
ssg83
g3852
sg76
(lp3859
g2176
asbasbasbag69
(g85
g71
NtRp3860
(dp3861
g74
(dp3862
sg83
g3814
sg76
(lp3863
g69
(g90
g71
NtRp3864
(dp3865
g74
(dp3866
g94
g95
ssg83
g3860
sg76
(lp3867
S'HTTP_ACCEPT_ENCODING'
p3868
asbag69
(g90
g71
NtRp3869
(dp3870
g74
(dp3871
g101
g102
ssg83
g3860
sg76
(lp3872
S':'
asbag69
(g90
g71
NtRp3873
(dp3874
g74
(dp3875
sg83
g3860
sg76
(lp3876
g69
(g70
g71
NtRp3877
(dp3878
g74
(dp3879
g82
I3
ssg83
g3873
sg76
(lp3880
g2198
asbasbasbag69
(g85
g71
NtRp3881
(dp3882
g74
(dp3883
sg83
g3814
sg76
(lp3884
g69
(g90
g71
NtRp3885
(dp3886
g74
(dp3887
g94
g95
ssg83
g3881
sg76
(lp3888
S'HTTP_ACCEPT_LANGUAGE'
p3889
asbag69
(g90
g71
NtRp3890
(dp3891
g74
(dp3892
g101
g102
ssg83
g3881
sg76
(lp3893
S':'
asbag69
(g90
g71
NtRp3894
(dp3895
g74
(dp3896
sg83
g3881
sg76
(lp3897
g69
(g70
g71
NtRp3898
(dp3899
g74
(dp3900
g82
I3
ssg83
g3894
sg76
(lp3901
g2220
asbasbasbag69
(g85
g71
NtRp3902
(dp3903
g74
(dp3904
sg83
g3814
sg76
(lp3905
g69
(g90
g71
NtRp3906
(dp3907
g74
(dp3908
g94
g95
ssg83
g3902
sg76
(lp3909
S'HTTP_CACHE_CONTROL'
p3910
asbag69
(g90
g71
NtRp3911
(dp3912
g74
(dp3913
g101
g102
ssg83
g3902
sg76
(lp3914
S':'
asbag69
(g90
g71
NtRp3915
(dp3916
g74
(dp3917
sg83
g3902
sg76
(lp3918
g69
(g70
g71
NtRp3919
(dp3920
g74
(dp3921
g82
I3
ssg83
g3915
sg76
(lp3922
g2242
asbasbasbag69
(g85
g71
NtRp3923
(dp3924
g74
(dp3925
sg83
g3814
sg76
(lp3926
g69
(g90
g71
NtRp3927
(dp3928
g74
(dp3929
g94
g95
ssg83
g3923
sg76
(lp3930
S'HTTP_CONNECTION'
p3931
asbag69
(g90
g71
NtRp3932
(dp3933
g74
(dp3934
g101
g102
ssg83
g3923
sg76
(lp3935
S':'
asbag69
(g90
g71
NtRp3936
(dp3937
g74
(dp3938
sg83
g3923
sg76
(lp3939
g69
(g70
g71
NtRp3940
(dp3941
g74
(dp3942
g82
I3
ssg83
g3936
sg76
(lp3943
g2264
asbasbasbag69
(g85
g71
NtRp3944
(dp3945
g74
(dp3946
sg83
g3814
sg76
(lp3947
g69
(g90
g71
NtRp3948
(dp3949
g74
(dp3950
g94
g95
ssg83
g3944
sg76
(lp3951
S'HTTP_COOKIE'
p3952
asbag69
(g90
g71
NtRp3953
(dp3954
g74
(dp3955
g101
g102
ssg83
g3944
sg76
(lp3956
S':'
asbag69
(g90
g71
NtRp3957
(dp3958
g74
(dp3959
sg83
g3944
sg76
(lp3960
g69
(g70
g71
NtRp3961
(dp3962
g74
(dp3963
g82
I3
ssg83
g3957
sg76
(lp3964
g2286
asbasbasbag69
(g85
g71
NtRp3965
(dp3966
g74
(dp3967
sg83
g3814
sg76
(lp3968
g69
(g90
g71
NtRp3969
(dp3970
g74
(dp3971
g94
g95
ssg83
g3965
sg76
(lp3972
S'HTTP_HOST'
p3973
asbag69
(g90
g71
NtRp3974
(dp3975
g74
(dp3976
g101
g102
ssg83
g3965
sg76
(lp3977
S':'
asbag69
(g90
g71
NtRp3978
(dp3979
g74
(dp3980
sg83
g3965
sg76
(lp3981
g69
(g70
g71
NtRp3982
(dp3983
g74
(dp3984
g82
I3
ssg83
g3978
sg76
(lp3985
g2308
asbasbasbag69
(g85
g71
NtRp3986
(dp3987
g74
(dp3988
sg83
g3814
sg76
(lp3989
g69
(g90
g71
NtRp3990
(dp3991
g74
(dp3992
g94
g95
ssg83
g3986
sg76
(lp3993
S'HTTP_REFERER'
p3994
asbag69
(g90
g71
NtRp3995
(dp3996
g74
(dp3997
g101
g102
ssg83
g3986
sg76
(lp3998
S':'
asbag69
(g90
g71
NtRp3999
(dp4000
g74
(dp4001
sg83
g3986
sg76
(lp4002
g69
(g70
g71
NtRp4003
(dp4004
g74
(dp4005
g82
I3
ssg83
g3999
sg76
(lp4006
g2330
asbasbasbag69
(g85
g71
NtRp4007
(dp4008
g74
(dp4009
sg83
g3814
sg76
(lp4010
g69
(g90
g71
NtRp4011
(dp4012
g74
(dp4013
g94
g95
ssg83
g4007
sg76
(lp4014
S'HTTP_USER_AGENT'
p4015
asbag69
(g90
g71
NtRp4016
(dp4017
g74
(dp4018
g101
g102
ssg83
g4007
sg76
(lp4019
S':'
asbag69
(g90
g71
NtRp4020
(dp4021
g74
(dp4022
sg83
g4007
sg76
(lp4023
g69
(g70
g71
NtRp4024
(dp4025
g74
(dp4026
g82
I3
ssg83
g4020
sg76
(lp4027
g2352
asbasbasbag69
(g85
g71
NtRp4028
(dp4029
g74
(dp4030
sg83
g3814
sg76
(lp4031
g69
(g90
g71
NtRp4032
(dp4033
g74
(dp4034
g94
g95
ssg83
g4028
sg76
(lp4035
S'PATH_INFO'
p4036
asbag69
(g90
g71
NtRp4037
(dp4038
g74
(dp4039
g101
g102
ssg83
g4028
sg76
(lp4040
S':'
asbag69
(g90
g71
NtRp4041
(dp4042
g74
(dp4043
sg83
g4028
sg76
(lp4044
g69
(g70
g71
NtRp4045
(dp4046
g74
(dp4047
g82
I3
ssg83
g4041
sg76
(lp4048
g2506
asbasbasbag69
(g85
g71
NtRp4049
(dp4050
g74
(dp4051
sg83
g3814
sg76
(lp4052
g69
(g90
g71
NtRp4053
(dp4054
g74
(dp4055
g94
g95
ssg83
g4049
sg76
(lp4056
S'QUERY_STRING'
p4057
asbag69
(g90
g71
NtRp4058
(dp4059
g74
(dp4060
g101
g102
ssg83
g4049
sg76
(lp4061
S':'
asbag69
(g90
g71
NtRp4062
(dp4063
g74
(dp4064
sg83
g4049
sg76
(lp4065
g69
(g70
g71
NtRp4066
(dp4067
g74
(dp4068
g82
I3
ssg83
g4062
sg76
(lp4069
g2528
asbasbasbag69
(g85
g71
NtRp4070
(dp4071
g74
(dp4072
sg83
g3814
sg76
(lp4073
g69
(g90
g71
NtRp4074
(dp4075
g74
(dp4076
g94
g95
ssg83
g4070
sg76
(lp4077
S'REMOTE_ADDR'
p4078
asbag69
(g90
g71
NtRp4079
(dp4080
g74
(dp4081
g101
g102
ssg83
g4070
sg76
(lp4082
S':'
asbag69
(g90
g71
NtRp4083
(dp4084
g74
(dp4085
sg83
g4070
sg76
(lp4086
g69
(g70
g71
NtRp4087
(dp4088
g74
(dp4089
g82
I3
ssg83
g4083
sg76
(lp4090
g224
asbasbasbag69
(g85
g71
NtRp4091
(dp4092
g74
(dp4093
sg83
g3814
sg76
(lp4094
g69
(g90
g71
NtRp4095
(dp4096
g74
(dp4097
g94
g95
ssg83
g4091
sg76
(lp4098
S'REMOTE_PORT'
p4099
asbag69
(g90
g71
NtRp4100
(dp4101
g74
(dp4102
g101
g102
ssg83
g4091
sg76
(lp4103
S':'
asbag69
(g90
g71
NtRp4104
(dp4105
g74
(dp4106
sg83
g4091
sg76
(lp4107
g69
(g70
g71
NtRp4108
(dp4109
g74
(dp4110
g82
I3
ssg83
g4104
sg76
(lp4111
g2571
asbasbasbag69
(g85
g71
NtRp4112
(dp4113
g74
(dp4114
sg83
g3814
sg76
(lp4115
g69
(g90
g71
NtRp4116
(dp4117
g74
(dp4118
g94
g95
ssg83
g4112
sg76
(lp4119
S'REQUEST_METHOD'
p4120
asbag69
(g90
g71
NtRp4121
(dp4122
g74
(dp4123
g101
g102
ssg83
g4112
sg76
(lp4124
S':'
asbag69
(g90
g71
NtRp4125
(dp4126
g74
(dp4127
sg83
g4112
sg76
(lp4128
g69
(g70
g71
NtRp4129
(dp4130
g74
(dp4131
g82
I3
ssg83
g4125
sg76
(lp4132
g2593
asbasbasbag69
(g85
g71
NtRp4133
(dp4134
g74
(dp4135
sg83
g3814
sg76
(lp4136
g69
(g90
g71
NtRp4137
(dp4138
g74
(dp4139
g94
g95
ssg83
g4133
sg76
(lp4140
S'REQUEST_URI'
p4141
asbag69
(g90
g71
NtRp4142
(dp4143
g74
(dp4144
g101
g102
ssg83
g4133
sg76
(lp4145
S':'
asbag69
(g90
g71
NtRp4146
(dp4147
g74
(dp4148
sg83
g4133
sg76
(lp4149
g69
(g70
g71
NtRp4150
(dp4151
g74
(dp4152
g82
I3
ssg83
g4146
sg76
(lp4153
g2615
asbasbasbag69
(g85
g71
NtRp4154
(dp4155
g74
(dp4156
sg83
g3814
sg76
(lp4157
g69
(g90
g71
NtRp4158
(dp4159
g74
(dp4160
g94
g95
ssg83
g4154
sg76
(lp4161
S'SCRIPT_NAME'
p4162
asbag69
(g90
g71
NtRp4163
(dp4164
g74
(dp4165
g101
g102
ssg83
g4154
sg76
(lp4166
S':'
asbag69
(g90
g71
NtRp4167
(dp4168
g74
(dp4169
sg83
g4154
sg76
(lp4170
g69
(g70
g71
NtRp4171
(dp4172
g74
(dp4173
g82
I3
ssg83
g4167
sg76
(lp4174
S''
asbasbasbag69
(g85
g71
NtRp4175
(dp4176
g74
(dp4177
sg83
g3814
sg76
(lp4178
g69
(g90
g71
NtRp4179
(dp4180
g74
(dp4181
g94
g95
ssg83
g4175
sg76
(lp4182
S'SERVER_NAME'
p4183
asbag69
(g90
g71
NtRp4184
(dp4185
g74
(dp4186
g101
g102
ssg83
g4175
sg76
(lp4187
S':'
asbag69
(g90
g71
NtRp4188
(dp4189
g74
(dp4190
sg83
g4175
sg76
(lp4191
g69
(g70
g71
NtRp4192
(dp4193
g74
(dp4194
g82
I3
ssg83
g4188
sg76
(lp4195
g2658
asbasbasbag69
(g85
g71
NtRp4196
(dp4197
g74
(dp4198
sg83
g3814
sg76
(lp4199
g69
(g90
g71
NtRp4200
(dp4201
g74
(dp4202
g94
g95
ssg83
g4196
sg76
(lp4203
S'SERVER_PORT'
p4204
asbag69
(g90
g71
NtRp4205
(dp4206
g74
(dp4207
g101
g102
ssg83
g4196
sg76
(lp4208
S':'
asbag69
(g90
g71
NtRp4209
(dp4210
g74
(dp4211
sg83
g4196
sg76
(lp4212
g69
(g70
g71
NtRp4213
(dp4214
g74
(dp4215
g82
I3
ssg83
g4209
sg76
(lp4216
g2680
asbasbasbag69
(g85
g71
NtRp4217
(dp4218
g74
(dp4219
sg83
g3814
sg76
(lp4220
g69
(g90
g71
NtRp4221
(dp4222
g74
(dp4223
g94
g95
ssg83
g4217
sg76
(lp4224
S'SERVER_PROTOCOL'
p4225
asbag69
(g90
g71
NtRp4226
(dp4227
g74
(dp4228
g101
g102
ssg83
g4217
sg76
(lp4229
S':'
asbag69
(g90
g71
NtRp4230
(dp4231
g74
(dp4232
sg83
g4217
sg76
(lp4233
g69
(g70
g71
NtRp4234
(dp4235
g74
(dp4236
g82
I3
ssg83
g4230
sg76
(lp4237
g2702
asbasbasbag69
(g85
g71
NtRp4238
(dp4239
g74
(dp4240
sg83
g3814
sg76
(lp4241
g69
(g90
g71
NtRp4242
(dp4243
g74
(dp4244
g94
g95
ssg83
g4238
sg76
(lp4245
S'SERVER_SOFTWARE'
p4246
asbag69
(g90
g71
NtRp4247
(dp4248
g74
(dp4249
g101
g102
ssg83
g4238
sg76
(lp4250
S':'
asbag69
(g90
g71
NtRp4251
(dp4252
g74
(dp4253
sg83
g4238
sg76
(lp4254
g69
(g70
g71
NtRp4255
(dp4256
g74
(dp4257
g82
I3
ssg83
g4251
sg76
(lp4258
g2724
asbasbasbag69
(g85
g71
NtRp4259
(dp4260
g74
(dp4261
sg83
g3814
sg76
(lp4262
g69
(g90
g71
NtRp4263
(dp4264
g74
(dp4265
g94
g95
ssg83
g4259
sg76
(lp4266
S'WEB2PY_ORIGINAL_URI'
p4267
asbag69
(g90
g71
NtRp4268
(dp4269
g74
(dp4270
g101
g102
ssg83
g4259
sg76
(lp4271
S':'
asbag69
(g90
g71
NtRp4272
(dp4273
g74
(dp4274
sg83
g4259
sg76
(lp4275
g69
(g70
g71
NtRp4276
(dp4277
g74
(dp4278
g82
I3
ssg83
g4272
sg76
(lp4279
g2746
asbasbasbag69
(g85
g71
NtRp4280
(dp4281
g74
(dp4282
sg83
g3814
sg76
(lp4283
g69
(g90
g71
NtRp4284
(dp4285
g74
(dp4286
g94
g95
ssg83
g4280
sg76
(lp4287
S'wsgi.errors'
p4288
asbag69
(g90
g71
NtRp4289
(dp4290
g74
(dp4291
g101
g102
ssg83
g4280
sg76
(lp4292
S':'
asbag69
(g90
g71
NtRp4293
(dp4294
g74
(dp4295
sg83
g4280
sg76
(lp4296
g69
(g70
g71
NtRp4297
(dp4298
g74
(dp4299
g82
I3
ssg83
g4293
sg76
(lp4300
S"<open file '<stderr>', mode 'w' at 0x7f40ba690270>"
p4301
asbasbasbag69
(g85
g71
NtRp4302
(dp4303
g74
(dp4304
sg83
g3814
sg76
(lp4305
g69
(g90
g71
NtRp4306
(dp4307
g74
(dp4308
g94
g95
ssg83
g4302
sg76
(lp4309
S'wsgi.file_wrapper'
p4310
asbag69
(g90
g71
NtRp4311
(dp4312
g74
(dp4313
g101
g102
ssg83
g4302
sg76
(lp4314
S':'
asbag69
(g90
g71
NtRp4315
(dp4316
g74
(dp4317
sg83
g4302
sg76
(lp4318
g69
(g70
g71
NtRp4319
(dp4320
g74
(dp4321
g82
I3
ssg83
g4315
sg76
(lp4322
S'<class wsgiref.util.FileWrapper at 0x273ca10>'
p4323
asbasbasbag69
(g85
g71
NtRp4324
(dp4325
g74
(dp4326
sg83
g3814
sg76
(lp4327
g69
(g90
g71
NtRp4328
(dp4329
g74
(dp4330
g94
g95
ssg83
g4324
sg76
(lp4331
S'wsgi.input'
p4332
asbag69
(g90
g71
NtRp4333
(dp4334
g74
(dp4335
g101
g102
ssg83
g4324
sg76
(lp4336
S':'
asbag69
(g90
g71
NtRp4337
(dp4338
g74
(dp4339
sg83
g4324
sg76
(lp4340
g69
(g70
g71
NtRp4341
(dp4342
g74
(dp4343
g82
I3
ssg83
g4337
sg76
(lp4344
S'<cStringIO.StringO object at 0x7f409c0beb58>'
p4345
asbasbasbag69
(g85
g71
NtRp4346
(dp4347
g74
(dp4348
sg83
g3814
sg76
(lp4349
g69
(g90
g71
NtRp4350
(dp4351
g74
(dp4352
g94
g95
ssg83
g4346
sg76
(lp4353
S'wsgi.multiprocess'
p4354
asbag69
(g90
g71
NtRp4355
(dp4356
g74
(dp4357
g101
g102
ssg83
g4346
sg76
(lp4358
S':'
asbag69
(g90
g71
NtRp4359
(dp4360
g74
(dp4361
sg83
g4346
sg76
(lp4362
g69
(g70
g71
NtRp4363
(dp4364
g74
(dp4365
g82
I3
ssg83
g4359
sg76
(lp4366
g112
asbasbasbag69
(g85
g71
NtRp4367
(dp4368
g74
(dp4369
sg83
g3814
sg76
(lp4370
g69
(g90
g71
NtRp4371
(dp4372
g74
(dp4373
g94
g95
ssg83
g4367
sg76
(lp4374
S'wsgi.multithread'
p4375
asbag69
(g90
g71
NtRp4376
(dp4377
g74
(dp4378
g101
g102
ssg83
g4367
sg76
(lp4379
S':'
asbag69
(g90
g71
NtRp4380
(dp4381
g74
(dp4382
sg83
g4367
sg76
(lp4383
g69
(g70
g71
NtRp4384
(dp4385
g74
(dp4386
g82
I3
ssg83
g4380
sg76
(lp4387
g2963
asbasbasbag69
(g85
g71
NtRp4388
(dp4389
g74
(dp4390
sg83
g3814
sg76
(lp4391
g69
(g90
g71
NtRp4392
(dp4393
g74
(dp4394
g94
g95
ssg83
g4388
sg76
(lp4395
S'wsgi.run_once'
p4396
asbag69
(g90
g71
NtRp4397
(dp4398
g74
(dp4399
g101
g102
ssg83
g4388
sg76
(lp4400
S':'
asbag69
(g90
g71
NtRp4401
(dp4402
g74
(dp4403
sg83
g4388
sg76
(lp4404
g69
(g70
g71
NtRp4405
(dp4406
g74
(dp4407
g82
I3
ssg83
g4401
sg76
(lp4408
g112
asbasbasbag69
(g85
g71
NtRp4409
(dp4410
g74
(dp4411
sg83
g3814
sg76
(lp4412
g69
(g90
g71
NtRp4413
(dp4414
g74
(dp4415
g94
g95
ssg83
g4409
sg76
(lp4416
S'wsgi.url_scheme'
p4417
asbag69
(g90
g71
NtRp4418
(dp4419
g74
(dp4420
g101
g102
ssg83
g4409
sg76
(lp4421
S':'
asbag69
(g90
g71
NtRp4422
(dp4423
g74
(dp4424
sg83
g4409
sg76
(lp4425
g69
(g70
g71
NtRp4426
(dp4427
g74
(dp4428
g82
I3
ssg83
g4422
sg76
(lp4429
g3006
asbasbasbag69
(g85
g71
NtRp4430
(dp4431
g74
(dp4432
sg83
g3814
sg76
(lp4433
g69
(g90
g71
NtRp4434
(dp4435
g74
(dp4436
g94
g95
ssg83
g4430
sg76
(lp4437
S'wsgi.version'
p4438
asbag69
(g90
g71
NtRp4439
(dp4440
g74
(dp4441
g101
g102
ssg83
g4430
sg76
(lp4442
S':'
asbag69
(g90
g71
NtRp4443
(dp4444
g74
(dp4445
sg83
g4430
sg76
(lp4446
g69
(g70
g71
NtRp4447
(dp4448
g74
(dp4449
g82
I3
ssg83
g4443
sg76
(lp4450
S'1'
asbasbasbasbasbasbasbasbasbasbasbasbasbsS'frames'
p4451
(lp4452
(dp4453
S'file'
p4454
S'/var/www/web2py_curso/gluon/restricted.py'
p4455
sS'dump'
p4456
(dp4457
S'code'
p4458
S'\'# coding: utf-8\\n\\ndef home():\\n\\tnome = "Fernando"\\n... \\n\\nresponse._vars=response._caller(cliente_host)\\n\''
p4459
sS'layer'
p4460
S"'/var/www/web2py_curso/applications/projeto/controllers/initial.py'"
p4461
sS'global compile2'
p4462
S'<function compile2>'
p4463
sS'ccode'
p4464
S'undefined'
p4465
ssS'lnum'
p4466
I211
sS'lines'
p4467
(dp4468
I206
S"    environment['__name__'] = '__restricted__'"
p4469
sI207
S'    try:'
p4470
sI208
S'        if isinstance(code, types.CodeType):'
p4471
sI209
S'            ccode = code'
p4472
sI210
S'        else:'
p4473
sI211
S'            ccode = compile2(code, layer)'
p4474
sI212
S'        exec ccode in environment'
p4475
sI213
S'    except HTTP:'
p4476
sI214
S'        raise'
p4477
sI215
S'    except RestrictedError:'
p4478
ssS'call'
p4479
S'(code=\'# coding: utf-8\\n\\ndef home():\\n\\tnome = "Fernando"\\n... \\n\\nresponse._vars=response._caller(cliente_host)\\n\', environment={\'A\': <class \'gluon.html.A\'>, \'Auth\': <class \'gluon.tools.Auth\'>, \'B\': <class \'gluon.html.B\'>, \'BEAUTIFY\': <class \'gluon.html.BEAUTIFY\'>, \'BODY\': <class \'gluon.html.BODY\'>, \'BR\': <class \'gluon.html.BR\'>, \'BUTTON\': <class \'gluon.html.BUTTON\'>, \'Blog\': <Table blog (id,title,description)>, \'CAT\': <class \'gluon.html.CAT\'>, \'CENTER\': <class \'gluon.html.CENTER\'>, ...}, layer=\'/var/www/web2py_curso/applications/projeto/controllers/initial.py\')'
p4480
sS'func'
p4481
S'restricted'
p4482
sa(dp4483
g4454
S'/var/www/web2py_curso/gluon/restricted.py'
p4484
sg4456
(dp4485
S'builtincompile'
p4486
S'<built-in function compile>'
p4487
sS'code'
p4488
S'\'# coding: utf-8\\n\\ndef home():\\n\\tnome = "Fernando"\\n... \\n\\nresponse._vars=response._caller(cliente_host)\\n\''
p4489
sS'code.rstrip'
p4490
S'<built-in method rstrip of str object>'
p4491
sS').replace'
p4492
g4465
sS'layer'
p4493
S"'/var/www/web2py_curso/applications/projeto/controllers/initial.py'"
p4494
ssg4466
I194
sg4467
(dp4495
I192
S"    The +'\\n' is necessary else compile fails when code ends in a comment."
p4496
sI193
S'    """'
p4497
sI194
S"    return compile(code.rstrip().replace('\\r\\n', '\\n') + '\\n', layer, 'exec')"
p4498
sI195
S''
sI196
S''
sI197
S"def restricted(code, environment=None, layer='Unknown'):"
p4499
sI198
S'    """'
p4500
sI189
S''
sI190
S'def compile2(code, layer):'
p4501
sI191
S'    """'
p4502
ssg4479
S'(code=\'# coding: utf-8\\n\\ndef home():\\n\\tnome = "Fernando"\\n... \\n\\nresponse._vars=response._caller(cliente_host)\\n\', layer=\'/var/www/web2py_curso/applications/projeto/controllers/initial.py\')'
p4503
sg4481
S'compile2'
p4504
sasS'pyver'
p4505
S'Python 2.7.3: /usr/bin/python'
p4506
sS'session'
p4507
g69
(g70
g71
NtRp4508
(dp4509
g74
(dp4510
sg76
(lp4511
g69
(g78
g71
NtRp4512
(dp4513
g74
(dp4514
g82
I5
ssg83
Nsg76
(lp4515
g69
(g85
g71
NtRp4516
(dp4517
g74
(dp4518
sg83
g4512
sg76
(lp4519
g69
(g90
g71
NtRp4520
(dp4521
g74
(dp4522
g94
g95
ssg83
g4516
sg76
(lp4523
S'auth'
p4524
asbag69
(g90
g71
NtRp4525
(dp4526
g74
(dp4527
g101
g102
ssg83
g4516
sg76
(lp4528
S':'
asbag69
(g90
g71
NtRp4529
(dp4530
g74
(dp4531
sg83
g4516
sg76
(lp4532
g69
(g70
g71
NtRp4533
(dp4534
g74
(dp4535
g82
I5
ssg83
g4529
sg76
(lp4536
g69
(g78
g71
NtRp4537
(dp4538
g74
(dp4539
g82
I4
ssg83
Nsg76
(lp4540
g69
(g85
g71
NtRp4541
(dp4542
g74
(dp4543
sg83
g4537
sg76
(lp4544
g69
(g90
g71
NtRp4545
(dp4546
g74
(dp4547
g94
g95
ssg83
g4541
sg76
(lp4548
S'expiration'
p4549
asbag69
(g90
g71
NtRp4550
(dp4551
g74
(dp4552
g101
g102
ssg83
g4541
sg76
(lp4553
S':'
asbag69
(g90
g71
NtRp4554
(dp4555
g74
(dp4556
sg83
g4541
sg76
(lp4557
g69
(g70
g71
NtRp4558
(dp4559
g74
(dp4560
g82
I4
ssg83
g4554
sg76
(lp4561
S'3600'
p4562
asbasbasbag69
(g85
g71
NtRp4563
(dp4564
g74
(dp4565
sg83
g4537
sg76
(lp4566
g69
(g90
g71
NtRp4567
(dp4568
g74
(dp4569
g94
g95
ssg83
g4563
sg76
(lp4570
S'hmac_key'
p4571
asbag69
(g90
g71
NtRp4572
(dp4573
g74
(dp4574
g101
g102
ssg83
g4563
sg76
(lp4575
S':'
asbag69
(g90
g71
NtRp4576
(dp4577
g74
(dp4578
sg83
g4563
sg76
(lp4579
g69
(g70
g71
NtRp4580
(dp4581
g74
(dp4582
g82
I4
ssg83
g4576
sg76
(lp4583
S'bb1937c3-0bcc-4ed6-b16e-b41ad8d6e89a'
p4584
asbasbasbag69
(g85
g71
NtRp4585
(dp4586
g74
(dp4587
sg83
g4537
sg76
(lp4588
g69
(g90
g71
NtRp4589
(dp4590
g74
(dp4591
g94
g95
ssg83
g4585
sg76
(lp4592
S'last_visit'
p4593
asbag69
(g90
g71
NtRp4594
(dp4595
g74
(dp4596
g101
g102
ssg83
g4585
sg76
(lp4597
S':'
asbag69
(g90
g71
NtRp4598
(dp4599
g74
(dp4600
sg83
g4585
sg76
(lp4601
g69
(g70
g71
NtRp4602
(dp4603
g74
(dp4604
g82
I4
ssg83
g4598
sg76
(lp4605
S'datetime.datetime(2013, 1, 29, 9, 20, 50, 642636)'
p4606
asbasbasbag69
(g85
g71
NtRp4607
(dp4608
g74
(dp4609
sg83
g4537
sg76
(lp4610
g69
(g90
g71
NtRp4611
(dp4612
g74
(dp4613
g94
g95
ssg83
g4607
sg76
(lp4614
S'remember'
p4615
asbag69
(g90
g71
NtRp4616
(dp4617
g74
(dp4618
g101
g102
ssg83
g4607
sg76
(lp4619
S':'
asbag69
(g90
g71
NtRp4620
(dp4621
g74
(dp4622
sg83
g4607
sg76
(lp4623
g69
(g70
g71
NtRp4624
(dp4625
g74
(dp4626
g82
I4
ssg83
g4620
sg76
(lp4627
g112
asbasbasbag69
(g85
g71
NtRp4628
(dp4629
g74
(dp4630
sg83
g4537
sg76
(lp4631
g69
(g90
g71
NtRp4632
(dp4633
g74
(dp4634
g94
g95
ssg83
g4628
sg76
(lp4635
S'user'
p4636
asbag69
(g90
g71
NtRp4637
(dp4638
g74
(dp4639
g101
g102
ssg83
g4628
sg76
(lp4640
S':'
asbag69
(g90
g71
NtRp4641
(dp4642
g74
(dp4643
sg83
g4628
sg76
(lp4644
g69
(g70
g71
NtRp4645
(dp4646
g74
(dp4647
g82
I4
ssg83
g4641
sg76
(lp4648
g69
(g78
g71
NtRp4649
(dp4650
g74
(dp4651
g82
I3
ssg83
Nsg76
(lp4652
g69
(g85
g71
NtRp4653
(dp4654
g74
(dp4655
sg83
g4649
sg76
(lp4656
g69
(g90
g71
NtRp4657
(dp4658
g74
(dp4659
g94
g95
ssg83
g4653
sg76
(lp4660
S'bio'
p4661
asbag69
(g90
g71
NtRp4662
(dp4663
g74
(dp4664
g101
g102
ssg83
g4653
sg76
(lp4665
S':'
asbag69
(g90
g71
NtRp4666
(dp4667
g74
(dp4668
sg83
g4653
sg76
(lp4669
g69
(g70
g71
NtRp4670
(dp4671
g74
(dp4672
g82
I3
ssg83
g4666
sg76
(lp4673
S'None'
p4674
asbasbasbag69
(g85
g71
NtRp4675
(dp4676
g74
(dp4677
sg83
g4649
sg76
(lp4678
g69
(g90
g71
NtRp4679
(dp4680
g74
(dp4681
g94
g95
ssg83
g4675
sg76
(lp4682
S'email'
p4683
asbag69
(g90
g71
NtRp4684
(dp4685
g74
(dp4686
g101
g102
ssg83
g4675
sg76
(lp4687
S':'
asbag69
(g90
g71
NtRp4688
(dp4689
g74
(dp4690
sg83
g4675
sg76
(lp4691
g69
(g70
g71
NtRp4692
(dp4693
g74
(dp4694
g82
I3
ssg83
g4688
sg76
(lp4695
S'fernando@ad2.com.br'
p4696
asbasbasbag69
(g85
g71
NtRp4697
(dp4698
g74
(dp4699
sg83
g4649
sg76
(lp4700
g69
(g90
g71
NtRp4701
(dp4702
g74
(dp4703
g94
g95
ssg83
g4697
sg76
(lp4704
S'first_name'
p4705
asbag69
(g90
g71
NtRp4706
(dp4707
g74
(dp4708
g101
g102
ssg83
g4697
sg76
(lp4709
S':'
asbag69
(g90
g71
NtRp4710
(dp4711
g74
(dp4712
sg83
g4697
sg76
(lp4713
g69
(g70
g71
NtRp4714
(dp4715
g74
(dp4716
g82
I3
ssg83
g4710
sg76
(lp4717
S'Dend'
p4718
asbasbasbag69
(g85
g71
NtRp4719
(dp4720
g74
(dp4721
sg83
g4649
sg76
(lp4722
g69
(g90
g71
NtRp4723
(dp4724
g74
(dp4725
g94
g95
ssg83
g4719
sg76
(lp4726
S'gender'
p4727
asbag69
(g90
g71
NtRp4728
(dp4729
g74
(dp4730
g101
g102
ssg83
g4719
sg76
(lp4731
S':'
asbag69
(g90
g71
NtRp4732
(dp4733
g74
(dp4734
sg83
g4719
sg76
(lp4735
g69
(g70
g71
NtRp4736
(dp4737
g74
(dp4738
g82
I3
ssg83
g4732
sg76
(lp4739
S'masculino'
p4740
asbasbasbag69
(g85
g71
NtRp4741
(dp4742
g74
(dp4743
sg83
g4649
sg76
(lp4744
g69
(g90
g71
NtRp4745
(dp4746
g74
(dp4747
g94
g95
ssg83
g4741
sg76
(lp4748
S'id'
p4749
asbag69
(g90
g71
NtRp4750
(dp4751
g74
(dp4752
g101
g102
ssg83
g4741
sg76
(lp4753
S':'
asbag69
(g90
g71
NtRp4754
(dp4755
g74
(dp4756
sg83
g4741
sg76
(lp4757
g69
(g70
g71
NtRp4758
(dp4759
g74
(dp4760
g82
I3
ssg83
g4754
sg76
(lp4761
S'5'
asbasbasbag69
(g85
g71
NtRp4762
(dp4763
g74
(dp4764
sg83
g4649
sg76
(lp4765
g69
(g90
g71
NtRp4766
(dp4767
g74
(dp4768
g94
g95
ssg83
g4762
sg76
(lp4769
S'last_name'
p4770
asbag69
(g90
g71
NtRp4771
(dp4772
g74
(dp4773
g101
g102
ssg83
g4762
sg76
(lp4774
S':'
asbag69
(g90
g71
NtRp4775
(dp4776
g74
(dp4777
sg83
g4762
sg76
(lp4778
g69
(g70
g71
NtRp4779
(dp4780
g74
(dp4781
g82
I3
ssg83
g4775
sg76
(lp4782
S'delkson'
p4783
asbasbasbag69
(g85
g71
NtRp4784
(dp4785
g74
(dp4786
sg83
g4649
sg76
(lp4787
g69
(g90
g71
NtRp4788
(dp4789
g74
(dp4790
g94
g95
ssg83
g4784
sg76
(lp4791
S'photo'
p4792
asbag69
(g90
g71
NtRp4793
(dp4794
g74
(dp4795
g101
g102
ssg83
g4784
sg76
(lp4796
S':'
asbag69
(g90
g71
NtRp4797
(dp4798
g74
(dp4799
sg83
g4784
sg76
(lp4800
g69
(g70
g71
NtRp4801
(dp4802
g74
(dp4803
g82
I3
ssg83
g4797
sg76
(lp4804
S'auth_user.photo.852c1e9d624a7670.746563686e6f6c6f676965735f7068702e706e67.png'
p4805
asbasbasbag69
(g85
g71
NtRp4806
(dp4807
g74
(dp4808
sg83
g4649
sg76
(lp4809
g69
(g90
g71
NtRp4810
(dp4811
g74
(dp4812
g94
g95
ssg83
g4806
sg76
(lp4813
S'registration_id'
p4814
asbag69
(g90
g71
NtRp4815
(dp4816
g74
(dp4817
g101
g102
ssg83
g4806
sg76
(lp4818
S':'
asbag69
(g90
g71
NtRp4819
(dp4820
g74
(dp4821
sg83
g4806
sg76
(lp4822
g69
(g70
g71
NtRp4823
(dp4824
g74
(dp4825
g82
I3
ssg83
g4819
sg76
(lp4826
S''
asbasbasbag69
(g85
g71
NtRp4827
(dp4828
g74
(dp4829
sg83
g4649
sg76
(lp4830
g69
(g90
g71
NtRp4831
(dp4832
g74
(dp4833
g94
g95
ssg83
g4827
sg76
(lp4834
S'registration_key'
p4835
asbag69
(g90
g71
NtRp4836
(dp4837
g74
(dp4838
g101
g102
ssg83
g4827
sg76
(lp4839
S':'
asbag69
(g90
g71
NtRp4840
(dp4841
g74
(dp4842
sg83
g4827
sg76
(lp4843
g69
(g70
g71
NtRp4844
(dp4845
g74
(dp4846
g82
I3
ssg83
g4840
sg76
(lp4847
S''
asbasbasbag69
(g85
g71
NtRp4848
(dp4849
g74
(dp4850
sg83
g4649
sg76
(lp4851
g69
(g90
g71
NtRp4852
(dp4853
g74
(dp4854
g94
g95
ssg83
g4848
sg76
(lp4855
S'reset_password_key'
p4856
asbag69
(g90
g71
NtRp4857
(dp4858
g74
(dp4859
g101
g102
ssg83
g4848
sg76
(lp4860
S':'
asbag69
(g90
g71
NtRp4861
(dp4862
g74
(dp4863
sg83
g4848
sg76
(lp4864
g69
(g70
g71
NtRp4865
(dp4866
g74
(dp4867
g82
I3
ssg83
g4861
sg76
(lp4868
S''
asbasbasbasbasbasbasbag69
(g85
g71
NtRp4869
(dp4870
g74
(dp4871
sg83
g4537
sg76
(lp4872
g69
(g90
g71
NtRp4873
(dp4874
g74
(dp4875
g94
g95
ssg83
g4869
sg76
(lp4876
S'user_groups'
p4877
asbag69
(g90
g71
NtRp4878
(dp4879
g74
(dp4880
g101
g102
ssg83
g4869
sg76
(lp4881
S':'
asbag69
(g90
g71
NtRp4882
(dp4883
g74
(dp4884
sg83
g4869
sg76
(lp4885
g69
(g70
g71
NtRp4886
(dp4887
g74
(dp4888
g82
I4
ssg83
g4882
sg76
(lp4889
g69
(g78
g71
NtRp4890
(dp4891
g74
(dp4892
g82
I3
ssg83
Nsg76
(lp4893
g69
(g85
g71
NtRp4894
(dp4895
g74
(dp4896
sg83
g4890
sg76
(lp4897
g69
(g90
g71
NtRp4898
(dp4899
g74
(dp4900
g94
g95
ssg83
g4894
sg76
(lp4901
S'5'
asbag69
(g90
g71
NtRp4902
(dp4903
g74
(dp4904
g101
g102
ssg83
g4894
sg76
(lp4905
S':'
asbag69
(g90
g71
NtRp4906
(dp4907
g74
(dp4908
sg83
g4894
sg76
(lp4909
g69
(g70
g71
NtRp4910
(dp4911
g74
(dp4912
g82
I3
ssg83
g4906
sg76
(lp4913
S'user_5'
p4914
asbasbasbasbasbasbasbasbasbasbasbag69
(g85
g71
NtRp4915
(dp4916
g74
(dp4917
sg83
g4512
sg76
(lp4918
g69
(g90
g71
NtRp4919
(dp4920
g74
(dp4921
g94
g95
ssg83
g4915
sg76
(lp4922
S'flash'
p4923
asbag69
(g90
g71
NtRp4924
(dp4925
g74
(dp4926
g101
g102
ssg83
g4915
sg76
(lp4927
S':'
asbag69
(g90
g71
NtRp4928
(dp4929
g74
(dp4930
sg83
g4915
sg76
(lp4931
g69
(g70
g71
NtRp4932
(dp4933
g74
(dp4934
g82
I5
ssg83
g4928
sg76
(lp4935
S'None'
p4936
asbasbasbasbasbsS'etype'
p4937
S"<type 'exceptions.SyntaxError'>"
p4938
sS'date'
p4939
S'Tue Jan 29 09:25:20 2013'
p4940
sS'response'
p4941
g69
(g70
g71
NtRp4942
(dp4943
g74
(dp4944
sg76
(lp4945
g69
(g78
g71
NtRp4946
(dp4947
g74
(dp4948
g82
I5
ssg83
Nsg76
(lp4949
g69
(g85
g71
NtRp4950
(dp4951
g74
(dp4952
sg83
g4946
sg76
(lp4953
g69
(g90
g71
NtRp4954
(dp4955
g74
(dp4956
g94
g95
ssg83
g4950
sg76
(lp4957
g167
asbag69
(g90
g71
NtRp4958
(dp4959
g74
(dp4960
g101
g102
ssg83
g4950
sg76
(lp4961
S':'
asbag69
(g90
g71
NtRp4962
(dp4963
g74
(dp4964
sg83
g4950
sg76
(lp4965
g69
(g70
g71
NtRp4966
(dp4967
g74
(dp4968
g82
I5
ssg83
g4962
sg76
(lp4969
S'<cStringIO.StringO object at 0x7f409c0be298>'
p4970
asbasbasbag69
(g85
g71
NtRp4971
(dp4972
g74
(dp4973
sg83
g4946
sg76
(lp4974
g69
(g90
g71
NtRp4975
(dp4976
g74
(dp4977
g94
g95
ssg83
g4971
sg76
(lp4978
g255
asbag69
(g90
g71
NtRp4979
(dp4980
g74
(dp4981
g101
g102
ssg83
g4971
sg76
(lp4982
S':'
asbag69
(g90
g71
NtRp4983
(dp4984
g74
(dp4985
sg83
g4971
sg76
(lp4986
g69
(g70
g71
NtRp4987
(dp4988
g74
(dp4989
g82
I5
ssg83
g4983
sg76
(lp4990
g69
(g78
g71
NtRp4991
(dp4992
g74
(dp4993
g82
I4
ssg83
Nsg76
(lp4994
g69
(g85
g71
NtRp4995
(dp4996
g74
(dp4997
sg83
g4991
sg76
(lp4998
g69
(g90
g71
NtRp4999
(dp5000
g74
(dp5001
g94
g95
ssg83
g4995
sg76
(lp5002
S'session_id_projeto'
p5003
asbag69
(g90
g71
NtRp5004
(dp5005
g74
(dp5006
g101
g102
ssg83
g4995
sg76
(lp5007
S':'
asbag69
(g90
g71
NtRp5008
(dp5009
g74
(dp5010
sg83
g4995
sg76
(lp5011
g69
(g70
g71
NtRp5012
(dp5013
g74
(dp5014
g82
I4
ssg83
g5008
sg76
(lp5015
g1601
ag69
(g78
g71
NtRp5016
(dp5017
g74
(dp5018
g82
I3
ssg83
Nsg76
(lp5019
g69
(g85
g71
NtRp5020
(dp5021
g74
(dp5022
sg83
g5016
sg76
(lp5023
g69
(g90
g71
NtRp5024
(dp5025
g74
(dp5026
g94
g95
ssg83
g5020
sg76
(lp5027
g306
asbag69
(g90
g71
NtRp5028
(dp5029
g74
(dp5030
g101
g102
ssg83
g5020
sg76
(lp5031
S':'
asbag69
(g90
g71
NtRp5032
(dp5033
g74
(dp5034
sg83
g5020
sg76
(lp5035
g69
(g70
g71
NtRp5036
(dp5037
g74
(dp5038
g82
I3
ssg83
g5032
sg76
(lp5039
S''
asbasbasbag69
(g85
g71
NtRp5040
(dp5041
g74
(dp5042
sg83
g5016
sg76
(lp5043
g69
(g90
g71
NtRp5044
(dp5045
g74
(dp5046
g94
g95
ssg83
g5040
sg76
(lp5047
g327
asbag69
(g90
g71
NtRp5048
(dp5049
g74
(dp5050
g101
g102
ssg83
g5040
sg76
(lp5051
S':'
asbag69
(g90
g71
NtRp5052
(dp5053
g74
(dp5054
sg83
g5040
sg76
(lp5055
g69
(g70
g71
NtRp5056
(dp5057
g74
(dp5058
g82
I3
ssg83
g5052
sg76
(lp5059
S''
asbasbasbag69
(g85
g71
NtRp5060
(dp5061
g74
(dp5062
sg83
g5016
sg76
(lp5063
g69
(g90
g71
NtRp5064
(dp5065
g74
(dp5066
g94
g95
ssg83
g5060
sg76
(lp5067
g348
asbag69
(g90
g71
NtRp5068
(dp5069
g74
(dp5070
g101
g102
ssg83
g5060
sg76
(lp5071
S':'
asbag69
(g90
g71
NtRp5072
(dp5073
g74
(dp5074
sg83
g5060
sg76
(lp5075
g69
(g70
g71
NtRp5076
(dp5077
g74
(dp5078
g82
I3
ssg83
g5072
sg76
(lp5079
S''
asbasbasbag69
(g85
g71
NtRp5080
(dp5081
g74
(dp5082
sg83
g5016
sg76
(lp5083
g69
(g90
g71
NtRp5084
(dp5085
g74
(dp5086
g94
g95
ssg83
g5080
sg76
(lp5087
g369
asbag69
(g90
g71
NtRp5088
(dp5089
g74
(dp5090
g101
g102
ssg83
g5080
sg76
(lp5091
S':'
asbag69
(g90
g71
NtRp5092
(dp5093
g74
(dp5094
sg83
g5080
sg76
(lp5095
g69
(g70
g71
NtRp5096
(dp5097
g74
(dp5098
g82
I3
ssg83
g5092
sg76
(lp5099
S''
asbasbasbag69
(g85
g71
NtRp5100
(dp5101
g74
(dp5102
sg83
g5016
sg76
(lp5103
g69
(g90
g71
NtRp5104
(dp5105
g74
(dp5106
g94
g95
ssg83
g5100
sg76
(lp5107
g390
asbag69
(g90
g71
NtRp5108
(dp5109
g74
(dp5110
g101
g102
ssg83
g5100
sg76
(lp5111
S':'
asbag69
(g90
g71
NtRp5112
(dp5113
g74
(dp5114
sg83
g5100
sg76
(lp5115
g69
(g70
g71
NtRp5116
(dp5117
g74
(dp5118
g82
I3
ssg83
g5112
sg76
(lp5119
S''
asbasbasbag69
(g85
g71
NtRp5120
(dp5121
g74
(dp5122
sg83
g5016
sg76
(lp5123
g69
(g90
g71
NtRp5124
(dp5125
g74
(dp5126
g94
g95
ssg83
g5120
sg76
(lp5127
g411
asbag69
(g90
g71
NtRp5128
(dp5129
g74
(dp5130
g101
g102
ssg83
g5120
sg76
(lp5131
S':'
asbag69
(g90
g71
NtRp5132
(dp5133
g74
(dp5134
sg83
g5120
sg76
(lp5135
g69
(g70
g71
NtRp5136
(dp5137
g74
(dp5138
g82
I3
ssg83
g5132
sg76
(lp5139
S'/'
asbasbasbag69
(g85
g71
NtRp5140
(dp5141
g74
(dp5142
sg83
g5016
sg76
(lp5143
g69
(g90
g71
NtRp5144
(dp5145
g74
(dp5146
g94
g95
ssg83
g5140
sg76
(lp5147
g432
asbag69
(g90
g71
NtRp5148
(dp5149
g74
(dp5150
g101
g102
ssg83
g5140
sg76
(lp5151
S':'
asbag69
(g90
g71
NtRp5152
(dp5153
g74
(dp5154
sg83
g5140
sg76
(lp5155
g69
(g70
g71
NtRp5156
(dp5157
g74
(dp5158
g82
I3
ssg83
g5152
sg76
(lp5159
S''
asbasbasbag69
(g85
g71
NtRp5160
(dp5161
g74
(dp5162
sg83
g5016
sg76
(lp5163
g69
(g90
g71
NtRp5164
(dp5165
g74
(dp5166
g94
g95
ssg83
g5160
sg76
(lp5167
g453
asbag69
(g90
g71
NtRp5168
(dp5169
g74
(dp5170
g101
g102
ssg83
g5160
sg76
(lp5171
S':'
asbag69
(g90
g71
NtRp5172
(dp5173
g74
(dp5174
sg83
g5160
sg76
(lp5175
g69
(g70
g71
NtRp5176
(dp5177
g74
(dp5178
g82
I3
ssg83
g5172
sg76
(lp5179
S''
asbasbasbasbasbasbasbasbasbasbasbag69
(g85
g71
NtRp5180
(dp5181
g74
(dp5182
sg83
g4946
sg76
(lp5183
g69
(g90
g71
NtRp5184
(dp5185
g74
(dp5186
g94
g95
ssg83
g5180
sg76
(lp5187
S'delimiters'
p5188
asbag69
(g90
g71
NtRp5189
(dp5190
g74
(dp5191
g101
g102
ssg83
g5180
sg76
(lp5192
S':'
asbag69
(g90
g71
NtRp5193
(dp5194
g74
(dp5195
sg83
g5180
sg76
(lp5196
g69
(g70
g71
NtRp5197
(dp5198
g74
(dp5199
g82
I5
ssg83
g5193
sg76
(lp5200
g69
(g78
g71
NtRp5201
(dp5202
g74
(dp5203
g82
I4
ssg83
Nsg76
(lp5204
g69
(g85
g71
NtRp5205
(dp5206
g74
(dp5207
sg83
g5201
sg76
(lp5208
g69
(g90
g71
NtRp5209
(dp5210
g74
(dp5211
sg83
g5205
sg76
(lp5212
g69
(g70
g71
NtRp5213
(dp5214
g74
(dp5215
g82
I4
ssg83
g5209
sg76
(lp5216
S'{{'
p5217
asbasbasbag69
(g85
g71
NtRp5218
(dp5219
g74
(dp5220
sg83
g5201
sg76
(lp5221
g69
(g90
g71
NtRp5222
(dp5223
g74
(dp5224
sg83
g5218
sg76
(lp5225
g69
(g70
g71
NtRp5226
(dp5227
g74
(dp5228
g82
I4
ssg83
g5222
sg76
(lp5229
S'}}'
p5230
asbasbasbasbasbasbasbag69
(g85
g71
NtRp5231
(dp5232
g74
(dp5233
sg83
g4946
sg76
(lp5234
g69
(g90
g71
NtRp5235
(dp5236
g74
(dp5237
g94
g95
ssg83
g5231
sg76
(lp5238
S'files'
p5239
asbag69
(g90
g71
NtRp5240
(dp5241
g74
(dp5242
g101
g102
ssg83
g5231
sg76
(lp5243
S':'
asbag69
(g90
g71
NtRp5244
(dp5245
g74
(dp5246
sg83
g5231
sg76
(lp5247
g69
(g70
g71
NtRp5248
(dp5249
g74
(dp5250
g82
I5
ssg83
g5244
sg76
(lp5251
g69
(g78
g71
NtRp5252
(dp5253
g74
(dp5254
g82
I4
ssg83
Nsg76
(lp5255
sbasbasbasbag69
(g85
g71
NtRp5256
(dp5257
g74
(dp5258
sg83
g4946
sg76
(lp5259
g69
(g90
g71
NtRp5260
(dp5261
g74
(dp5262
g94
g95
ssg83
g5256
sg76
(lp5263
S'flash'
p5264
asbag69
(g90
g71
NtRp5265
(dp5266
g74
(dp5267
g101
g102
ssg83
g5256
sg76
(lp5268
S':'
asbag69
(g90
g71
NtRp5269
(dp5270
g74
(dp5271
sg83
g5256
sg76
(lp5272
g69
(g70
g71
NtRp5273
(dp5274
g74
(dp5275
g82
I5
ssg83
g5269
sg76
(lp5276
S''
asbasbasbag69
(g85
g71
NtRp5277
(dp5278
g74
(dp5279
sg83
g4946
sg76
(lp5280
g69
(g90
g71
NtRp5281
(dp5282
g74
(dp5283
g94
g95
ssg83
g5277
sg76
(lp5284
S'generic_patterns'
p5285
asbag69
(g90
g71
NtRp5286
(dp5287
g74
(dp5288
g101
g102
ssg83
g5277
sg76
(lp5289
S':'
asbag69
(g90
g71
NtRp5290
(dp5291
g74
(dp5292
sg83
g5277
sg76
(lp5293
g69
(g70
g71
NtRp5294
(dp5295
g74
(dp5296
g82
I5
ssg83
g5290
sg76
(lp5297
g69
(g78
g71
NtRp5298
(dp5299
g74
(dp5300
g82
I4
ssg83
Nsg76
(lp5301
g69
(g85
g71
NtRp5302
(dp5303
g74
(dp5304
sg83
g5298
sg76
(lp5305
g69
(g90
g71
NtRp5306
(dp5307
g74
(dp5308
sg83
g5302
sg76
(lp5309
g69
(g70
g71
NtRp5310
(dp5311
g74
(dp5312
g82
I4
ssg83
g5306
sg76
(lp5313
S'*'
asbasbasbasbasbasbasbag69
(g85
g71
NtRp5314
(dp5315
g74
(dp5316
sg83
g4946
sg76
(lp5317
g69
(g90
g71
NtRp5318
(dp5319
g74
(dp5320
g94
g95
ssg83
g5314
sg76
(lp5321
S'headers'
p5322
asbag69
(g90
g71
NtRp5323
(dp5324
g74
(dp5325
g101
g102
ssg83
g5314
sg76
(lp5326
S':'
asbag69
(g90
g71
NtRp5327
(dp5328
g74
(dp5329
sg83
g5314
sg76
(lp5330
g69
(g70
g71
NtRp5331
(dp5332
g74
(dp5333
g82
I5
ssg83
g5327
sg76
(lp5334
g69
(g78
g71
NtRp5335
(dp5336
g74
(dp5337
g82
I4
ssg83
Nsg76
(lp5338
g69
(g85
g71
NtRp5339
(dp5340
g74
(dp5341
sg83
g5335
sg76
(lp5342
g69
(g90
g71
NtRp5343
(dp5344
g74
(dp5345
g94
g95
ssg83
g5339
sg76
(lp5346
S'X-Powered-By'
p5347
asbag69
(g90
g71
NtRp5348
(dp5349
g74
(dp5350
g101
g102
ssg83
g5339
sg76
(lp5351
S':'
asbag69
(g90
g71
NtRp5352
(dp5353
g74
(dp5354
sg83
g5339
sg76
(lp5355
g69
(g70
g71
NtRp5356
(dp5357
g74
(dp5358
g82
I4
ssg83
g5352
sg76
(lp5359
S'web2py'
p5360
asbasbasbasbasbasbasbag69
(g85
g71
NtRp5361
(dp5362
g74
(dp5363
sg83
g4946
sg76
(lp5364
g69
(g90
g71
NtRp5365
(dp5366
g74
(dp5367
g94
g95
ssg83
g5361
sg76
(lp5368
S'menu'
p5369
asbag69
(g90
g71
NtRp5370
(dp5371
g74
(dp5372
g101
g102
ssg83
g5361
sg76
(lp5373
S':'
asbag69
(g90
g71
NtRp5374
(dp5375
g74
(dp5376
sg83
g5361
sg76
(lp5377
g69
(g70
g71
NtRp5378
(dp5379
g74
(dp5380
g82
I5
ssg83
g5374
sg76
(lp5381
g69
(g78
g71
NtRp5382
(dp5383
g74
(dp5384
g82
I4
ssg83
Nsg76
(lp5385
sbasbasbasbag69
(g85
g71
NtRp5386
(dp5387
g74
(dp5388
sg83
g4946
sg76
(lp5389
g69
(g90
g71
NtRp5390
(dp5391
g74
(dp5392
g94
g95
ssg83
g5386
sg76
(lp5393
S'meta'
p5394
asbag69
(g90
g71
NtRp5395
(dp5396
g74
(dp5397
g101
g102
ssg83
g5386
sg76
(lp5398
S':'
asbag69
(g90
g71
NtRp5399
(dp5400
g74
(dp5401
sg83
g5386
sg76
(lp5402
g69
(g70
g71
NtRp5403
(dp5404
g74
(dp5405
g82
I5
ssg83
g5399
sg76
(lp5406
g69
(g78
g71
NtRp5407
(dp5408
g74
(dp5409
g82
I4
ssg83
Nsg76
(lp5410
g69
(g85
g71
NtRp5411
(dp5412
g74
(dp5413
sg83
g5407
sg76
(lp5414
g69
(g90
g71
NtRp5415
(dp5416
g74
(dp5417
g94
g95
ssg83
g5411
sg76
(lp5418
S'keywords'
p5419
asbag69
(g90
g71
NtRp5420
(dp5421
g74
(dp5422
g101
g102
ssg83
g5411
sg76
(lp5423
S':'
asbag69
(g90
g71
NtRp5424
(dp5425
g74
(dp5426
sg83
g5411
sg76
(lp5427
g69
(g70
g71
NtRp5428
(dp5429
g74
(dp5430
g82
I4
ssg83
g5424
sg76
(lp5431
S'chave, outra, e outra'
p5432
asbasbasbasbasbasbasbag69
(g85
g71
NtRp5433
(dp5434
g74
(dp5435
sg83
g4946
sg76
(lp5436
g69
(g90
g71
NtRp5437
(dp5438
g74
(dp5439
g94
g95
ssg83
g5433
sg76
(lp5440
S'models_to_run'
p5441
asbag69
(g90
g71
NtRp5442
(dp5443
g74
(dp5444
g101
g102
ssg83
g5433
sg76
(lp5445
S':'
asbag69
(g90
g71
NtRp5446
(dp5447
g74
(dp5448
sg83
g5433
sg76
(lp5449
g69
(g70
g71
NtRp5450
(dp5451
g74
(dp5452
g82
I5
ssg83
g5446
sg76
(lp5453
g69
(g78
g71
NtRp5454
(dp5455
g74
(dp5456
g82
I4
ssg83
Nsg76
(lp5457
g69
(g85
g71
NtRp5458
(dp5459
g74
(dp5460
sg83
g5454
sg76
(lp5461
g69
(g90
g71
NtRp5462
(dp5463
g74
(dp5464
sg83
g5458
sg76
(lp5465
g69
(g70
g71
NtRp5466
(dp5467
g74
(dp5468
g82
I4
ssg83
g5462
sg76
(lp5469
S'^\\w+\\.py$'
p5470
asbasbasbag69
(g85
g71
NtRp5471
(dp5472
g74
(dp5473
sg83
g5454
sg76
(lp5474
g69
(g90
g71
NtRp5475
(dp5476
g74
(dp5477
sg83
g5471
sg76
(lp5478
g69
(g70
g71
NtRp5479
(dp5480
g74
(dp5481
g82
I4
ssg83
g5475
sg76
(lp5482
S'^initial/\\w+\\.py$'
p5483
asbasbasbag69
(g85
g71
NtRp5484
(dp5485
g74
(dp5486
sg83
g5454
sg76
(lp5487
g69
(g90
g71
NtRp5488
(dp5489
g74
(dp5490
sg83
g5484
sg76
(lp5491
g69
(g70
g71
NtRp5492
(dp5493
g74
(dp5494
g82
I4
ssg83
g5488
sg76
(lp5495
S'^initial/cliente_host/\\w+\\.py$'
p5496
asbasbasbasbasbasbasbag69
(g85
g71
NtRp5497
(dp5498
g74
(dp5499
sg83
g4946
sg76
(lp5500
g69
(g90
g71
NtRp5501
(dp5502
g74
(dp5503
g94
g95
ssg83
g5497
sg76
(lp5504
S'postprocessing'
p5505
asbag69
(g90
g71
NtRp5506
(dp5507
g74
(dp5508
g101
g102
ssg83
g5497
sg76
(lp5509
S':'
asbag69
(g90
g71
NtRp5510
(dp5511
g74
(dp5512
sg83
g5497
sg76
(lp5513
g69
(g70
g71
NtRp5514
(dp5515
g74
(dp5516
g82
I5
ssg83
g5510
sg76
(lp5517
g69
(g78
g71
NtRp5518
(dp5519
g74
(dp5520
g82
I4
ssg83
Nsg76
(lp5521
sbasbasbasbag69
(g85
g71
NtRp5522
(dp5523
g74
(dp5524
sg83
g4946
sg76
(lp5525
g69
(g90
g71
NtRp5526
(dp5527
g74
(dp5528
g94
g95
ssg83
g5522
sg76
(lp5529
S'session_cookie_expires'
p5530
asbag69
(g90
g71
NtRp5531
(dp5532
g74
(dp5533
g101
g102
ssg83
g5522
sg76
(lp5534
S':'
asbag69
(g90
g71
NtRp5535
(dp5536
g74
(dp5537
sg83
g5522
sg76
(lp5538
g69
(g70
g71
NtRp5539
(dp5540
g74
(dp5541
g82
I5
ssg83
g5535
sg76
(lp5542
S'None'
p5543
asbasbasbag69
(g85
g71
NtRp5544
(dp5545
g74
(dp5546
sg83
g4946
sg76
(lp5547
g69
(g90
g71
NtRp5548
(dp5549
g74
(dp5550
g94
g95
ssg83
g5544
sg76
(lp5551
S'session_data_name'
p5552
asbag69
(g90
g71
NtRp5553
(dp5554
g74
(dp5555
g101
g102
ssg83
g5544
sg76
(lp5556
S':'
asbag69
(g90
g71
NtRp5557
(dp5558
g74
(dp5559
sg83
g5544
sg76
(lp5560
g69
(g70
g71
NtRp5561
(dp5562
g74
(dp5563
g82
I5
ssg83
g5557
sg76
(lp5564
S'session_data_projeto'
p5565
asbasbasbag69
(g85
g71
NtRp5566
(dp5567
g74
(dp5568
sg83
g4946
sg76
(lp5569
g69
(g90
g71
NtRp5570
(dp5571
g74
(dp5572
g94
g95
ssg83
g5566
sg76
(lp5573
S'session_file'
p5574
asbag69
(g90
g71
NtRp5575
(dp5576
g74
(dp5577
g101
g102
ssg83
g5566
sg76
(lp5578
S':'
asbag69
(g90
g71
NtRp5579
(dp5580
g74
(dp5581
sg83
g5566
sg76
(lp5582
g69
(g70
g71
NtRp5583
(dp5584
g74
(dp5585
g82
I5
ssg83
g5579
sg76
(lp5586
S"<open file '/var/www/web2py_curso/applications/projeto/sessions/127.0.0.1-629334d6-13f2-4139-967a-cef5d9c213f5', mode 'rb+' at 0x7f40981de4b0>"
p5587
asbasbasbag69
(g85
g71
NtRp5588
(dp5589
g74
(dp5590
sg83
g4946
sg76
(lp5591
g69
(g90
g71
NtRp5592
(dp5593
g74
(dp5594
g94
g95
ssg83
g5588
sg76
(lp5595
S'session_filename'
p5596
asbag69
(g90
g71
NtRp5597
(dp5598
g74
(dp5599
g101
g102
ssg83
g5588
sg76
(lp5600
S':'
asbag69
(g90
g71
NtRp5601
(dp5602
g74
(dp5603
sg83
g5588
sg76
(lp5604
g69
(g70
g71
NtRp5605
(dp5606
g74
(dp5607
g82
I5
ssg83
g5601
sg76
(lp5608
S'/var/www/web2py_curso/applications/projeto/sessions/127.0.0.1-629334d6-13f2-4139-967a-cef5d9c213f5'
p5609
asbasbasbag69
(g85
g71
NtRp5610
(dp5611
g74
(dp5612
sg83
g4946
sg76
(lp5613
g69
(g90
g71
NtRp5614
(dp5615
g74
(dp5616
g94
g95
ssg83
g5610
sg76
(lp5617
S'session_id'
p5618
asbag69
(g90
g71
NtRp5619
(dp5620
g74
(dp5621
g101
g102
ssg83
g5610
sg76
(lp5622
S':'
asbag69
(g90
g71
NtRp5623
(dp5624
g74
(dp5625
sg83
g5610
sg76
(lp5626
g69
(g70
g71
NtRp5627
(dp5628
g74
(dp5629
g82
I5
ssg83
g5623
sg76
(lp5630
g1601
asbasbasbag69
(g85
g71
NtRp5631
(dp5632
g74
(dp5633
sg83
g4946
sg76
(lp5634
g69
(g90
g71
NtRp5635
(dp5636
g74
(dp5637
g94
g95
ssg83
g5631
sg76
(lp5638
S'session_id_name'
p5639
asbag69
(g90
g71
NtRp5640
(dp5641
g74
(dp5642
g101
g102
ssg83
g5631
sg76
(lp5643
S':'
asbag69
(g90
g71
NtRp5644
(dp5645
g74
(dp5646
sg83
g5631
sg76
(lp5647
g69
(g70
g71
NtRp5648
(dp5649
g74
(dp5650
g82
I5
ssg83
g5644
sg76
(lp5651
g5003
asbasbasbag69
(g85
g71
NtRp5652
(dp5653
g74
(dp5654
sg83
g4946
sg76
(lp5655
g69
(g90
g71
NtRp5656
(dp5657
g74
(dp5658
g94
g95
ssg83
g5652
sg76
(lp5659
S'session_locked'
p5660
asbag69
(g90
g71
NtRp5661
(dp5662
g74
(dp5663
g101
g102
ssg83
g5652
sg76
(lp5664
S':'
asbag69
(g90
g71
NtRp5665
(dp5666
g74
(dp5667
sg83
g5652
sg76
(lp5668
g69
(g70
g71
NtRp5669
(dp5670
g74
(dp5671
g82
I5
ssg83
g5665
sg76
(lp5672
g2963
asbasbasbag69
(g85
g71
NtRp5673
(dp5674
g74
(dp5675
sg83
g4946
sg76
(lp5676
g69
(g90
g71
NtRp5677
(dp5678
g74
(dp5679
g94
g95
ssg83
g5673
sg76
(lp5680
S'session_new'
p5681
asbag69
(g90
g71
NtRp5682
(dp5683
g74
(dp5684
g101
g102
ssg83
g5673
sg76
(lp5685
S':'
asbag69
(g90
g71
NtRp5686
(dp5687
g74
(dp5688
sg83
g5673
sg76
(lp5689
g69
(g70
g71
NtRp5690
(dp5691
g74
(dp5692
g82
I5
ssg83
g5686
sg76
(lp5693
g112
asbasbasbag69
(g85
g71
NtRp5694
(dp5695
g74
(dp5696
sg83
g4946
sg76
(lp5697
g69
(g90
g71
NtRp5698
(dp5699
g74
(dp5700
g94
g95
ssg83
g5694
sg76
(lp5701
S'session_storage_type'
p5702
asbag69
(g90
g71
NtRp5703
(dp5704
g74
(dp5705
g101
g102
ssg83
g5694
sg76
(lp5706
S':'
asbag69
(g90
g71
NtRp5707
(dp5708
g74
(dp5709
sg83
g5694
sg76
(lp5710
g69
(g70
g71
NtRp5711
(dp5712
g74
(dp5713
g82
I5
ssg83
g5707
sg76
(lp5714
g4454
asbasbasbag69
(g85
g71
NtRp5715
(dp5716
g74
(dp5717
sg83
g4946
sg76
(lp5718
g69
(g90
g71
NtRp5719
(dp5720
g74
(dp5721
g94
g95
ssg83
g5715
sg76
(lp5722
S'status'
p5723
asbag69
(g90
g71
NtRp5724
(dp5725
g74
(dp5726
g101
g102
ssg83
g5715
sg76
(lp5727
S':'
asbag69
(g90
g71
NtRp5728
(dp5729
g74
(dp5730
sg83
g5715
sg76
(lp5731
g69
(g70
g71
NtRp5732
(dp5733
g74
(dp5734
g82
I5
ssg83
g5728
sg76
(lp5735
S'200'
p5736
asbasbasbag69
(g85
g71
NtRp5737
(dp5738
g74
(dp5739
sg83
g4946
sg76
(lp5740
g69
(g90
g71
NtRp5741
(dp5742
g74
(dp5743
g94
g95
ssg83
g5737
sg76
(lp5744
S'title'
p5745
asbag69
(g90
g71
NtRp5746
(dp5747
g74
(dp5748
g101
g102
ssg83
g5737
sg76
(lp5749
S':'
asbag69
(g90
g71
NtRp5750
(dp5751
g74
(dp5752
sg83
g5737
sg76
(lp5753
g69
(g70
g71
NtRp5754
(dp5755
g74
(dp5756
g82
I5
ssg83
g5750
sg76
(lp5757
S'titulo response'
p5758
asbasbasbag69
(g85
g71
NtRp5759
(dp5760
g74
(dp5761
sg83
g4946
sg76
(lp5762
g69
(g90
g71
NtRp5763
(dp5764
g74
(dp5765
g94
g95
ssg83
g5759
sg76
(lp5766
S'view'
p5767
asbag69
(g90
g71
NtRp5768
(dp5769
g74
(dp5770
g101
g102
ssg83
g5759
sg76
(lp5771
S':'
asbag69
(g90
g71
NtRp5772
(dp5773
g74
(dp5774
sg83
g5759
sg76
(lp5775
g69
(g70
g71
NtRp5776
(dp5777
g74
(dp5778
g82
I5
ssg83
g5772
sg76
(lp5779
S'initial/cliente_host.html'
p5780
asbasbasbasbasbsS'locals'
p5781
(dp5782
g4
S"'/var/www/web2py_curso/applications/projeto/controllers/initial.py'"
p5783
sg6
S'\'# coding: utf-8\\n\\ndef home():\\n\\tnome = "Fernando"\\n... \\n\\nresponse._vars=response._caller(cliente_host)\\n\''
p5784
sssS'traceback'
p5785
S'Traceback (most recent call last):\n  File "/var/www/web2py_curso/gluon/restricted.py", line 211, in restricted\n    ccode = compile2(code, layer)\n  File "/var/www/web2py_curso/gluon/restricted.py", line 194, in compile2\n    return compile(code.rstrip().replace(\'\\r\\n\', \'\\n\') + \'\\n\', layer, \'exec\')\n  File "/var/www/web2py_curso/applications/projeto/controllers/initial.py", line 71\n    response.title = db.hosts.id_cliente[]\n                                         ^\nSyntaxError: invalid syntax\n'
p5786
s.