(dp1
S'output'
p2
S"<type 'exceptions.SyntaxError'> invalid syntax (initial.py, line 331)"
p3
sS'layer'
p4
S'/var/www/hosts3/applications/projeto/controllers/initial.py'
p5
sS'code'
p6
S'# coding: utf-8\n\n@auth.requires_login()\ndef show_cliente():\n\tresponse.title="Clientes"\n\n\tdb.args=Cliente.id.readable=False\n\tgrid = SQLFORM.grid(Cliente,\n\t\tuser_signature=True, searchable=True, csv=False, \n\t\tpaginate=50, details=False,  \n\t\tignore_rw = True, maxtextlength=36,\n\t\tcreate=auth.has_membership("admin"),\n\t\teditable=auth.has_membership("admin"),\n\t\tdeletable=auth.has_membership("admin"),  \n    \tlinks = [lambda row: A(\'hosts\', _class=\'btn\', \n\t\t\t_title=\'ver servidores\', \n\t\t\t_href=URL("initial", "/cliente_host", \n\t\t\tvars=dict(f=row.id, n1=\'Clientes\', p1=\'show_cliente\')))]\n    \t)\n\treturn response.render("initial/show_grid.html", grid=grid)\n\n@auth.requires_login()\ndef show_servidor():\n\tresponse.title="Servidores"\n\n\tdb.args=Servidor.id.readable=False\n\tgrid = SQLFORM.grid(Servidor,\n\t\tuser_signature=True, searchable=True, csv=False,\n\t\tpaginate=50, details=False, \n\t\tignore_rw = True, maxtextlength=26,\n\t\tcreate=auth.has_membership("admin"),\n\t\teditable=auth.has_membership("admin"),\n\t\tdeletable=auth.has_membership("admin"),  \n    \tlinks = [lambda row: A(\'hosts\', _class=\'btn\', \n    \t\t_title=\'ver servidores\', \n    \t\t_href=URL("initial", "/servidor_host", \n    \t\tvars=dict(f=row.id, n1=\'Servidores\', p1=\'show_servidor\')))]\n\t\t)\n\treturn response.render("initial/show_grid.html", grid=grid)\n\n@auth.requires_login()\ndef show_distro():\n\tresponse.title="Distribui\xc3\xa7\xc3\xb5es"\n\n\tdb.args=Distro.id.readable=False\n\tdb.args=Distro.img.readable=False\n\tgrid = SQLFORM.grid(Distro,\n\t\tuser_signature=True, searchable=True, csv=False,\n\t\tpaginate=50, details=False, ignore_rw = True, \n\t\tmaxtextlength=26, links_placement=\'left\',\n\t\tcreate=auth.has_membership("admin"),\n\t\teditable=auth.has_membership("admin"),\n\t\tdeletable=auth.has_membership("admin"),  \n    \tlinks = [lambda row: A(\'hosts\', \n    \t\t_class=\'btn\', \n    \t\t_title=\'ver servidores\', \n    \t\t_href=URL("initial", "/distro_host", \n    \t\tvars=dict(f=row.id, n1=\'Distros\', p1=\'show_distro\'))), \n    \tdict(header=\'\',body=lambda row: A( IMG(_src=URL("static", "images", args=(row.img) ))))]\n\t\t)\n\treturn response.render("initial/show_grid.html", grid=grid)\n\n\n@auth.requires_login()\ndef cliente_host():\n\tfiltro = request.vars[\'f\']\n\tqueryset = db(db.cliente.id == filtro)\n\trows = queryset.select()\n\tcliente = rows[0]\n\tresponse.title = cliente.nome\n\tprint cliente\n\n\tnome_ant1 = request.vars[\'n1\']\n\tfuncao_ant1 = request.vars[\'p1\']\n\tnome_atual = cliente.nome\n\n\tquery = ((db.hosts.id_cliente == filtro) & (db.distro.id == db.hosts.id_distro))\n\tlinks = [dict(header=\'\',body=lambda row: A( IMG(_src=URL("static", "images", args=(row.distro.img)) ))), \n\t lambda row: A(\'Detalhes\', \n    \t\t      _class=\'btn\', \n    \t\t      _title=\'Detalhes\', \n    \t\t      _href=URL("initial", "/detalhes_nav", \n    \t\t      vars=dict(f=row.hosts.id, c=filtro, n=cliente.nome, \n    \t\t      \t\t\tn1=\'Clientes\', p1=\'show_cliente\', p=\'cliente_host\'))),\n\t lambda row: A(\'Editar\', \n    \t\t      _class=\'btn\', \n    \t\t      _title=\'Editar\', \n    \t\t      _href=URL("initial", "/edit_host", \n    \t\t      vars=dict(f=row.hosts.id, c=filtro, n=cliente.nome, \n    \t\t      \t\tn1=\'Clientes\', p1=\'show_cliente\', p=\'cliente_host\')))]\n\tdb.hosts.id.readable=False\n\tdb.distro.img.readable=False\n\t\n\tfields = (db.hosts.id, db.hosts.id_servidor, db.hosts.id_distro, db.distro.img, \n\t\t\t  db.hosts.ip_chegada, db.hosts.porta_ssh, db.hosts.gateway)\n\theaders = {\'hosts.id\':   \'ID\',\n\t\t\t   \'hosts.id_cliente\': \'Cliente\',\n               \'hosts.id_servidor\': \'Servidor\',\n               \'hosts.id_distro\': \'Distro\',\n               \'hosts.nome\': \'Nome\',\n\t           \'hosts.servicos\': \'Servicos\'}\n\tgrid = SQLFORM.grid(query=query, fields=fields, headers=headers, csv=False,\n\t\t\t\t\t\tdetails=False, searchable=False, maxtextlength=23, links=links, \n\t\t\t\t\t\tlinks_placement=\'left\', editable=False, create=False)\n\n\treturn response.render("initial/show_grid2.html", grid=grid, nome_ant1=nome_ant1, \n\t\t\t\t\t\tfuncao_ant1=funcao_ant1, nome_atual=nome_atual)\n\n@auth.requires_login()\ndef servidor_host():\n\tfiltro = request.vars[\'f\']\n\tqueryset = db(db.servidor.id == filtro)\n\trows = queryset.select()\n\tservidor = rows[0]\n\tresponse.title = servidor.nome\n\n\tnome_ant1 = request.vars[\'n1\']\n\tfuncao_ant1 = request.vars[\'p1\']\n\tnome_atual = servidor.nome\t\n\n\tdb.distro.img.readable=False\n\tdb.hosts.id.readable=False\n\tquery = ((db.hosts.id_servidor == filtro) & (db.distro.id == db.hosts.id_distro))\n\n\tlinks = [dict(header=\'\',body=lambda row: A( IMG(_src=URL("static", "images", args=(row.distro.img)) ))), \n\t lambda row: A(\'Detalhes\', \n    \t\t      _class=\'btn\', \n    \t\t      _title=\'Detalhes\', \n    \t\t      _href=URL("initial", "/detalhes_nav", \n    \t\t      vars=dict(f=row.hosts.id, c=filtro, n=servidor.nome, \n    \t\t      \t\tn1=\'Servidores\', p1=\'show_servidor\', p=\'servidor_host\'))),\n\t lambda row: A(\'Editar\', \n    \t\t      _class=\'btn\', \n    \t\t      _title=\'Editar\', \n    \t\t      _href=URL("initial", "/edit_host", \n    \t\t      vars=dict(f=row.hosts.id, c=filtro, n=servidor.nome, \n    \t\t      \t\tn1=\'Servidores\', p1=\'show_servidor\', p=\'servidor_host\')))]\n\n\tfields = (db.hosts.id, db.hosts.id_cliente, db.hosts.id_distro, db.distro.img, \n\t\t\t\tdb.hosts.ip_chegada, db.hosts.porta_ssh, db.hosts.gateway)\n\theaders = {\'hosts.id\':   \'ID\',\n\t\t\t   \'hosts.id_cliente\': \'Cliente\',\n               \'hosts.id_servidor\': \'Servidor\',\n               \'hosts.id_distro\': \'Distro\',\n               \'hosts.nome\': \'Nome\',\n\t           \'hosts.servicos\': \'Servicos\'}\n\tgrid = SQLFORM.grid(query=query, fields=fields, headers=headers, csv=False,\n\t\t\t\t\t\tdetails=False, searchable=False, maxtextlength=23, links=links, \n\t\t\t\t\t\tlinks_placement=\'left\', editable=False, create=False)\n\n\treturn response.render("initial/show_grid2.html", grid=grid, nome_ant1=nome_ant1, \n\t\t\t\t\t\tfuncao_ant1=funcao_ant1, nome_atual=nome_atual)\n\n@auth.requires_login()\ndef distro_host():\n\tfiltro = request.vars[\'f\']\n\tqueryset = db(db.distro.id == filtro)\n\trows = queryset.select()\n\tdistro = rows[0]\n\tresponse.title = distro.nome\n\n\tnome_ant1 = request.vars[\'n1\']\n\tfuncao_ant1 = request.vars[\'p1\']\n\tnome_atual = distro.nome\t\n\t\n\tdb.hosts.id.readable=False\n\tdb.distro.img.readable=False\n\tquery = ((db.hosts.id_distro == filtro) & (db.distro.id == db.hosts.id_distro))\n\tlinks = [dict(header=\'\',body=lambda row: A( IMG(_src=URL("static", "images", args=(row.distro.img)) ))), \n\t lambda row: A(\'Detalhes\', \n    \t\t      _class=\'btn\', \n    \t\t      _title=\'Detalhes\', \n    \t\t      _href=URL("initial", "/detalhes_nav", \n    \t\t      vars=dict(f=row.hosts.id, c=filtro, n=distro.nome, \n    \t\t      \t\tn1=\'Distros\', p1=\'show_distro\', p=\'distro_host\'))),\n\t lambda row: A(\'Editar\', \n    \t\t      _class=\'btn\', \n    \t\t      _title=\'Editar\', \n    \t\t      _href=URL("initial", "/edit_host", \n    \t\t      vars=dict(f=row.hosts.id, c=filtro, n=distro.nome, \n    \t\t      \t\tn1=\'Distros\', p1=\'show_distro\', p=\'distro_host\')))]\n\n\tfields = (db.hosts.id, db.hosts.id_cliente, db.hosts.id_servidor, db.distro.img, \n\t\t\t  db.hosts.ip_chegada, db.hosts.porta_ssh, db.hosts.gateway)\n\theaders = {\'hosts.id\':   \'ID\',\n\t\t\t\t\'hosts.id_cliente\': \'Cliente\',\n               \'hosts.id_servidor\': \'Servidor\',\n               \'hosts.id_distro\': \'Distro\',\n               \'hosts.nome\': \'Nome\',\n\t           \'hosts.servicos\': \'Servicos\'}\n\tgrid = SQLFORM.grid(query=query, fields=fields, headers=headers, csv=False,\n\t\t\t\t\t\tdetails=False, searchable=False, maxtextlength=23, links=links, \n\t\t\t\t\t\tlinks_placement=\'left\', editable=False, create=False)\n\n\treturn response.render("initial/show_grid2.html", grid=grid, nome_ant1=nome_ant1, \n\t\t\t\t\t\tfuncao_ant1=funcao_ant1, nome_atual=nome_atual)\n\ndef detalhes_nav():\n\t#detalhes\n\tfiltro = request.vars[\'f\'] #id_host\n\tid_cliente = request.vars[\'c\'] #id_cliente\n\tnome_ant = request.vars[\'n\'] #nome (asterisk ou agronelli ou debian)\n\tnome_ant1 = request.vars[\'n1\'] #nome (servidores ou clientes ou distros)\n\tfuncao_ant = request.vars[\'p\'] #funcao(host_servidores)\n\tfuncao_ant1 = request.vars[\'p1\'] #funcao(show_servidores)\n\t\n\n\tquery = ((db.hosts.id == filtro) & (db.hosts.id_cliente == db.cliente.id)\n\t \t    & (db.hosts.id_servidor == db.servidor.id) \n\t \t    & (db.hosts.id_distro == db.distro.id)) \n\tdetalhes = db.hosts(query)\n\t\n\t\n\treturn response.render("initial/detalhes_host.html", detalhes=detalhes, \n\t\t\t\tid_cliente=id_cliente, funcao_ant=funcao_ant, funcao_ant1=funcao_ant1, \n\t\t\t\tnome_ant=nome_ant, nome_ant1=nome_ant1, filtro=filtro)\n\n\ndef edit_host():\n    form = SQLFORM(db.hosts, request.vars[\'f\'], submit_button=\'Editar\', fields = [\'id_cliente\', \'id_servidor\', \'id_distro\', \'servicos\',\n\t\t\t\t\'if1\', \'ip1\', \'masc1\', \'obs1\', \'if2\', \'ip2\', \'masc2\', \'obs2\',\n\t\t\t\t\'if3\', \'ip3\', \'masc3\', \'obs3\', \'if4\', \'ip4\', \'masc4\', \'obs4\',\n\t\t\t\t\'nome\', \'ip_chegada\', \'porta_ssh\', \'gateway\', \'rotas\', \'obs_gerais\'],\n\t\t\t\tlabels = {\'id_cliente\':\'Cliente\', \'id_servidor\':\'Servidor\', \'id_distro\':\'Distro\',\n\t\t\t\t\'if1\':\'Interface 1\', \'ip1\':\'IP\', \'masc1\':\'M\xc3\xa1scara\', \'obs1\':\'Obs\',\n\t\t\t\t\'if2\':\'Interface 2\', \'ip2\':\'IP\', \'masc2\':\'M\xc3\xa1scara\', \'obs2\':\'Obs\',\n\t\t\t\t\'if3\':\'Interface 3\', \'ip3\':\'IP\', \'masc3\':\'M\xc3\xa1scara\', \'obs3\':\'Obs\',\n\t\t\t\t\'if4\':\'Interface 4\', \'ip4\':\'IP\', \'masc4\':\'M\xc3\xa1scara\', \'obs4\':\'Obs\'})\n\n    if form.process().accepted:\n       response.flash = \'Editado com sucesso\'\n    elif form.errors:\n       response.flash = \'Ops, algo n\xc3\xa3o est\xc3\xa1 correto\'\n    else:\n       response.flash = \'Edite os dados do host\'\n\n    return response.render("initial/show_form.html", form=form, id_cliente = request.vars[\'c\'], \n    \t\t\t\tnome_ant = request.vars[\'n\'], nome_ant1 = request.vars[\'n1\'], \n    \t\t\t\tfuncao_ant = request.vars[\'p\'], funcao_ant1 = request.vars[\'p1\'])\n\n\n@auth.requires_login()\ndef interface():\n\t#adicionar\n    form = SQLFORM(db.hosts, submit_button=\'Adicionar\', \n    \t\t\tfields = [\'id_cliente\', \'id_servidor\', \'id_distro\', \'servicos\',\n\t\t\t\t\'if1\', \'ip1\', \'masc1\', \'obs1\', \'if2\', \'ip2\', \'masc2\', \'obs2\',\n\t\t\t\t\'if3\', \'ip3\', \'masc3\', \'obs3\', \'if4\', \'ip4\', \'masc4\', \'obs4\',\n\t\t\t\t\'nome\', \'ip_chegada\', \'porta_ssh\', \'gateway\', \'rotas\', \'obs_gerais\'], \n\t\t\t\tlabels = {\'id_cliente\':\'Cliente\', \'id_servidor\':\'Servidor\', \'id_distro\':\'Distro\',\n\t\t\t\t\'if1\':\'Interface 1\', \'ip1\':\'IP\', \'masc1\':\'M\xc3\xa1scara\', \'obs1\':\'Obs\',\n\t\t\t\t\'if2\':\'Interface 2\', \'ip2\':\'IP\', \'masc2\':\'M\xc3\xa1scara\', \'obs2\':\'Obs\',\n\t\t\t\t\'if3\':\'Interface 3\', \'ip3\':\'IP\', \'masc3\':\'M\xc3\xa1scara\', \'obs3\':\'Obs\',\n\t\t\t\t\'if4\':\'Interface 4\', \'ip4\':\'IP\', \'masc4\':\'M\xc3\xa1scara\', \'obs4\':\'Obs\'})\n   \n    if form.process().accepted:\n    \thost = request.vars\n    \temail(host)\n    \tresponse.flash = \'Inserido com sucesso\'\t\t\n    elif form.errors:\n       response.flash = \'Ops, algo n\xc3\xa3o est\xc3\xa1 correto\'\n    else:\n       response.flash = \'Insira os dados do novo host\'\n    return response.render("initial/show_form2.html", form=form)\n\ndef about():\n\tfiltro = request.vars[\'f\']\n\tquery = ((db.hosts.id_servidor == filtro) & (db.distro.id == db.hosts.id_distro))\n\tfields = (db.hosts.id, db.hosts.id_cliente, db.hosts.id_distro, db.distro.img, \n\t\t\t\tdb.hosts.ip_chegada, db.hosts.porta_ssh, db.hosts.gateway)\n\theaders = {\'host.id\':   \'ID\',\n               \'host.id_servidor\': \'Servidor\',\n               \'host.id_distro\': \'Distro\',\n               \'host.nome\': \'Nome\',\n\t           \'host.servicos\': \'Servicos\'}\n\tgrid = SQLFORM.grid(query=query, fields=fields, headers=headers, csv=False,\n\t\t\t\t\t\tdetails=False, maxtextlength=23, searchable=True, editable=False, create=False)\n\n\treturn response.render("initial/teste.html", grid=grid,)\n\ndef user():\n\t#if request.args(0) == \'register\':\n    #    \tdb.auth_user.bio.writable = db.auth_user.bio.readable = False\n\treturn response.render("initial/user.html", user=auth())\n\ndef register():\n\treturn auth.register()\n\ndef login():\n        return auth.login()\n\ndef account():\n    return dict(register=auth.register(),\n                login=auth.login())\n\t\ndef download():\n\treturn response.download(request, db)\n\n\n@auth.requires_login()\ndef principal():\n\taqui = db.executesql(\'SELECT * from cliente order by id desc LIMIT 4;\')\n\tserver = db.executesql(\'SELECT * from servidor order by id desc LIMIT 4;\')\n\thosts = db.executesql(\'SELECT * from hosts order by id desc LIMIT 6;\')\n\n\t#teste = "teste333"\n\t#email(teste)\n\n\treturn response.render("initial/principal.html", aqui=aqui, server=server, hosts=hosts)\n\n\t\ndef detalhes_clean():\n\tfiltro = request.vars[\'f\'] #id_host\n\t\t\n\n\tquery = ((db.hosts.id == filtro) & (db.hosts.id_cliente == db.cliente.id)\n\t \t    & (db.hosts.id_servidor == db.servidor.id) \n\t \t    & (db.hosts.id_distro == db.distro.id)) \n\tdetalhes = db.hosts(query)\n\n\t\n\treturn response.render("initial/detalhes_host_clean.html", detalhes=detalhes)\n\ndef email(host):\n\tteste = auth.user.first_name\n\tif auth.has_membership(\'voip\'):\n\t\tmail.send(\n\t\t\tto="fndiaz02@gmail.com",\n\t\t\tsubject="host adicionado",\n\t\t\tmessage="<html>Um novo host foi adicionado pelo usu\xc3\xa1rio <br>nome: %(nome)s <br>vpn: %(ip_chegada)s</html>" % host \n\t\t\tmessage=+"<html>opa</html>"\n\t\t\t)\n\telif auth.has_membership(\'internet\'):\n\t\tmail.send(\n\t\t\tto="fernando@ad2.com.br",\n\t\t\tsubject="host adicionado",\n\t\t\tmessage="<html>Host adicionado: %(nome)s</html>" % host\n\t\t\t)\n\nresponse._vars=response._caller(interface)\n'
p7
sS'snapshot'
p8
(dp9
S'exception'
p10
(dp11
S'__getslice__'
p12
S"<method-wrapper '__getslice__' of exceptions.SyntaxError object>"
p13
sS'text'
p14
S'\'\\t\\t\\tmessage=+"<html>opa</html>"\\n\''
p15
sS'__str__'
p16
S"<method-wrapper '__str__' of exceptions.SyntaxError object>"
p17
sS'__reduce__'
p18
S'<built-in method __reduce__ of exceptions.SyntaxError object>'
p19
sS'__dict__'
p20
S'{}'
p21
sS'__sizeof__'
p22
S'<built-in method __sizeof__ of exceptions.SyntaxError object>'
p23
sS'__init__'
p24
S"<method-wrapper '__init__' of exceptions.SyntaxError object>"
p25
sS'__setattr__'
p26
S"<method-wrapper '__setattr__' of exceptions.SyntaxError object>"
p27
sS'__reduce_ex__'
p28
S'<built-in method __reduce_ex__ of exceptions.SyntaxError object>'
p29
sS'__new__'
p30
S'<built-in method __new__ of type object>'
p31
sS'__format__'
p32
S'<built-in method __format__ of exceptions.SyntaxError object>'
p33
sS'__class__'
p34
S"<type 'exceptions.SyntaxError'>"
p35
sS'filename'
p36
S"'/var/www/hosts3/applications/projeto/controllers/initial.py'"
p37
sS'lineno'
p38
S'331'
p39
sS'msg'
p40
S"'invalid syntax'"
p41
sS'__doc__'
p42
S"'Invalid syntax.'"
p43
sS'__getitem__'
p44
S"<method-wrapper '__getitem__' of exceptions.SyntaxError object>"
p45
sS'__setstate__'
p46
S'<built-in method __setstate__ of exceptions.SyntaxError object>'
p47
sS'__getattribute__'
p48
S"<method-wrapper '__getattribute__' of exceptions.SyntaxError object>"
p49
sS'print_file_and_line'
p50
S'None'
p51
sS'args'
p52
S'(\'invalid syntax\', (\'/var/www/hosts3/applications/projeto/controllers/initial.py\', 331, 10, \'\\t\\t\\tmessage=+"<html>opa</html>"\\n\'))'
p53
sS'__subclasshook__'
p54
S'<built-in method __subclasshook__ of type object>'
p55
sS'offset'
p56
S'10'
p57
sS'__unicode__'
p58
S'<built-in method __unicode__ of exceptions.SyntaxError object>'
p59
sS'__delattr__'
p60
S"<method-wrapper '__delattr__' of exceptions.SyntaxError object>"
p61
sS'__repr__'
p62
S"<method-wrapper '__repr__' of exceptions.SyntaxError object>"
p63
sS'__hash__'
p64
S"<method-wrapper '__hash__' of exceptions.SyntaxError object>"
p65
ssS'evalue'
p66
S'invalid syntax (initial.py, line 331)'
p67
sS'request'
p68
ccopy_reg
_reconstructor
p69
(cgluon.html
BEAUTIFY
p70
c__builtin__
object
p71
NtRp72
(dp73
S'attributes'
p74
(dp75
sS'components'
p76
(lp77
g69
(cgluon.html
TABLE
p78
g71
NtRp79
(dp80
g74
(dp81
S'level'
p82
I5
ssS'parent'
p83
Nsg76
(lp84
g69
(cgluon.html
TR
p85
g71
NtRp86
(dp87
g74
(dp88
sg83
g79
sg76
(lp89
g69
(cgluon.html
TD
p90
g71
NtRp91
(dp92
g74
(dp93
S'_style'
p94
S'font-weight:bold;vertical-align:top'
p95
ssg83
g86
sg76
(lp96
S'ajax'
p97
asbag69
(g90
g71
NtRp98
(dp99
g74
(dp100
S'_valign'
p101
S'top'
p102
ssg83
g86
sg76
(lp103
S':'
asbag69
(g90
g71
NtRp104
(dp105
g74
(dp106
sg83
g86
sg76
(lp107
g69
(g70
g71
NtRp108
(dp109
g74
(dp110
g82
I5
ssg83
g104
sg76
(lp111
S'False'
p112
asbasbasbag69
(g85
g71
NtRp113
(dp114
g74
(dp115
sg83
g79
sg76
(lp116
g69
(g90
g71
NtRp117
(dp118
g74
(dp119
g94
g95
ssg83
g113
sg76
(lp120
S'application'
p121
asbag69
(g90
g71
NtRp122
(dp123
g74
(dp124
g101
g102
ssg83
g113
sg76
(lp125
S':'
asbag69
(g90
g71
NtRp126
(dp127
g74
(dp128
sg83
g113
sg76
(lp129
g69
(g70
g71
NtRp130
(dp131
g74
(dp132
g82
I5
ssg83
g126
sg76
(lp133
S'projeto'
p134
asbasbasbag69
(g85
g71
NtRp135
(dp136
g74
(dp137
sg83
g79
sg76
(lp138
g69
(g90
g71
NtRp139
(dp140
g74
(dp141
g94
g95
ssg83
g135
sg76
(lp142
g52
asbag69
(g90
g71
NtRp143
(dp144
g74
(dp145
g101
g102
ssg83
g135
sg76
(lp146
S':'
asbag69
(g90
g71
NtRp147
(dp148
g74
(dp149
sg83
g135
sg76
(lp150
g69
(g70
g71
NtRp151
(dp152
g74
(dp153
g82
I5
ssg83
g147
sg76
(lp154
g69
(g78
g71
NtRp155
(dp156
g74
(dp157
g82
I4
ssg83
Nsg76
(lp158
sbasbasbasbag69
(g85
g71
NtRp159
(dp160
g74
(dp161
sg83
g79
sg76
(lp162
g69
(g90
g71
NtRp163
(dp164
g74
(dp165
g94
g95
ssg83
g159
sg76
(lp166
S'body'
p167
asbag69
(g90
g71
NtRp168
(dp169
g74
(dp170
g101
g102
ssg83
g159
sg76
(lp171
S':'
asbag69
(g90
g71
NtRp172
(dp173
g74
(dp174
sg83
g159
sg76
(lp175
g69
(g70
g71
NtRp176
(dp177
g74
(dp178
g82
I5
ssg83
g172
sg76
(lp179
S"<open file '<fdopen>', mode 'w+b' at 0x7fca1c04ac90>"
p180
asbasbasbag69
(g85
g71
NtRp181
(dp182
g74
(dp183
sg83
g79
sg76
(lp184
g69
(g90
g71
NtRp185
(dp186
g74
(dp187
g94
g95
ssg83
g181
sg76
(lp188
S'cid'
p189
asbag69
(g90
g71
NtRp190
(dp191
g74
(dp192
g101
g102
ssg83
g181
sg76
(lp193
S':'
asbag69
(g90
g71
NtRp194
(dp195
g74
(dp196
sg83
g181
sg76
(lp197
g69
(g70
g71
NtRp198
(dp199
g74
(dp200
g82
I5
ssg83
g194
sg76
(lp201
S'None'
p202
asbasbasbag69
(g85
g71
NtRp203
(dp204
g74
(dp205
sg83
g79
sg76
(lp206
g69
(g90
g71
NtRp207
(dp208
g74
(dp209
g94
g95
ssg83
g203
sg76
(lp210
S'client'
p211
asbag69
(g90
g71
NtRp212
(dp213
g74
(dp214
g101
g102
ssg83
g203
sg76
(lp215
S':'
asbag69
(g90
g71
NtRp216
(dp217
g74
(dp218
sg83
g203
sg76
(lp219
g69
(g70
g71
NtRp220
(dp221
g74
(dp222
g82
I5
ssg83
g216
sg76
(lp223
S'127.0.0.1'
p224
asbasbasbag69
(g85
g71
NtRp225
(dp226
g74
(dp227
sg83
g79
sg76
(lp228
g69
(g90
g71
NtRp229
(dp230
g74
(dp231
g94
g95
ssg83
g225
sg76
(lp232
S'controller'
p233
asbag69
(g90
g71
NtRp234
(dp235
g74
(dp236
g101
g102
ssg83
g225
sg76
(lp237
S':'
asbag69
(g90
g71
NtRp238
(dp239
g74
(dp240
sg83
g225
sg76
(lp241
g69
(g70
g71
NtRp242
(dp243
g74
(dp244
g82
I5
ssg83
g238
sg76
(lp245
S'initial'
p246
asbasbasbag69
(g85
g71
NtRp247
(dp248
g74
(dp249
sg83
g79
sg76
(lp250
g69
(g90
g71
NtRp251
(dp252
g74
(dp253
g94
g95
ssg83
g247
sg76
(lp254
S'cookies'
p255
asbag69
(g90
g71
NtRp256
(dp257
g74
(dp258
g101
g102
ssg83
g247
sg76
(lp259
S':'
asbag69
(g90
g71
NtRp260
(dp261
g74
(dp262
sg83
g247
sg76
(lp263
g69
(g70
g71
NtRp264
(dp265
g74
(dp266
g82
I5
ssg83
g260
sg76
(lp267
g69
(g78
g71
NtRp268
(dp269
g74
(dp270
g82
I4
ssg83
Nsg76
(lp271
g69
(g85
g71
NtRp272
(dp273
g74
(dp274
sg83
g268
sg76
(lp275
g69
(g90
g71
NtRp276
(dp277
g74
(dp278
g94
g95
ssg83
g272
sg76
(lp279
S'session_id_admin'
p280
asbag69
(g90
g71
NtRp281
(dp282
g74
(dp283
g101
g102
ssg83
g272
sg76
(lp284
S':'
asbag69
(g90
g71
NtRp285
(dp286
g74
(dp287
sg83
g272
sg76
(lp288
g69
(g70
g71
NtRp289
(dp290
g74
(dp291
g82
I4
ssg83
g285
sg76
(lp292
S'127.0.0.1-2a9e3bdf-364a-4eee-83f8-3243c1f1d18f'
p293
ag69
(g78
g71
NtRp294
(dp295
g74
(dp296
g82
I3
ssg83
Nsg76
(lp297
g69
(g85
g71
NtRp298
(dp299
g74
(dp300
sg83
g294
sg76
(lp301
g69
(g90
g71
NtRp302
(dp303
g74
(dp304
g94
g95
ssg83
g298
sg76
(lp305
S'comment'
p306
asbag69
(g90
g71
NtRp307
(dp308
g74
(dp309
g101
g102
ssg83
g298
sg76
(lp310
S':'
asbag69
(g90
g71
NtRp311
(dp312
g74
(dp313
sg83
g298
sg76
(lp314
g69
(g70
g71
NtRp315
(dp316
g74
(dp317
g82
I3
ssg83
g311
sg76
(lp318
S''
asbasbasbag69
(g85
g71
NtRp319
(dp320
g74
(dp321
sg83
g294
sg76
(lp322
g69
(g90
g71
NtRp323
(dp324
g74
(dp325
g94
g95
ssg83
g319
sg76
(lp326
S'domain'
p327
asbag69
(g90
g71
NtRp328
(dp329
g74
(dp330
g101
g102
ssg83
g319
sg76
(lp331
S':'
asbag69
(g90
g71
NtRp332
(dp333
g74
(dp334
sg83
g319
sg76
(lp335
g69
(g70
g71
NtRp336
(dp337
g74
(dp338
g82
I3
ssg83
g332
sg76
(lp339
S''
asbasbasbag69
(g85
g71
NtRp340
(dp341
g74
(dp342
sg83
g294
sg76
(lp343
g69
(g90
g71
NtRp344
(dp345
g74
(dp346
g94
g95
ssg83
g340
sg76
(lp347
S'expires'
p348
asbag69
(g90
g71
NtRp349
(dp350
g74
(dp351
g101
g102
ssg83
g340
sg76
(lp352
S':'
asbag69
(g90
g71
NtRp353
(dp354
g74
(dp355
sg83
g340
sg76
(lp356
g69
(g70
g71
NtRp357
(dp358
g74
(dp359
g82
I3
ssg83
g353
sg76
(lp360
S''
asbasbasbag69
(g85
g71
NtRp361
(dp362
g74
(dp363
sg83
g294
sg76
(lp364
g69
(g90
g71
NtRp365
(dp366
g74
(dp367
g94
g95
ssg83
g361
sg76
(lp368
S'httponly'
p369
asbag69
(g90
g71
NtRp370
(dp371
g74
(dp372
g101
g102
ssg83
g361
sg76
(lp373
S':'
asbag69
(g90
g71
NtRp374
(dp375
g74
(dp376
sg83
g361
sg76
(lp377
g69
(g70
g71
NtRp378
(dp379
g74
(dp380
g82
I3
ssg83
g374
sg76
(lp381
S''
asbasbasbag69
(g85
g71
NtRp382
(dp383
g74
(dp384
sg83
g294
sg76
(lp385
g69
(g90
g71
NtRp386
(dp387
g74
(dp388
g94
g95
ssg83
g382
sg76
(lp389
S'max-age'
p390
asbag69
(g90
g71
NtRp391
(dp392
g74
(dp393
g101
g102
ssg83
g382
sg76
(lp394
S':'
asbag69
(g90
g71
NtRp395
(dp396
g74
(dp397
sg83
g382
sg76
(lp398
g69
(g70
g71
NtRp399
(dp400
g74
(dp401
g82
I3
ssg83
g395
sg76
(lp402
S''
asbasbasbag69
(g85
g71
NtRp403
(dp404
g74
(dp405
sg83
g294
sg76
(lp406
g69
(g90
g71
NtRp407
(dp408
g74
(dp409
g94
g95
ssg83
g403
sg76
(lp410
S'path'
p411
asbag69
(g90
g71
NtRp412
(dp413
g74
(dp414
g101
g102
ssg83
g403
sg76
(lp415
S':'
asbag69
(g90
g71
NtRp416
(dp417
g74
(dp418
sg83
g403
sg76
(lp419
g69
(g70
g71
NtRp420
(dp421
g74
(dp422
g82
I3
ssg83
g416
sg76
(lp423
S''
asbasbasbag69
(g85
g71
NtRp424
(dp425
g74
(dp426
sg83
g294
sg76
(lp427
g69
(g90
g71
NtRp428
(dp429
g74
(dp430
g94
g95
ssg83
g424
sg76
(lp431
S'secure'
p432
asbag69
(g90
g71
NtRp433
(dp434
g74
(dp435
g101
g102
ssg83
g424
sg76
(lp436
S':'
asbag69
(g90
g71
NtRp437
(dp438
g74
(dp439
sg83
g424
sg76
(lp440
g69
(g70
g71
NtRp441
(dp442
g74
(dp443
g82
I3
ssg83
g437
sg76
(lp444
S''
asbasbasbag69
(g85
g71
NtRp445
(dp446
g74
(dp447
sg83
g294
sg76
(lp448
g69
(g90
g71
NtRp449
(dp450
g74
(dp451
g94
g95
ssg83
g445
sg76
(lp452
S'version'
p453
asbag69
(g90
g71
NtRp454
(dp455
g74
(dp456
g101
g102
ssg83
g445
sg76
(lp457
S':'
asbag69
(g90
g71
NtRp458
(dp459
g74
(dp460
sg83
g445
sg76
(lp461
g69
(g70
g71
NtRp462
(dp463
g74
(dp464
g82
I3
ssg83
g458
sg76
(lp465
S''
asbasbasbasbasbasbasbag69
(g85
g71
NtRp466
(dp467
g74
(dp468
sg83
g268
sg76
(lp469
g69
(g90
g71
NtRp470
(dp471
g74
(dp472
g94
g95
ssg83
g466
sg76
(lp473
S'session_id_projeto'
p474
asbag69
(g90
g71
NtRp475
(dp476
g74
(dp477
g101
g102
ssg83
g466
sg76
(lp478
S':'
asbag69
(g90
g71
NtRp479
(dp480
g74
(dp481
sg83
g466
sg76
(lp482
g69
(g70
g71
NtRp483
(dp484
g74
(dp485
g82
I4
ssg83
g479
sg76
(lp486
S'127.0.0.1-75f1e5ae-31c3-489a-934f-26d1d736233f'
p487
ag69
(g78
g71
NtRp488
(dp489
g74
(dp490
g82
I3
ssg83
Nsg76
(lp491
g69
(g85
g71
NtRp492
(dp493
g74
(dp494
sg83
g488
sg76
(lp495
g69
(g90
g71
NtRp496
(dp497
g74
(dp498
g94
g95
ssg83
g492
sg76
(lp499
g306
asbag69
(g90
g71
NtRp500
(dp501
g74
(dp502
g101
g102
ssg83
g492
sg76
(lp503
S':'
asbag69
(g90
g71
NtRp504
(dp505
g74
(dp506
sg83
g492
sg76
(lp507
g69
(g70
g71
NtRp508
(dp509
g74
(dp510
g82
I3
ssg83
g504
sg76
(lp511
S''
asbasbasbag69
(g85
g71
NtRp512
(dp513
g74
(dp514
sg83
g488
sg76
(lp515
g69
(g90
g71
NtRp516
(dp517
g74
(dp518
g94
g95
ssg83
g512
sg76
(lp519
g327
asbag69
(g90
g71
NtRp520
(dp521
g74
(dp522
g101
g102
ssg83
g512
sg76
(lp523
S':'
asbag69
(g90
g71
NtRp524
(dp525
g74
(dp526
sg83
g512
sg76
(lp527
g69
(g70
g71
NtRp528
(dp529
g74
(dp530
g82
I3
ssg83
g524
sg76
(lp531
S''
asbasbasbag69
(g85
g71
NtRp532
(dp533
g74
(dp534
sg83
g488
sg76
(lp535
g69
(g90
g71
NtRp536
(dp537
g74
(dp538
g94
g95
ssg83
g532
sg76
(lp539
g348
asbag69
(g90
g71
NtRp540
(dp541
g74
(dp542
g101
g102
ssg83
g532
sg76
(lp543
S':'
asbag69
(g90
g71
NtRp544
(dp545
g74
(dp546
sg83
g532
sg76
(lp547
g69
(g70
g71
NtRp548
(dp549
g74
(dp550
g82
I3
ssg83
g544
sg76
(lp551
S''
asbasbasbag69
(g85
g71
NtRp552
(dp553
g74
(dp554
sg83
g488
sg76
(lp555
g69
(g90
g71
NtRp556
(dp557
g74
(dp558
g94
g95
ssg83
g552
sg76
(lp559
g369
asbag69
(g90
g71
NtRp560
(dp561
g74
(dp562
g101
g102
ssg83
g552
sg76
(lp563
S':'
asbag69
(g90
g71
NtRp564
(dp565
g74
(dp566
sg83
g552
sg76
(lp567
g69
(g70
g71
NtRp568
(dp569
g74
(dp570
g82
I3
ssg83
g564
sg76
(lp571
S''
asbasbasbag69
(g85
g71
NtRp572
(dp573
g74
(dp574
sg83
g488
sg76
(lp575
g69
(g90
g71
NtRp576
(dp577
g74
(dp578
g94
g95
ssg83
g572
sg76
(lp579
g390
asbag69
(g90
g71
NtRp580
(dp581
g74
(dp582
g101
g102
ssg83
g572
sg76
(lp583
S':'
asbag69
(g90
g71
NtRp584
(dp585
g74
(dp586
sg83
g572
sg76
(lp587
g69
(g70
g71
NtRp588
(dp589
g74
(dp590
g82
I3
ssg83
g584
sg76
(lp591
S''
asbasbasbag69
(g85
g71
NtRp592
(dp593
g74
(dp594
sg83
g488
sg76
(lp595
g69
(g90
g71
NtRp596
(dp597
g74
(dp598
g94
g95
ssg83
g592
sg76
(lp599
g411
asbag69
(g90
g71
NtRp600
(dp601
g74
(dp602
g101
g102
ssg83
g592
sg76
(lp603
S':'
asbag69
(g90
g71
NtRp604
(dp605
g74
(dp606
sg83
g592
sg76
(lp607
g69
(g70
g71
NtRp608
(dp609
g74
(dp610
g82
I3
ssg83
g604
sg76
(lp611
S''
asbasbasbag69
(g85
g71
NtRp612
(dp613
g74
(dp614
sg83
g488
sg76
(lp615
g69
(g90
g71
NtRp616
(dp617
g74
(dp618
g94
g95
ssg83
g612
sg76
(lp619
g432
asbag69
(g90
g71
NtRp620
(dp621
g74
(dp622
g101
g102
ssg83
g612
sg76
(lp623
S':'
asbag69
(g90
g71
NtRp624
(dp625
g74
(dp626
sg83
g612
sg76
(lp627
g69
(g70
g71
NtRp628
(dp629
g74
(dp630
g82
I3
ssg83
g624
sg76
(lp631
S''
asbasbasbag69
(g85
g71
NtRp632
(dp633
g74
(dp634
sg83
g488
sg76
(lp635
g69
(g90
g71
NtRp636
(dp637
g74
(dp638
g94
g95
ssg83
g632
sg76
(lp639
g453
asbag69
(g90
g71
NtRp640
(dp641
g74
(dp642
g101
g102
ssg83
g632
sg76
(lp643
S':'
asbag69
(g90
g71
NtRp644
(dp645
g74
(dp646
sg83
g632
sg76
(lp647
g69
(g70
g71
NtRp648
(dp649
g74
(dp650
g82
I3
ssg83
g644
sg76
(lp651
S''
asbasbasbasbasbasbasbasbasbasbasbag69
(g85
g71
NtRp652
(dp653
g74
(dp654
sg83
g79
sg76
(lp655
g69
(g90
g71
NtRp656
(dp657
g74
(dp658
g94
g95
ssg83
g652
sg76
(lp659
S'env'
p660
asbag69
(g90
g71
NtRp661
(dp662
g74
(dp663
g101
g102
ssg83
g652
sg76
(lp664
S':'
asbag69
(g90
g71
NtRp665
(dp666
g74
(dp667
sg83
g652
sg76
(lp668
g69
(g70
g71
NtRp669
(dp670
g74
(dp671
g82
I5
ssg83
g665
sg76
(lp672
g69
(g78
g71
NtRp673
(dp674
g74
(dp675
g82
I4
ssg83
Nsg76
(lp676
g69
(g85
g71
NtRp677
(dp678
g74
(dp679
sg83
g673
sg76
(lp680
g69
(g90
g71
NtRp681
(dp682
g74
(dp683
g94
g95
ssg83
g677
sg76
(lp684
S'app_folders'
p685
asbag69
(g90
g71
NtRp686
(dp687
g74
(dp688
g101
g102
ssg83
g677
sg76
(lp689
S':'
asbag69
(g90
g71
NtRp690
(dp691
g74
(dp692
sg83
g677
sg76
(lp693
g69
(g70
g71
NtRp694
(dp695
g74
(dp696
g82
I4
ssg83
g690
sg76
(lp697
S"set(['/var/www/hosts3/applications/admin/', '/var/www/hosts3/applications/projeto/'])"
p698
asbasbasbag69
(g85
g71
NtRp699
(dp700
g74
(dp701
sg83
g673
sg76
(lp702
g69
(g90
g71
NtRp703
(dp704
g74
(dp705
g94
g95
ssg83
g699
sg76
(lp706
S'applications_parent'
p707
asbag69
(g90
g71
NtRp708
(dp709
g74
(dp710
g101
g102
ssg83
g699
sg76
(lp711
S':'
asbag69
(g90
g71
NtRp712
(dp713
g74
(dp714
sg83
g699
sg76
(lp715
g69
(g70
g71
NtRp716
(dp717
g74
(dp718
g82
I4
ssg83
g712
sg76
(lp719
S'/var/www/hosts3'
p720
asbasbasbag69
(g85
g71
NtRp721
(dp722
g74
(dp723
sg83
g673
sg76
(lp724
g69
(g90
g71
NtRp725
(dp726
g74
(dp727
g94
g95
ssg83
g721
sg76
(lp728
S'cmd_args'
p729
asbag69
(g90
g71
NtRp730
(dp731
g74
(dp732
g101
g102
ssg83
g721
sg76
(lp733
S':'
asbag69
(g90
g71
NtRp734
(dp735
g74
(dp736
sg83
g721
sg76
(lp737
g69
(g70
g71
NtRp738
(dp739
g74
(dp740
g82
I4
ssg83
g734
sg76
(lp741
g69
(g78
g71
NtRp742
(dp743
g74
(dp744
g82
I3
ssg83
Nsg76
(lp745
sbasbasbasbag69
(g85
g71
NtRp746
(dp747
g74
(dp748
sg83
g673
sg76
(lp749
g69
(g90
g71
NtRp750
(dp751
g74
(dp752
g94
g95
ssg83
g746
sg76
(lp753
S'cmd_options'
p754
asbag69
(g90
g71
NtRp755
(dp756
g74
(dp757
g101
g102
ssg83
g746
sg76
(lp758
S':'
asbag69
(g90
g71
NtRp759
(dp760
g74
(dp761
sg83
g746
sg76
(lp762
g69
(g70
g71
NtRp763
(dp764
g74
(dp765
g82
I4
ssg83
g759
sg76
(lp766
S"<Values at 0x1929758: {'verbose': False, 'ip': '127.0.0.1', 'with_scheduler': False, 'ips': [], 'shutdown_timeout': 5, 'taskbar': False, 'port': 8000, 'maxthreads': None, 'softcron': False, 'server_name': 'fernando-workstation', 'bpython': False, 'nogui': False, 'pid_filename': 'httpserver.pid', 'extcron': False, 'runcron': False, 'run_system_tests': False, 'test': None, 'folder': '/var/www/hosts3', 'config': '', 'minthreads': None, 'winservice': '', 'shell': None, 'run': '', 'log_filename': 'httpserver.log', 'debuglevel': 30, 'args': [''], 'socket_timeout': 5, 'ssl_ca_certificate': None, 'scheduler': None, 'profiler_filename': None, 'ssl_private_key': '', 'scheduler_groups': None, 'password': '123456', 'request_queue_size': 5, 'ssl_certificate': '', 'cronjob': False, 'numthreads': None, 'quiet': False, 'interfaces': None, 'import_models': False, 'timeout': 10, 'plain': False, 'nobanner': False}>"
p767
asbasbasbag69
(g85
g71
NtRp768
(dp769
g74
(dp770
sg83
g673
sg76
(lp771
g69
(g90
g71
NtRp772
(dp773
g74
(dp774
g94
g95
ssg83
g768
sg76
(lp775
S'content_length'
p776
asbag69
(g90
g71
NtRp777
(dp778
g74
(dp779
g101
g102
ssg83
g768
sg76
(lp780
S':'
asbag69
(g90
g71
NtRp781
(dp782
g74
(dp783
sg83
g768
sg76
(lp784
g69
(g70
g71
NtRp785
(dp786
g74
(dp787
g82
I4
ssg83
g781
sg76
(lp788
S'2719'
p789
asbasbasbag69
(g85
g71
NtRp790
(dp791
g74
(dp792
sg83
g673
sg76
(lp793
g69
(g90
g71
NtRp794
(dp795
g74
(dp796
g94
g95
ssg83
g790
sg76
(lp797
S'content_type'
p798
asbag69
(g90
g71
NtRp799
(dp800
g74
(dp801
g101
g102
ssg83
g790
sg76
(lp802
S':'
asbag69
(g90
g71
NtRp803
(dp804
g74
(dp805
sg83
g790
sg76
(lp806
g69
(g70
g71
NtRp807
(dp808
g74
(dp809
g82
I4
ssg83
g803
sg76
(lp810
S'multipart/form-data; boundary=----WebKitFormBoundaryGelUg0CQssqcL25y'
p811
asbasbasbag69
(g85
g71
NtRp812
(dp813
g74
(dp814
sg83
g673
sg76
(lp815
g69
(g90
g71
NtRp816
(dp817
g74
(dp818
g94
g95
ssg83
g812
sg76
(lp819
S'db_sessions'
p820
asbag69
(g90
g71
NtRp821
(dp822
g74
(dp823
g101
g102
ssg83
g812
sg76
(lp824
S':'
asbag69
(g90
g71
NtRp825
(dp826
g74
(dp827
sg83
g812
sg76
(lp828
g69
(g70
g71
NtRp829
(dp830
g74
(dp831
g82
I4
ssg83
g825
sg76
(lp832
S'set([])'
p833
asbasbasbag69
(g85
g71
NtRp834
(dp835
g74
(dp836
sg83
g673
sg76
(lp837
g69
(g90
g71
NtRp838
(dp839
g74
(dp840
g94
g95
ssg83
g834
sg76
(lp841
S'debugging'
p842
asbag69
(g90
g71
NtRp843
(dp844
g74
(dp845
g101
g102
ssg83
g834
sg76
(lp846
S':'
asbag69
(g90
g71
NtRp847
(dp848
g74
(dp849
sg83
g834
sg76
(lp850
g69
(g70
g71
NtRp851
(dp852
g74
(dp853
g82
I4
ssg83
g847
sg76
(lp854
g112
asbasbasbag69
(g85
g71
NtRp855
(dp856
g74
(dp857
sg83
g673
sg76
(lp858
g69
(g90
g71
NtRp859
(dp860
g74
(dp861
g94
g95
ssg83
g855
sg76
(lp862
S'gluon_parent'
p863
asbag69
(g90
g71
NtRp864
(dp865
g74
(dp866
g101
g102
ssg83
g855
sg76
(lp867
S':'
asbag69
(g90
g71
NtRp868
(dp869
g74
(dp870
sg83
g855
sg76
(lp871
g69
(g70
g71
NtRp872
(dp873
g74
(dp874
g82
I4
ssg83
g868
sg76
(lp875
S'/var/www/hosts3'
p876
asbasbasbag69
(g85
g71
NtRp877
(dp878
g74
(dp879
sg83
g673
sg76
(lp880
g69
(g90
g71
NtRp881
(dp882
g74
(dp883
g94
g95
ssg83
g877
sg76
(lp884
S'http_accept'
p885
asbag69
(g90
g71
NtRp886
(dp887
g74
(dp888
g101
g102
ssg83
g877
sg76
(lp889
S':'
asbag69
(g90
g71
NtRp890
(dp891
g74
(dp892
sg83
g877
sg76
(lp893
g69
(g70
g71
NtRp894
(dp895
g74
(dp896
g82
I4
ssg83
g890
sg76
(lp897
S'text/html,application/xhtml+xml,application/xml;q=0.9,*/*;q=0.8'
p898
asbasbasbag69
(g85
g71
NtRp899
(dp900
g74
(dp901
sg83
g673
sg76
(lp902
g69
(g90
g71
NtRp903
(dp904
g74
(dp905
g94
g95
ssg83
g899
sg76
(lp906
S'http_accept_charset'
p907
asbag69
(g90
g71
NtRp908
(dp909
g74
(dp910
g101
g102
ssg83
g899
sg76
(lp911
S':'
asbag69
(g90
g71
NtRp912
(dp913
g74
(dp914
sg83
g899
sg76
(lp915
g69
(g70
g71
NtRp916
(dp917
g74
(dp918
g82
I4
ssg83
g912
sg76
(lp919
S'ISO-8859-1,utf-8;q=0.7,*;q=0.3'
p920
asbasbasbag69
(g85
g71
NtRp921
(dp922
g74
(dp923
sg83
g673
sg76
(lp924
g69
(g90
g71
NtRp925
(dp926
g74
(dp927
g94
g95
ssg83
g921
sg76
(lp928
S'http_accept_encoding'
p929
asbag69
(g90
g71
NtRp930
(dp931
g74
(dp932
g101
g102
ssg83
g921
sg76
(lp933
S':'
asbag69
(g90
g71
NtRp934
(dp935
g74
(dp936
sg83
g921
sg76
(lp937
g69
(g70
g71
NtRp938
(dp939
g74
(dp940
g82
I4
ssg83
g934
sg76
(lp941
S'gzip,deflate,sdch'
p942
asbasbasbag69
(g85
g71
NtRp943
(dp944
g74
(dp945
sg83
g673
sg76
(lp946
g69
(g90
g71
NtRp947
(dp948
g74
(dp949
g94
g95
ssg83
g943
sg76
(lp950
S'http_accept_language'
p951
asbag69
(g90
g71
NtRp952
(dp953
g74
(dp954
g101
g102
ssg83
g943
sg76
(lp955
S':'
asbag69
(g90
g71
NtRp956
(dp957
g74
(dp958
sg83
g943
sg76
(lp959
g69
(g70
g71
NtRp960
(dp961
g74
(dp962
g82
I4
ssg83
g956
sg76
(lp963
S'pt-BR,pt;q=0.8,en-US;q=0.6,en;q=0.4'
p964
asbasbasbag69
(g85
g71
NtRp965
(dp966
g74
(dp967
sg83
g673
sg76
(lp968
g69
(g90
g71
NtRp969
(dp970
g74
(dp971
g94
g95
ssg83
g965
sg76
(lp972
S'http_cache_control'
p973
asbag69
(g90
g71
NtRp974
(dp975
g74
(dp976
g101
g102
ssg83
g965
sg76
(lp977
S':'
asbag69
(g90
g71
NtRp978
(dp979
g74
(dp980
sg83
g965
sg76
(lp981
g69
(g70
g71
NtRp982
(dp983
g74
(dp984
g82
I4
ssg83
g978
sg76
(lp985
S'max-age=0'
p986
asbasbasbag69
(g85
g71
NtRp987
(dp988
g74
(dp989
sg83
g673
sg76
(lp990
g69
(g90
g71
NtRp991
(dp992
g74
(dp993
g94
g95
ssg83
g987
sg76
(lp994
S'http_connection'
p995
asbag69
(g90
g71
NtRp996
(dp997
g74
(dp998
g101
g102
ssg83
g987
sg76
(lp999
S':'
asbag69
(g90
g71
NtRp1000
(dp1001
g74
(dp1002
sg83
g987
sg76
(lp1003
g69
(g70
g71
NtRp1004
(dp1005
g74
(dp1006
g82
I4
ssg83
g1000
sg76
(lp1007
S'keep-alive'
p1008
asbasbasbag69
(g85
g71
NtRp1009
(dp1010
g74
(dp1011
sg83
g673
sg76
(lp1012
g69
(g90
g71
NtRp1013
(dp1014
g74
(dp1015
g94
g95
ssg83
g1009
sg76
(lp1016
S'http_content_length'
p1017
asbag69
(g90
g71
NtRp1018
(dp1019
g74
(dp1020
g101
g102
ssg83
g1009
sg76
(lp1021
S':'
asbag69
(g90
g71
NtRp1022
(dp1023
g74
(dp1024
sg83
g1009
sg76
(lp1025
g69
(g70
g71
NtRp1026
(dp1027
g74
(dp1028
g82
I4
ssg83
g1022
sg76
(lp1029
g789
asbasbasbag69
(g85
g71
NtRp1030
(dp1031
g74
(dp1032
sg83
g673
sg76
(lp1033
g69
(g90
g71
NtRp1034
(dp1035
g74
(dp1036
g94
g95
ssg83
g1030
sg76
(lp1037
S'http_content_type'
p1038
asbag69
(g90
g71
NtRp1039
(dp1040
g74
(dp1041
g101
g102
ssg83
g1030
sg76
(lp1042
S':'
asbag69
(g90
g71
NtRp1043
(dp1044
g74
(dp1045
sg83
g1030
sg76
(lp1046
g69
(g70
g71
NtRp1047
(dp1048
g74
(dp1049
g82
I4
ssg83
g1043
sg76
(lp1050
g811
asbasbasbag69
(g85
g71
NtRp1051
(dp1052
g74
(dp1053
sg83
g673
sg76
(lp1054
g69
(g90
g71
NtRp1055
(dp1056
g74
(dp1057
g94
g95
ssg83
g1051
sg76
(lp1058
S'http_cookie'
p1059
asbag69
(g90
g71
NtRp1060
(dp1061
g74
(dp1062
g101
g102
ssg83
g1051
sg76
(lp1063
S':'
asbag69
(g90
g71
NtRp1064
(dp1065
g74
(dp1066
sg83
g1051
sg76
(lp1067
g69
(g70
g71
NtRp1068
(dp1069
g74
(dp1070
g82
I4
ssg83
g1064
sg76
(lp1071
S'session_id_admin=127.0.0.1-2a9e3bdf-364a-4eee-83f8-3243c1f1d18f; session_id_projeto=127.0.0.1-75f1e5ae-31c3-489a-934f-26d1d736233f'
p1072
asbasbasbag69
(g85
g71
NtRp1073
(dp1074
g74
(dp1075
sg83
g673
sg76
(lp1076
g69
(g90
g71
NtRp1077
(dp1078
g74
(dp1079
g94
g95
ssg83
g1073
sg76
(lp1080
S'http_host'
p1081
asbag69
(g90
g71
NtRp1082
(dp1083
g74
(dp1084
g101
g102
ssg83
g1073
sg76
(lp1085
S':'
asbag69
(g90
g71
NtRp1086
(dp1087
g74
(dp1088
sg83
g1073
sg76
(lp1089
g69
(g70
g71
NtRp1090
(dp1091
g74
(dp1092
g82
I4
ssg83
g1086
sg76
(lp1093
S'127.0.0.1:8000'
p1094
asbasbasbag69
(g85
g71
NtRp1095
(dp1096
g74
(dp1097
sg83
g673
sg76
(lp1098
g69
(g90
g71
NtRp1099
(dp1100
g74
(dp1101
g94
g95
ssg83
g1095
sg76
(lp1102
S'http_origin'
p1103
asbag69
(g90
g71
NtRp1104
(dp1105
g74
(dp1106
g101
g102
ssg83
g1095
sg76
(lp1107
S':'
asbag69
(g90
g71
NtRp1108
(dp1109
g74
(dp1110
sg83
g1095
sg76
(lp1111
g69
(g70
g71
NtRp1112
(dp1113
g74
(dp1114
g82
I4
ssg83
g1108
sg76
(lp1115
S'http://127.0.0.1:8000'
p1116
asbasbasbag69
(g85
g71
NtRp1117
(dp1118
g74
(dp1119
sg83
g673
sg76
(lp1120
g69
(g90
g71
NtRp1121
(dp1122
g74
(dp1123
g94
g95
ssg83
g1117
sg76
(lp1124
S'http_referer'
p1125
asbag69
(g90
g71
NtRp1126
(dp1127
g74
(dp1128
g101
g102
ssg83
g1117
sg76
(lp1129
S':'
asbag69
(g90
g71
NtRp1130
(dp1131
g74
(dp1132
sg83
g1117
sg76
(lp1133
g69
(g70
g71
NtRp1134
(dp1135
g74
(dp1136
g82
I4
ssg83
g1130
sg76
(lp1137
S'http://127.0.0.1:8000/interface'
p1138
asbasbasbag69
(g85
g71
NtRp1139
(dp1140
g74
(dp1141
sg83
g673
sg76
(lp1142
g69
(g90
g71
NtRp1143
(dp1144
g74
(dp1145
g94
g95
ssg83
g1139
sg76
(lp1146
S'http_user_agent'
p1147
asbag69
(g90
g71
NtRp1148
(dp1149
g74
(dp1150
g101
g102
ssg83
g1139
sg76
(lp1151
S':'
asbag69
(g90
g71
NtRp1152
(dp1153
g74
(dp1154
sg83
g1139
sg76
(lp1155
g69
(g70
g71
NtRp1156
(dp1157
g74
(dp1158
g82
I4
ssg83
g1152
sg76
(lp1159
S'Mozilla/5.0 (X11; Linux x86_64) AppleWebKit/537.4 (KHTML, like Gecko) Ubuntu/12.10 Chromium/22.0.1229.94 Chrome/22.0.1229.94 Safari/537.4'
p1160
asbasbasbag69
(g85
g71
NtRp1161
(dp1162
g74
(dp1163
sg83
g673
sg76
(lp1164
g69
(g90
g71
NtRp1165
(dp1166
g74
(dp1167
g94
g95
ssg83
g1161
sg76
(lp1168
S'is_jython'
p1169
asbag69
(g90
g71
NtRp1170
(dp1171
g74
(dp1172
g101
g102
ssg83
g1161
sg76
(lp1173
S':'
asbag69
(g90
g71
NtRp1174
(dp1175
g74
(dp1176
sg83
g1161
sg76
(lp1177
g69
(g70
g71
NtRp1178
(dp1179
g74
(dp1180
g82
I4
ssg83
g1174
sg76
(lp1181
g112
asbasbasbag69
(g85
g71
NtRp1182
(dp1183
g74
(dp1184
sg83
g673
sg76
(lp1185
g69
(g90
g71
NtRp1186
(dp1187
g74
(dp1188
g94
g95
ssg83
g1182
sg76
(lp1189
S'is_pypy'
p1190
asbag69
(g90
g71
NtRp1191
(dp1192
g74
(dp1193
g101
g102
ssg83
g1182
sg76
(lp1194
S':'
asbag69
(g90
g71
NtRp1195
(dp1196
g74
(dp1197
sg83
g1182
sg76
(lp1198
g69
(g70
g71
NtRp1199
(dp1200
g74
(dp1201
g82
I4
ssg83
g1195
sg76
(lp1202
g112
asbasbasbag69
(g85
g71
NtRp1203
(dp1204
g74
(dp1205
sg83
g673
sg76
(lp1206
g69
(g90
g71
NtRp1207
(dp1208
g74
(dp1209
g94
g95
ssg83
g1203
sg76
(lp1210
S'local_hosts'
p1211
asbag69
(g90
g71
NtRp1212
(dp1213
g74
(dp1214
g101
g102
ssg83
g1203
sg76
(lp1215
S':'
asbag69
(g90
g71
NtRp1216
(dp1217
g74
(dp1218
sg83
g1203
sg76
(lp1219
g69
(g70
g71
NtRp1220
(dp1221
g74
(dp1222
g82
I4
ssg83
g1216
sg76
(lp1223
g69
(g78
g71
NtRp1224
(dp1225
g74
(dp1226
g82
I3
ssg83
Nsg76
(lp1227
g69
(g85
g71
NtRp1228
(dp1229
g74
(dp1230
sg83
g1224
sg76
(lp1231
g69
(g90
g71
NtRp1232
(dp1233
g74
(dp1234
sg83
g1228
sg76
(lp1235
g69
(g70
g71
NtRp1236
(dp1237
g74
(dp1238
g82
I3
ssg83
g1232
sg76
(lp1239
S'::1'
p1240
asbasbasbag69
(g85
g71
NtRp1241
(dp1242
g74
(dp1243
sg83
g1224
sg76
(lp1244
g69
(g90
g71
NtRp1245
(dp1246
g74
(dp1247
sg83
g1241
sg76
(lp1248
g69
(g70
g71
NtRp1249
(dp1250
g74
(dp1251
g82
I3
ssg83
g1245
sg76
(lp1252
S'::ffff:127.0.0.1'
p1253
asbasbasbag69
(g85
g71
NtRp1254
(dp1255
g74
(dp1256
sg83
g1224
sg76
(lp1257
g69
(g90
g71
NtRp1258
(dp1259
g74
(dp1260
sg83
g1254
sg76
(lp1261
g69
(g70
g71
NtRp1262
(dp1263
g74
(dp1264
g82
I3
ssg83
g1258
sg76
(lp1265
S'127.0.0.1'
p1266
asbasbasbag69
(g85
g71
NtRp1267
(dp1268
g74
(dp1269
sg83
g1224
sg76
(lp1270
g69
(g90
g71
NtRp1271
(dp1272
g74
(dp1273
sg83
g1267
sg76
(lp1274
g69
(g70
g71
NtRp1275
(dp1276
g74
(dp1277
g82
I3
ssg83
g1271
sg76
(lp1278
S'fernando-workstation'
p1279
asbasbasbasbasbasbasbag69
(g85
g71
NtRp1280
(dp1281
g74
(dp1282
sg83
g673
sg76
(lp1283
g69
(g90
g71
NtRp1284
(dp1285
g74
(dp1286
g94
g95
ssg83
g1280
sg76
(lp1287
S'path_info'
p1288
asbag69
(g90
g71
NtRp1289
(dp1290
g74
(dp1291
g101
g102
ssg83
g1280
sg76
(lp1292
S':'
asbag69
(g90
g71
NtRp1293
(dp1294
g74
(dp1295
sg83
g1280
sg76
(lp1296
g69
(g70
g71
NtRp1297
(dp1298
g74
(dp1299
g82
I4
ssg83
g1293
sg76
(lp1300
S'/interface'
p1301
asbasbasbag69
(g85
g71
NtRp1302
(dp1303
g74
(dp1304
sg83
g673
sg76
(lp1305
g69
(g90
g71
NtRp1306
(dp1307
g74
(dp1308
g94
g95
ssg83
g1302
sg76
(lp1309
S'query_string'
p1310
asbag69
(g90
g71
NtRp1311
(dp1312
g74
(dp1313
g101
g102
ssg83
g1302
sg76
(lp1314
S':'
asbag69
(g90
g71
NtRp1315
(dp1316
g74
(dp1317
sg83
g1302
sg76
(lp1318
g69
(g70
g71
NtRp1319
(dp1320
g74
(dp1321
g82
I4
ssg83
g1315
sg76
(lp1322
S''
asbasbasbag69
(g85
g71
NtRp1323
(dp1324
g74
(dp1325
sg83
g673
sg76
(lp1326
g69
(g90
g71
NtRp1327
(dp1328
g74
(dp1329
g94
g95
ssg83
g1323
sg76
(lp1330
S'remote_addr'
p1331
asbag69
(g90
g71
NtRp1332
(dp1333
g74
(dp1334
g101
g102
ssg83
g1323
sg76
(lp1335
S':'
asbag69
(g90
g71
NtRp1336
(dp1337
g74
(dp1338
sg83
g1323
sg76
(lp1339
g69
(g70
g71
NtRp1340
(dp1341
g74
(dp1342
g82
I4
ssg83
g1336
sg76
(lp1343
g224
asbasbasbag69
(g85
g71
NtRp1344
(dp1345
g74
(dp1346
sg83
g673
sg76
(lp1347
g69
(g90
g71
NtRp1348
(dp1349
g74
(dp1350
g94
g95
ssg83
g1344
sg76
(lp1351
S'remote_port'
p1352
asbag69
(g90
g71
NtRp1353
(dp1354
g74
(dp1355
g101
g102
ssg83
g1344
sg76
(lp1356
S':'
asbag69
(g90
g71
NtRp1357
(dp1358
g74
(dp1359
sg83
g1344
sg76
(lp1360
g69
(g70
g71
NtRp1361
(dp1362
g74
(dp1363
g82
I4
ssg83
g1357
sg76
(lp1364
S'51336'
p1365
asbasbasbag69
(g85
g71
NtRp1366
(dp1367
g74
(dp1368
sg83
g673
sg76
(lp1369
g69
(g90
g71
NtRp1370
(dp1371
g74
(dp1372
g94
g95
ssg83
g1366
sg76
(lp1373
S'request_method'
p1374
asbag69
(g90
g71
NtRp1375
(dp1376
g74
(dp1377
g101
g102
ssg83
g1366
sg76
(lp1378
S':'
asbag69
(g90
g71
NtRp1379
(dp1380
g74
(dp1381
sg83
g1366
sg76
(lp1382
g69
(g70
g71
NtRp1383
(dp1384
g74
(dp1385
g82
I4
ssg83
g1379
sg76
(lp1386
S'POST'
p1387
asbasbasbag69
(g85
g71
NtRp1388
(dp1389
g74
(dp1390
sg83
g673
sg76
(lp1391
g69
(g90
g71
NtRp1392
(dp1393
g74
(dp1394
g94
g95
ssg83
g1388
sg76
(lp1395
S'request_uri'
p1396
asbag69
(g90
g71
NtRp1397
(dp1398
g74
(dp1399
g101
g102
ssg83
g1388
sg76
(lp1400
S':'
asbag69
(g90
g71
NtRp1401
(dp1402
g74
(dp1403
sg83
g1388
sg76
(lp1404
g69
(g70
g71
NtRp1405
(dp1406
g74
(dp1407
g82
I4
ssg83
g1401
sg76
(lp1408
S'/projeto/initial/interface'
p1409
asbasbasbag69
(g85
g71
NtRp1410
(dp1411
g74
(dp1412
sg83
g673
sg76
(lp1413
g69
(g90
g71
NtRp1414
(dp1415
g74
(dp1416
g94
g95
ssg83
g1410
sg76
(lp1417
S'script_name'
p1418
asbag69
(g90
g71
NtRp1419
(dp1420
g74
(dp1421
g101
g102
ssg83
g1410
sg76
(lp1422
S':'
asbag69
(g90
g71
NtRp1423
(dp1424
g74
(dp1425
sg83
g1410
sg76
(lp1426
g69
(g70
g71
NtRp1427
(dp1428
g74
(dp1429
g82
I4
ssg83
g1423
sg76
(lp1430
S''
asbasbasbag69
(g85
g71
NtRp1431
(dp1432
g74
(dp1433
sg83
g673
sg76
(lp1434
g69
(g90
g71
NtRp1435
(dp1436
g74
(dp1437
g94
g95
ssg83
g1431
sg76
(lp1438
S'server_name'
p1439
asbag69
(g90
g71
NtRp1440
(dp1441
g74
(dp1442
g101
g102
ssg83
g1431
sg76
(lp1443
S':'
asbag69
(g90
g71
NtRp1444
(dp1445
g74
(dp1446
sg83
g1431
sg76
(lp1447
g69
(g70
g71
NtRp1448
(dp1449
g74
(dp1450
g82
I4
ssg83
g1444
sg76
(lp1451
S'fernando-workstation'
p1452
asbasbasbag69
(g85
g71
NtRp1453
(dp1454
g74
(dp1455
sg83
g673
sg76
(lp1456
g69
(g90
g71
NtRp1457
(dp1458
g74
(dp1459
g94
g95
ssg83
g1453
sg76
(lp1460
S'server_port'
p1461
asbag69
(g90
g71
NtRp1462
(dp1463
g74
(dp1464
g101
g102
ssg83
g1453
sg76
(lp1465
S':'
asbag69
(g90
g71
NtRp1466
(dp1467
g74
(dp1468
sg83
g1453
sg76
(lp1469
g69
(g70
g71
NtRp1470
(dp1471
g74
(dp1472
g82
I4
ssg83
g1466
sg76
(lp1473
S'8000'
p1474
asbasbasbag69
(g85
g71
NtRp1475
(dp1476
g74
(dp1477
sg83
g673
sg76
(lp1478
g69
(g90
g71
NtRp1479
(dp1480
g74
(dp1481
g94
g95
ssg83
g1475
sg76
(lp1482
S'server_protocol'
p1483
asbag69
(g90
g71
NtRp1484
(dp1485
g74
(dp1486
g101
g102
ssg83
g1475
sg76
(lp1487
S':'
asbag69
(g90
g71
NtRp1488
(dp1489
g74
(dp1490
sg83
g1475
sg76
(lp1491
g69
(g70
g71
NtRp1492
(dp1493
g74
(dp1494
g82
I4
ssg83
g1488
sg76
(lp1495
S'HTTP/1.1'
p1496
asbasbasbag69
(g85
g71
NtRp1497
(dp1498
g74
(dp1499
sg83
g673
sg76
(lp1500
g69
(g90
g71
NtRp1501
(dp1502
g74
(dp1503
g94
g95
ssg83
g1497
sg76
(lp1504
S'server_software'
p1505
asbag69
(g90
g71
NtRp1506
(dp1507
g74
(dp1508
g101
g102
ssg83
g1497
sg76
(lp1509
S':'
asbag69
(g90
g71
NtRp1510
(dp1511
g74
(dp1512
sg83
g1497
sg76
(lp1513
g69
(g70
g71
NtRp1514
(dp1515
g74
(dp1516
g82
I4
ssg83
g1510
sg76
(lp1517
S'Rocket 1.2.6'
p1518
asbasbasbag69
(g85
g71
NtRp1519
(dp1520
g74
(dp1521
sg83
g673
sg76
(lp1522
g69
(g90
g71
NtRp1523
(dp1524
g74
(dp1525
g94
g95
ssg83
g1519
sg76
(lp1526
S'web2py_original_uri'
p1527
asbag69
(g90
g71
NtRp1528
(dp1529
g74
(dp1530
g101
g102
ssg83
g1519
sg76
(lp1531
S':'
asbag69
(g90
g71
NtRp1532
(dp1533
g74
(dp1534
sg83
g1519
sg76
(lp1535
g69
(g70
g71
NtRp1536
(dp1537
g74
(dp1538
g82
I4
ssg83
g1532
sg76
(lp1539
g1301
asbasbasbag69
(g85
g71
NtRp1540
(dp1541
g74
(dp1542
sg83
g673
sg76
(lp1543
g69
(g90
g71
NtRp1544
(dp1545
g74
(dp1546
g94
g95
ssg83
g1540
sg76
(lp1547
S'web2py_path'
p1548
asbag69
(g90
g71
NtRp1549
(dp1550
g74
(dp1551
g101
g102
ssg83
g1540
sg76
(lp1552
S':'
asbag69
(g90
g71
NtRp1553
(dp1554
g74
(dp1555
sg83
g1540
sg76
(lp1556
g69
(g70
g71
NtRp1557
(dp1558
g74
(dp1559
g82
I4
ssg83
g1553
sg76
(lp1560
g720
asbasbasbag69
(g85
g71
NtRp1561
(dp1562
g74
(dp1563
sg83
g673
sg76
(lp1564
g69
(g90
g71
NtRp1565
(dp1566
g74
(dp1567
g94
g95
ssg83
g1561
sg76
(lp1568
S'web2py_version'
p1569
asbag69
(g90
g71
NtRp1570
(dp1571
g74
(dp1572
g101
g102
ssg83
g1561
sg76
(lp1573
S':'
asbag69
(g90
g71
NtRp1574
(dp1575
g74
(dp1576
sg83
g1561
sg76
(lp1577
g69
(g70
g71
NtRp1578
(dp1579
g74
(dp1580
g82
I4
ssg83
g1574
sg76
(lp1581
g69
(g78
g71
NtRp1582
(dp1583
g74
(dp1584
g82
I3
ssg83
Nsg76
(lp1585
g69
(g85
g71
NtRp1586
(dp1587
g74
(dp1588
sg83
g1582
sg76
(lp1589
g69
(g90
g71
NtRp1590
(dp1591
g74
(dp1592
sg83
g1586
sg76
(lp1593
g69
(g70
g71
NtRp1594
(dp1595
g74
(dp1596
g82
I3
ssg83
g1590
sg76
(lp1597
S'2'
asbasbasbag69
(g85
g71
NtRp1598
(dp1599
g74
(dp1600
sg83
g1582
sg76
(lp1601
g69
(g90
g71
NtRp1602
(dp1603
g74
(dp1604
sg83
g1598
sg76
(lp1605
g69
(g70
g71
NtRp1606
(dp1607
g74
(dp1608
g82
I3
ssg83
g1602
sg76
(lp1609
S'3'
asbasbasbag69
(g85
g71
NtRp1610
(dp1611
g74
(dp1612
sg83
g1582
sg76
(lp1613
g69
(g90
g71
NtRp1614
(dp1615
g74
(dp1616
sg83
g1610
sg76
(lp1617
g69
(g70
g71
NtRp1618
(dp1619
g74
(dp1620
g82
I3
ssg83
g1614
sg76
(lp1621
S'2'
asbasbasbag69
(g85
g71
NtRp1622
(dp1623
g74
(dp1624
sg83
g1582
sg76
(lp1625
g69
(g90
g71
NtRp1626
(dp1627
g74
(dp1628
sg83
g1622
sg76
(lp1629
g69
(g70
g71
NtRp1630
(dp1631
g74
(dp1632
g82
I3
ssg83
g1626
sg76
(lp1633
S'datetime.datetime(2012, 12, 17, 15, 3, 30)'
p1634
asbasbasbag69
(g85
g71
NtRp1635
(dp1636
g74
(dp1637
sg83
g1582
sg76
(lp1638
g69
(g90
g71
NtRp1639
(dp1640
g74
(dp1641
sg83
g1635
sg76
(lp1642
g69
(g70
g71
NtRp1643
(dp1644
g74
(dp1645
g82
I3
ssg83
g1639
sg76
(lp1646
S'stable'
p1647
asbasbasbasbasbasbasbag69
(g85
g71
NtRp1648
(dp1649
g74
(dp1650
sg83
g673
sg76
(lp1651
g69
(g90
g71
NtRp1652
(dp1653
g74
(dp1654
g94
g95
ssg83
g1648
sg76
(lp1655
S'wsgi_errors'
p1656
asbag69
(g90
g71
NtRp1657
(dp1658
g74
(dp1659
g101
g102
ssg83
g1648
sg76
(lp1660
S':'
asbag69
(g90
g71
NtRp1661
(dp1662
g74
(dp1663
sg83
g1648
sg76
(lp1664
g69
(g70
g71
NtRp1665
(dp1666
g74
(dp1667
g82
I4
ssg83
g1661
sg76
(lp1668
S"<open file '<stderr>', mode 'w' at 0x7fca327ca270>"
p1669
asbasbasbag69
(g85
g71
NtRp1670
(dp1671
g74
(dp1672
sg83
g673
sg76
(lp1673
g69
(g90
g71
NtRp1674
(dp1675
g74
(dp1676
g94
g95
ssg83
g1670
sg76
(lp1677
S'wsgi_file_wrapper'
p1678
asbag69
(g90
g71
NtRp1679
(dp1680
g74
(dp1681
g101
g102
ssg83
g1670
sg76
(lp1682
S':'
asbag69
(g90
g71
NtRp1683
(dp1684
g74
(dp1685
sg83
g1670
sg76
(lp1686
g69
(g70
g71
NtRp1687
(dp1688
g74
(dp1689
g82
I4
ssg83
g1683
sg76
(lp1690
S'<class wsgiref.util.FileWrapper at 0x189f4c8>'
p1691
asbasbasbag69
(g85
g71
NtRp1692
(dp1693
g74
(dp1694
sg83
g673
sg76
(lp1695
g69
(g90
g71
NtRp1696
(dp1697
g74
(dp1698
g94
g95
ssg83
g1692
sg76
(lp1699
S'wsgi_input'
p1700
asbag69
(g90
g71
NtRp1701
(dp1702
g74
(dp1703
g101
g102
ssg83
g1692
sg76
(lp1704
S':'
asbag69
(g90
g71
NtRp1705
(dp1706
g74
(dp1707
sg83
g1692
sg76
(lp1708
g69
(g70
g71
NtRp1709
(dp1710
g74
(dp1711
g82
I4
ssg83
g1705
sg76
(lp1712
S'<socket._fileobject object at 0x7fca1c04bd50>'
p1713
asbasbasbag69
(g85
g71
NtRp1714
(dp1715
g74
(dp1716
sg83
g673
sg76
(lp1717
g69
(g90
g71
NtRp1718
(dp1719
g74
(dp1720
g94
g95
ssg83
g1714
sg76
(lp1721
S'wsgi_multiprocess'
p1722
asbag69
(g90
g71
NtRp1723
(dp1724
g74
(dp1725
g101
g102
ssg83
g1714
sg76
(lp1726
S':'
asbag69
(g90
g71
NtRp1727
(dp1728
g74
(dp1729
sg83
g1714
sg76
(lp1730
g69
(g70
g71
NtRp1731
(dp1732
g74
(dp1733
g82
I4
ssg83
g1727
sg76
(lp1734
g112
asbasbasbag69
(g85
g71
NtRp1735
(dp1736
g74
(dp1737
sg83
g673
sg76
(lp1738
g69
(g90
g71
NtRp1739
(dp1740
g74
(dp1741
g94
g95
ssg83
g1735
sg76
(lp1742
S'wsgi_multithread'
p1743
asbag69
(g90
g71
NtRp1744
(dp1745
g74
(dp1746
g101
g102
ssg83
g1735
sg76
(lp1747
S':'
asbag69
(g90
g71
NtRp1748
(dp1749
g74
(dp1750
sg83
g1735
sg76
(lp1751
g69
(g70
g71
NtRp1752
(dp1753
g74
(dp1754
g82
I4
ssg83
g1748
sg76
(lp1755
S'True'
p1756
asbasbasbag69
(g85
g71
NtRp1757
(dp1758
g74
(dp1759
sg83
g673
sg76
(lp1760
g69
(g90
g71
NtRp1761
(dp1762
g74
(dp1763
g94
g95
ssg83
g1757
sg76
(lp1764
S'wsgi_run_once'
p1765
asbag69
(g90
g71
NtRp1766
(dp1767
g74
(dp1768
g101
g102
ssg83
g1757
sg76
(lp1769
S':'
asbag69
(g90
g71
NtRp1770
(dp1771
g74
(dp1772
sg83
g1757
sg76
(lp1773
g69
(g70
g71
NtRp1774
(dp1775
g74
(dp1776
g82
I4
ssg83
g1770
sg76
(lp1777
g112
asbasbasbag69
(g85
g71
NtRp1778
(dp1779
g74
(dp1780
sg83
g673
sg76
(lp1781
g69
(g90
g71
NtRp1782
(dp1783
g74
(dp1784
g94
g95
ssg83
g1778
sg76
(lp1785
S'wsgi_url_scheme'
p1786
asbag69
(g90
g71
NtRp1787
(dp1788
g74
(dp1789
g101
g102
ssg83
g1778
sg76
(lp1790
S':'
asbag69
(g90
g71
NtRp1791
(dp1792
g74
(dp1793
sg83
g1778
sg76
(lp1794
g69
(g70
g71
NtRp1795
(dp1796
g74
(dp1797
g82
I4
ssg83
g1791
sg76
(lp1798
S'http'
p1799
asbasbasbag69
(g85
g71
NtRp1800
(dp1801
g74
(dp1802
sg83
g673
sg76
(lp1803
g69
(g90
g71
NtRp1804
(dp1805
g74
(dp1806
g94
g95
ssg83
g1800
sg76
(lp1807
S'wsgi_version'
p1808
asbag69
(g90
g71
NtRp1809
(dp1810
g74
(dp1811
g101
g102
ssg83
g1800
sg76
(lp1812
S':'
asbag69
(g90
g71
NtRp1813
(dp1814
g74
(dp1815
sg83
g1800
sg76
(lp1816
g69
(g70
g71
NtRp1817
(dp1818
g74
(dp1819
g82
I4
ssg83
g1813
sg76
(lp1820
g69
(g78
g71
NtRp1821
(dp1822
g74
(dp1823
g82
I3
ssg83
Nsg76
(lp1824
g69
(g85
g71
NtRp1825
(dp1826
g74
(dp1827
sg83
g1821
sg76
(lp1828
g69
(g90
g71
NtRp1829
(dp1830
g74
(dp1831
sg83
g1825
sg76
(lp1832
g69
(g70
g71
NtRp1833
(dp1834
g74
(dp1835
g82
I3
ssg83
g1829
sg76
(lp1836
S'1'
asbasbasbag69
(g85
g71
NtRp1837
(dp1838
g74
(dp1839
sg83
g1821
sg76
(lp1840
g69
(g90
g71
NtRp1841
(dp1842
g74
(dp1843
sg83
g1837
sg76
(lp1844
g69
(g70
g71
NtRp1845
(dp1846
g74
(dp1847
g82
I3
ssg83
g1841
sg76
(lp1848
S'0'
asbasbasbasbasbasbasbasbasbasbasbag69
(g85
g71
NtRp1849
(dp1850
g74
(dp1851
sg83
g79
sg76
(lp1852
g69
(g90
g71
NtRp1853
(dp1854
g74
(dp1855
g94
g95
ssg83
g1849
sg76
(lp1856
S'extension'
p1857
asbag69
(g90
g71
NtRp1858
(dp1859
g74
(dp1860
g101
g102
ssg83
g1849
sg76
(lp1861
S':'
asbag69
(g90
g71
NtRp1862
(dp1863
g74
(dp1864
sg83
g1849
sg76
(lp1865
g69
(g70
g71
NtRp1866
(dp1867
g74
(dp1868
g82
I5
ssg83
g1862
sg76
(lp1869
S'html'
p1870
asbasbasbag69
(g85
g71
NtRp1871
(dp1872
g74
(dp1873
sg83
g79
sg76
(lp1874
g69
(g90
g71
NtRp1875
(dp1876
g74
(dp1877
g94
g95
ssg83
g1871
sg76
(lp1878
S'folder'
p1879
asbag69
(g90
g71
NtRp1880
(dp1881
g74
(dp1882
g101
g102
ssg83
g1871
sg76
(lp1883
S':'
asbag69
(g90
g71
NtRp1884
(dp1885
g74
(dp1886
sg83
g1871
sg76
(lp1887
g69
(g70
g71
NtRp1888
(dp1889
g74
(dp1890
g82
I5
ssg83
g1884
sg76
(lp1891
S'/var/www/hosts3/applications/projeto/'
p1892
asbasbasbag69
(g85
g71
NtRp1893
(dp1894
g74
(dp1895
sg83
g79
sg76
(lp1896
g69
(g90
g71
NtRp1897
(dp1898
g74
(dp1899
g94
g95
ssg83
g1893
sg76
(lp1900
S'function'
p1901
asbag69
(g90
g71
NtRp1902
(dp1903
g74
(dp1904
g101
g102
ssg83
g1893
sg76
(lp1905
S':'
asbag69
(g90
g71
NtRp1906
(dp1907
g74
(dp1908
sg83
g1893
sg76
(lp1909
g69
(g70
g71
NtRp1910
(dp1911
g74
(dp1912
g82
I5
ssg83
g1906
sg76
(lp1913
S'interface'
p1914
asbasbasbag69
(g85
g71
NtRp1915
(dp1916
g74
(dp1917
sg83
g79
sg76
(lp1918
g69
(g90
g71
NtRp1919
(dp1920
g74
(dp1921
g94
g95
ssg83
g1915
sg76
(lp1922
S'get_vars'
p1923
asbag69
(g90
g71
NtRp1924
(dp1925
g74
(dp1926
g101
g102
ssg83
g1915
sg76
(lp1927
S':'
asbag69
(g90
g71
NtRp1928
(dp1929
g74
(dp1930
sg83
g1915
sg76
(lp1931
g69
(g70
g71
NtRp1932
(dp1933
g74
(dp1934
g82
I5
ssg83
g1928
sg76
(lp1935
g69
(g78
g71
NtRp1936
(dp1937
g74
(dp1938
g82
I4
ssg83
Nsg76
(lp1939
sbasbasbasbag69
(g85
g71
NtRp1940
(dp1941
g74
(dp1942
sg83
g79
sg76
(lp1943
g69
(g90
g71
NtRp1944
(dp1945
g74
(dp1946
g94
g95
ssg83
g1940
sg76
(lp1947
S'global_settings'
p1948
asbag69
(g90
g71
NtRp1949
(dp1950
g74
(dp1951
g101
g102
ssg83
g1940
sg76
(lp1952
S':'
asbag69
(g90
g71
NtRp1953
(dp1954
g74
(dp1955
sg83
g1940
sg76
(lp1956
g69
(g70
g71
NtRp1957
(dp1958
g74
(dp1959
g82
I5
ssg83
g1953
sg76
(lp1960
g69
(g78
g71
NtRp1961
(dp1962
g74
(dp1963
g82
I4
ssg83
Nsg76
(lp1964
g69
(g85
g71
NtRp1965
(dp1966
g74
(dp1967
sg83
g1961
sg76
(lp1968
g69
(g90
g71
NtRp1969
(dp1970
g74
(dp1971
g94
g95
ssg83
g1965
sg76
(lp1972
g685
asbag69
(g90
g71
NtRp1973
(dp1974
g74
(dp1975
g101
g102
ssg83
g1965
sg76
(lp1976
S':'
asbag69
(g90
g71
NtRp1977
(dp1978
g74
(dp1979
sg83
g1965
sg76
(lp1980
g69
(g70
g71
NtRp1981
(dp1982
g74
(dp1983
g82
I4
ssg83
g1977
sg76
(lp1984
S"set(['/var/www/hosts3/applications/admin/', '/var/www/hosts3/applications/projeto/'])"
p1985
asbasbasbag69
(g85
g71
NtRp1986
(dp1987
g74
(dp1988
sg83
g1961
sg76
(lp1989
g69
(g90
g71
NtRp1990
(dp1991
g74
(dp1992
g94
g95
ssg83
g1986
sg76
(lp1993
g707
asbag69
(g90
g71
NtRp1994
(dp1995
g74
(dp1996
g101
g102
ssg83
g1986
sg76
(lp1997
S':'
asbag69
(g90
g71
NtRp1998
(dp1999
g74
(dp2000
sg83
g1986
sg76
(lp2001
g69
(g70
g71
NtRp2002
(dp2003
g74
(dp2004
g82
I4
ssg83
g1998
sg76
(lp2005
g720
asbasbasbag69
(g85
g71
NtRp2006
(dp2007
g74
(dp2008
sg83
g1961
sg76
(lp2009
g69
(g90
g71
NtRp2010
(dp2011
g74
(dp2012
g94
g95
ssg83
g2006
sg76
(lp2013
g729
asbag69
(g90
g71
NtRp2014
(dp2015
g74
(dp2016
g101
g102
ssg83
g2006
sg76
(lp2017
S':'
asbag69
(g90
g71
NtRp2018
(dp2019
g74
(dp2020
sg83
g2006
sg76
(lp2021
g69
(g70
g71
NtRp2022
(dp2023
g74
(dp2024
g82
I4
ssg83
g2018
sg76
(lp2025
g69
(g78
g71
NtRp2026
(dp2027
g74
(dp2028
g82
I3
ssg83
Nsg76
(lp2029
sbasbasbasbag69
(g85
g71
NtRp2030
(dp2031
g74
(dp2032
sg83
g1961
sg76
(lp2033
g69
(g90
g71
NtRp2034
(dp2035
g74
(dp2036
g94
g95
ssg83
g2030
sg76
(lp2037
g754
asbag69
(g90
g71
NtRp2038
(dp2039
g74
(dp2040
g101
g102
ssg83
g2030
sg76
(lp2041
S':'
asbag69
(g90
g71
NtRp2042
(dp2043
g74
(dp2044
sg83
g2030
sg76
(lp2045
g69
(g70
g71
NtRp2046
(dp2047
g74
(dp2048
g82
I4
ssg83
g2042
sg76
(lp2049
S"<Values at 0x1929758: {'verbose': False, 'ip': '127.0.0.1', 'with_scheduler': False, 'ips': [], 'shutdown_timeout': 5, 'taskbar': False, 'port': 8000, 'maxthreads': None, 'softcron': False, 'server_name': 'fernando-workstation', 'bpython': False, 'nogui': False, 'pid_filename': 'httpserver.pid', 'extcron': False, 'runcron': False, 'run_system_tests': False, 'test': None, 'folder': '/var/www/hosts3', 'config': '', 'minthreads': None, 'winservice': '', 'shell': None, 'run': '', 'log_filename': 'httpserver.log', 'debuglevel': 30, 'args': [''], 'socket_timeout': 5, 'ssl_ca_certificate': None, 'scheduler': None, 'profiler_filename': None, 'ssl_private_key': '', 'scheduler_groups': None, 'password': '123456', 'request_queue_size': 5, 'ssl_certificate': '', 'cronjob': False, 'numthreads': None, 'quiet': False, 'interfaces': None, 'import_models': False, 'timeout': 10, 'plain': False, 'nobanner': False}>"
p2050
asbasbasbag69
(g85
g71
NtRp2051
(dp2052
g74
(dp2053
sg83
g1961
sg76
(lp2054
g69
(g90
g71
NtRp2055
(dp2056
g74
(dp2057
g94
g95
ssg83
g2051
sg76
(lp2058
g820
asbag69
(g90
g71
NtRp2059
(dp2060
g74
(dp2061
g101
g102
ssg83
g2051
sg76
(lp2062
S':'
asbag69
(g90
g71
NtRp2063
(dp2064
g74
(dp2065
sg83
g2051
sg76
(lp2066
g69
(g70
g71
NtRp2067
(dp2068
g74
(dp2069
g82
I4
ssg83
g2063
sg76
(lp2070
S'set([])'
p2071
asbasbasbag69
(g85
g71
NtRp2072
(dp2073
g74
(dp2074
sg83
g1961
sg76
(lp2075
g69
(g90
g71
NtRp2076
(dp2077
g74
(dp2078
g94
g95
ssg83
g2072
sg76
(lp2079
g842
asbag69
(g90
g71
NtRp2080
(dp2081
g74
(dp2082
g101
g102
ssg83
g2072
sg76
(lp2083
S':'
asbag69
(g90
g71
NtRp2084
(dp2085
g74
(dp2086
sg83
g2072
sg76
(lp2087
g69
(g70
g71
NtRp2088
(dp2089
g74
(dp2090
g82
I4
ssg83
g2084
sg76
(lp2091
g112
asbasbasbag69
(g85
g71
NtRp2092
(dp2093
g74
(dp2094
sg83
g1961
sg76
(lp2095
g69
(g90
g71
NtRp2096
(dp2097
g74
(dp2098
g94
g95
ssg83
g2092
sg76
(lp2099
g863
asbag69
(g90
g71
NtRp2100
(dp2101
g74
(dp2102
g101
g102
ssg83
g2092
sg76
(lp2103
S':'
asbag69
(g90
g71
NtRp2104
(dp2105
g74
(dp2106
sg83
g2092
sg76
(lp2107
g69
(g70
g71
NtRp2108
(dp2109
g74
(dp2110
g82
I4
ssg83
g2104
sg76
(lp2111
g876
asbasbasbag69
(g85
g71
NtRp2112
(dp2113
g74
(dp2114
sg83
g1961
sg76
(lp2115
g69
(g90
g71
NtRp2116
(dp2117
g74
(dp2118
g94
g95
ssg83
g2112
sg76
(lp2119
g1169
asbag69
(g90
g71
NtRp2120
(dp2121
g74
(dp2122
g101
g102
ssg83
g2112
sg76
(lp2123
S':'
asbag69
(g90
g71
NtRp2124
(dp2125
g74
(dp2126
sg83
g2112
sg76
(lp2127
g69
(g70
g71
NtRp2128
(dp2129
g74
(dp2130
g82
I4
ssg83
g2124
sg76
(lp2131
g112
asbasbasbag69
(g85
g71
NtRp2132
(dp2133
g74
(dp2134
sg83
g1961
sg76
(lp2135
g69
(g90
g71
NtRp2136
(dp2137
g74
(dp2138
g94
g95
ssg83
g2132
sg76
(lp2139
g1190
asbag69
(g90
g71
NtRp2140
(dp2141
g74
(dp2142
g101
g102
ssg83
g2132
sg76
(lp2143
S':'
asbag69
(g90
g71
NtRp2144
(dp2145
g74
(dp2146
sg83
g2132
sg76
(lp2147
g69
(g70
g71
NtRp2148
(dp2149
g74
(dp2150
g82
I4
ssg83
g2144
sg76
(lp2151
g112
asbasbasbag69
(g85
g71
NtRp2152
(dp2153
g74
(dp2154
sg83
g1961
sg76
(lp2155
g69
(g90
g71
NtRp2156
(dp2157
g74
(dp2158
g94
g95
ssg83
g2152
sg76
(lp2159
g1211
asbag69
(g90
g71
NtRp2160
(dp2161
g74
(dp2162
g101
g102
ssg83
g2152
sg76
(lp2163
S':'
asbag69
(g90
g71
NtRp2164
(dp2165
g74
(dp2166
sg83
g2152
sg76
(lp2167
g69
(g70
g71
NtRp2168
(dp2169
g74
(dp2170
g82
I4
ssg83
g2164
sg76
(lp2171
g69
(g78
g71
NtRp2172
(dp2173
g74
(dp2174
g82
I3
ssg83
Nsg76
(lp2175
g69
(g85
g71
NtRp2176
(dp2177
g74
(dp2178
sg83
g2172
sg76
(lp2179
g69
(g90
g71
NtRp2180
(dp2181
g74
(dp2182
sg83
g2176
sg76
(lp2183
g69
(g70
g71
NtRp2184
(dp2185
g74
(dp2186
g82
I3
ssg83
g2180
sg76
(lp2187
g1240
asbasbasbag69
(g85
g71
NtRp2188
(dp2189
g74
(dp2190
sg83
g2172
sg76
(lp2191
g69
(g90
g71
NtRp2192
(dp2193
g74
(dp2194
sg83
g2188
sg76
(lp2195
g69
(g70
g71
NtRp2196
(dp2197
g74
(dp2198
g82
I3
ssg83
g2192
sg76
(lp2199
g1253
asbasbasbag69
(g85
g71
NtRp2200
(dp2201
g74
(dp2202
sg83
g2172
sg76
(lp2203
g69
(g90
g71
NtRp2204
(dp2205
g74
(dp2206
sg83
g2200
sg76
(lp2207
g69
(g70
g71
NtRp2208
(dp2209
g74
(dp2210
g82
I3
ssg83
g2204
sg76
(lp2211
g1266
asbasbasbag69
(g85
g71
NtRp2212
(dp2213
g74
(dp2214
sg83
g2172
sg76
(lp2215
g69
(g90
g71
NtRp2216
(dp2217
g74
(dp2218
sg83
g2212
sg76
(lp2219
g69
(g70
g71
NtRp2220
(dp2221
g74
(dp2222
g82
I3
ssg83
g2216
sg76
(lp2223
g1279
asbasbasbasbasbasbasbag69
(g85
g71
NtRp2224
(dp2225
g74
(dp2226
sg83
g1961
sg76
(lp2227
g69
(g90
g71
NtRp2228
(dp2229
g74
(dp2230
g94
g95
ssg83
g2224
sg76
(lp2231
g1569
asbag69
(g90
g71
NtRp2232
(dp2233
g74
(dp2234
g101
g102
ssg83
g2224
sg76
(lp2235
S':'
asbag69
(g90
g71
NtRp2236
(dp2237
g74
(dp2238
sg83
g2224
sg76
(lp2239
g69
(g70
g71
NtRp2240
(dp2241
g74
(dp2242
g82
I4
ssg83
g2236
sg76
(lp2243
g69
(g78
g71
NtRp2244
(dp2245
g74
(dp2246
g82
I3
ssg83
Nsg76
(lp2247
g69
(g85
g71
NtRp2248
(dp2249
g74
(dp2250
sg83
g2244
sg76
(lp2251
g69
(g90
g71
NtRp2252
(dp2253
g74
(dp2254
sg83
g2248
sg76
(lp2255
g69
(g70
g71
NtRp2256
(dp2257
g74
(dp2258
g82
I3
ssg83
g2252
sg76
(lp2259
S'2'
asbasbasbag69
(g85
g71
NtRp2260
(dp2261
g74
(dp2262
sg83
g2244
sg76
(lp2263
g69
(g90
g71
NtRp2264
(dp2265
g74
(dp2266
sg83
g2260
sg76
(lp2267
g69
(g70
g71
NtRp2268
(dp2269
g74
(dp2270
g82
I3
ssg83
g2264
sg76
(lp2271
S'3'
asbasbasbag69
(g85
g71
NtRp2272
(dp2273
g74
(dp2274
sg83
g2244
sg76
(lp2275
g69
(g90
g71
NtRp2276
(dp2277
g74
(dp2278
sg83
g2272
sg76
(lp2279
g69
(g70
g71
NtRp2280
(dp2281
g74
(dp2282
g82
I3
ssg83
g2276
sg76
(lp2283
S'2'
asbasbasbag69
(g85
g71
NtRp2284
(dp2285
g74
(dp2286
sg83
g2244
sg76
(lp2287
g69
(g90
g71
NtRp2288
(dp2289
g74
(dp2290
sg83
g2284
sg76
(lp2291
g69
(g70
g71
NtRp2292
(dp2293
g74
(dp2294
g82
I3
ssg83
g2288
sg76
(lp2295
S'datetime.datetime(2012, 12, 17, 15, 3, 30)'
p2296
asbasbasbag69
(g85
g71
NtRp2297
(dp2298
g74
(dp2299
sg83
g2244
sg76
(lp2300
g69
(g90
g71
NtRp2301
(dp2302
g74
(dp2303
sg83
g2297
sg76
(lp2304
g69
(g70
g71
NtRp2305
(dp2306
g74
(dp2307
g82
I3
ssg83
g2301
sg76
(lp2308
g1647
asbasbasbasbasbasbasbasbasbasbasbag69
(g85
g71
NtRp2309
(dp2310
g74
(dp2311
sg83
g79
sg76
(lp2312
g69
(g90
g71
NtRp2313
(dp2314
g74
(dp2315
g94
g95
ssg83
g2309
sg76
(lp2316
S'is_https'
p2317
asbag69
(g90
g71
NtRp2318
(dp2319
g74
(dp2320
g101
g102
ssg83
g2309
sg76
(lp2321
S':'
asbag69
(g90
g71
NtRp2322
(dp2323
g74
(dp2324
sg83
g2309
sg76
(lp2325
g69
(g70
g71
NtRp2326
(dp2327
g74
(dp2328
g82
I5
ssg83
g2322
sg76
(lp2329
g112
asbasbasbag69
(g85
g71
NtRp2330
(dp2331
g74
(dp2332
sg83
g79
sg76
(lp2333
g69
(g90
g71
NtRp2334
(dp2335
g74
(dp2336
g94
g95
ssg83
g2330
sg76
(lp2337
S'is_local'
p2338
asbag69
(g90
g71
NtRp2339
(dp2340
g74
(dp2341
g101
g102
ssg83
g2330
sg76
(lp2342
S':'
asbag69
(g90
g71
NtRp2343
(dp2344
g74
(dp2345
sg83
g2330
sg76
(lp2346
g69
(g70
g71
NtRp2347
(dp2348
g74
(dp2349
g82
I5
ssg83
g2343
sg76
(lp2350
g1756
asbasbasbag69
(g85
g71
NtRp2351
(dp2352
g74
(dp2353
sg83
g79
sg76
(lp2354
g69
(g90
g71
NtRp2355
(dp2356
g74
(dp2357
g94
g95
ssg83
g2351
sg76
(lp2358
S'is_restful'
p2359
asbag69
(g90
g71
NtRp2360
(dp2361
g74
(dp2362
g101
g102
ssg83
g2351
sg76
(lp2363
S':'
asbag69
(g90
g71
NtRp2364
(dp2365
g74
(dp2366
sg83
g2351
sg76
(lp2367
g69
(g70
g71
NtRp2368
(dp2369
g74
(dp2370
g82
I5
ssg83
g2364
sg76
(lp2371
g112
asbasbasbag69
(g85
g71
NtRp2372
(dp2373
g74
(dp2374
sg83
g79
sg76
(lp2375
g69
(g90
g71
NtRp2376
(dp2377
g74
(dp2378
g94
g95
ssg83
g2372
sg76
(lp2379
S'now'
p2380
asbag69
(g90
g71
NtRp2381
(dp2382
g74
(dp2383
g101
g102
ssg83
g2372
sg76
(lp2384
S':'
asbag69
(g90
g71
NtRp2385
(dp2386
g74
(dp2387
sg83
g2372
sg76
(lp2388
g69
(g70
g71
NtRp2389
(dp2390
g74
(dp2391
g82
I5
ssg83
g2385
sg76
(lp2392
S'datetime.datetime(2013, 4, 1, 12, 0, 10, 152099)'
p2393
asbasbasbag69
(g85
g71
NtRp2394
(dp2395
g74
(dp2396
sg83
g79
sg76
(lp2397
g69
(g90
g71
NtRp2398
(dp2399
g74
(dp2400
g94
g95
ssg83
g2394
sg76
(lp2401
S'post_vars'
p2402
asbag69
(g90
g71
NtRp2403
(dp2404
g74
(dp2405
g101
g102
ssg83
g2394
sg76
(lp2406
S':'
asbag69
(g90
g71
NtRp2407
(dp2408
g74
(dp2409
sg83
g2394
sg76
(lp2410
g69
(g70
g71
NtRp2411
(dp2412
g74
(dp2413
g82
I5
ssg83
g2407
sg76
(lp2414
g69
(g78
g71
NtRp2415
(dp2416
g74
(dp2417
g82
I4
ssg83
Nsg76
(lp2418
g69
(g85
g71
NtRp2419
(dp2420
g74
(dp2421
sg83
g2415
sg76
(lp2422
g69
(g90
g71
NtRp2423
(dp2424
g74
(dp2425
g94
g95
ssg83
g2419
sg76
(lp2426
S'gateway'
p2427
asbag69
(g90
g71
NtRp2428
(dp2429
g74
(dp2430
g101
g102
ssg83
g2419
sg76
(lp2431
S':'
asbag69
(g90
g71
NtRp2432
(dp2433
g74
(dp2434
sg83
g2419
sg76
(lp2435
g69
(g70
g71
NtRp2436
(dp2437
g74
(dp2438
g82
I4
ssg83
g2432
sg76
(lp2439
S'10.4.4.444'
p2440
asbasbasbag69
(g85
g71
NtRp2441
(dp2442
g74
(dp2443
sg83
g2415
sg76
(lp2444
g69
(g90
g71
NtRp2445
(dp2446
g74
(dp2447
g94
g95
ssg83
g2441
sg76
(lp2448
S'id_cliente'
p2449
asbag69
(g90
g71
NtRp2450
(dp2451
g74
(dp2452
g101
g102
ssg83
g2441
sg76
(lp2453
S':'
asbag69
(g90
g71
NtRp2454
(dp2455
g74
(dp2456
sg83
g2441
sg76
(lp2457
g69
(g70
g71
NtRp2458
(dp2459
g74
(dp2460
g82
I4
ssg83
g2454
sg76
(lp2461
S'69'
p2462
asbasbasbag69
(g85
g71
NtRp2463
(dp2464
g74
(dp2465
sg83
g2415
sg76
(lp2466
g69
(g90
g71
NtRp2467
(dp2468
g74
(dp2469
g94
g95
ssg83
g2463
sg76
(lp2470
S'id_distro'
p2471
asbag69
(g90
g71
NtRp2472
(dp2473
g74
(dp2474
g101
g102
ssg83
g2463
sg76
(lp2475
S':'
asbag69
(g90
g71
NtRp2476
(dp2477
g74
(dp2478
sg83
g2463
sg76
(lp2479
g69
(g70
g71
NtRp2480
(dp2481
g74
(dp2482
g82
I4
ssg83
g2476
sg76
(lp2483
S'6'
asbasbasbag69
(g85
g71
NtRp2484
(dp2485
g74
(dp2486
sg83
g2415
sg76
(lp2487
g69
(g90
g71
NtRp2488
(dp2489
g74
(dp2490
g94
g95
ssg83
g2484
sg76
(lp2491
S'id_servidor'
p2492
asbag69
(g90
g71
NtRp2493
(dp2494
g74
(dp2495
g101
g102
ssg83
g2484
sg76
(lp2496
S':'
asbag69
(g90
g71
NtRp2497
(dp2498
g74
(dp2499
sg83
g2484
sg76
(lp2500
g69
(g70
g71
NtRp2501
(dp2502
g74
(dp2503
g82
I4
ssg83
g2497
sg76
(lp2504
S'7'
asbasbasbag69
(g85
g71
NtRp2505
(dp2506
g74
(dp2507
sg83
g2415
sg76
(lp2508
g69
(g90
g71
NtRp2509
(dp2510
g74
(dp2511
g94
g95
ssg83
g2505
sg76
(lp2512
S'if1'
p2513
asbag69
(g90
g71
NtRp2514
(dp2515
g74
(dp2516
g101
g102
ssg83
g2505
sg76
(lp2517
S':'
asbag69
(g90
g71
NtRp2518
(dp2519
g74
(dp2520
sg83
g2505
sg76
(lp2521
g69
(g70
g71
NtRp2522
(dp2523
g74
(dp2524
g82
I4
ssg83
g2518
sg76
(lp2525
S''
asbasbasbag69
(g85
g71
NtRp2526
(dp2527
g74
(dp2528
sg83
g2415
sg76
(lp2529
g69
(g90
g71
NtRp2530
(dp2531
g74
(dp2532
g94
g95
ssg83
g2526
sg76
(lp2533
S'if2'
p2534
asbag69
(g90
g71
NtRp2535
(dp2536
g74
(dp2537
g101
g102
ssg83
g2526
sg76
(lp2538
S':'
asbag69
(g90
g71
NtRp2539
(dp2540
g74
(dp2541
sg83
g2526
sg76
(lp2542
g69
(g70
g71
NtRp2543
(dp2544
g74
(dp2545
g82
I4
ssg83
g2539
sg76
(lp2546
S''
asbasbasbag69
(g85
g71
NtRp2547
(dp2548
g74
(dp2549
sg83
g2415
sg76
(lp2550
g69
(g90
g71
NtRp2551
(dp2552
g74
(dp2553
g94
g95
ssg83
g2547
sg76
(lp2554
S'if3'
p2555
asbag69
(g90
g71
NtRp2556
(dp2557
g74
(dp2558
g101
g102
ssg83
g2547
sg76
(lp2559
S':'
asbag69
(g90
g71
NtRp2560
(dp2561
g74
(dp2562
sg83
g2547
sg76
(lp2563
g69
(g70
g71
NtRp2564
(dp2565
g74
(dp2566
g82
I4
ssg83
g2560
sg76
(lp2567
S''
asbasbasbag69
(g85
g71
NtRp2568
(dp2569
g74
(dp2570
sg83
g2415
sg76
(lp2571
g69
(g90
g71
NtRp2572
(dp2573
g74
(dp2574
g94
g95
ssg83
g2568
sg76
(lp2575
S'if4'
p2576
asbag69
(g90
g71
NtRp2577
(dp2578
g74
(dp2579
g101
g102
ssg83
g2568
sg76
(lp2580
S':'
asbag69
(g90
g71
NtRp2581
(dp2582
g74
(dp2583
sg83
g2568
sg76
(lp2584
g69
(g70
g71
NtRp2585
(dp2586
g74
(dp2587
g82
I4
ssg83
g2581
sg76
(lp2588
S''
asbasbasbag69
(g85
g71
NtRp2589
(dp2590
g74
(dp2591
sg83
g2415
sg76
(lp2592
g69
(g90
g71
NtRp2593
(dp2594
g74
(dp2595
g94
g95
ssg83
g2589
sg76
(lp2596
S'ip1'
p2597
asbag69
(g90
g71
NtRp2598
(dp2599
g74
(dp2600
g101
g102
ssg83
g2589
sg76
(lp2601
S':'
asbag69
(g90
g71
NtRp2602
(dp2603
g74
(dp2604
sg83
g2589
sg76
(lp2605
g69
(g70
g71
NtRp2606
(dp2607
g74
(dp2608
g82
I4
ssg83
g2602
sg76
(lp2609
S''
asbasbasbag69
(g85
g71
NtRp2610
(dp2611
g74
(dp2612
sg83
g2415
sg76
(lp2613
g69
(g90
g71
NtRp2614
(dp2615
g74
(dp2616
g94
g95
ssg83
g2610
sg76
(lp2617
S'ip2'
p2618
asbag69
(g90
g71
NtRp2619
(dp2620
g74
(dp2621
g101
g102
ssg83
g2610
sg76
(lp2622
S':'
asbag69
(g90
g71
NtRp2623
(dp2624
g74
(dp2625
sg83
g2610
sg76
(lp2626
g69
(g70
g71
NtRp2627
(dp2628
g74
(dp2629
g82
I4
ssg83
g2623
sg76
(lp2630
S''
asbasbasbag69
(g85
g71
NtRp2631
(dp2632
g74
(dp2633
sg83
g2415
sg76
(lp2634
g69
(g90
g71
NtRp2635
(dp2636
g74
(dp2637
g94
g95
ssg83
g2631
sg76
(lp2638
S'ip3'
p2639
asbag69
(g90
g71
NtRp2640
(dp2641
g74
(dp2642
g101
g102
ssg83
g2631
sg76
(lp2643
S':'
asbag69
(g90
g71
NtRp2644
(dp2645
g74
(dp2646
sg83
g2631
sg76
(lp2647
g69
(g70
g71
NtRp2648
(dp2649
g74
(dp2650
g82
I4
ssg83
g2644
sg76
(lp2651
S''
asbasbasbag69
(g85
g71
NtRp2652
(dp2653
g74
(dp2654
sg83
g2415
sg76
(lp2655
g69
(g90
g71
NtRp2656
(dp2657
g74
(dp2658
g94
g95
ssg83
g2652
sg76
(lp2659
S'ip4'
p2660
asbag69
(g90
g71
NtRp2661
(dp2662
g74
(dp2663
g101
g102
ssg83
g2652
sg76
(lp2664
S':'
asbag69
(g90
g71
NtRp2665
(dp2666
g74
(dp2667
sg83
g2652
sg76
(lp2668
g69
(g70
g71
NtRp2669
(dp2670
g74
(dp2671
g82
I4
ssg83
g2665
sg76
(lp2672
S''
asbasbasbag69
(g85
g71
NtRp2673
(dp2674
g74
(dp2675
sg83
g2415
sg76
(lp2676
g69
(g90
g71
NtRp2677
(dp2678
g74
(dp2679
g94
g95
ssg83
g2673
sg76
(lp2680
S'ip_chegada'
p2681
asbag69
(g90
g71
NtRp2682
(dp2683
g74
(dp2684
g101
g102
ssg83
g2673
sg76
(lp2685
S':'
asbag69
(g90
g71
NtRp2686
(dp2687
g74
(dp2688
sg83
g2673
sg76
(lp2689
g69
(g70
g71
NtRp2690
(dp2691
g74
(dp2692
g82
I4
ssg83
g2686
sg76
(lp2693
S'10.4.4.122'
p2694
asbasbasbag69
(g85
g71
NtRp2695
(dp2696
g74
(dp2697
sg83
g2415
sg76
(lp2698
g69
(g90
g71
NtRp2699
(dp2700
g74
(dp2701
g94
g95
ssg83
g2695
sg76
(lp2702
S'masc1'
p2703
asbag69
(g90
g71
NtRp2704
(dp2705
g74
(dp2706
g101
g102
ssg83
g2695
sg76
(lp2707
S':'
asbag69
(g90
g71
NtRp2708
(dp2709
g74
(dp2710
sg83
g2695
sg76
(lp2711
g69
(g70
g71
NtRp2712
(dp2713
g74
(dp2714
g82
I4
ssg83
g2708
sg76
(lp2715
S''
asbasbasbag69
(g85
g71
NtRp2716
(dp2717
g74
(dp2718
sg83
g2415
sg76
(lp2719
g69
(g90
g71
NtRp2720
(dp2721
g74
(dp2722
g94
g95
ssg83
g2716
sg76
(lp2723
S'masc2'
p2724
asbag69
(g90
g71
NtRp2725
(dp2726
g74
(dp2727
g101
g102
ssg83
g2716
sg76
(lp2728
S':'
asbag69
(g90
g71
NtRp2729
(dp2730
g74
(dp2731
sg83
g2716
sg76
(lp2732
g69
(g70
g71
NtRp2733
(dp2734
g74
(dp2735
g82
I4
ssg83
g2729
sg76
(lp2736
S''
asbasbasbag69
(g85
g71
NtRp2737
(dp2738
g74
(dp2739
sg83
g2415
sg76
(lp2740
g69
(g90
g71
NtRp2741
(dp2742
g74
(dp2743
g94
g95
ssg83
g2737
sg76
(lp2744
S'masc3'
p2745
asbag69
(g90
g71
NtRp2746
(dp2747
g74
(dp2748
g101
g102
ssg83
g2737
sg76
(lp2749
S':'
asbag69
(g90
g71
NtRp2750
(dp2751
g74
(dp2752
sg83
g2737
sg76
(lp2753
g69
(g70
g71
NtRp2754
(dp2755
g74
(dp2756
g82
I4
ssg83
g2750
sg76
(lp2757
S''
asbasbasbag69
(g85
g71
NtRp2758
(dp2759
g74
(dp2760
sg83
g2415
sg76
(lp2761
g69
(g90
g71
NtRp2762
(dp2763
g74
(dp2764
g94
g95
ssg83
g2758
sg76
(lp2765
S'masc4'
p2766
asbag69
(g90
g71
NtRp2767
(dp2768
g74
(dp2769
g101
g102
ssg83
g2758
sg76
(lp2770
S':'
asbag69
(g90
g71
NtRp2771
(dp2772
g74
(dp2773
sg83
g2758
sg76
(lp2774
g69
(g70
g71
NtRp2775
(dp2776
g74
(dp2777
g82
I4
ssg83
g2771
sg76
(lp2778
S''
asbasbasbag69
(g85
g71
NtRp2779
(dp2780
g74
(dp2781
sg83
g2415
sg76
(lp2782
g69
(g90
g71
NtRp2783
(dp2784
g74
(dp2785
g94
g95
ssg83
g2779
sg76
(lp2786
S'nome'
p2787
asbag69
(g90
g71
NtRp2788
(dp2789
g74
(dp2790
g101
g102
ssg83
g2779
sg76
(lp2791
S':'
asbag69
(g90
g71
NtRp2792
(dp2793
g74
(dp2794
sg83
g2779
sg76
(lp2795
g69
(g70
g71
NtRp2796
(dp2797
g74
(dp2798
g82
I4
ssg83
g2792
sg76
(lp2799
S'teste'
p2800
asbasbasbag69
(g85
g71
NtRp2801
(dp2802
g74
(dp2803
sg83
g2415
sg76
(lp2804
g69
(g90
g71
NtRp2805
(dp2806
g74
(dp2807
g94
g95
ssg83
g2801
sg76
(lp2808
S'obs1'
p2809
asbag69
(g90
g71
NtRp2810
(dp2811
g74
(dp2812
g101
g102
ssg83
g2801
sg76
(lp2813
S':'
asbag69
(g90
g71
NtRp2814
(dp2815
g74
(dp2816
sg83
g2801
sg76
(lp2817
g69
(g70
g71
NtRp2818
(dp2819
g74
(dp2820
g82
I4
ssg83
g2814
sg76
(lp2821
S''
asbasbasbag69
(g85
g71
NtRp2822
(dp2823
g74
(dp2824
sg83
g2415
sg76
(lp2825
g69
(g90
g71
NtRp2826
(dp2827
g74
(dp2828
g94
g95
ssg83
g2822
sg76
(lp2829
S'obs2'
p2830
asbag69
(g90
g71
NtRp2831
(dp2832
g74
(dp2833
g101
g102
ssg83
g2822
sg76
(lp2834
S':'
asbag69
(g90
g71
NtRp2835
(dp2836
g74
(dp2837
sg83
g2822
sg76
(lp2838
g69
(g70
g71
NtRp2839
(dp2840
g74
(dp2841
g82
I4
ssg83
g2835
sg76
(lp2842
S''
asbasbasbag69
(g85
g71
NtRp2843
(dp2844
g74
(dp2845
sg83
g2415
sg76
(lp2846
g69
(g90
g71
NtRp2847
(dp2848
g74
(dp2849
g94
g95
ssg83
g2843
sg76
(lp2850
S'obs3'
p2851
asbag69
(g90
g71
NtRp2852
(dp2853
g74
(dp2854
g101
g102
ssg83
g2843
sg76
(lp2855
S':'
asbag69
(g90
g71
NtRp2856
(dp2857
g74
(dp2858
sg83
g2843
sg76
(lp2859
g69
(g70
g71
NtRp2860
(dp2861
g74
(dp2862
g82
I4
ssg83
g2856
sg76
(lp2863
S''
asbasbasbag69
(g85
g71
NtRp2864
(dp2865
g74
(dp2866
sg83
g2415
sg76
(lp2867
g69
(g90
g71
NtRp2868
(dp2869
g74
(dp2870
g94
g95
ssg83
g2864
sg76
(lp2871
S'obs4'
p2872
asbag69
(g90
g71
NtRp2873
(dp2874
g74
(dp2875
g101
g102
ssg83
g2864
sg76
(lp2876
S':'
asbag69
(g90
g71
NtRp2877
(dp2878
g74
(dp2879
sg83
g2864
sg76
(lp2880
g69
(g70
g71
NtRp2881
(dp2882
g74
(dp2883
g82
I4
ssg83
g2877
sg76
(lp2884
S''
asbasbasbag69
(g85
g71
NtRp2885
(dp2886
g74
(dp2887
sg83
g2415
sg76
(lp2888
g69
(g90
g71
NtRp2889
(dp2890
g74
(dp2891
g94
g95
ssg83
g2885
sg76
(lp2892
S'obs_gerais'
p2893
asbag69
(g90
g71
NtRp2894
(dp2895
g74
(dp2896
g101
g102
ssg83
g2885
sg76
(lp2897
S':'
asbag69
(g90
g71
NtRp2898
(dp2899
g74
(dp2900
sg83
g2885
sg76
(lp2901
g69
(g70
g71
NtRp2902
(dp2903
g74
(dp2904
g82
I4
ssg83
g2898
sg76
(lp2905
S''
asbasbasbag69
(g85
g71
NtRp2906
(dp2907
g74
(dp2908
sg83
g2415
sg76
(lp2909
g69
(g90
g71
NtRp2910
(dp2911
g74
(dp2912
g94
g95
ssg83
g2906
sg76
(lp2913
S'porta_ssh'
p2914
asbag69
(g90
g71
NtRp2915
(dp2916
g74
(dp2917
g101
g102
ssg83
g2906
sg76
(lp2918
S':'
asbag69
(g90
g71
NtRp2919
(dp2920
g74
(dp2921
sg83
g2906
sg76
(lp2922
g69
(g70
g71
NtRp2923
(dp2924
g74
(dp2925
g82
I4
ssg83
g2919
sg76
(lp2926
S'22'
p2927
asbasbasbag69
(g85
g71
NtRp2928
(dp2929
g74
(dp2930
sg83
g2415
sg76
(lp2931
g69
(g90
g71
NtRp2932
(dp2933
g74
(dp2934
g94
g95
ssg83
g2928
sg76
(lp2935
S'rotas'
p2936
asbag69
(g90
g71
NtRp2937
(dp2938
g74
(dp2939
g101
g102
ssg83
g2928
sg76
(lp2940
S':'
asbag69
(g90
g71
NtRp2941
(dp2942
g74
(dp2943
sg83
g2928
sg76
(lp2944
g69
(g70
g71
NtRp2945
(dp2946
g74
(dp2947
g82
I4
ssg83
g2941
sg76
(lp2948
S''
asbasbasbag69
(g85
g71
NtRp2949
(dp2950
g74
(dp2951
sg83
g2415
sg76
(lp2952
g69
(g90
g71
NtRp2953
(dp2954
g74
(dp2955
g94
g95
ssg83
g2949
sg76
(lp2956
S'servicos'
p2957
asbag69
(g90
g71
NtRp2958
(dp2959
g74
(dp2960
g101
g102
ssg83
g2949
sg76
(lp2961
S':'
asbag69
(g90
g71
NtRp2962
(dp2963
g74
(dp2964
sg83
g2949
sg76
(lp2965
g69
(g70
g71
NtRp2966
(dp2967
g74
(dp2968
g82
I4
ssg83
g2962
sg76
(lp2969
S''
asbasbasbasbasbasbasbag69
(g85
g71
NtRp2970
(dp2971
g74
(dp2972
sg83
g79
sg76
(lp2973
g69
(g90
g71
NtRp2974
(dp2975
g74
(dp2976
g94
g95
ssg83
g2970
sg76
(lp2977
S'url'
p2978
asbag69
(g90
g71
NtRp2979
(dp2980
g74
(dp2981
g101
g102
ssg83
g2970
sg76
(lp2982
S':'
asbag69
(g90
g71
NtRp2983
(dp2984
g74
(dp2985
sg83
g2970
sg76
(lp2986
g69
(g70
g71
NtRp2987
(dp2988
g74
(dp2989
g82
I5
ssg83
g2983
sg76
(lp2990
g1301
asbasbasbag69
(g85
g71
NtRp2991
(dp2992
g74
(dp2993
sg83
g79
sg76
(lp2994
g69
(g90
g71
NtRp2995
(dp2996
g74
(dp2997
g94
g95
ssg83
g2991
sg76
(lp2998
S'utcnow'
p2999
asbag69
(g90
g71
NtRp3000
(dp3001
g74
(dp3002
g101
g102
ssg83
g2991
sg76
(lp3003
S':'
asbag69
(g90
g71
NtRp3004
(dp3005
g74
(dp3006
sg83
g2991
sg76
(lp3007
g69
(g70
g71
NtRp3008
(dp3009
g74
(dp3010
g82
I5
ssg83
g3004
sg76
(lp3011
S'datetime.datetime(2013, 4, 1, 15, 0, 10, 152180)'
p3012
asbasbasbag69
(g85
g71
NtRp3013
(dp3014
g74
(dp3015
sg83
g79
sg76
(lp3016
g69
(g90
g71
NtRp3017
(dp3018
g74
(dp3019
g94
g95
ssg83
g3013
sg76
(lp3020
S'uuid'
p3021
asbag69
(g90
g71
NtRp3022
(dp3023
g74
(dp3024
g101
g102
ssg83
g3013
sg76
(lp3025
S':'
asbag69
(g90
g71
NtRp3026
(dp3027
g74
(dp3028
sg83
g3013
sg76
(lp3029
g69
(g70
g71
NtRp3030
(dp3031
g74
(dp3032
g82
I5
ssg83
g3026
sg76
(lp3033
S'projeto/127.0.0.1.2013-04-01.12-00-10.20aee3ab-54a6-42ed-b58e-88cd1130cf99'
p3034
asbasbasbag69
(g85
g71
NtRp3035
(dp3036
g74
(dp3037
sg83
g79
sg76
(lp3038
g69
(g90
g71
NtRp3039
(dp3040
g74
(dp3041
g94
g95
ssg83
g3035
sg76
(lp3042
S'vars'
p3043
asbag69
(g90
g71
NtRp3044
(dp3045
g74
(dp3046
g101
g102
ssg83
g3035
sg76
(lp3047
S':'
asbag69
(g90
g71
NtRp3048
(dp3049
g74
(dp3050
sg83
g3035
sg76
(lp3051
g69
(g70
g71
NtRp3052
(dp3053
g74
(dp3054
g82
I5
ssg83
g3048
sg76
(lp3055
g69
(g78
g71
NtRp3056
(dp3057
g74
(dp3058
g82
I4
ssg83
Nsg76
(lp3059
g69
(g85
g71
NtRp3060
(dp3061
g74
(dp3062
sg83
g3056
sg76
(lp3063
g69
(g90
g71
NtRp3064
(dp3065
g74
(dp3066
g94
g95
ssg83
g3060
sg76
(lp3067
g2427
asbag69
(g90
g71
NtRp3068
(dp3069
g74
(dp3070
g101
g102
ssg83
g3060
sg76
(lp3071
S':'
asbag69
(g90
g71
NtRp3072
(dp3073
g74
(dp3074
sg83
g3060
sg76
(lp3075
g69
(g70
g71
NtRp3076
(dp3077
g74
(dp3078
g82
I4
ssg83
g3072
sg76
(lp3079
g2440
asbasbasbag69
(g85
g71
NtRp3080
(dp3081
g74
(dp3082
sg83
g3056
sg76
(lp3083
g69
(g90
g71
NtRp3084
(dp3085
g74
(dp3086
g94
g95
ssg83
g3080
sg76
(lp3087
g2449
asbag69
(g90
g71
NtRp3088
(dp3089
g74
(dp3090
g101
g102
ssg83
g3080
sg76
(lp3091
S':'
asbag69
(g90
g71
NtRp3092
(dp3093
g74
(dp3094
sg83
g3080
sg76
(lp3095
g69
(g70
g71
NtRp3096
(dp3097
g74
(dp3098
g82
I4
ssg83
g3092
sg76
(lp3099
g2462
asbasbasbag69
(g85
g71
NtRp3100
(dp3101
g74
(dp3102
sg83
g3056
sg76
(lp3103
g69
(g90
g71
NtRp3104
(dp3105
g74
(dp3106
g94
g95
ssg83
g3100
sg76
(lp3107
g2471
asbag69
(g90
g71
NtRp3108
(dp3109
g74
(dp3110
g101
g102
ssg83
g3100
sg76
(lp3111
S':'
asbag69
(g90
g71
NtRp3112
(dp3113
g74
(dp3114
sg83
g3100
sg76
(lp3115
g69
(g70
g71
NtRp3116
(dp3117
g74
(dp3118
g82
I4
ssg83
g3112
sg76
(lp3119
S'6'
asbasbasbag69
(g85
g71
NtRp3120
(dp3121
g74
(dp3122
sg83
g3056
sg76
(lp3123
g69
(g90
g71
NtRp3124
(dp3125
g74
(dp3126
g94
g95
ssg83
g3120
sg76
(lp3127
g2492
asbag69
(g90
g71
NtRp3128
(dp3129
g74
(dp3130
g101
g102
ssg83
g3120
sg76
(lp3131
S':'
asbag69
(g90
g71
NtRp3132
(dp3133
g74
(dp3134
sg83
g3120
sg76
(lp3135
g69
(g70
g71
NtRp3136
(dp3137
g74
(dp3138
g82
I4
ssg83
g3132
sg76
(lp3139
S'7'
asbasbasbag69
(g85
g71
NtRp3140
(dp3141
g74
(dp3142
sg83
g3056
sg76
(lp3143
g69
(g90
g71
NtRp3144
(dp3145
g74
(dp3146
g94
g95
ssg83
g3140
sg76
(lp3147
g2513
asbag69
(g90
g71
NtRp3148
(dp3149
g74
(dp3150
g101
g102
ssg83
g3140
sg76
(lp3151
S':'
asbag69
(g90
g71
NtRp3152
(dp3153
g74
(dp3154
sg83
g3140
sg76
(lp3155
g69
(g70
g71
NtRp3156
(dp3157
g74
(dp3158
g82
I4
ssg83
g3152
sg76
(lp3159
S''
asbasbasbag69
(g85
g71
NtRp3160
(dp3161
g74
(dp3162
sg83
g3056
sg76
(lp3163
g69
(g90
g71
NtRp3164
(dp3165
g74
(dp3166
g94
g95
ssg83
g3160
sg76
(lp3167
g2534
asbag69
(g90
g71
NtRp3168
(dp3169
g74
(dp3170
g101
g102
ssg83
g3160
sg76
(lp3171
S':'
asbag69
(g90
g71
NtRp3172
(dp3173
g74
(dp3174
sg83
g3160
sg76
(lp3175
g69
(g70
g71
NtRp3176
(dp3177
g74
(dp3178
g82
I4
ssg83
g3172
sg76
(lp3179
S''
asbasbasbag69
(g85
g71
NtRp3180
(dp3181
g74
(dp3182
sg83
g3056
sg76
(lp3183
g69
(g90
g71
NtRp3184
(dp3185
g74
(dp3186
g94
g95
ssg83
g3180
sg76
(lp3187
g2555
asbag69
(g90
g71
NtRp3188
(dp3189
g74
(dp3190
g101
g102
ssg83
g3180
sg76
(lp3191
S':'
asbag69
(g90
g71
NtRp3192
(dp3193
g74
(dp3194
sg83
g3180
sg76
(lp3195
g69
(g70
g71
NtRp3196
(dp3197
g74
(dp3198
g82
I4
ssg83
g3192
sg76
(lp3199
S''
asbasbasbag69
(g85
g71
NtRp3200
(dp3201
g74
(dp3202
sg83
g3056
sg76
(lp3203
g69
(g90
g71
NtRp3204
(dp3205
g74
(dp3206
g94
g95
ssg83
g3200
sg76
(lp3207
g2576
asbag69
(g90
g71
NtRp3208
(dp3209
g74
(dp3210
g101
g102
ssg83
g3200
sg76
(lp3211
S':'
asbag69
(g90
g71
NtRp3212
(dp3213
g74
(dp3214
sg83
g3200
sg76
(lp3215
g69
(g70
g71
NtRp3216
(dp3217
g74
(dp3218
g82
I4
ssg83
g3212
sg76
(lp3219
S''
asbasbasbag69
(g85
g71
NtRp3220
(dp3221
g74
(dp3222
sg83
g3056
sg76
(lp3223
g69
(g90
g71
NtRp3224
(dp3225
g74
(dp3226
g94
g95
ssg83
g3220
sg76
(lp3227
g2597
asbag69
(g90
g71
NtRp3228
(dp3229
g74
(dp3230
g101
g102
ssg83
g3220
sg76
(lp3231
S':'
asbag69
(g90
g71
NtRp3232
(dp3233
g74
(dp3234
sg83
g3220
sg76
(lp3235
g69
(g70
g71
NtRp3236
(dp3237
g74
(dp3238
g82
I4
ssg83
g3232
sg76
(lp3239
S''
asbasbasbag69
(g85
g71
NtRp3240
(dp3241
g74
(dp3242
sg83
g3056
sg76
(lp3243
g69
(g90
g71
NtRp3244
(dp3245
g74
(dp3246
g94
g95
ssg83
g3240
sg76
(lp3247
g2618
asbag69
(g90
g71
NtRp3248
(dp3249
g74
(dp3250
g101
g102
ssg83
g3240
sg76
(lp3251
S':'
asbag69
(g90
g71
NtRp3252
(dp3253
g74
(dp3254
sg83
g3240
sg76
(lp3255
g69
(g70
g71
NtRp3256
(dp3257
g74
(dp3258
g82
I4
ssg83
g3252
sg76
(lp3259
S''
asbasbasbag69
(g85
g71
NtRp3260
(dp3261
g74
(dp3262
sg83
g3056
sg76
(lp3263
g69
(g90
g71
NtRp3264
(dp3265
g74
(dp3266
g94
g95
ssg83
g3260
sg76
(lp3267
g2639
asbag69
(g90
g71
NtRp3268
(dp3269
g74
(dp3270
g101
g102
ssg83
g3260
sg76
(lp3271
S':'
asbag69
(g90
g71
NtRp3272
(dp3273
g74
(dp3274
sg83
g3260
sg76
(lp3275
g69
(g70
g71
NtRp3276
(dp3277
g74
(dp3278
g82
I4
ssg83
g3272
sg76
(lp3279
S''
asbasbasbag69
(g85
g71
NtRp3280
(dp3281
g74
(dp3282
sg83
g3056
sg76
(lp3283
g69
(g90
g71
NtRp3284
(dp3285
g74
(dp3286
g94
g95
ssg83
g3280
sg76
(lp3287
g2660
asbag69
(g90
g71
NtRp3288
(dp3289
g74
(dp3290
g101
g102
ssg83
g3280
sg76
(lp3291
S':'
asbag69
(g90
g71
NtRp3292
(dp3293
g74
(dp3294
sg83
g3280
sg76
(lp3295
g69
(g70
g71
NtRp3296
(dp3297
g74
(dp3298
g82
I4
ssg83
g3292
sg76
(lp3299
S''
asbasbasbag69
(g85
g71
NtRp3300
(dp3301
g74
(dp3302
sg83
g3056
sg76
(lp3303
g69
(g90
g71
NtRp3304
(dp3305
g74
(dp3306
g94
g95
ssg83
g3300
sg76
(lp3307
g2681
asbag69
(g90
g71
NtRp3308
(dp3309
g74
(dp3310
g101
g102
ssg83
g3300
sg76
(lp3311
S':'
asbag69
(g90
g71
NtRp3312
(dp3313
g74
(dp3314
sg83
g3300
sg76
(lp3315
g69
(g70
g71
NtRp3316
(dp3317
g74
(dp3318
g82
I4
ssg83
g3312
sg76
(lp3319
g2694
asbasbasbag69
(g85
g71
NtRp3320
(dp3321
g74
(dp3322
sg83
g3056
sg76
(lp3323
g69
(g90
g71
NtRp3324
(dp3325
g74
(dp3326
g94
g95
ssg83
g3320
sg76
(lp3327
g2703
asbag69
(g90
g71
NtRp3328
(dp3329
g74
(dp3330
g101
g102
ssg83
g3320
sg76
(lp3331
S':'
asbag69
(g90
g71
NtRp3332
(dp3333
g74
(dp3334
sg83
g3320
sg76
(lp3335
g69
(g70
g71
NtRp3336
(dp3337
g74
(dp3338
g82
I4
ssg83
g3332
sg76
(lp3339
S''
asbasbasbag69
(g85
g71
NtRp3340
(dp3341
g74
(dp3342
sg83
g3056
sg76
(lp3343
g69
(g90
g71
NtRp3344
(dp3345
g74
(dp3346
g94
g95
ssg83
g3340
sg76
(lp3347
g2724
asbag69
(g90
g71
NtRp3348
(dp3349
g74
(dp3350
g101
g102
ssg83
g3340
sg76
(lp3351
S':'
asbag69
(g90
g71
NtRp3352
(dp3353
g74
(dp3354
sg83
g3340
sg76
(lp3355
g69
(g70
g71
NtRp3356
(dp3357
g74
(dp3358
g82
I4
ssg83
g3352
sg76
(lp3359
S''
asbasbasbag69
(g85
g71
NtRp3360
(dp3361
g74
(dp3362
sg83
g3056
sg76
(lp3363
g69
(g90
g71
NtRp3364
(dp3365
g74
(dp3366
g94
g95
ssg83
g3360
sg76
(lp3367
g2745
asbag69
(g90
g71
NtRp3368
(dp3369
g74
(dp3370
g101
g102
ssg83
g3360
sg76
(lp3371
S':'
asbag69
(g90
g71
NtRp3372
(dp3373
g74
(dp3374
sg83
g3360
sg76
(lp3375
g69
(g70
g71
NtRp3376
(dp3377
g74
(dp3378
g82
I4
ssg83
g3372
sg76
(lp3379
S''
asbasbasbag69
(g85
g71
NtRp3380
(dp3381
g74
(dp3382
sg83
g3056
sg76
(lp3383
g69
(g90
g71
NtRp3384
(dp3385
g74
(dp3386
g94
g95
ssg83
g3380
sg76
(lp3387
g2766
asbag69
(g90
g71
NtRp3388
(dp3389
g74
(dp3390
g101
g102
ssg83
g3380
sg76
(lp3391
S':'
asbag69
(g90
g71
NtRp3392
(dp3393
g74
(dp3394
sg83
g3380
sg76
(lp3395
g69
(g70
g71
NtRp3396
(dp3397
g74
(dp3398
g82
I4
ssg83
g3392
sg76
(lp3399
S''
asbasbasbag69
(g85
g71
NtRp3400
(dp3401
g74
(dp3402
sg83
g3056
sg76
(lp3403
g69
(g90
g71
NtRp3404
(dp3405
g74
(dp3406
g94
g95
ssg83
g3400
sg76
(lp3407
g2787
asbag69
(g90
g71
NtRp3408
(dp3409
g74
(dp3410
g101
g102
ssg83
g3400
sg76
(lp3411
S':'
asbag69
(g90
g71
NtRp3412
(dp3413
g74
(dp3414
sg83
g3400
sg76
(lp3415
g69
(g70
g71
NtRp3416
(dp3417
g74
(dp3418
g82
I4
ssg83
g3412
sg76
(lp3419
g2800
asbasbasbag69
(g85
g71
NtRp3420
(dp3421
g74
(dp3422
sg83
g3056
sg76
(lp3423
g69
(g90
g71
NtRp3424
(dp3425
g74
(dp3426
g94
g95
ssg83
g3420
sg76
(lp3427
g2809
asbag69
(g90
g71
NtRp3428
(dp3429
g74
(dp3430
g101
g102
ssg83
g3420
sg76
(lp3431
S':'
asbag69
(g90
g71
NtRp3432
(dp3433
g74
(dp3434
sg83
g3420
sg76
(lp3435
g69
(g70
g71
NtRp3436
(dp3437
g74
(dp3438
g82
I4
ssg83
g3432
sg76
(lp3439
S''
asbasbasbag69
(g85
g71
NtRp3440
(dp3441
g74
(dp3442
sg83
g3056
sg76
(lp3443
g69
(g90
g71
NtRp3444
(dp3445
g74
(dp3446
g94
g95
ssg83
g3440
sg76
(lp3447
g2830
asbag69
(g90
g71
NtRp3448
(dp3449
g74
(dp3450
g101
g102
ssg83
g3440
sg76
(lp3451
S':'
asbag69
(g90
g71
NtRp3452
(dp3453
g74
(dp3454
sg83
g3440
sg76
(lp3455
g69
(g70
g71
NtRp3456
(dp3457
g74
(dp3458
g82
I4
ssg83
g3452
sg76
(lp3459
S''
asbasbasbag69
(g85
g71
NtRp3460
(dp3461
g74
(dp3462
sg83
g3056
sg76
(lp3463
g69
(g90
g71
NtRp3464
(dp3465
g74
(dp3466
g94
g95
ssg83
g3460
sg76
(lp3467
g2851
asbag69
(g90
g71
NtRp3468
(dp3469
g74
(dp3470
g101
g102
ssg83
g3460
sg76
(lp3471
S':'
asbag69
(g90
g71
NtRp3472
(dp3473
g74
(dp3474
sg83
g3460
sg76
(lp3475
g69
(g70
g71
NtRp3476
(dp3477
g74
(dp3478
g82
I4
ssg83
g3472
sg76
(lp3479
S''
asbasbasbag69
(g85
g71
NtRp3480
(dp3481
g74
(dp3482
sg83
g3056
sg76
(lp3483
g69
(g90
g71
NtRp3484
(dp3485
g74
(dp3486
g94
g95
ssg83
g3480
sg76
(lp3487
g2872
asbag69
(g90
g71
NtRp3488
(dp3489
g74
(dp3490
g101
g102
ssg83
g3480
sg76
(lp3491
S':'
asbag69
(g90
g71
NtRp3492
(dp3493
g74
(dp3494
sg83
g3480
sg76
(lp3495
g69
(g70
g71
NtRp3496
(dp3497
g74
(dp3498
g82
I4
ssg83
g3492
sg76
(lp3499
S''
asbasbasbag69
(g85
g71
NtRp3500
(dp3501
g74
(dp3502
sg83
g3056
sg76
(lp3503
g69
(g90
g71
NtRp3504
(dp3505
g74
(dp3506
g94
g95
ssg83
g3500
sg76
(lp3507
g2893
asbag69
(g90
g71
NtRp3508
(dp3509
g74
(dp3510
g101
g102
ssg83
g3500
sg76
(lp3511
S':'
asbag69
(g90
g71
NtRp3512
(dp3513
g74
(dp3514
sg83
g3500
sg76
(lp3515
g69
(g70
g71
NtRp3516
(dp3517
g74
(dp3518
g82
I4
ssg83
g3512
sg76
(lp3519
S''
asbasbasbag69
(g85
g71
NtRp3520
(dp3521
g74
(dp3522
sg83
g3056
sg76
(lp3523
g69
(g90
g71
NtRp3524
(dp3525
g74
(dp3526
g94
g95
ssg83
g3520
sg76
(lp3527
g2914
asbag69
(g90
g71
NtRp3528
(dp3529
g74
(dp3530
g101
g102
ssg83
g3520
sg76
(lp3531
S':'
asbag69
(g90
g71
NtRp3532
(dp3533
g74
(dp3534
sg83
g3520
sg76
(lp3535
g69
(g70
g71
NtRp3536
(dp3537
g74
(dp3538
g82
I4
ssg83
g3532
sg76
(lp3539
g2927
asbasbasbag69
(g85
g71
NtRp3540
(dp3541
g74
(dp3542
sg83
g3056
sg76
(lp3543
g69
(g90
g71
NtRp3544
(dp3545
g74
(dp3546
g94
g95
ssg83
g3540
sg76
(lp3547
g2936
asbag69
(g90
g71
NtRp3548
(dp3549
g74
(dp3550
g101
g102
ssg83
g3540
sg76
(lp3551
S':'
asbag69
(g90
g71
NtRp3552
(dp3553
g74
(dp3554
sg83
g3540
sg76
(lp3555
g69
(g70
g71
NtRp3556
(dp3557
g74
(dp3558
g82
I4
ssg83
g3552
sg76
(lp3559
S''
asbasbasbag69
(g85
g71
NtRp3560
(dp3561
g74
(dp3562
sg83
g3056
sg76
(lp3563
g69
(g90
g71
NtRp3564
(dp3565
g74
(dp3566
g94
g95
ssg83
g3560
sg76
(lp3567
g2957
asbag69
(g90
g71
NtRp3568
(dp3569
g74
(dp3570
g101
g102
ssg83
g3560
sg76
(lp3571
S':'
asbag69
(g90
g71
NtRp3572
(dp3573
g74
(dp3574
sg83
g3560
sg76
(lp3575
g69
(g70
g71
NtRp3576
(dp3577
g74
(dp3578
g82
I4
ssg83
g3572
sg76
(lp3579
S''
asbasbasbasbasbasbasbag69
(g85
g71
NtRp3580
(dp3581
g74
(dp3582
sg83
g79
sg76
(lp3583
g69
(g90
g71
NtRp3584
(dp3585
g74
(dp3586
g94
g95
ssg83
g3580
sg76
(lp3587
S'wsgi'
p3588
asbag69
(g90
g71
NtRp3589
(dp3590
g74
(dp3591
g101
g102
ssg83
g3580
sg76
(lp3592
S':'
asbag69
(g90
g71
NtRp3593
(dp3594
g74
(dp3595
sg83
g3580
sg76
(lp3596
g69
(g70
g71
NtRp3597
(dp3598
g74
(dp3599
g82
I5
ssg83
g3593
sg76
(lp3600
g69
(g78
g71
NtRp3601
(dp3602
g74
(dp3603
g82
I4
ssg83
Nsg76
(lp3604
g69
(g85
g71
NtRp3605
(dp3606
g74
(dp3607
sg83
g3601
sg76
(lp3608
g69
(g90
g71
NtRp3609
(dp3610
g74
(dp3611
g94
g95
ssg83
g3605
sg76
(lp3612
S'environ'
p3613
asbag69
(g90
g71
NtRp3614
(dp3615
g74
(dp3616
g101
g102
ssg83
g3605
sg76
(lp3617
S':'
asbag69
(g90
g71
NtRp3618
(dp3619
g74
(dp3620
sg83
g3605
sg76
(lp3621
g69
(g70
g71
NtRp3622
(dp3623
g74
(dp3624
g82
I4
ssg83
g3618
sg76
(lp3625
g69
(g78
g71
NtRp3626
(dp3627
g74
(dp3628
g82
I3
ssg83
Nsg76
(lp3629
g69
(g85
g71
NtRp3630
(dp3631
g74
(dp3632
sg83
g3626
sg76
(lp3633
g69
(g90
g71
NtRp3634
(dp3635
g74
(dp3636
g94
g95
ssg83
g3630
sg76
(lp3637
S'CONTENT_LENGTH'
p3638
asbag69
(g90
g71
NtRp3639
(dp3640
g74
(dp3641
g101
g102
ssg83
g3630
sg76
(lp3642
S':'
asbag69
(g90
g71
NtRp3643
(dp3644
g74
(dp3645
sg83
g3630
sg76
(lp3646
g69
(g70
g71
NtRp3647
(dp3648
g74
(dp3649
g82
I3
ssg83
g3643
sg76
(lp3650
g789
asbasbasbag69
(g85
g71
NtRp3651
(dp3652
g74
(dp3653
sg83
g3626
sg76
(lp3654
g69
(g90
g71
NtRp3655
(dp3656
g74
(dp3657
g94
g95
ssg83
g3651
sg76
(lp3658
S'CONTENT_TYPE'
p3659
asbag69
(g90
g71
NtRp3660
(dp3661
g74
(dp3662
g101
g102
ssg83
g3651
sg76
(lp3663
S':'
asbag69
(g90
g71
NtRp3664
(dp3665
g74
(dp3666
sg83
g3651
sg76
(lp3667
g69
(g70
g71
NtRp3668
(dp3669
g74
(dp3670
g82
I3
ssg83
g3664
sg76
(lp3671
g811
asbasbasbag69
(g85
g71
NtRp3672
(dp3673
g74
(dp3674
sg83
g3626
sg76
(lp3675
g69
(g90
g71
NtRp3676
(dp3677
g74
(dp3678
g94
g95
ssg83
g3672
sg76
(lp3679
S'HTTP_ACCEPT'
p3680
asbag69
(g90
g71
NtRp3681
(dp3682
g74
(dp3683
g101
g102
ssg83
g3672
sg76
(lp3684
S':'
asbag69
(g90
g71
NtRp3685
(dp3686
g74
(dp3687
sg83
g3672
sg76
(lp3688
g69
(g70
g71
NtRp3689
(dp3690
g74
(dp3691
g82
I3
ssg83
g3685
sg76
(lp3692
g898
asbasbasbag69
(g85
g71
NtRp3693
(dp3694
g74
(dp3695
sg83
g3626
sg76
(lp3696
g69
(g90
g71
NtRp3697
(dp3698
g74
(dp3699
g94
g95
ssg83
g3693
sg76
(lp3700
S'HTTP_ACCEPT_CHARSET'
p3701
asbag69
(g90
g71
NtRp3702
(dp3703
g74
(dp3704
g101
g102
ssg83
g3693
sg76
(lp3705
S':'
asbag69
(g90
g71
NtRp3706
(dp3707
g74
(dp3708
sg83
g3693
sg76
(lp3709
g69
(g70
g71
NtRp3710
(dp3711
g74
(dp3712
g82
I3
ssg83
g3706
sg76
(lp3713
g920
asbasbasbag69
(g85
g71
NtRp3714
(dp3715
g74
(dp3716
sg83
g3626
sg76
(lp3717
g69
(g90
g71
NtRp3718
(dp3719
g74
(dp3720
g94
g95
ssg83
g3714
sg76
(lp3721
S'HTTP_ACCEPT_ENCODING'
p3722
asbag69
(g90
g71
NtRp3723
(dp3724
g74
(dp3725
g101
g102
ssg83
g3714
sg76
(lp3726
S':'
asbag69
(g90
g71
NtRp3727
(dp3728
g74
(dp3729
sg83
g3714
sg76
(lp3730
g69
(g70
g71
NtRp3731
(dp3732
g74
(dp3733
g82
I3
ssg83
g3727
sg76
(lp3734
g942
asbasbasbag69
(g85
g71
NtRp3735
(dp3736
g74
(dp3737
sg83
g3626
sg76
(lp3738
g69
(g90
g71
NtRp3739
(dp3740
g74
(dp3741
g94
g95
ssg83
g3735
sg76
(lp3742
S'HTTP_ACCEPT_LANGUAGE'
p3743
asbag69
(g90
g71
NtRp3744
(dp3745
g74
(dp3746
g101
g102
ssg83
g3735
sg76
(lp3747
S':'
asbag69
(g90
g71
NtRp3748
(dp3749
g74
(dp3750
sg83
g3735
sg76
(lp3751
g69
(g70
g71
NtRp3752
(dp3753
g74
(dp3754
g82
I3
ssg83
g3748
sg76
(lp3755
g964
asbasbasbag69
(g85
g71
NtRp3756
(dp3757
g74
(dp3758
sg83
g3626
sg76
(lp3759
g69
(g90
g71
NtRp3760
(dp3761
g74
(dp3762
g94
g95
ssg83
g3756
sg76
(lp3763
S'HTTP_CACHE_CONTROL'
p3764
asbag69
(g90
g71
NtRp3765
(dp3766
g74
(dp3767
g101
g102
ssg83
g3756
sg76
(lp3768
S':'
asbag69
(g90
g71
NtRp3769
(dp3770
g74
(dp3771
sg83
g3756
sg76
(lp3772
g69
(g70
g71
NtRp3773
(dp3774
g74
(dp3775
g82
I3
ssg83
g3769
sg76
(lp3776
g986
asbasbasbag69
(g85
g71
NtRp3777
(dp3778
g74
(dp3779
sg83
g3626
sg76
(lp3780
g69
(g90
g71
NtRp3781
(dp3782
g74
(dp3783
g94
g95
ssg83
g3777
sg76
(lp3784
S'HTTP_CONNECTION'
p3785
asbag69
(g90
g71
NtRp3786
(dp3787
g74
(dp3788
g101
g102
ssg83
g3777
sg76
(lp3789
S':'
asbag69
(g90
g71
NtRp3790
(dp3791
g74
(dp3792
sg83
g3777
sg76
(lp3793
g69
(g70
g71
NtRp3794
(dp3795
g74
(dp3796
g82
I3
ssg83
g3790
sg76
(lp3797
g1008
asbasbasbag69
(g85
g71
NtRp3798
(dp3799
g74
(dp3800
sg83
g3626
sg76
(lp3801
g69
(g90
g71
NtRp3802
(dp3803
g74
(dp3804
g94
g95
ssg83
g3798
sg76
(lp3805
S'HTTP_CONTENT_LENGTH'
p3806
asbag69
(g90
g71
NtRp3807
(dp3808
g74
(dp3809
g101
g102
ssg83
g3798
sg76
(lp3810
S':'
asbag69
(g90
g71
NtRp3811
(dp3812
g74
(dp3813
sg83
g3798
sg76
(lp3814
g69
(g70
g71
NtRp3815
(dp3816
g74
(dp3817
g82
I3
ssg83
g3811
sg76
(lp3818
g789
asbasbasbag69
(g85
g71
NtRp3819
(dp3820
g74
(dp3821
sg83
g3626
sg76
(lp3822
g69
(g90
g71
NtRp3823
(dp3824
g74
(dp3825
g94
g95
ssg83
g3819
sg76
(lp3826
S'HTTP_CONTENT_TYPE'
p3827
asbag69
(g90
g71
NtRp3828
(dp3829
g74
(dp3830
g101
g102
ssg83
g3819
sg76
(lp3831
S':'
asbag69
(g90
g71
NtRp3832
(dp3833
g74
(dp3834
sg83
g3819
sg76
(lp3835
g69
(g70
g71
NtRp3836
(dp3837
g74
(dp3838
g82
I3
ssg83
g3832
sg76
(lp3839
g811
asbasbasbag69
(g85
g71
NtRp3840
(dp3841
g74
(dp3842
sg83
g3626
sg76
(lp3843
g69
(g90
g71
NtRp3844
(dp3845
g74
(dp3846
g94
g95
ssg83
g3840
sg76
(lp3847
S'HTTP_COOKIE'
p3848
asbag69
(g90
g71
NtRp3849
(dp3850
g74
(dp3851
g101
g102
ssg83
g3840
sg76
(lp3852
S':'
asbag69
(g90
g71
NtRp3853
(dp3854
g74
(dp3855
sg83
g3840
sg76
(lp3856
g69
(g70
g71
NtRp3857
(dp3858
g74
(dp3859
g82
I3
ssg83
g3853
sg76
(lp3860
g1072
asbasbasbag69
(g85
g71
NtRp3861
(dp3862
g74
(dp3863
sg83
g3626
sg76
(lp3864
g69
(g90
g71
NtRp3865
(dp3866
g74
(dp3867
g94
g95
ssg83
g3861
sg76
(lp3868
S'HTTP_HOST'
p3869
asbag69
(g90
g71
NtRp3870
(dp3871
g74
(dp3872
g101
g102
ssg83
g3861
sg76
(lp3873
S':'
asbag69
(g90
g71
NtRp3874
(dp3875
g74
(dp3876
sg83
g3861
sg76
(lp3877
g69
(g70
g71
NtRp3878
(dp3879
g74
(dp3880
g82
I3
ssg83
g3874
sg76
(lp3881
g1094
asbasbasbag69
(g85
g71
NtRp3882
(dp3883
g74
(dp3884
sg83
g3626
sg76
(lp3885
g69
(g90
g71
NtRp3886
(dp3887
g74
(dp3888
g94
g95
ssg83
g3882
sg76
(lp3889
S'HTTP_ORIGIN'
p3890
asbag69
(g90
g71
NtRp3891
(dp3892
g74
(dp3893
g101
g102
ssg83
g3882
sg76
(lp3894
S':'
asbag69
(g90
g71
NtRp3895
(dp3896
g74
(dp3897
sg83
g3882
sg76
(lp3898
g69
(g70
g71
NtRp3899
(dp3900
g74
(dp3901
g82
I3
ssg83
g3895
sg76
(lp3902
g1116
asbasbasbag69
(g85
g71
NtRp3903
(dp3904
g74
(dp3905
sg83
g3626
sg76
(lp3906
g69
(g90
g71
NtRp3907
(dp3908
g74
(dp3909
g94
g95
ssg83
g3903
sg76
(lp3910
S'HTTP_REFERER'
p3911
asbag69
(g90
g71
NtRp3912
(dp3913
g74
(dp3914
g101
g102
ssg83
g3903
sg76
(lp3915
S':'
asbag69
(g90
g71
NtRp3916
(dp3917
g74
(dp3918
sg83
g3903
sg76
(lp3919
g69
(g70
g71
NtRp3920
(dp3921
g74
(dp3922
g82
I3
ssg83
g3916
sg76
(lp3923
g1138
asbasbasbag69
(g85
g71
NtRp3924
(dp3925
g74
(dp3926
sg83
g3626
sg76
(lp3927
g69
(g90
g71
NtRp3928
(dp3929
g74
(dp3930
g94
g95
ssg83
g3924
sg76
(lp3931
S'HTTP_USER_AGENT'
p3932
asbag69
(g90
g71
NtRp3933
(dp3934
g74
(dp3935
g101
g102
ssg83
g3924
sg76
(lp3936
S':'
asbag69
(g90
g71
NtRp3937
(dp3938
g74
(dp3939
sg83
g3924
sg76
(lp3940
g69
(g70
g71
NtRp3941
(dp3942
g74
(dp3943
g82
I3
ssg83
g3937
sg76
(lp3944
g1160
asbasbasbag69
(g85
g71
NtRp3945
(dp3946
g74
(dp3947
sg83
g3626
sg76
(lp3948
g69
(g90
g71
NtRp3949
(dp3950
g74
(dp3951
g94
g95
ssg83
g3945
sg76
(lp3952
S'PATH_INFO'
p3953
asbag69
(g90
g71
NtRp3954
(dp3955
g74
(dp3956
g101
g102
ssg83
g3945
sg76
(lp3957
S':'
asbag69
(g90
g71
NtRp3958
(dp3959
g74
(dp3960
sg83
g3945
sg76
(lp3961
g69
(g70
g71
NtRp3962
(dp3963
g74
(dp3964
g82
I3
ssg83
g3958
sg76
(lp3965
g1301
asbasbasbag69
(g85
g71
NtRp3966
(dp3967
g74
(dp3968
sg83
g3626
sg76
(lp3969
g69
(g90
g71
NtRp3970
(dp3971
g74
(dp3972
g94
g95
ssg83
g3966
sg76
(lp3973
S'QUERY_STRING'
p3974
asbag69
(g90
g71
NtRp3975
(dp3976
g74
(dp3977
g101
g102
ssg83
g3966
sg76
(lp3978
S':'
asbag69
(g90
g71
NtRp3979
(dp3980
g74
(dp3981
sg83
g3966
sg76
(lp3982
g69
(g70
g71
NtRp3983
(dp3984
g74
(dp3985
g82
I3
ssg83
g3979
sg76
(lp3986
S''
asbasbasbag69
(g85
g71
NtRp3987
(dp3988
g74
(dp3989
sg83
g3626
sg76
(lp3990
g69
(g90
g71
NtRp3991
(dp3992
g74
(dp3993
g94
g95
ssg83
g3987
sg76
(lp3994
S'REMOTE_ADDR'
p3995
asbag69
(g90
g71
NtRp3996
(dp3997
g74
(dp3998
g101
g102
ssg83
g3987
sg76
(lp3999
S':'
asbag69
(g90
g71
NtRp4000
(dp4001
g74
(dp4002
sg83
g3987
sg76
(lp4003
g69
(g70
g71
NtRp4004
(dp4005
g74
(dp4006
g82
I3
ssg83
g4000
sg76
(lp4007
g224
asbasbasbag69
(g85
g71
NtRp4008
(dp4009
g74
(dp4010
sg83
g3626
sg76
(lp4011
g69
(g90
g71
NtRp4012
(dp4013
g74
(dp4014
g94
g95
ssg83
g4008
sg76
(lp4015
S'REMOTE_PORT'
p4016
asbag69
(g90
g71
NtRp4017
(dp4018
g74
(dp4019
g101
g102
ssg83
g4008
sg76
(lp4020
S':'
asbag69
(g90
g71
NtRp4021
(dp4022
g74
(dp4023
sg83
g4008
sg76
(lp4024
g69
(g70
g71
NtRp4025
(dp4026
g74
(dp4027
g82
I3
ssg83
g4021
sg76
(lp4028
g1365
asbasbasbag69
(g85
g71
NtRp4029
(dp4030
g74
(dp4031
sg83
g3626
sg76
(lp4032
g69
(g90
g71
NtRp4033
(dp4034
g74
(dp4035
g94
g95
ssg83
g4029
sg76
(lp4036
S'REQUEST_METHOD'
p4037
asbag69
(g90
g71
NtRp4038
(dp4039
g74
(dp4040
g101
g102
ssg83
g4029
sg76
(lp4041
S':'
asbag69
(g90
g71
NtRp4042
(dp4043
g74
(dp4044
sg83
g4029
sg76
(lp4045
g69
(g70
g71
NtRp4046
(dp4047
g74
(dp4048
g82
I3
ssg83
g4042
sg76
(lp4049
g1387
asbasbasbag69
(g85
g71
NtRp4050
(dp4051
g74
(dp4052
sg83
g3626
sg76
(lp4053
g69
(g90
g71
NtRp4054
(dp4055
g74
(dp4056
g94
g95
ssg83
g4050
sg76
(lp4057
S'REQUEST_URI'
p4058
asbag69
(g90
g71
NtRp4059
(dp4060
g74
(dp4061
g101
g102
ssg83
g4050
sg76
(lp4062
S':'
asbag69
(g90
g71
NtRp4063
(dp4064
g74
(dp4065
sg83
g4050
sg76
(lp4066
g69
(g70
g71
NtRp4067
(dp4068
g74
(dp4069
g82
I3
ssg83
g4063
sg76
(lp4070
g1409
asbasbasbag69
(g85
g71
NtRp4071
(dp4072
g74
(dp4073
sg83
g3626
sg76
(lp4074
g69
(g90
g71
NtRp4075
(dp4076
g74
(dp4077
g94
g95
ssg83
g4071
sg76
(lp4078
S'SCRIPT_NAME'
p4079
asbag69
(g90
g71
NtRp4080
(dp4081
g74
(dp4082
g101
g102
ssg83
g4071
sg76
(lp4083
S':'
asbag69
(g90
g71
NtRp4084
(dp4085
g74
(dp4086
sg83
g4071
sg76
(lp4087
g69
(g70
g71
NtRp4088
(dp4089
g74
(dp4090
g82
I3
ssg83
g4084
sg76
(lp4091
S''
asbasbasbag69
(g85
g71
NtRp4092
(dp4093
g74
(dp4094
sg83
g3626
sg76
(lp4095
g69
(g90
g71
NtRp4096
(dp4097
g74
(dp4098
g94
g95
ssg83
g4092
sg76
(lp4099
S'SERVER_NAME'
p4100
asbag69
(g90
g71
NtRp4101
(dp4102
g74
(dp4103
g101
g102
ssg83
g4092
sg76
(lp4104
S':'
asbag69
(g90
g71
NtRp4105
(dp4106
g74
(dp4107
sg83
g4092
sg76
(lp4108
g69
(g70
g71
NtRp4109
(dp4110
g74
(dp4111
g82
I3
ssg83
g4105
sg76
(lp4112
g1452
asbasbasbag69
(g85
g71
NtRp4113
(dp4114
g74
(dp4115
sg83
g3626
sg76
(lp4116
g69
(g90
g71
NtRp4117
(dp4118
g74
(dp4119
g94
g95
ssg83
g4113
sg76
(lp4120
S'SERVER_PORT'
p4121
asbag69
(g90
g71
NtRp4122
(dp4123
g74
(dp4124
g101
g102
ssg83
g4113
sg76
(lp4125
S':'
asbag69
(g90
g71
NtRp4126
(dp4127
g74
(dp4128
sg83
g4113
sg76
(lp4129
g69
(g70
g71
NtRp4130
(dp4131
g74
(dp4132
g82
I3
ssg83
g4126
sg76
(lp4133
g1474
asbasbasbag69
(g85
g71
NtRp4134
(dp4135
g74
(dp4136
sg83
g3626
sg76
(lp4137
g69
(g90
g71
NtRp4138
(dp4139
g74
(dp4140
g94
g95
ssg83
g4134
sg76
(lp4141
S'SERVER_PROTOCOL'
p4142
asbag69
(g90
g71
NtRp4143
(dp4144
g74
(dp4145
g101
g102
ssg83
g4134
sg76
(lp4146
S':'
asbag69
(g90
g71
NtRp4147
(dp4148
g74
(dp4149
sg83
g4134
sg76
(lp4150
g69
(g70
g71
NtRp4151
(dp4152
g74
(dp4153
g82
I3
ssg83
g4147
sg76
(lp4154
g1496
asbasbasbag69
(g85
g71
NtRp4155
(dp4156
g74
(dp4157
sg83
g3626
sg76
(lp4158
g69
(g90
g71
NtRp4159
(dp4160
g74
(dp4161
g94
g95
ssg83
g4155
sg76
(lp4162
S'SERVER_SOFTWARE'
p4163
asbag69
(g90
g71
NtRp4164
(dp4165
g74
(dp4166
g101
g102
ssg83
g4155
sg76
(lp4167
S':'
asbag69
(g90
g71
NtRp4168
(dp4169
g74
(dp4170
sg83
g4155
sg76
(lp4171
g69
(g70
g71
NtRp4172
(dp4173
g74
(dp4174
g82
I3
ssg83
g4168
sg76
(lp4175
g1518
asbasbasbag69
(g85
g71
NtRp4176
(dp4177
g74
(dp4178
sg83
g3626
sg76
(lp4179
g69
(g90
g71
NtRp4180
(dp4181
g74
(dp4182
g94
g95
ssg83
g4176
sg76
(lp4183
S'WEB2PY_ORIGINAL_URI'
p4184
asbag69
(g90
g71
NtRp4185
(dp4186
g74
(dp4187
g101
g102
ssg83
g4176
sg76
(lp4188
S':'
asbag69
(g90
g71
NtRp4189
(dp4190
g74
(dp4191
sg83
g4176
sg76
(lp4192
g69
(g70
g71
NtRp4193
(dp4194
g74
(dp4195
g82
I3
ssg83
g4189
sg76
(lp4196
g1301
asbasbasbag69
(g85
g71
NtRp4197
(dp4198
g74
(dp4199
sg83
g3626
sg76
(lp4200
g69
(g90
g71
NtRp4201
(dp4202
g74
(dp4203
g94
g95
ssg83
g4197
sg76
(lp4204
S'wsgi.errors'
p4205
asbag69
(g90
g71
NtRp4206
(dp4207
g74
(dp4208
g101
g102
ssg83
g4197
sg76
(lp4209
S':'
asbag69
(g90
g71
NtRp4210
(dp4211
g74
(dp4212
sg83
g4197
sg76
(lp4213
g69
(g70
g71
NtRp4214
(dp4215
g74
(dp4216
g82
I3
ssg83
g4210
sg76
(lp4217
S"<open file '<stderr>', mode 'w' at 0x7fca327ca270>"
p4218
asbasbasbag69
(g85
g71
NtRp4219
(dp4220
g74
(dp4221
sg83
g3626
sg76
(lp4222
g69
(g90
g71
NtRp4223
(dp4224
g74
(dp4225
g94
g95
ssg83
g4219
sg76
(lp4226
S'wsgi.file_wrapper'
p4227
asbag69
(g90
g71
NtRp4228
(dp4229
g74
(dp4230
g101
g102
ssg83
g4219
sg76
(lp4231
S':'
asbag69
(g90
g71
NtRp4232
(dp4233
g74
(dp4234
sg83
g4219
sg76
(lp4235
g69
(g70
g71
NtRp4236
(dp4237
g74
(dp4238
g82
I3
ssg83
g4232
sg76
(lp4239
S'<class wsgiref.util.FileWrapper at 0x189f4c8>'
p4240
asbasbasbag69
(g85
g71
NtRp4241
(dp4242
g74
(dp4243
sg83
g3626
sg76
(lp4244
g69
(g90
g71
NtRp4245
(dp4246
g74
(dp4247
g94
g95
ssg83
g4241
sg76
(lp4248
S'wsgi.input'
p4249
asbag69
(g90
g71
NtRp4250
(dp4251
g74
(dp4252
g101
g102
ssg83
g4241
sg76
(lp4253
S':'
asbag69
(g90
g71
NtRp4254
(dp4255
g74
(dp4256
sg83
g4241
sg76
(lp4257
g69
(g70
g71
NtRp4258
(dp4259
g74
(dp4260
g82
I3
ssg83
g4254
sg76
(lp4261
S"<open file '<fdopen>', mode 'w+b' at 0x7fca1c04ac90>"
p4262
asbasbasbag69
(g85
g71
NtRp4263
(dp4264
g74
(dp4265
sg83
g3626
sg76
(lp4266
g69
(g90
g71
NtRp4267
(dp4268
g74
(dp4269
g94
g95
ssg83
g4263
sg76
(lp4270
S'wsgi.multiprocess'
p4271
asbag69
(g90
g71
NtRp4272
(dp4273
g74
(dp4274
g101
g102
ssg83
g4263
sg76
(lp4275
S':'
asbag69
(g90
g71
NtRp4276
(dp4277
g74
(dp4278
sg83
g4263
sg76
(lp4279
g69
(g70
g71
NtRp4280
(dp4281
g74
(dp4282
g82
I3
ssg83
g4276
sg76
(lp4283
g112
asbasbasbag69
(g85
g71
NtRp4284
(dp4285
g74
(dp4286
sg83
g3626
sg76
(lp4287
g69
(g90
g71
NtRp4288
(dp4289
g74
(dp4290
g94
g95
ssg83
g4284
sg76
(lp4291
S'wsgi.multithread'
p4292
asbag69
(g90
g71
NtRp4293
(dp4294
g74
(dp4295
g101
g102
ssg83
g4284
sg76
(lp4296
S':'
asbag69
(g90
g71
NtRp4297
(dp4298
g74
(dp4299
sg83
g4284
sg76
(lp4300
g69
(g70
g71
NtRp4301
(dp4302
g74
(dp4303
g82
I3
ssg83
g4297
sg76
(lp4304
g1756
asbasbasbag69
(g85
g71
NtRp4305
(dp4306
g74
(dp4307
sg83
g3626
sg76
(lp4308
g69
(g90
g71
NtRp4309
(dp4310
g74
(dp4311
g94
g95
ssg83
g4305
sg76
(lp4312
S'wsgi.run_once'
p4313
asbag69
(g90
g71
NtRp4314
(dp4315
g74
(dp4316
g101
g102
ssg83
g4305
sg76
(lp4317
S':'
asbag69
(g90
g71
NtRp4318
(dp4319
g74
(dp4320
sg83
g4305
sg76
(lp4321
g69
(g70
g71
NtRp4322
(dp4323
g74
(dp4324
g82
I3
ssg83
g4318
sg76
(lp4325
g112
asbasbasbag69
(g85
g71
NtRp4326
(dp4327
g74
(dp4328
sg83
g3626
sg76
(lp4329
g69
(g90
g71
NtRp4330
(dp4331
g74
(dp4332
g94
g95
ssg83
g4326
sg76
(lp4333
S'wsgi.url_scheme'
p4334
asbag69
(g90
g71
NtRp4335
(dp4336
g74
(dp4337
g101
g102
ssg83
g4326
sg76
(lp4338
S':'
asbag69
(g90
g71
NtRp4339
(dp4340
g74
(dp4341
sg83
g4326
sg76
(lp4342
g69
(g70
g71
NtRp4343
(dp4344
g74
(dp4345
g82
I3
ssg83
g4339
sg76
(lp4346
g1799
asbasbasbag69
(g85
g71
NtRp4347
(dp4348
g74
(dp4349
sg83
g3626
sg76
(lp4350
g69
(g90
g71
NtRp4351
(dp4352
g74
(dp4353
g94
g95
ssg83
g4347
sg76
(lp4354
S'wsgi.version'
p4355
asbag69
(g90
g71
NtRp4356
(dp4357
g74
(dp4358
g101
g102
ssg83
g4347
sg76
(lp4359
S':'
asbag69
(g90
g71
NtRp4360
(dp4361
g74
(dp4362
sg83
g4347
sg76
(lp4363
g69
(g70
g71
NtRp4364
(dp4365
g74
(dp4366
g82
I3
ssg83
g4360
sg76
(lp4367
S'1'
asbasbasbasbasbasbasbasbasbasbasbasbasbsS'frames'
p4368
(lp4369
(dp4370
S'file'
p4371
S'/var/www/hosts3/gluon/restricted.py'
p4372
sS'dump'
p4373
(dp4374
S'code'
p4375
S"'# coding: utf-8\\n\\n@auth.requires_login()\\ndef show...\\t\\t\\t)\\n\\nresponse._vars=response._caller(interface)\\n'"
p4376
sS'layer'
p4377
S"'/var/www/hosts3/applications/projeto/controllers/initial.py'"
p4378
sS'global compile2'
p4379
S'<function compile2>'
p4380
sS'ccode'
p4381
S'undefined'
p4382
ssS'lnum'
p4383
I211
sS'lines'
p4384
(dp4385
I206
S"    environment['__name__'] = '__restricted__'"
p4386
sI207
S'    try:'
p4387
sI208
S'        if isinstance(code, types.CodeType):'
p4388
sI209
S'            ccode = code'
p4389
sI210
S'        else:'
p4390
sI211
S'            ccode = compile2(code, layer)'
p4391
sI212
S'        exec ccode in environment'
p4392
sI213
S'    except HTTP:'
p4393
sI214
S'        raise'
p4394
sI215
S'    except RestrictedError:'
p4395
ssS'call'
p4396
S"(code='# coding: utf-8\\n\\n@auth.requires_login()\\ndef show...\\t\\t\\t)\\n\\nresponse._vars=response._caller(interface)\\n', environment={'A': <class 'gluon.html.A'>, 'Auth': <class 'gluon.tools.Auth'>, 'B': <class 'gluon.html.B'>, 'BEAUTIFY': <class 'gluon.html.BEAUTIFY'>, 'BODY': <class 'gluon.html.BODY'>, 'BR': <class 'gluon.html.BR'>, 'BUTTON': <class 'gluon.html.BUTTON'>, 'CAT': <class 'gluon.html.CAT'>, 'CENTER': <class 'gluon.html.CENTER'>, 'CLEANUP': <class 'gluon.validators.CLEANUP'>, ...}, layer='/var/www/hosts3/applications/projeto/controllers/initial.py')"
p4397
sS'func'
p4398
S'restricted'
p4399
sa(dp4400
g4371
S'/var/www/hosts3/gluon/restricted.py'
p4401
sg4373
(dp4402
S'builtincompile'
p4403
S'<built-in function compile>'
p4404
sS'code'
p4405
S"'# coding: utf-8\\n\\n@auth.requires_login()\\ndef show...\\t\\t\\t)\\n\\nresponse._vars=response._caller(interface)\\n'"
p4406
sS'code.rstrip'
p4407
S'<built-in method rstrip of str object>'
p4408
sS').replace'
p4409
g4382
sS'layer'
p4410
S"'/var/www/hosts3/applications/projeto/controllers/initial.py'"
p4411
ssg4383
I194
sg4384
(dp4412
I192
S"    The +'\\n' is necessary else compile fails when code ends in a comment."
p4413
sI193
S'    """'
p4414
sI194
S"    return compile(code.rstrip().replace('\\r\\n', '\\n') + '\\n', layer, 'exec')"
p4415
sI195
S''
sI196
S''
sI197
S"def restricted(code, environment=None, layer='Unknown'):"
p4416
sI198
S'    """'
p4417
sI189
S''
sI190
S'def compile2(code, layer):'
p4418
sI191
S'    """'
p4419
ssg4396
S"(code='# coding: utf-8\\n\\n@auth.requires_login()\\ndef show...\\t\\t\\t)\\n\\nresponse._vars=response._caller(interface)\\n', layer='/var/www/hosts3/applications/projeto/controllers/initial.py')"
p4420
sg4398
S'compile2'
p4421
sasS'pyver'
p4422
S'Python 2.7.3: /usr/bin/python'
p4423
sS'session'
p4424
g69
(g70
g71
NtRp4425
(dp4426
g74
(dp4427
sg76
(lp4428
g69
(g78
g71
NtRp4429
(dp4430
g74
(dp4431
g82
I5
ssg83
Nsg76
(lp4432
g69
(g85
g71
NtRp4433
(dp4434
g74
(dp4435
sg83
g4429
sg76
(lp4436
g69
(g90
g71
NtRp4437
(dp4438
g74
(dp4439
g94
g95
ssg83
g4433
sg76
(lp4440
S'auth'
p4441
asbag69
(g90
g71
NtRp4442
(dp4443
g74
(dp4444
g101
g102
ssg83
g4433
sg76
(lp4445
S':'
asbag69
(g90
g71
NtRp4446
(dp4447
g74
(dp4448
sg83
g4433
sg76
(lp4449
g69
(g70
g71
NtRp4450
(dp4451
g74
(dp4452
g82
I5
ssg83
g4446
sg76
(lp4453
g69
(g78
g71
NtRp4454
(dp4455
g74
(dp4456
g82
I4
ssg83
Nsg76
(lp4457
g69
(g85
g71
NtRp4458
(dp4459
g74
(dp4460
sg83
g4454
sg76
(lp4461
g69
(g90
g71
NtRp4462
(dp4463
g74
(dp4464
g94
g95
ssg83
g4458
sg76
(lp4465
S'expiration'
p4466
asbag69
(g90
g71
NtRp4467
(dp4468
g74
(dp4469
g101
g102
ssg83
g4458
sg76
(lp4470
S':'
asbag69
(g90
g71
NtRp4471
(dp4472
g74
(dp4473
sg83
g4458
sg76
(lp4474
g69
(g70
g71
NtRp4475
(dp4476
g74
(dp4477
g82
I4
ssg83
g4471
sg76
(lp4478
S'3600'
p4479
asbasbasbag69
(g85
g71
NtRp4480
(dp4481
g74
(dp4482
sg83
g4454
sg76
(lp4483
g69
(g90
g71
NtRp4484
(dp4485
g74
(dp4486
g94
g95
ssg83
g4480
sg76
(lp4487
S'hmac_key'
p4488
asbag69
(g90
g71
NtRp4489
(dp4490
g74
(dp4491
g101
g102
ssg83
g4480
sg76
(lp4492
S':'
asbag69
(g90
g71
NtRp4493
(dp4494
g74
(dp4495
sg83
g4480
sg76
(lp4496
g69
(g70
g71
NtRp4497
(dp4498
g74
(dp4499
g82
I4
ssg83
g4493
sg76
(lp4500
S'679bb08a-f87f-447d-8b35-1fd7d5a34eb3'
p4501
asbasbasbag69
(g85
g71
NtRp4502
(dp4503
g74
(dp4504
sg83
g4454
sg76
(lp4505
g69
(g90
g71
NtRp4506
(dp4507
g74
(dp4508
g94
g95
ssg83
g4502
sg76
(lp4509
S'last_visit'
p4510
asbag69
(g90
g71
NtRp4511
(dp4512
g74
(dp4513
g101
g102
ssg83
g4502
sg76
(lp4514
S':'
asbag69
(g90
g71
NtRp4515
(dp4516
g74
(dp4517
sg83
g4502
sg76
(lp4518
g69
(g70
g71
NtRp4519
(dp4520
g74
(dp4521
g82
I4
ssg83
g4515
sg76
(lp4522
S'datetime.datetime(2013, 4, 1, 12, 0, 10, 152099)'
p4523
asbasbasbag69
(g85
g71
NtRp4524
(dp4525
g74
(dp4526
sg83
g4454
sg76
(lp4527
g69
(g90
g71
NtRp4528
(dp4529
g74
(dp4530
g94
g95
ssg83
g4524
sg76
(lp4531
S'remember'
p4532
asbag69
(g90
g71
NtRp4533
(dp4534
g74
(dp4535
g101
g102
ssg83
g4524
sg76
(lp4536
S':'
asbag69
(g90
g71
NtRp4537
(dp4538
g74
(dp4539
sg83
g4524
sg76
(lp4540
g69
(g70
g71
NtRp4541
(dp4542
g74
(dp4543
g82
I4
ssg83
g4537
sg76
(lp4544
g112
asbasbasbag69
(g85
g71
NtRp4545
(dp4546
g74
(dp4547
sg83
g4454
sg76
(lp4548
g69
(g90
g71
NtRp4549
(dp4550
g74
(dp4551
g94
g95
ssg83
g4545
sg76
(lp4552
S'user'
p4553
asbag69
(g90
g71
NtRp4554
(dp4555
g74
(dp4556
g101
g102
ssg83
g4545
sg76
(lp4557
S':'
asbag69
(g90
g71
NtRp4558
(dp4559
g74
(dp4560
sg83
g4545
sg76
(lp4561
g69
(g70
g71
NtRp4562
(dp4563
g74
(dp4564
g82
I4
ssg83
g4558
sg76
(lp4565
g69
(g78
g71
NtRp4566
(dp4567
g74
(dp4568
g82
I3
ssg83
Nsg76
(lp4569
g69
(g85
g71
NtRp4570
(dp4571
g74
(dp4572
sg83
g4566
sg76
(lp4573
g69
(g90
g71
NtRp4574
(dp4575
g74
(dp4576
g94
g95
ssg83
g4570
sg76
(lp4577
S'email'
p4578
asbag69
(g90
g71
NtRp4579
(dp4580
g74
(dp4581
g101
g102
ssg83
g4570
sg76
(lp4582
S':'
asbag69
(g90
g71
NtRp4583
(dp4584
g74
(dp4585
sg83
g4570
sg76
(lp4586
g69
(g70
g71
NtRp4587
(dp4588
g74
(dp4589
g82
I3
ssg83
g4583
sg76
(lp4590
S'fernando@ad2.com.br'
p4591
asbasbasbag69
(g85
g71
NtRp4592
(dp4593
g74
(dp4594
sg83
g4566
sg76
(lp4595
g69
(g90
g71
NtRp4596
(dp4597
g74
(dp4598
g94
g95
ssg83
g4592
sg76
(lp4599
S'first_name'
p4600
asbag69
(g90
g71
NtRp4601
(dp4602
g74
(dp4603
g101
g102
ssg83
g4592
sg76
(lp4604
S':'
asbag69
(g90
g71
NtRp4605
(dp4606
g74
(dp4607
sg83
g4592
sg76
(lp4608
g69
(g70
g71
NtRp4609
(dp4610
g74
(dp4611
g82
I3
ssg83
g4605
sg76
(lp4612
S'Fernando'
p4613
asbasbasbag69
(g85
g71
NtRp4614
(dp4615
g74
(dp4616
sg83
g4566
sg76
(lp4617
g69
(g90
g71
NtRp4618
(dp4619
g74
(dp4620
g94
g95
ssg83
g4614
sg76
(lp4621
S'id'
p4622
asbag69
(g90
g71
NtRp4623
(dp4624
g74
(dp4625
g101
g102
ssg83
g4614
sg76
(lp4626
S':'
asbag69
(g90
g71
NtRp4627
(dp4628
g74
(dp4629
sg83
g4614
sg76
(lp4630
g69
(g70
g71
NtRp4631
(dp4632
g74
(dp4633
g82
I3
ssg83
g4627
sg76
(lp4634
S'1'
asbasbasbag69
(g85
g71
NtRp4635
(dp4636
g74
(dp4637
sg83
g4566
sg76
(lp4638
g69
(g90
g71
NtRp4639
(dp4640
g74
(dp4641
g94
g95
ssg83
g4635
sg76
(lp4642
S'last_name'
p4643
asbag69
(g90
g71
NtRp4644
(dp4645
g74
(dp4646
g101
g102
ssg83
g4635
sg76
(lp4647
S':'
asbag69
(g90
g71
NtRp4648
(dp4649
g74
(dp4650
sg83
g4635
sg76
(lp4651
g69
(g70
g71
NtRp4652
(dp4653
g74
(dp4654
g82
I3
ssg83
g4648
sg76
(lp4655
S'Vieira'
p4656
asbasbasbag69
(g85
g71
NtRp4657
(dp4658
g74
(dp4659
sg83
g4566
sg76
(lp4660
g69
(g90
g71
NtRp4661
(dp4662
g74
(dp4663
g94
g95
ssg83
g4657
sg76
(lp4664
S'registration_id'
p4665
asbag69
(g90
g71
NtRp4666
(dp4667
g74
(dp4668
g101
g102
ssg83
g4657
sg76
(lp4669
S':'
asbag69
(g90
g71
NtRp4670
(dp4671
g74
(dp4672
sg83
g4657
sg76
(lp4673
g69
(g70
g71
NtRp4674
(dp4675
g74
(dp4676
g82
I3
ssg83
g4670
sg76
(lp4677
S''
asbasbasbag69
(g85
g71
NtRp4678
(dp4679
g74
(dp4680
sg83
g4566
sg76
(lp4681
g69
(g90
g71
NtRp4682
(dp4683
g74
(dp4684
g94
g95
ssg83
g4678
sg76
(lp4685
S'registration_key'
p4686
asbag69
(g90
g71
NtRp4687
(dp4688
g74
(dp4689
g101
g102
ssg83
g4678
sg76
(lp4690
S':'
asbag69
(g90
g71
NtRp4691
(dp4692
g74
(dp4693
sg83
g4678
sg76
(lp4694
g69
(g70
g71
NtRp4695
(dp4696
g74
(dp4697
g82
I3
ssg83
g4691
sg76
(lp4698
S''
asbasbasbag69
(g85
g71
NtRp4699
(dp4700
g74
(dp4701
sg83
g4566
sg76
(lp4702
g69
(g90
g71
NtRp4703
(dp4704
g74
(dp4705
g94
g95
ssg83
g4699
sg76
(lp4706
S'reset_password_key'
p4707
asbag69
(g90
g71
NtRp4708
(dp4709
g74
(dp4710
g101
g102
ssg83
g4699
sg76
(lp4711
S':'
asbag69
(g90
g71
NtRp4712
(dp4713
g74
(dp4714
sg83
g4699
sg76
(lp4715
g69
(g70
g71
NtRp4716
(dp4717
g74
(dp4718
g82
I3
ssg83
g4712
sg76
(lp4719
S''
asbasbasbasbasbasbasbag69
(g85
g71
NtRp4720
(dp4721
g74
(dp4722
sg83
g4454
sg76
(lp4723
g69
(g90
g71
NtRp4724
(dp4725
g74
(dp4726
g94
g95
ssg83
g4720
sg76
(lp4727
S'user_groups'
p4728
asbag69
(g90
g71
NtRp4729
(dp4730
g74
(dp4731
g101
g102
ssg83
g4720
sg76
(lp4732
S':'
asbag69
(g90
g71
NtRp4733
(dp4734
g74
(dp4735
sg83
g4720
sg76
(lp4736
g69
(g70
g71
NtRp4737
(dp4738
g74
(dp4739
g82
I4
ssg83
g4733
sg76
(lp4740
g69
(g78
g71
NtRp4741
(dp4742
g74
(dp4743
g82
I3
ssg83
Nsg76
(lp4744
g69
(g85
g71
NtRp4745
(dp4746
g74
(dp4747
sg83
g4741
sg76
(lp4748
g69
(g90
g71
NtRp4749
(dp4750
g74
(dp4751
g94
g95
ssg83
g4745
sg76
(lp4752
S'1'
asbag69
(g90
g71
NtRp4753
(dp4754
g74
(dp4755
g101
g102
ssg83
g4745
sg76
(lp4756
S':'
asbag69
(g90
g71
NtRp4757
(dp4758
g74
(dp4759
sg83
g4745
sg76
(lp4760
g69
(g70
g71
NtRp4761
(dp4762
g74
(dp4763
g82
I3
ssg83
g4757
sg76
(lp4764
S'group1'
p4765
asbasbasbag69
(g85
g71
NtRp4766
(dp4767
g74
(dp4768
sg83
g4741
sg76
(lp4769
g69
(g90
g71
NtRp4770
(dp4771
g74
(dp4772
g94
g95
ssg83
g4766
sg76
(lp4773
S'7'
asbag69
(g90
g71
NtRp4774
(dp4775
g74
(dp4776
g101
g102
ssg83
g4766
sg76
(lp4777
S':'
asbag69
(g90
g71
NtRp4778
(dp4779
g74
(dp4780
sg83
g4766
sg76
(lp4781
g69
(g70
g71
NtRp4782
(dp4783
g74
(dp4784
g82
I3
ssg83
g4778
sg76
(lp4785
S'voip'
p4786
asbasbasbag69
(g85
g71
NtRp4787
(dp4788
g74
(dp4789
sg83
g4741
sg76
(lp4790
g69
(g90
g71
NtRp4791
(dp4792
g74
(dp4793
g94
g95
ssg83
g4787
sg76
(lp4794
S'99'
p4795
asbag69
(g90
g71
NtRp4796
(dp4797
g74
(dp4798
g101
g102
ssg83
g4787
sg76
(lp4799
S':'
asbag69
(g90
g71
NtRp4800
(dp4801
g74
(dp4802
sg83
g4787
sg76
(lp4803
g69
(g70
g71
NtRp4804
(dp4805
g74
(dp4806
g82
I3
ssg83
g4800
sg76
(lp4807
S'admin'
p4808
asbasbasbasbasbasbasbasbasbasbasbag69
(g85
g71
NtRp4809
(dp4810
g74
(dp4811
sg83
g4429
sg76
(lp4812
g69
(g90
g71
NtRp4813
(dp4814
g74
(dp4815
g94
g95
ssg83
g4809
sg76
(lp4816
S'flash'
p4817
asbag69
(g90
g71
NtRp4818
(dp4819
g74
(dp4820
g101
g102
ssg83
g4809
sg76
(lp4821
S':'
asbag69
(g90
g71
NtRp4822
(dp4823
g74
(dp4824
sg83
g4809
sg76
(lp4825
g69
(g70
g71
NtRp4826
(dp4827
g74
(dp4828
g82
I5
ssg83
g4822
sg76
(lp4829
S'None'
p4830
asbasbasbasbasbsS'etype'
p4831
S"<type 'exceptions.SyntaxError'>"
p4832
sS'date'
p4833
S'Mon Apr  1 12:00:10 2013'
p4834
sS'response'
p4835
g69
(g70
g71
NtRp4836
(dp4837
g74
(dp4838
sg76
(lp4839
g69
(g78
g71
NtRp4840
(dp4841
g74
(dp4842
g82
I5
ssg83
Nsg76
(lp4843
g69
(g85
g71
NtRp4844
(dp4845
g74
(dp4846
sg83
g4840
sg76
(lp4847
g69
(g90
g71
NtRp4848
(dp4849
g74
(dp4850
g94
g95
ssg83
g4844
sg76
(lp4851
g167
asbag69
(g90
g71
NtRp4852
(dp4853
g74
(dp4854
g101
g102
ssg83
g4844
sg76
(lp4855
S':'
asbag69
(g90
g71
NtRp4856
(dp4857
g74
(dp4858
sg83
g4844
sg76
(lp4859
g69
(g70
g71
NtRp4860
(dp4861
g74
(dp4862
g82
I5
ssg83
g4856
sg76
(lp4863
S'<cStringIO.StringO object at 0x198cbc8>'
p4864
asbasbasbag69
(g85
g71
NtRp4865
(dp4866
g74
(dp4867
sg83
g4840
sg76
(lp4868
g69
(g90
g71
NtRp4869
(dp4870
g74
(dp4871
g94
g95
ssg83
g4865
sg76
(lp4872
g255
asbag69
(g90
g71
NtRp4873
(dp4874
g74
(dp4875
g101
g102
ssg83
g4865
sg76
(lp4876
S':'
asbag69
(g90
g71
NtRp4877
(dp4878
g74
(dp4879
sg83
g4865
sg76
(lp4880
g69
(g70
g71
NtRp4881
(dp4882
g74
(dp4883
g82
I5
ssg83
g4877
sg76
(lp4884
g69
(g78
g71
NtRp4885
(dp4886
g74
(dp4887
g82
I4
ssg83
Nsg76
(lp4888
g69
(g85
g71
NtRp4889
(dp4890
g74
(dp4891
sg83
g4885
sg76
(lp4892
g69
(g90
g71
NtRp4893
(dp4894
g74
(dp4895
g94
g95
ssg83
g4889
sg76
(lp4896
S'session_id_projeto'
p4897
asbag69
(g90
g71
NtRp4898
(dp4899
g74
(dp4900
g101
g102
ssg83
g4889
sg76
(lp4901
S':'
asbag69
(g90
g71
NtRp4902
(dp4903
g74
(dp4904
sg83
g4889
sg76
(lp4905
g69
(g70
g71
NtRp4906
(dp4907
g74
(dp4908
g82
I4
ssg83
g4902
sg76
(lp4909
g487
ag69
(g78
g71
NtRp4910
(dp4911
g74
(dp4912
g82
I3
ssg83
Nsg76
(lp4913
g69
(g85
g71
NtRp4914
(dp4915
g74
(dp4916
sg83
g4910
sg76
(lp4917
g69
(g90
g71
NtRp4918
(dp4919
g74
(dp4920
g94
g95
ssg83
g4914
sg76
(lp4921
g306
asbag69
(g90
g71
NtRp4922
(dp4923
g74
(dp4924
g101
g102
ssg83
g4914
sg76
(lp4925
S':'
asbag69
(g90
g71
NtRp4926
(dp4927
g74
(dp4928
sg83
g4914
sg76
(lp4929
g69
(g70
g71
NtRp4930
(dp4931
g74
(dp4932
g82
I3
ssg83
g4926
sg76
(lp4933
S''
asbasbasbag69
(g85
g71
NtRp4934
(dp4935
g74
(dp4936
sg83
g4910
sg76
(lp4937
g69
(g90
g71
NtRp4938
(dp4939
g74
(dp4940
g94
g95
ssg83
g4934
sg76
(lp4941
g327
asbag69
(g90
g71
NtRp4942
(dp4943
g74
(dp4944
g101
g102
ssg83
g4934
sg76
(lp4945
S':'
asbag69
(g90
g71
NtRp4946
(dp4947
g74
(dp4948
sg83
g4934
sg76
(lp4949
g69
(g70
g71
NtRp4950
(dp4951
g74
(dp4952
g82
I3
ssg83
g4946
sg76
(lp4953
S''
asbasbasbag69
(g85
g71
NtRp4954
(dp4955
g74
(dp4956
sg83
g4910
sg76
(lp4957
g69
(g90
g71
NtRp4958
(dp4959
g74
(dp4960
g94
g95
ssg83
g4954
sg76
(lp4961
g348
asbag69
(g90
g71
NtRp4962
(dp4963
g74
(dp4964
g101
g102
ssg83
g4954
sg76
(lp4965
S':'
asbag69
(g90
g71
NtRp4966
(dp4967
g74
(dp4968
sg83
g4954
sg76
(lp4969
g69
(g70
g71
NtRp4970
(dp4971
g74
(dp4972
g82
I3
ssg83
g4966
sg76
(lp4973
S''
asbasbasbag69
(g85
g71
NtRp4974
(dp4975
g74
(dp4976
sg83
g4910
sg76
(lp4977
g69
(g90
g71
NtRp4978
(dp4979
g74
(dp4980
g94
g95
ssg83
g4974
sg76
(lp4981
g369
asbag69
(g90
g71
NtRp4982
(dp4983
g74
(dp4984
g101
g102
ssg83
g4974
sg76
(lp4985
S':'
asbag69
(g90
g71
NtRp4986
(dp4987
g74
(dp4988
sg83
g4974
sg76
(lp4989
g69
(g70
g71
NtRp4990
(dp4991
g74
(dp4992
g82
I3
ssg83
g4986
sg76
(lp4993
S''
asbasbasbag69
(g85
g71
NtRp4994
(dp4995
g74
(dp4996
sg83
g4910
sg76
(lp4997
g69
(g90
g71
NtRp4998
(dp4999
g74
(dp5000
g94
g95
ssg83
g4994
sg76
(lp5001
g390
asbag69
(g90
g71
NtRp5002
(dp5003
g74
(dp5004
g101
g102
ssg83
g4994
sg76
(lp5005
S':'
asbag69
(g90
g71
NtRp5006
(dp5007
g74
(dp5008
sg83
g4994
sg76
(lp5009
g69
(g70
g71
NtRp5010
(dp5011
g74
(dp5012
g82
I3
ssg83
g5006
sg76
(lp5013
S''
asbasbasbag69
(g85
g71
NtRp5014
(dp5015
g74
(dp5016
sg83
g4910
sg76
(lp5017
g69
(g90
g71
NtRp5018
(dp5019
g74
(dp5020
g94
g95
ssg83
g5014
sg76
(lp5021
g411
asbag69
(g90
g71
NtRp5022
(dp5023
g74
(dp5024
g101
g102
ssg83
g5014
sg76
(lp5025
S':'
asbag69
(g90
g71
NtRp5026
(dp5027
g74
(dp5028
sg83
g5014
sg76
(lp5029
g69
(g70
g71
NtRp5030
(dp5031
g74
(dp5032
g82
I3
ssg83
g5026
sg76
(lp5033
S'/'
asbasbasbag69
(g85
g71
NtRp5034
(dp5035
g74
(dp5036
sg83
g4910
sg76
(lp5037
g69
(g90
g71
NtRp5038
(dp5039
g74
(dp5040
g94
g95
ssg83
g5034
sg76
(lp5041
g432
asbag69
(g90
g71
NtRp5042
(dp5043
g74
(dp5044
g101
g102
ssg83
g5034
sg76
(lp5045
S':'
asbag69
(g90
g71
NtRp5046
(dp5047
g74
(dp5048
sg83
g5034
sg76
(lp5049
g69
(g70
g71
NtRp5050
(dp5051
g74
(dp5052
g82
I3
ssg83
g5046
sg76
(lp5053
S''
asbasbasbag69
(g85
g71
NtRp5054
(dp5055
g74
(dp5056
sg83
g4910
sg76
(lp5057
g69
(g90
g71
NtRp5058
(dp5059
g74
(dp5060
g94
g95
ssg83
g5054
sg76
(lp5061
g453
asbag69
(g90
g71
NtRp5062
(dp5063
g74
(dp5064
g101
g102
ssg83
g5054
sg76
(lp5065
S':'
asbag69
(g90
g71
NtRp5066
(dp5067
g74
(dp5068
sg83
g5054
sg76
(lp5069
g69
(g70
g71
NtRp5070
(dp5071
g74
(dp5072
g82
I3
ssg83
g5066
sg76
(lp5073
S''
asbasbasbasbasbasbasbasbasbasbasbag69
(g85
g71
NtRp5074
(dp5075
g74
(dp5076
sg83
g4840
sg76
(lp5077
g69
(g90
g71
NtRp5078
(dp5079
g74
(dp5080
g94
g95
ssg83
g5074
sg76
(lp5081
S'delimiters'
p5082
asbag69
(g90
g71
NtRp5083
(dp5084
g74
(dp5085
g101
g102
ssg83
g5074
sg76
(lp5086
S':'
asbag69
(g90
g71
NtRp5087
(dp5088
g74
(dp5089
sg83
g5074
sg76
(lp5090
g69
(g70
g71
NtRp5091
(dp5092
g74
(dp5093
g82
I5
ssg83
g5087
sg76
(lp5094
g69
(g78
g71
NtRp5095
(dp5096
g74
(dp5097
g82
I4
ssg83
Nsg76
(lp5098
g69
(g85
g71
NtRp5099
(dp5100
g74
(dp5101
sg83
g5095
sg76
(lp5102
g69
(g90
g71
NtRp5103
(dp5104
g74
(dp5105
sg83
g5099
sg76
(lp5106
g69
(g70
g71
NtRp5107
(dp5108
g74
(dp5109
g82
I4
ssg83
g5103
sg76
(lp5110
S'{{'
p5111
asbasbasbag69
(g85
g71
NtRp5112
(dp5113
g74
(dp5114
sg83
g5095
sg76
(lp5115
g69
(g90
g71
NtRp5116
(dp5117
g74
(dp5118
sg83
g5112
sg76
(lp5119
g69
(g70
g71
NtRp5120
(dp5121
g74
(dp5122
g82
I4
ssg83
g5116
sg76
(lp5123
S'}}'
p5124
asbasbasbasbasbasbasbag69
(g85
g71
NtRp5125
(dp5126
g74
(dp5127
sg83
g4840
sg76
(lp5128
g69
(g90
g71
NtRp5129
(dp5130
g74
(dp5131
g94
g95
ssg83
g5125
sg76
(lp5132
S'files'
p5133
asbag69
(g90
g71
NtRp5134
(dp5135
g74
(dp5136
g101
g102
ssg83
g5125
sg76
(lp5137
S':'
asbag69
(g90
g71
NtRp5138
(dp5139
g74
(dp5140
sg83
g5125
sg76
(lp5141
g69
(g70
g71
NtRp5142
(dp5143
g74
(dp5144
g82
I5
ssg83
g5138
sg76
(lp5145
g69
(g78
g71
NtRp5146
(dp5147
g74
(dp5148
g82
I4
ssg83
Nsg76
(lp5149
sbasbasbasbag69
(g85
g71
NtRp5150
(dp5151
g74
(dp5152
sg83
g4840
sg76
(lp5153
g69
(g90
g71
NtRp5154
(dp5155
g74
(dp5156
g94
g95
ssg83
g5150
sg76
(lp5157
S'flash'
p5158
asbag69
(g90
g71
NtRp5159
(dp5160
g74
(dp5161
g101
g102
ssg83
g5150
sg76
(lp5162
S':'
asbag69
(g90
g71
NtRp5163
(dp5164
g74
(dp5165
sg83
g5150
sg76
(lp5166
g69
(g70
g71
NtRp5167
(dp5168
g74
(dp5169
g82
I5
ssg83
g5163
sg76
(lp5170
S''
asbasbasbag69
(g85
g71
NtRp5171
(dp5172
g74
(dp5173
sg83
g4840
sg76
(lp5174
g69
(g90
g71
NtRp5175
(dp5176
g74
(dp5177
g94
g95
ssg83
g5171
sg76
(lp5178
S'generic_patterns'
p5179
asbag69
(g90
g71
NtRp5180
(dp5181
g74
(dp5182
g101
g102
ssg83
g5171
sg76
(lp5183
S':'
asbag69
(g90
g71
NtRp5184
(dp5185
g74
(dp5186
sg83
g5171
sg76
(lp5187
g69
(g70
g71
NtRp5188
(dp5189
g74
(dp5190
g82
I5
ssg83
g5184
sg76
(lp5191
g69
(g78
g71
NtRp5192
(dp5193
g74
(dp5194
g82
I4
ssg83
Nsg76
(lp5195
g69
(g85
g71
NtRp5196
(dp5197
g74
(dp5198
sg83
g5192
sg76
(lp5199
g69
(g90
g71
NtRp5200
(dp5201
g74
(dp5202
sg83
g5196
sg76
(lp5203
g69
(g70
g71
NtRp5204
(dp5205
g74
(dp5206
g82
I4
ssg83
g5200
sg76
(lp5207
S'*'
asbasbasbasbasbasbasbag69
(g85
g71
NtRp5208
(dp5209
g74
(dp5210
sg83
g4840
sg76
(lp5211
g69
(g90
g71
NtRp5212
(dp5213
g74
(dp5214
g94
g95
ssg83
g5208
sg76
(lp5215
S'google_analytics_id'
p5216
asbag69
(g90
g71
NtRp5217
(dp5218
g74
(dp5219
g101
g102
ssg83
g5208
sg76
(lp5220
S':'
asbag69
(g90
g71
NtRp5221
(dp5222
g74
(dp5223
sg83
g5208
sg76
(lp5224
g69
(g70
g71
NtRp5225
(dp5226
g74
(dp5227
g82
I5
ssg83
g5221
sg76
(lp5228
S'None'
p5229
asbasbasbag69
(g85
g71
NtRp5230
(dp5231
g74
(dp5232
sg83
g4840
sg76
(lp5233
g69
(g90
g71
NtRp5234
(dp5235
g74
(dp5236
g94
g95
ssg83
g5230
sg76
(lp5237
S'headers'
p5238
asbag69
(g90
g71
NtRp5239
(dp5240
g74
(dp5241
g101
g102
ssg83
g5230
sg76
(lp5242
S':'
asbag69
(g90
g71
NtRp5243
(dp5244
g74
(dp5245
sg83
g5230
sg76
(lp5246
g69
(g70
g71
NtRp5247
(dp5248
g74
(dp5249
g82
I5
ssg83
g5243
sg76
(lp5250
g69
(g78
g71
NtRp5251
(dp5252
g74
(dp5253
g82
I4
ssg83
Nsg76
(lp5254
g69
(g85
g71
NtRp5255
(dp5256
g74
(dp5257
sg83
g5251
sg76
(lp5258
g69
(g90
g71
NtRp5259
(dp5260
g74
(dp5261
g94
g95
ssg83
g5255
sg76
(lp5262
S'X-Powered-By'
p5263
asbag69
(g90
g71
NtRp5264
(dp5265
g74
(dp5266
g101
g102
ssg83
g5255
sg76
(lp5267
S':'
asbag69
(g90
g71
NtRp5268
(dp5269
g74
(dp5270
sg83
g5255
sg76
(lp5271
g69
(g70
g71
NtRp5272
(dp5273
g74
(dp5274
g82
I4
ssg83
g5268
sg76
(lp5275
S'web2py'
p5276
asbasbasbasbasbasbasbag69
(g85
g71
NtRp5277
(dp5278
g74
(dp5279
sg83
g4840
sg76
(lp5280
g69
(g90
g71
NtRp5281
(dp5282
g74
(dp5283
g94
g95
ssg83
g5277
sg76
(lp5284
S'logo'
p5285
asbag69
(g90
g71
NtRp5286
(dp5287
g74
(dp5288
g101
g102
ssg83
g5277
sg76
(lp5289
S':'
asbag69
(g90
g71
NtRp5290
(dp5291
g74
(dp5292
sg83
g5277
sg76
(lp5293
g69
(g70
g71
NtRp5294
(dp5295
g74
(dp5296
g82
I5
ssg83
g5290
sg76
(lp5297
g69
(cgluon.html
A
p5298
g71
NtRp5299
(dp5300
g74
(dp5301
S'_class'
p5302
S'brand'
p5303
sS'_href'
p5304
S'principal'
p5305
ssg83
Nsg76
(lp5306
g69
(cgluon.html
B
p5307
g71
NtRp5308
(dp5309
g74
(dp5310
sg83
g5299
sg76
(lp5311
S'hosts'
p5312
ag69
(cgluon.html
SPAN
p5313
g71
NtRp5314
(dp5315
g74
(dp5316
sg83
g5308
sg76
(lp5317
S'3'
asbaS''
asbacgluon.html
XML_unpickle
p5318
(S's\r\x00\x00\x00&trade;&nbsp;'
tRp5319
asbasbasbasbag69
(g85
g71
NtRp5320
(dp5321
g74
(dp5322
sg83
g4840
sg76
(lp5323
g69
(g90
g71
NtRp5324
(dp5325
g74
(dp5326
g94
g95
ssg83
g5320
sg76
(lp5327
S'menu'
p5328
asbag69
(g90
g71
NtRp5329
(dp5330
g74
(dp5331
g101
g102
ssg83
g5320
sg76
(lp5332
S':'
asbag69
(g90
g71
NtRp5333
(dp5334
g74
(dp5335
sg83
g5320
sg76
(lp5336
g69
(g70
g71
NtRp5337
(dp5338
g74
(dp5339
g82
I5
ssg83
g5333
sg76
(lp5340
g69
(g78
g71
NtRp5341
(dp5342
g74
(dp5343
g82
I4
ssg83
Nsg76
(lp5344
g69
(g85
g71
NtRp5345
(dp5346
g74
(dp5347
sg83
g5341
sg76
(lp5348
g69
(g90
g71
NtRp5349
(dp5350
g74
(dp5351
sg83
g5345
sg76
(lp5352
g69
(g70
g71
NtRp5353
(dp5354
g74
(dp5355
g82
I4
ssg83
g5349
sg76
(lp5356
g69
(g78
g71
NtRp5357
(dp5358
g74
(dp5359
g82
I3
ssg83
Nsg76
(lp5360
g69
(g85
g71
NtRp5361
(dp5362
g74
(dp5363
sg83
g5357
sg76
(lp5364
g69
(g90
g71
NtRp5365
(dp5366
g74
(dp5367
sg83
g5361
sg76
(lp5368
g69
(g70
g71
NtRp5369
(dp5370
g74
(dp5371
g82
I3
ssg83
g5365
sg76
(lp5372
cgluon.languages
lazyT_unpickle
p5373
(S't\x08\x00\x00\x00Clientes'
tRp5374
asbasbasbag69
(g85
g71
NtRp5375
(dp5376
g74
(dp5377
sg83
g5357
sg76
(lp5378
g69
(g90
g71
NtRp5379
(dp5380
g74
(dp5381
sg83
g5375
sg76
(lp5382
g69
(g70
g71
NtRp5383
(dp5384
g74
(dp5385
g82
I3
ssg83
g5379
sg76
(lp5386
g112
asbasbasbag69
(g85
g71
NtRp5387
(dp5388
g74
(dp5389
sg83
g5357
sg76
(lp5390
g69
(g90
g71
NtRp5391
(dp5392
g74
(dp5393
sg83
g5387
sg76
(lp5394
g69
(g70
g71
NtRp5395
(dp5396
g74
(dp5397
g82
I3
ssg83
g5391
sg76
(lp5398
S'/show_cliente'
p5399
asbasbasbag69
(g85
g71
NtRp5400
(dp5401
g74
(dp5402
sg83
g5357
sg76
(lp5403
g69
(g90
g71
NtRp5404
(dp5405
g74
(dp5406
sg83
g5400
sg76
(lp5407
g69
(g70
g71
NtRp5408
(dp5409
g74
(dp5410
g82
I3
ssg83
g5404
sg76
(lp5411
g69
(g78
g71
NtRp5412
(dp5413
g74
(dp5414
g82
I2
ssg83
Nsg76
(lp5415
sbasbasbasbasbasbasbasbag69
(g85
g71
NtRp5416
(dp5417
g74
(dp5418
sg83
g5341
sg76
(lp5419
g69
(g90
g71
NtRp5420
(dp5421
g74
(dp5422
sg83
g5416
sg76
(lp5423
g69
(g70
g71
NtRp5424
(dp5425
g74
(dp5426
g82
I4
ssg83
g5420
sg76
(lp5427
g69
(g78
g71
NtRp5428
(dp5429
g74
(dp5430
g82
I3
ssg83
Nsg76
(lp5431
g69
(g85
g71
NtRp5432
(dp5433
g74
(dp5434
sg83
g5428
sg76
(lp5435
g69
(g90
g71
NtRp5436
(dp5437
g74
(dp5438
sg83
g5432
sg76
(lp5439
g69
(g70
g71
NtRp5440
(dp5441
g74
(dp5442
g82
I3
ssg83
g5436
sg76
(lp5443
g5373
(S't\n\x00\x00\x00Servidores'
tRp5444
asbasbasbag69
(g85
g71
NtRp5445
(dp5446
g74
(dp5447
sg83
g5428
sg76
(lp5448
g69
(g90
g71
NtRp5449
(dp5450
g74
(dp5451
sg83
g5445
sg76
(lp5452
g69
(g70
g71
NtRp5453
(dp5454
g74
(dp5455
g82
I3
ssg83
g5449
sg76
(lp5456
g112
asbasbasbag69
(g85
g71
NtRp5457
(dp5458
g74
(dp5459
sg83
g5428
sg76
(lp5460
g69
(g90
g71
NtRp5461
(dp5462
g74
(dp5463
sg83
g5457
sg76
(lp5464
g69
(g70
g71
NtRp5465
(dp5466
g74
(dp5467
g82
I3
ssg83
g5461
sg76
(lp5468
S'/show_servidor'
p5469
asbasbasbag69
(g85
g71
NtRp5470
(dp5471
g74
(dp5472
sg83
g5428
sg76
(lp5473
g69
(g90
g71
NtRp5474
(dp5475
g74
(dp5476
sg83
g5470
sg76
(lp5477
g69
(g70
g71
NtRp5478
(dp5479
g74
(dp5480
g82
I3
ssg83
g5474
sg76
(lp5481
g69
(g78
g71
NtRp5482
(dp5483
g74
(dp5484
g82
I2
ssg83
Nsg76
(lp5485
sbasbasbasbasbasbasbasbag69
(g85
g71
NtRp5486
(dp5487
g74
(dp5488
sg83
g5341
sg76
(lp5489
g69
(g90
g71
NtRp5490
(dp5491
g74
(dp5492
sg83
g5486
sg76
(lp5493
g69
(g70
g71
NtRp5494
(dp5495
g74
(dp5496
g82
I4
ssg83
g5490
sg76
(lp5497
g69
(g78
g71
NtRp5498
(dp5499
g74
(dp5500
g82
I3
ssg83
Nsg76
(lp5501
g69
(g85
g71
NtRp5502
(dp5503
g74
(dp5504
sg83
g5498
sg76
(lp5505
g69
(g90
g71
NtRp5506
(dp5507
g74
(dp5508
sg83
g5502
sg76
(lp5509
g69
(g70
g71
NtRp5510
(dp5511
g74
(dp5512
g82
I3
ssg83
g5506
sg76
(lp5513
g5373
(S't\x07\x00\x00\x00Distros'
tRp5514
asbasbasbag69
(g85
g71
NtRp5515
(dp5516
g74
(dp5517
sg83
g5498
sg76
(lp5518
g69
(g90
g71
NtRp5519
(dp5520
g74
(dp5521
sg83
g5515
sg76
(lp5522
g69
(g70
g71
NtRp5523
(dp5524
g74
(dp5525
g82
I3
ssg83
g5519
sg76
(lp5526
g112
asbasbasbag69
(g85
g71
NtRp5527
(dp5528
g74
(dp5529
sg83
g5498
sg76
(lp5530
g69
(g90
g71
NtRp5531
(dp5532
g74
(dp5533
sg83
g5527
sg76
(lp5534
g69
(g70
g71
NtRp5535
(dp5536
g74
(dp5537
g82
I3
ssg83
g5531
sg76
(lp5538
S'/show_distro'
p5539
asbasbasbag69
(g85
g71
NtRp5540
(dp5541
g74
(dp5542
sg83
g5498
sg76
(lp5543
g69
(g90
g71
NtRp5544
(dp5545
g74
(dp5546
sg83
g5540
sg76
(lp5547
g69
(g70
g71
NtRp5548
(dp5549
g74
(dp5550
g82
I3
ssg83
g5544
sg76
(lp5551
g69
(g78
g71
NtRp5552
(dp5553
g74
(dp5554
g82
I2
ssg83
Nsg76
(lp5555
sbasbasbasbasbasbasbasbag69
(g85
g71
NtRp5556
(dp5557
g74
(dp5558
sg83
g5341
sg76
(lp5559
g69
(g90
g71
NtRp5560
(dp5561
g74
(dp5562
sg83
g5556
sg76
(lp5563
g69
(g70
g71
NtRp5564
(dp5565
g74
(dp5566
g82
I4
ssg83
g5560
sg76
(lp5567
g69
(g78
g71
NtRp5568
(dp5569
g74
(dp5570
g82
I3
ssg83
Nsg76
(lp5571
g69
(g85
g71
NtRp5572
(dp5573
g74
(dp5574
sg83
g5568
sg76
(lp5575
g69
(g90
g71
NtRp5576
(dp5577
g74
(dp5578
sg83
g5572
sg76
(lp5579
g69
(g70
g71
NtRp5580
(dp5581
g74
(dp5582
g82
I3
ssg83
g5576
sg76
(lp5583
g5373
(S's\x05\x00\x00\x00+host'
tRp5584
asbasbasbag69
(g85
g71
NtRp5585
(dp5586
g74
(dp5587
sg83
g5568
sg76
(lp5588
g69
(g90
g71
NtRp5589
(dp5590
g74
(dp5591
sg83
g5585
sg76
(lp5592
g69
(g70
g71
NtRp5593
(dp5594
g74
(dp5595
g82
I3
ssg83
g5589
sg76
(lp5596
g112
asbasbasbag69
(g85
g71
NtRp5597
(dp5598
g74
(dp5599
sg83
g5568
sg76
(lp5600
g69
(g90
g71
NtRp5601
(dp5602
g74
(dp5603
sg83
g5597
sg76
(lp5604
g69
(g70
g71
NtRp5605
(dp5606
g74
(dp5607
g82
I3
ssg83
g5601
sg76
(lp5608
S'/interface'
p5609
asbasbasbag69
(g85
g71
NtRp5610
(dp5611
g74
(dp5612
sg83
g5568
sg76
(lp5613
g69
(g90
g71
NtRp5614
(dp5615
g74
(dp5616
sg83
g5610
sg76
(lp5617
g69
(g70
g71
NtRp5618
(dp5619
g74
(dp5620
g82
I3
ssg83
g5614
sg76
(lp5621
g69
(g78
g71
NtRp5622
(dp5623
g74
(dp5624
g82
I2
ssg83
Nsg76
(lp5625
sbasbasbasbasbasbasbasbasbasbasbasbag69
(g85
g71
NtRp5626
(dp5627
g74
(dp5628
sg83
g4840
sg76
(lp5629
g69
(g90
g71
NtRp5630
(dp5631
g74
(dp5632
g94
g95
ssg83
g5626
sg76
(lp5633
S'menu2'
p5634
asbag69
(g90
g71
NtRp5635
(dp5636
g74
(dp5637
g101
g102
ssg83
g5626
sg76
(lp5638
S':'
asbag69
(g90
g71
NtRp5639
(dp5640
g74
(dp5641
sg83
g5626
sg76
(lp5642
g69
(g70
g71
NtRp5643
(dp5644
g74
(dp5645
g82
I5
ssg83
g5639
sg76
(lp5646
g69
(g78
g71
NtRp5647
(dp5648
g74
(dp5649
g82
I4
ssg83
Nsg76
(lp5650
g69
(g85
g71
NtRp5651
(dp5652
g74
(dp5653
sg83
g5647
sg76
(lp5654
g69
(g90
g71
NtRp5655
(dp5656
g74
(dp5657
sg83
g5651
sg76
(lp5658
g69
(g70
g71
NtRp5659
(dp5660
g74
(dp5661
g82
I4
ssg83
g5655
sg76
(lp5662
g69
(g78
g71
NtRp5663
(dp5664
g74
(dp5665
g82
I3
ssg83
Nsg76
(lp5666
g69
(g85
g71
NtRp5667
(dp5668
g74
(dp5669
sg83
g5663
sg76
(lp5670
g69
(g90
g71
NtRp5671
(dp5672
g74
(dp5673
sg83
g5667
sg76
(lp5674
g69
(g70
g71
NtRp5675
(dp5676
g74
(dp5677
g82
I3
ssg83
g5671
sg76
(lp5678
g69
(g5313
g71
NtRp5679
(dp5680
g74
(dp5681
g5302
S'dropdown-toggle'
p5682
ssg83
Nsg76
(lp5683
S'Admin'
p5684
asbasbasbasbag69
(g85
g71
NtRp5685
(dp5686
g74
(dp5687
sg83
g5663
sg76
(lp5688
g69
(g90
g71
NtRp5689
(dp5690
g74
(dp5691
sg83
g5685
sg76
(lp5692
g69
(g70
g71
NtRp5693
(dp5694
g74
(dp5695
g82
I3
ssg83
g5689
sg76
(lp5696
g112
asbasbasbag69
(g85
g71
NtRp5697
(dp5698
g74
(dp5699
sg83
g5663
sg76
(lp5700
g69
(g90
g71
NtRp5701
(dp5702
g74
(dp5703
sg83
g5697
sg76
(lp5704
g69
(g70
g71
NtRp5705
(dp5706
g74
(dp5707
g82
I3
ssg83
g5701
sg76
(lp5708
S'#'
asbasbasbag69
(g85
g71
NtRp5709
(dp5710
g74
(dp5711
sg83
g5663
sg76
(lp5712
g69
(g90
g71
NtRp5713
(dp5714
g74
(dp5715
sg83
g5709
sg76
(lp5716
g69
(g70
g71
NtRp5717
(dp5718
g74
(dp5719
g82
I3
ssg83
g5713
sg76
(lp5720
g69
(g78
g71
NtRp5721
(dp5722
g74
(dp5723
g82
I2
ssg83
Nsg76
(lp5724
g69
(g85
g71
NtRp5725
(dp5726
g74
(dp5727
sg83
g5721
sg76
(lp5728
g69
(g90
g71
NtRp5729
(dp5730
g74
(dp5731
sg83
g5725
sg76
(lp5732
g69
(g70
g71
NtRp5733
(dp5734
g74
(dp5735
g82
I2
ssg83
g5729
sg76
(lp5736
g69
(g78
g71
NtRp5737
(dp5738
g74
(dp5739
g82
I1
ssg83
Nsg76
(lp5740
g69
(g85
g71
NtRp5741
(dp5742
g74
(dp5743
sg83
g5737
sg76
(lp5744
g69
(g90
g71
NtRp5745
(dp5746
g74
(dp5747
sg83
g5741
sg76
(lp5748
g69
(g70
g71
NtRp5749
(dp5750
g74
(dp5751
g82
I1
ssg83
g5745
sg76
(lp5752
g5373
(S's\t\x00\x00\x00Usu\xc3\xa1rios'
tRp5753
asbasbasbag69
(g85
g71
NtRp5754
(dp5755
g74
(dp5756
sg83
g5737
sg76
(lp5757
g69
(g90
g71
NtRp5758
(dp5759
g74
(dp5760
sg83
g5754
sg76
(lp5761
g69
(g70
g71
NtRp5762
(dp5763
g74
(dp5764
g82
I1
ssg83
g5758
sg76
(lp5765
I00
asbasbasbag69
(g85
g71
NtRp5766
(dp5767
g74
(dp5768
sg83
g5737
sg76
(lp5769
g69
(g90
g71
NtRp5770
(dp5771
g74
(dp5772
sg83
g5766
sg76
(lp5773
g69
(g70
g71
NtRp5774
(dp5775
g74
(dp5776
g82
I1
ssg83
g5770
sg76
(lp5777
S'/manager/users'
p5778
asbasbasbasbasbasbasbag69
(g85
g71
NtRp5779
(dp5780
g74
(dp5781
sg83
g5721
sg76
(lp5782
g69
(g90
g71
NtRp5783
(dp5784
g74
(dp5785
sg83
g5779
sg76
(lp5786
g69
(g70
g71
NtRp5787
(dp5788
g74
(dp5789
g82
I2
ssg83
g5783
sg76
(lp5790
g69
(g78
g71
NtRp5791
(dp5792
g74
(dp5793
g82
I1
ssg83
Nsg76
(lp5794
g69
(g85
g71
NtRp5795
(dp5796
g74
(dp5797
sg83
g5791
sg76
(lp5798
g69
(g90
g71
NtRp5799
(dp5800
g74
(dp5801
sg83
g5795
sg76
(lp5802
g69
(g70
g71
NtRp5803
(dp5804
g74
(dp5805
g82
I1
ssg83
g5799
sg76
(lp5806
g5373
(S't\x06\x00\x00\x00Grupos'
tRp5807
asbasbasbag69
(g85
g71
NtRp5808
(dp5809
g74
(dp5810
sg83
g5791
sg76
(lp5811
g69
(g90
g71
NtRp5812
(dp5813
g74
(dp5814
sg83
g5808
sg76
(lp5815
g69
(g70
g71
NtRp5816
(dp5817
g74
(dp5818
g82
I1
ssg83
g5812
sg76
(lp5819
I00
asbasbasbag69
(g85
g71
NtRp5820
(dp5821
g74
(dp5822
sg83
g5791
sg76
(lp5823
g69
(g90
g71
NtRp5824
(dp5825
g74
(dp5826
sg83
g5820
sg76
(lp5827
g69
(g70
g71
NtRp5828
(dp5829
g74
(dp5830
g82
I1
ssg83
g5824
sg76
(lp5831
S'/manager/groups'
p5832
asbasbasbasbasbasbasbag69
(g85
g71
NtRp5833
(dp5834
g74
(dp5835
sg83
g5721
sg76
(lp5836
g69
(g90
g71
NtRp5837
(dp5838
g74
(dp5839
sg83
g5833
sg76
(lp5840
g69
(g70
g71
NtRp5841
(dp5842
g74
(dp5843
g82
I2
ssg83
g5837
sg76
(lp5844
g69
(g78
g71
NtRp5845
(dp5846
g74
(dp5847
g82
I1
ssg83
Nsg76
(lp5848
g69
(g85
g71
NtRp5849
(dp5850
g74
(dp5851
sg83
g5845
sg76
(lp5852
g69
(g90
g71
NtRp5853
(dp5854
g74
(dp5855
sg83
g5849
sg76
(lp5856
g69
(g70
g71
NtRp5857
(dp5858
g74
(dp5859
g82
I1
ssg83
g5853
sg76
(lp5860
g5373
(S't\x07\x00\x00\x00Membros'
tRp5861
asbasbasbag69
(g85
g71
NtRp5862
(dp5863
g74
(dp5864
sg83
g5845
sg76
(lp5865
g69
(g90
g71
NtRp5866
(dp5867
g74
(dp5868
sg83
g5862
sg76
(lp5869
g69
(g70
g71
NtRp5870
(dp5871
g74
(dp5872
g82
I1
ssg83
g5866
sg76
(lp5873
I00
asbasbasbag69
(g85
g71
NtRp5874
(dp5875
g74
(dp5876
sg83
g5845
sg76
(lp5877
g69
(g90
g71
NtRp5878
(dp5879
g74
(dp5880
sg83
g5874
sg76
(lp5881
g69
(g70
g71
NtRp5882
(dp5883
g74
(dp5884
g82
I1
ssg83
g5878
sg76
(lp5885
S'/manager/membership'
p5886
asbasbasbasbasbasbasbasbasbasbasbasbasbasbasbag69
(g85
g71
NtRp5887
(dp5888
g74
(dp5889
sg83
g5647
sg76
(lp5890
g69
(g90
g71
NtRp5891
(dp5892
g74
(dp5893
sg83
g5887
sg76
(lp5894
g69
(g70
g71
NtRp5895
(dp5896
g74
(dp5897
g82
I4
ssg83
g5891
sg76
(lp5898
g69
(g78
g71
NtRp5899
(dp5900
g74
(dp5901
g82
I3
ssg83
Nsg76
(lp5902
g69
(g85
g71
NtRp5903
(dp5904
g74
(dp5905
sg83
g5899
sg76
(lp5906
g69
(g90
g71
NtRp5907
(dp5908
g74
(dp5909
sg83
g5903
sg76
(lp5910
g69
(g70
g71
NtRp5911
(dp5912
g74
(dp5913
g82
I3
ssg83
g5907
sg76
(lp5914
g69
(g5313
g71
NtRp5915
(dp5916
g74
(dp5917
g5302
g5682
ssg83
Nsg76
(lp5918
S'Login'
p5919
asbasbasbasbag69
(g85
g71
NtRp5920
(dp5921
g74
(dp5922
sg83
g5899
sg76
(lp5923
g69
(g90
g71
NtRp5924
(dp5925
g74
(dp5926
sg83
g5920
sg76
(lp5927
g69
(g70
g71
NtRp5928
(dp5929
g74
(dp5930
g82
I3
ssg83
g5924
sg76
(lp5931
g112
asbasbasbag69
(g85
g71
NtRp5932
(dp5933
g74
(dp5934
sg83
g5899
sg76
(lp5935
g69
(g90
g71
NtRp5936
(dp5937
g74
(dp5938
sg83
g5932
sg76
(lp5939
g69
(g70
g71
NtRp5940
(dp5941
g74
(dp5942
g82
I3
ssg83
g5936
sg76
(lp5943
S'#'
asbasbasbag69
(g85
g71
NtRp5944
(dp5945
g74
(dp5946
sg83
g5899
sg76
(lp5947
g69
(g90
g71
NtRp5948
(dp5949
g74
(dp5950
sg83
g5944
sg76
(lp5951
g69
(g70
g71
NtRp5952
(dp5953
g74
(dp5954
g82
I3
ssg83
g5948
sg76
(lp5955
g69
(g78
g71
NtRp5956
(dp5957
g74
(dp5958
g82
I2
ssg83
Nsg76
(lp5959
g69
(g85
g71
NtRp5960
(dp5961
g74
(dp5962
sg83
g5956
sg76
(lp5963
g69
(g90
g71
NtRp5964
(dp5965
g74
(dp5966
sg83
g5960
sg76
(lp5967
g69
(g70
g71
NtRp5968
(dp5969
g74
(dp5970
g82
I2
ssg83
g5964
sg76
(lp5971
g69
(g78
g71
NtRp5972
(dp5973
g74
(dp5974
g82
I1
ssg83
Nsg76
(lp5975
g69
(g85
g71
NtRp5976
(dp5977
g74
(dp5978
sg83
g5972
sg76
(lp5979
g69
(g90
g71
NtRp5980
(dp5981
g74
(dp5982
sg83
g5976
sg76
(lp5983
g69
(g70
g71
NtRp5984
(dp5985
g74
(dp5986
g82
I1
ssg83
g5980
sg76
(lp5987
g5373
(S't\x06\x00\x00\x00Logout'
tRp5988
asbasbasbag69
(g85
g71
NtRp5989
(dp5990
g74
(dp5991
sg83
g5972
sg76
(lp5992
g69
(g90
g71
NtRp5993
(dp5994
g74
(dp5995
sg83
g5989
sg76
(lp5996
g69
(g70
g71
NtRp5997
(dp5998
g74
(dp5999
g82
I1
ssg83
g5993
sg76
(lp6000
I00
asbasbasbag69
(g85
g71
NtRp6001
(dp6002
g74
(dp6003
sg83
g5972
sg76
(lp6004
g69
(g90
g71
NtRp6005
(dp6006
g74
(dp6007
sg83
g6001
sg76
(lp6008
g69
(g70
g71
NtRp6009
(dp6010
g74
(dp6011
g82
I1
ssg83
g6005
sg76
(lp6012
S'/initial/user/logout'
p6013
asbasbasbasbasbasbasbasbasbasbasbasbasbasbasbasbasbasbasbag69
(g85
g71
NtRp6014
(dp6015
g74
(dp6016
sg83
g4840
sg76
(lp6017
g69
(g90
g71
NtRp6018
(dp6019
g74
(dp6020
g94
g95
ssg83
g6014
sg76
(lp6021
S'meta'
p6022
asbag69
(g90
g71
NtRp6023
(dp6024
g74
(dp6025
g101
g102
ssg83
g6014
sg76
(lp6026
S':'
asbag69
(g90
g71
NtRp6027
(dp6028
g74
(dp6029
sg83
g6014
sg76
(lp6030
g69
(g70
g71
NtRp6031
(dp6032
g74
(dp6033
g82
I5
ssg83
g6027
sg76
(lp6034
g69
(g78
g71
NtRp6035
(dp6036
g74
(dp6037
g82
I4
ssg83
Nsg76
(lp6038
g69
(g85
g71
NtRp6039
(dp6040
g74
(dp6041
sg83
g6035
sg76
(lp6042
g69
(g90
g71
NtRp6043
(dp6044
g74
(dp6045
g94
g95
ssg83
g6039
sg76
(lp6046
S'author'
p6047
asbag69
(g90
g71
NtRp6048
(dp6049
g74
(dp6050
g101
g102
ssg83
g6039
sg76
(lp6051
S':'
asbag69
(g90
g71
NtRp6052
(dp6053
g74
(dp6054
sg83
g6039
sg76
(lp6055
g69
(g70
g71
NtRp6056
(dp6057
g74
(dp6058
g82
I4
ssg83
g6052
sg76
(lp6059
S'Your Name <you@example.com>'
p6060
asbasbasbag69
(g85
g71
NtRp6061
(dp6062
g74
(dp6063
sg83
g6035
sg76
(lp6064
g69
(g90
g71
NtRp6065
(dp6066
g74
(dp6067
g94
g95
ssg83
g6061
sg76
(lp6068
S'description'
p6069
asbag69
(g90
g71
NtRp6070
(dp6071
g74
(dp6072
g101
g102
ssg83
g6061
sg76
(lp6073
S':'
asbag69
(g90
g71
NtRp6074
(dp6075
g74
(dp6076
sg83
g6061
sg76
(lp6077
g69
(g70
g71
NtRp6078
(dp6079
g74
(dp6080
g82
I4
ssg83
g6074
sg76
(lp6081
S'a cool new app'
p6082
asbasbasbag69
(g85
g71
NtRp6083
(dp6084
g74
(dp6085
sg83
g6035
sg76
(lp6086
g69
(g90
g71
NtRp6087
(dp6088
g74
(dp6089
g94
g95
ssg83
g6083
sg76
(lp6090
S'generator'
p6091
asbag69
(g90
g71
NtRp6092
(dp6093
g74
(dp6094
g101
g102
ssg83
g6083
sg76
(lp6095
S':'
asbag69
(g90
g71
NtRp6096
(dp6097
g74
(dp6098
sg83
g6083
sg76
(lp6099
g69
(g70
g71
NtRp6100
(dp6101
g74
(dp6102
g82
I4
ssg83
g6096
sg76
(lp6103
S'Web2py Web Framework'
p6104
asbasbasbag69
(g85
g71
NtRp6105
(dp6106
g74
(dp6107
sg83
g6035
sg76
(lp6108
g69
(g90
g71
NtRp6109
(dp6110
g74
(dp6111
g94
g95
ssg83
g6105
sg76
(lp6112
S'keywords'
p6113
asbag69
(g90
g71
NtRp6114
(dp6115
g74
(dp6116
g101
g102
ssg83
g6105
sg76
(lp6117
S':'
asbag69
(g90
g71
NtRp6118
(dp6119
g74
(dp6120
sg83
g6105
sg76
(lp6121
g69
(g70
g71
NtRp6122
(dp6123
g74
(dp6124
g82
I4
ssg83
g6118
sg76
(lp6125
S'web2py, python, framework'
p6126
asbasbasbasbasbasbasbag69
(g85
g71
NtRp6127
(dp6128
g74
(dp6129
sg83
g4840
sg76
(lp6130
g69
(g90
g71
NtRp6131
(dp6132
g74
(dp6133
g94
g95
ssg83
g6127
sg76
(lp6134
S'models_to_run'
p6135
asbag69
(g90
g71
NtRp6136
(dp6137
g74
(dp6138
g101
g102
ssg83
g6127
sg76
(lp6139
S':'
asbag69
(g90
g71
NtRp6140
(dp6141
g74
(dp6142
sg83
g6127
sg76
(lp6143
g69
(g70
g71
NtRp6144
(dp6145
g74
(dp6146
g82
I5
ssg83
g6140
sg76
(lp6147
g69
(g78
g71
NtRp6148
(dp6149
g74
(dp6150
g82
I4
ssg83
Nsg76
(lp6151
g69
(g85
g71
NtRp6152
(dp6153
g74
(dp6154
sg83
g6148
sg76
(lp6155
g69
(g90
g71
NtRp6156
(dp6157
g74
(dp6158
sg83
g6152
sg76
(lp6159
g69
(g70
g71
NtRp6160
(dp6161
g74
(dp6162
g82
I4
ssg83
g6156
sg76
(lp6163
S'^\\w+\\.py$'
p6164
asbasbasbag69
(g85
g71
NtRp6165
(dp6166
g74
(dp6167
sg83
g6148
sg76
(lp6168
g69
(g90
g71
NtRp6169
(dp6170
g74
(dp6171
sg83
g6165
sg76
(lp6172
g69
(g70
g71
NtRp6173
(dp6174
g74
(dp6175
g82
I4
ssg83
g6169
sg76
(lp6176
S'^initial/\\w+\\.py$'
p6177
asbasbasbag69
(g85
g71
NtRp6178
(dp6179
g74
(dp6180
sg83
g6148
sg76
(lp6181
g69
(g90
g71
NtRp6182
(dp6183
g74
(dp6184
sg83
g6178
sg76
(lp6185
g69
(g70
g71
NtRp6186
(dp6187
g74
(dp6188
g82
I4
ssg83
g6182
sg76
(lp6189
S'^initial/interface/\\w+\\.py$'
p6190
asbasbasbasbasbasbasbag69
(g85
g71
NtRp6191
(dp6192
g74
(dp6193
sg83
g4840
sg76
(lp6194
g69
(g90
g71
NtRp6195
(dp6196
g74
(dp6197
g94
g95
ssg83
g6191
sg76
(lp6198
S'postprocessing'
p6199
asbag69
(g90
g71
NtRp6200
(dp6201
g74
(dp6202
g101
g102
ssg83
g6191
sg76
(lp6203
S':'
asbag69
(g90
g71
NtRp6204
(dp6205
g74
(dp6206
sg83
g6191
sg76
(lp6207
g69
(g70
g71
NtRp6208
(dp6209
g74
(dp6210
g82
I5
ssg83
g6204
sg76
(lp6211
g69
(g78
g71
NtRp6212
(dp6213
g74
(dp6214
g82
I4
ssg83
Nsg76
(lp6215
sbasbasbasbag69
(g85
g71
NtRp6216
(dp6217
g74
(dp6218
sg83
g4840
sg76
(lp6219
g69
(g90
g71
NtRp6220
(dp6221
g74
(dp6222
g94
g95
ssg83
g6216
sg76
(lp6223
S'session_cookie_expires'
p6224
asbag69
(g90
g71
NtRp6225
(dp6226
g74
(dp6227
g101
g102
ssg83
g6216
sg76
(lp6228
S':'
asbag69
(g90
g71
NtRp6229
(dp6230
g74
(dp6231
sg83
g6216
sg76
(lp6232
g69
(g70
g71
NtRp6233
(dp6234
g74
(dp6235
g82
I5
ssg83
g6229
sg76
(lp6236
S'None'
p6237
asbasbasbag69
(g85
g71
NtRp6238
(dp6239
g74
(dp6240
sg83
g4840
sg76
(lp6241
g69
(g90
g71
NtRp6242
(dp6243
g74
(dp6244
g94
g95
ssg83
g6238
sg76
(lp6245
S'session_data_name'
p6246
asbag69
(g90
g71
NtRp6247
(dp6248
g74
(dp6249
g101
g102
ssg83
g6238
sg76
(lp6250
S':'
asbag69
(g90
g71
NtRp6251
(dp6252
g74
(dp6253
sg83
g6238
sg76
(lp6254
g69
(g70
g71
NtRp6255
(dp6256
g74
(dp6257
g82
I5
ssg83
g6251
sg76
(lp6258
S'session_data_projeto'
p6259
asbasbasbag69
(g85
g71
NtRp6260
(dp6261
g74
(dp6262
sg83
g4840
sg76
(lp6263
g69
(g90
g71
NtRp6264
(dp6265
g74
(dp6266
g94
g95
ssg83
g6260
sg76
(lp6267
S'session_file'
p6268
asbag69
(g90
g71
NtRp6269
(dp6270
g74
(dp6271
g101
g102
ssg83
g6260
sg76
(lp6272
S':'
asbag69
(g90
g71
NtRp6273
(dp6274
g74
(dp6275
sg83
g6260
sg76
(lp6276
g69
(g70
g71
NtRp6277
(dp6278
g74
(dp6279
g82
I5
ssg83
g6273
sg76
(lp6280
S"<open file '/var/www/hosts3/applications/projeto/sessions/127.0.0.1-75f1e5ae-31c3-489a-934f-26d1d736233f', mode 'rb+' at 0x7fca1c04adb0>"
p6281
asbasbasbag69
(g85
g71
NtRp6282
(dp6283
g74
(dp6284
sg83
g4840
sg76
(lp6285
g69
(g90
g71
NtRp6286
(dp6287
g74
(dp6288
g94
g95
ssg83
g6282
sg76
(lp6289
S'session_filename'
p6290
asbag69
(g90
g71
NtRp6291
(dp6292
g74
(dp6293
g101
g102
ssg83
g6282
sg76
(lp6294
S':'
asbag69
(g90
g71
NtRp6295
(dp6296
g74
(dp6297
sg83
g6282
sg76
(lp6298
g69
(g70
g71
NtRp6299
(dp6300
g74
(dp6301
g82
I5
ssg83
g6295
sg76
(lp6302
S'/var/www/hosts3/applications/projeto/sessions/127.0.0.1-75f1e5ae-31c3-489a-934f-26d1d736233f'
p6303
asbasbasbag69
(g85
g71
NtRp6304
(dp6305
g74
(dp6306
sg83
g4840
sg76
(lp6307
g69
(g90
g71
NtRp6308
(dp6309
g74
(dp6310
g94
g95
ssg83
g6304
sg76
(lp6311
S'session_id'
p6312
asbag69
(g90
g71
NtRp6313
(dp6314
g74
(dp6315
g101
g102
ssg83
g6304
sg76
(lp6316
S':'
asbag69
(g90
g71
NtRp6317
(dp6318
g74
(dp6319
sg83
g6304
sg76
(lp6320
g69
(g70
g71
NtRp6321
(dp6322
g74
(dp6323
g82
I5
ssg83
g6317
sg76
(lp6324
g487
asbasbasbag69
(g85
g71
NtRp6325
(dp6326
g74
(dp6327
sg83
g4840
sg76
(lp6328
g69
(g90
g71
NtRp6329
(dp6330
g74
(dp6331
g94
g95
ssg83
g6325
sg76
(lp6332
S'session_id_name'
p6333
asbag69
(g90
g71
NtRp6334
(dp6335
g74
(dp6336
g101
g102
ssg83
g6325
sg76
(lp6337
S':'
asbag69
(g90
g71
NtRp6338
(dp6339
g74
(dp6340
sg83
g6325
sg76
(lp6341
g69
(g70
g71
NtRp6342
(dp6343
g74
(dp6344
g82
I5
ssg83
g6338
sg76
(lp6345
g4897
asbasbasbag69
(g85
g71
NtRp6346
(dp6347
g74
(dp6348
sg83
g4840
sg76
(lp6349
g69
(g90
g71
NtRp6350
(dp6351
g74
(dp6352
g94
g95
ssg83
g6346
sg76
(lp6353
S'session_locked'
p6354
asbag69
(g90
g71
NtRp6355
(dp6356
g74
(dp6357
g101
g102
ssg83
g6346
sg76
(lp6358
S':'
asbag69
(g90
g71
NtRp6359
(dp6360
g74
(dp6361
sg83
g6346
sg76
(lp6362
g69
(g70
g71
NtRp6363
(dp6364
g74
(dp6365
g82
I5
ssg83
g6359
sg76
(lp6366
g1756
asbasbasbag69
(g85
g71
NtRp6367
(dp6368
g74
(dp6369
sg83
g4840
sg76
(lp6370
g69
(g90
g71
NtRp6371
(dp6372
g74
(dp6373
g94
g95
ssg83
g6367
sg76
(lp6374
S'session_new'
p6375
asbag69
(g90
g71
NtRp6376
(dp6377
g74
(dp6378
g101
g102
ssg83
g6367
sg76
(lp6379
S':'
asbag69
(g90
g71
NtRp6380
(dp6381
g74
(dp6382
sg83
g6367
sg76
(lp6383
g69
(g70
g71
NtRp6384
(dp6385
g74
(dp6386
g82
I5
ssg83
g6380
sg76
(lp6387
g112
asbasbasbag69
(g85
g71
NtRp6388
(dp6389
g74
(dp6390
sg83
g4840
sg76
(lp6391
g69
(g90
g71
NtRp6392
(dp6393
g74
(dp6394
g94
g95
ssg83
g6388
sg76
(lp6395
S'session_storage_type'
p6396
asbag69
(g90
g71
NtRp6397
(dp6398
g74
(dp6399
g101
g102
ssg83
g6388
sg76
(lp6400
S':'
asbag69
(g90
g71
NtRp6401
(dp6402
g74
(dp6403
sg83
g6388
sg76
(lp6404
g69
(g70
g71
NtRp6405
(dp6406
g74
(dp6407
g82
I5
ssg83
g6401
sg76
(lp6408
g4371
asbasbasbag69
(g85
g71
NtRp6409
(dp6410
g74
(dp6411
sg83
g4840
sg76
(lp6412
g69
(g90
g71
NtRp6413
(dp6414
g74
(dp6415
g94
g95
ssg83
g6409
sg76
(lp6416
S'status'
p6417
asbag69
(g90
g71
NtRp6418
(dp6419
g74
(dp6420
g101
g102
ssg83
g6409
sg76
(lp6421
S':'
asbag69
(g90
g71
NtRp6422
(dp6423
g74
(dp6424
sg83
g6409
sg76
(lp6425
g69
(g70
g71
NtRp6426
(dp6427
g74
(dp6428
g82
I5
ssg83
g6422
sg76
(lp6429
S'200'
p6430
asbasbasbag69
(g85
g71
NtRp6431
(dp6432
g74
(dp6433
sg83
g4840
sg76
(lp6434
g69
(g90
g71
NtRp6435
(dp6436
g74
(dp6437
g94
g95
ssg83
g6431
sg76
(lp6438
S'subtitle'
p6439
asbag69
(g90
g71
NtRp6440
(dp6441
g74
(dp6442
g101
g102
ssg83
g6431
sg76
(lp6443
S':'
asbag69
(g90
g71
NtRp6444
(dp6445
g74
(dp6446
sg83
g6431
sg76
(lp6447
g69
(g70
g71
NtRp6448
(dp6449
g74
(dp6450
g82
I5
ssg83
g6444
sg76
(lp6451
g5373
(S's\r\x00\x00\x00customize me!'
tRp6452
asbasbasbag69
(g85
g71
NtRp6453
(dp6454
g74
(dp6455
sg83
g4840
sg76
(lp6456
g69
(g90
g71
NtRp6457
(dp6458
g74
(dp6459
g94
g95
ssg83
g6453
sg76
(lp6460
S'title'
p6461
asbag69
(g90
g71
NtRp6462
(dp6463
g74
(dp6464
g101
g102
ssg83
g6453
sg76
(lp6465
S':'
asbag69
(g90
g71
NtRp6466
(dp6467
g74
(dp6468
sg83
g6453
sg76
(lp6469
g69
(g70
g71
NtRp6470
(dp6471
g74
(dp6472
g82
I5
ssg83
g6466
sg76
(lp6473
S'Projeto'
p6474
asbasbasbag69
(g85
g71
NtRp6475
(dp6476
g74
(dp6477
sg83
g4840
sg76
(lp6478
g69
(g90
g71
NtRp6479
(dp6480
g74
(dp6481
g94
g95
ssg83
g6475
sg76
(lp6482
S'view'
p6483
asbag69
(g90
g71
NtRp6484
(dp6485
g74
(dp6486
g101
g102
ssg83
g6475
sg76
(lp6487
S':'
asbag69
(g90
g71
NtRp6488
(dp6489
g74
(dp6490
sg83
g6475
sg76
(lp6491
g69
(g70
g71
NtRp6492
(dp6493
g74
(dp6494
g82
I5
ssg83
g6488
sg76
(lp6495
S'initial/interface.html'
p6496
asbasbasbasbasbsS'locals'
p6497
(dp6498
g4
S"'/var/www/hosts3/applications/projeto/controllers/initial.py'"
p6499
sg6
S"'# coding: utf-8\\n\\n@auth.requires_login()\\ndef show...\\t\\t\\t)\\n\\nresponse._vars=response._caller(interface)\\n'"
p6500
sssS'traceback'
p6501
S'Traceback (most recent call last):\n  File "/var/www/hosts3/gluon/restricted.py", line 211, in restricted\n    ccode = compile2(code, layer)\n  File "/var/www/hosts3/gluon/restricted.py", line 194, in compile2\n    return compile(code.rstrip().replace(\'\\r\\n\', \'\\n\') + \'\\n\', layer, \'exec\')\n  File "/var/www/hosts3/applications/projeto/controllers/initial.py", line 331\n    message=+"<html>opa</html>"\n          ^\nSyntaxError: invalid syntax\n'
p6502
s.