(dp1
S'output'
p2
S"<type 'exceptions.SyntaxError'> invalid syntax (initial.py, line 266)"
p3
sS'layer'
p4
S'/var/www/hosts3/applications/projeto/controllers/initial.py'
p5
sS'code'
p6
S'# coding: utf-8\n\n@auth.requires_login()\ndef show_cliente():\n\tresponse.title="Clientes"\n\n\tdb.args=Cliente.id.readable=False\n\tgrid = SQLFORM.grid(Cliente,\n\t\tuser_signature=True, searchable=True, csv=False, \n\t\tpaginate=50, details=False,  \n\t\tignore_rw = True, maxtextlength=36,\n\t\tcreate=auth.has_membership("admin"),\n\t\teditable=auth.has_membership("admin"),\n\t\tdeletable=auth.has_membership("admin"),  \n    \tlinks = [lambda row: A(\'hosts\', _class=\'btn\', \n\t\t\t_title=\'ver servidores\', \n\t\t\t_href=URL("initial", "/cliente_host", \n\t\t\tvars=dict(f=row.id, n1=\'Clientes\', p1=\'show_cliente\')))]\n    \t)\n\treturn response.render("initial/show_grid.html", grid=grid)\n\n@auth.requires_login()\ndef show_servidor():\n\tresponse.title="Servidores"\n\n\tdb.args=Servidor.id.readable=False\n\tgrid = SQLFORM.grid(Servidor,\n\t\tuser_signature=True, searchable=True, csv=False,\n\t\tpaginate=50, details=False, \n\t\tignore_rw = True, maxtextlength=26,\n\t\tcreate=auth.has_membership("admin"),\n\t\teditable=auth.has_membership("admin"),\n\t\tdeletable=auth.has_membership("admin"),  \n    \tlinks = [lambda row: A(\'hosts\', _class=\'btn\', \n    \t\t_title=\'ver servidores\', \n    \t\t_href=URL("initial", "/servidor_host", \n    \t\tvars=dict(f=row.id, n1=\'Servidores\', p1=\'show_servidor\')))]\n\t\t)\n\treturn response.render("initial/show_grid.html", grid=grid)\n\n@auth.requires_login()\ndef show_distro():\n\tresponse.title="Distribui\xc3\xa7\xc3\xb5es"\n\n\tdb.args=Distro.id.readable=False\n\tdb.args=Distro.img.readable=False\n\tgrid = SQLFORM.grid(Distro,\n\t\tuser_signature=True, searchable=True, csv=False,\n\t\tpaginate=50, details=False, ignore_rw = True, \n\t\tmaxtextlength=26, links_placement=\'left\',\n\t\tcreate=auth.has_membership("admin"),\n\t\teditable=auth.has_membership("admin"),\n\t\tdeletable=auth.has_membership("admin"),  \n    \tlinks = [lambda row: A(\'hosts\', \n    \t\t_class=\'btn\', \n    \t\t_title=\'ver servidores\', \n    \t\t_href=URL("initial", "/distro_host", \n    \t\tvars=dict(f=row.id, n1=\'Distros\', p1=\'show_distro\'))), \n    \tdict(header=\'\',body=lambda row: A( IMG(_src=URL("static", "images", args=(row.img) ))))]\n\t\t)\n\treturn response.render("initial/show_grid.html", grid=grid)\n\n\n@auth.requires_login()\ndef cliente_host():\n\tfiltro = request.vars[\'f\']\n\tqueryset = db(db.cliente.id == filtro)\n\trows = queryset.select()\n\tcliente = rows[0]\n\tresponse.title = cliente.nome\n\tprint cliente\n\n\tnome_ant1 = request.vars[\'n1\']\n\tfuncao_ant1 = request.vars[\'p1\']\n\tnome_atual = cliente.nome\n\n\tquery = ((db.hosts.id_cliente == filtro) & (db.distro.id == db.hosts.id_distro))\n\tlinks = [dict(header=\'\',body=lambda row: A( IMG(_src=URL("static", "images", args=(row.distro.img)) ))), \n\t lambda row: A(\'Detalhes\', \n    \t\t      _class=\'btn\', \n    \t\t      _title=\'Detalhes\', \n    \t\t      _href=URL("initial", "/detalhes_nav", \n    \t\t      vars=dict(f=row.hosts.id, c=filtro, n=cliente.nome, \n    \t\t      \t\t\tn1=\'Clientes\', p1=\'show_cliente\', p=\'cliente_host\'))),\n\t lambda row: A(\'Editar\', \n    \t\t      _class=\'btn\', \n    \t\t      _title=\'Editar\', \n    \t\t      _href=URL("initial", "/edit_host", \n    \t\t      vars=dict(f=row.hosts.id, c=filtro, n=cliente.nome, \n    \t\t      \t\tn1=\'Clientes\', p1=\'show_cliente\', p=\'cliente_host\')))]\n\tdb.hosts.id.readable=False\n\tdb.distro.img.readable=False\n\t\n\tfields = (db.hosts.id, db.hosts.id_servidor, db.hosts.id_distro, db.distro.img, \n\t\t\t  db.hosts.ip_chegada, db.hosts.porta_ssh, db.hosts.gateway)\n\theaders = {\'hosts.id\':   \'ID\',\n\t\t\t   \'hosts.id_cliente\': \'Cliente\',\n               \'hosts.id_servidor\': \'Servidor\',\n               \'hosts.id_distro\': \'Distro\',\n               \'hosts.nome\': \'Nome\',\n\t           \'hosts.servicos\': \'Servicos\'}\n\tgrid = SQLFORM.grid(query=query, fields=fields, headers=headers, csv=False,\n\t\t\t\t\t\tdetails=False, searchable=False, maxtextlength=23, links=links, \n\t\t\t\t\t\tlinks_placement=\'left\', editable=False, create=False)\n\n\treturn response.render("initial/show_grid2.html", grid=grid, nome_ant1=nome_ant1, \n\t\t\t\t\t\tfuncao_ant1=funcao_ant1, nome_atual=nome_atual)\n\n@auth.requires_login()\ndef servidor_host():\n\tfiltro = request.vars[\'f\']\n\tqueryset = db(db.servidor.id == filtro)\n\trows = queryset.select()\n\tservidor = rows[0]\n\tresponse.title = servidor.nome\n\n\tnome_ant1 = request.vars[\'n1\']\n\tfuncao_ant1 = request.vars[\'p1\']\n\tnome_atual = servidor.nome\t\n\n\tdb.distro.img.readable=False\n\tdb.hosts.id.readable=False\n\tquery = ((db.hosts.id_servidor == filtro) & (db.distro.id == db.hosts.id_distro))\n\n\tlinks = [dict(header=\'\',body=lambda row: A( IMG(_src=URL("static", "images", args=(row.distro.img)) ))), \n\t lambda row: A(\'Detalhes\', \n    \t\t      _class=\'btn\', \n    \t\t      _title=\'Detalhes\', \n    \t\t      _href=URL("initial", "/detalhes_nav", \n    \t\t      vars=dict(f=row.hosts.id, c=filtro, n=servidor.nome, \n    \t\t      \t\tn1=\'Servidores\', p1=\'show_servidor\', p=\'servidor_host\'))),\n\t lambda row: A(\'Editar\', \n    \t\t      _class=\'btn\', \n    \t\t      _title=\'Editar\', \n    \t\t      _href=URL("initial", "/edit_host", \n    \t\t      vars=dict(f=row.hosts.id, c=filtro, n=servidor.nome, \n    \t\t      \t\tn1=\'Servidores\', p1=\'show_servidor\', p=\'servidor_host\')))]\n\n\tfields = (db.hosts.id, db.hosts.id_cliente, db.hosts.id_distro, db.distro.img, \n\t\t\t\tdb.hosts.ip_chegada, db.hosts.porta_ssh, db.hosts.gateway)\n\theaders = {\'hosts.id\':   \'ID\',\n\t\t\t   \'hosts.id_cliente\': \'Cliente\',\n               \'hosts.id_servidor\': \'Servidor\',\n               \'hosts.id_distro\': \'Distro\',\n               \'hosts.nome\': \'Nome\',\n\t           \'hosts.servicos\': \'Servicos\'}\n\tgrid = SQLFORM.grid(query=query, fields=fields, headers=headers, csv=False,\n\t\t\t\t\t\tdetails=False, searchable=False, maxtextlength=23, links=links, \n\t\t\t\t\t\tlinks_placement=\'left\', editable=False, create=False)\n\n\treturn response.render("initial/show_grid2.html", grid=grid, nome_ant1=nome_ant1, \n\t\t\t\t\t\tfuncao_ant1=funcao_ant1, nome_atual=nome_atual)\n\n@auth.requires_login()\ndef distro_host():\n\tfiltro = request.vars[\'f\']\n\tqueryset = db(db.distro.id == filtro)\n\trows = queryset.select()\n\tdistro = rows[0]\n\tresponse.title = distro.nome\n\n\tnome_ant1 = request.vars[\'n1\']\n\tfuncao_ant1 = request.vars[\'p1\']\n\tnome_atual = distro.nome\t\n\t\n\tdb.hosts.id.readable=False\n\tdb.distro.img.readable=False\n\tquery = ((db.hosts.id_distro == filtro) & (db.distro.id == db.hosts.id_distro))\n\tlinks = [dict(header=\'\',body=lambda row: A( IMG(_src=URL("static", "images", args=(row.distro.img)) ))), \n\t lambda row: A(\'Detalhes\', \n    \t\t      _class=\'btn\', \n    \t\t      _title=\'Detalhes\', \n    \t\t      _href=URL("initial", "/detalhes_nav", \n    \t\t      vars=dict(f=row.hosts.id, c=filtro, n=distro.nome, \n    \t\t      \t\tn1=\'Distros\', p1=\'show_distro\', p=\'distro_host\'))),\n\t lambda row: A(\'Editar\', \n    \t\t      _class=\'btn\', \n    \t\t      _title=\'Editar\', \n    \t\t      _href=URL("initial", "/edit_host", \n    \t\t      vars=dict(f=row.hosts.id, c=filtro, n=distro.nome, \n    \t\t      \t\tn1=\'Distros\', p1=\'show_distro\', p=\'distro_host\')))]\n\n\tfields = (db.hosts.id, db.hosts.id_cliente, db.hosts.id_servidor, db.distro.img, \n\t\t\t  db.hosts.ip_chegada, db.hosts.porta_ssh, db.hosts.gateway)\n\theaders = {\'hosts.id\':   \'ID\',\n\t\t\t\t\'hosts.id_cliente\': \'Cliente\',\n               \'hosts.id_servidor\': \'Servidor\',\n               \'hosts.id_distro\': \'Distro\',\n               \'hosts.nome\': \'Nome\',\n\t           \'hosts.servicos\': \'Servicos\'}\n\tgrid = SQLFORM.grid(query=query, fields=fields, headers=headers, csv=False,\n\t\t\t\t\t\tdetails=False, searchable=False, maxtextlength=23, links=links, \n\t\t\t\t\t\tlinks_placement=\'left\', editable=False, create=False)\n\n\treturn response.render("initial/show_grid2.html", grid=grid, nome_ant1=nome_ant1, \n\t\t\t\t\t\tfuncao_ant1=funcao_ant1, nome_atual=nome_atual)\n\ndef detalhes_nav():\n\t#detalhes\n\tfiltro = request.vars[\'f\'] #id_host\n\tid_cliente = request.vars[\'c\'] #id_cliente\n\tnome_ant = request.vars[\'n\'] #nome (asterisk ou agronelli ou debian)\n\tnome_ant1 = request.vars[\'n1\'] #nome (servidores ou clientes ou distros)\n\tfuncao_ant = request.vars[\'p\'] #funcao(host_servidores)\n\tfuncao_ant1 = request.vars[\'p1\'] #funcao(show_servidores)\n\t\n\n\tquery = ((db.hosts.id == filtro) & (db.hosts.id_cliente == db.cliente.id)\n\t \t    & (db.hosts.id_servidor == db.servidor.id) \n\t \t    & (db.hosts.id_distro == db.distro.id)) \n\tdetalhes = db.hosts(query)\n\t\n\t\n\treturn response.render("initial/detalhes_host.html", detalhes=detalhes, \n\t\t\t\tid_cliente=id_cliente, funcao_ant=funcao_ant, funcao_ant1=funcao_ant1, \n\t\t\t\tnome_ant=nome_ant, nome_ant1=nome_ant1, filtro=filtro)\n\n\ndef edit_host():\n    form = SQLFORM(db.hosts, request.vars[\'f\'], submit_button=\'Editar\', fields = [\'id_cliente\', \'id_servidor\', \'id_distro\', \'servicos\',\n\t\t\t\t\'if1\', \'ip1\', \'masc1\', \'obs1\', \'if2\', \'ip2\', \'masc2\', \'obs2\',\n\t\t\t\t\'if3\', \'ip3\', \'masc3\', \'obs3\', \'if4\', \'ip4\', \'masc4\', \'obs4\',\n\t\t\t\t\'nome\', \'ip_chegada\', \'porta_ssh\', \'gateway\', \'rotas\', \'obs_gerais\'],\n\t\t\t\tlabels = {\'id_cliente\':\'Cliente\', \'id_servidor\':\'Servidor\', \'id_distro\':\'Distro\',\n\t\t\t\t\'if1\':\'Interface 1\', \'ip1\':\'IP\', \'masc1\':\'M\xc3\xa1scara\', \'obs1\':\'Obs\',\n\t\t\t\t\'if2\':\'Interface 2\', \'ip2\':\'IP\', \'masc2\':\'M\xc3\xa1scara\', \'obs2\':\'Obs\',\n\t\t\t\t\'if3\':\'Interface 3\', \'ip3\':\'IP\', \'masc3\':\'M\xc3\xa1scara\', \'obs3\':\'Obs\',\n\t\t\t\t\'if4\':\'Interface 4\', \'ip4\':\'IP\', \'masc4\':\'M\xc3\xa1scara\', \'obs4\':\'Obs\'})\n\n    if form.process().accepted:\n       response.flash = \'Editado com sucesso\'\n    elif form.errors:\n       response.flash = \'Ops, algo n\xc3\xa3o est\xc3\xa1 correto\'\n    else:\n       response.flash = \'Edite os dados do host\'\n\n    return response.render("initial/show_form.html", form=form, id_cliente = request.vars[\'c\'], \n    \t\t\t\tnome_ant = request.vars[\'n\'], nome_ant1 = request.vars[\'n1\'], \n    \t\t\t\tfuncao_ant = request.vars[\'p\'], funcao_ant1 = request.vars[\'p1\'])\n\n\n@auth.requires_login()\ndef interface():\n\t#adicionar\n    form = SQLFORM(db.hosts, submit_button=\'Adicionar\', \n    \t\t\tfields = [\'id_cliente\', \'id_servidor\', \'id_distro\', \'servicos\',\n\t\t\t\t\'if1\', \'ip1\', \'masc1\', \'obs1\', \'if2\', \'ip2\', \'masc2\', \'obs2\',\n\t\t\t\t\'if3\', \'ip3\', \'masc3\', \'obs3\', \'if4\', \'ip4\', \'masc4\', \'obs4\',\n\t\t\t\t\'nome\', \'ip_chegada\', \'porta_ssh\', \'gateway\', \'rotas\', \'obs_gerais\'], \n\t\t\t\tlabels = {\'id_cliente\':\'Cliente\', \'id_servidor\':\'Servidor\', \'id_distro\':\'Distro\',\n\t\t\t\t\'if1\':\'Interface 1\', \'ip1\':\'IP\', \'masc1\':\'M\xc3\xa1scara\', \'obs1\':\'Obs\',\n\t\t\t\t\'if2\':\'Interface 2\', \'ip2\':\'IP\', \'masc2\':\'M\xc3\xa1scara\', \'obs2\':\'Obs\',\n\t\t\t\t\'if3\':\'Interface 3\', \'ip3\':\'IP\', \'masc3\':\'M\xc3\xa1scara\', \'obs3\':\'Obs\',\n\t\t\t\t\'if4\':\'Interface 4\', \'ip4\':\'IP\', \'masc4\':\'M\xc3\xa1scara\', \'obs4\':\'Obs\'})\n\n    \n    if form.process().accepted:\n    \tprint request.vars[\'nome\']\n    \tresponse.flash = \'Inserido com sucesso\'\n    \tif auth.has_membership(\'voip\'):\n    \t\tmail.send(\n\t\t\tto="fndiaz02@gmail.com",\n\t\t\tsubject="host adicionado",\n\t\t\tmessage="<html>Host adicionado: %(nome)s</html>" % request.vars\n\t\t\t)\n\t\telif auth.has_membership(\'internet\'):\n\t\t\tprint \'teste\'\t\n    elif form.errors:\n       response.flash = \'Ops, algo n\xc3\xa3o est\xc3\xa1 correto\'\n    else:\n       response.flash = \'Insira os dados do novo host\'\n    return response.render("initial/show_form2.html", form=form)\n\n\n\ndef about():\n\tfiltro = request.vars[\'f\']\n\tquery = ((db.hosts.id_servidor == filtro) & (db.distro.id == db.hosts.id_distro))\n\tfields = (db.hosts.id, db.hosts.id_cliente, db.hosts.id_distro, db.distro.img, \n\t\t\t\tdb.hosts.ip_chegada, db.hosts.porta_ssh, db.hosts.gateway)\n\theaders = {\'host.id\':   \'ID\',\n               \'host.id_servidor\': \'Servidor\',\n               \'host.id_distro\': \'Distro\',\n               \'host.nome\': \'Nome\',\n\t           \'host.servicos\': \'Servicos\'}\n\tgrid = SQLFORM.grid(query=query, fields=fields, headers=headers, csv=False,\n\t\t\t\t\t\tdetails=False, maxtextlength=23, searchable=True, editable=False, create=False)\n\n\treturn response.render("initial/teste.html", grid=grid,)\n\ndef user():\n\t#if request.args(0) == \'register\':\n    #    \tdb.auth_user.bio.writable = db.auth_user.bio.readable = False\n\treturn response.render("initial/user.html", user=auth())\n\ndef register():\n\treturn auth.register()\n\ndef login():\n        return auth.login()\n\ndef account():\n    return dict(register=auth.register(),\n                login=auth.login())\n\t\ndef download():\n\treturn response.download(request, db)\n\n\n@auth.requires_login()\ndef principal():\n\taqui = db.executesql(\'SELECT * from cliente order by id desc LIMIT 4;\')\n\tserver = db.executesql(\'SELECT * from servidor order by id desc LIMIT 4;\')\n\thosts = db.executesql(\'SELECT * from hosts order by id desc LIMIT 6;\')\n\n\tif auth.has_membership(\'group1\'):\n\t\tprint \'num1\'\n\telif auth.has_membership(\'group2\'):\n\t\tprint \'num2\'\n\n\t\n\n\treturn response.render("initial/principal.html", aqui=aqui, server=server, hosts=hosts)\n\n\t\ndef detalhes_clean():\n\tfiltro = request.vars[\'f\'] #id_host\n\t\t\n\n\tquery = ((db.hosts.id == filtro) & (db.hosts.id_cliente == db.cliente.id)\n\t \t    & (db.hosts.id_servidor == db.servidor.id) \n\t \t    & (db.hosts.id_distro == db.distro.id)) \n\tdetalhes = db.hosts(query)\n\n\t\n\treturn response.render("initial/detalhes_host_clean.html", detalhes=detalhes)\t\n\nresponse._vars=response._caller(principal)\n'
p7
sS'snapshot'
p8
(dp9
S'exception'
p10
(dp11
S'__getslice__'
p12
S"<method-wrapper '__getslice__' of exceptions.SyntaxError object>"
p13
sS'text'
p14
S'"\\t\\telif auth.has_membership(\'internet\'):\\n"'
p15
sS'__str__'
p16
S"<method-wrapper '__str__' of exceptions.SyntaxError object>"
p17
sS'__reduce__'
p18
S'<built-in method __reduce__ of exceptions.SyntaxError object>'
p19
sS'__dict__'
p20
S'{}'
p21
sS'__sizeof__'
p22
S'<built-in method __sizeof__ of exceptions.SyntaxError object>'
p23
sS'__init__'
p24
S"<method-wrapper '__init__' of exceptions.SyntaxError object>"
p25
sS'__setattr__'
p26
S"<method-wrapper '__setattr__' of exceptions.SyntaxError object>"
p27
sS'__reduce_ex__'
p28
S'<built-in method __reduce_ex__ of exceptions.SyntaxError object>'
p29
sS'__new__'
p30
S'<built-in method __new__ of type object>'
p31
sS'__format__'
p32
S'<built-in method __format__ of exceptions.SyntaxError object>'
p33
sS'__class__'
p34
S"<type 'exceptions.SyntaxError'>"
p35
sS'filename'
p36
S"'/var/www/hosts3/applications/projeto/controllers/initial.py'"
p37
sS'lineno'
p38
S'266'
p39
sS'msg'
p40
S"'invalid syntax'"
p41
sS'__doc__'
p42
S"'Invalid syntax.'"
p43
sS'__getitem__'
p44
S"<method-wrapper '__getitem__' of exceptions.SyntaxError object>"
p45
sS'__setstate__'
p46
S'<built-in method __setstate__ of exceptions.SyntaxError object>'
p47
sS'__getattribute__'
p48
S"<method-wrapper '__getattribute__' of exceptions.SyntaxError object>"
p49
sS'print_file_and_line'
p50
S'None'
p51
sS'args'
p52
S'(\'invalid syntax\', (\'/var/www/hosts3/applications/projeto/controllers/initial.py\', 266, 6, "\\t\\telif auth.has_membership(\'internet\'):\\n"))'
p53
sS'__subclasshook__'
p54
S'<built-in method __subclasshook__ of type object>'
p55
sS'offset'
p56
S'6'
sS'__unicode__'
p57
S'<built-in method __unicode__ of exceptions.SyntaxError object>'
p58
sS'__delattr__'
p59
S"<method-wrapper '__delattr__' of exceptions.SyntaxError object>"
p60
sS'__repr__'
p61
S"<method-wrapper '__repr__' of exceptions.SyntaxError object>"
p62
sS'__hash__'
p63
S"<method-wrapper '__hash__' of exceptions.SyntaxError object>"
p64
ssS'evalue'
p65
S'invalid syntax (initial.py, line 266)'
p66
sS'request'
p67
ccopy_reg
_reconstructor
p68
(cgluon.html
BEAUTIFY
p69
c__builtin__
object
p70
NtRp71
(dp72
S'attributes'
p73
(dp74
sS'components'
p75
(lp76
g68
(cgluon.html
TABLE
p77
g70
NtRp78
(dp79
g73
(dp80
S'level'
p81
I5
ssS'parent'
p82
Nsg75
(lp83
g68
(cgluon.html
TR
p84
g70
NtRp85
(dp86
g73
(dp87
sg82
g78
sg75
(lp88
g68
(cgluon.html
TD
p89
g70
NtRp90
(dp91
g73
(dp92
S'_style'
p93
S'font-weight:bold;vertical-align:top'
p94
ssg82
g85
sg75
(lp95
S'ajax'
p96
asbag68
(g89
g70
NtRp97
(dp98
g73
(dp99
S'_valign'
p100
S'top'
p101
ssg82
g85
sg75
(lp102
S':'
asbag68
(g89
g70
NtRp103
(dp104
g73
(dp105
sg82
g85
sg75
(lp106
g68
(g69
g70
NtRp107
(dp108
g73
(dp109
g81
I5
ssg82
g103
sg75
(lp110
S'False'
p111
asbasbasbag68
(g84
g70
NtRp112
(dp113
g73
(dp114
sg82
g78
sg75
(lp115
g68
(g89
g70
NtRp116
(dp117
g73
(dp118
g93
g94
ssg82
g112
sg75
(lp119
S'application'
p120
asbag68
(g89
g70
NtRp121
(dp122
g73
(dp123
g100
g101
ssg82
g112
sg75
(lp124
S':'
asbag68
(g89
g70
NtRp125
(dp126
g73
(dp127
sg82
g112
sg75
(lp128
g68
(g69
g70
NtRp129
(dp130
g73
(dp131
g81
I5
ssg82
g125
sg75
(lp132
S'projeto'
p133
asbasbasbag68
(g84
g70
NtRp134
(dp135
g73
(dp136
sg82
g78
sg75
(lp137
g68
(g89
g70
NtRp138
(dp139
g73
(dp140
g93
g94
ssg82
g134
sg75
(lp141
g52
asbag68
(g89
g70
NtRp142
(dp143
g73
(dp144
g100
g101
ssg82
g134
sg75
(lp145
S':'
asbag68
(g89
g70
NtRp146
(dp147
g73
(dp148
sg82
g134
sg75
(lp149
g68
(g69
g70
NtRp150
(dp151
g73
(dp152
g81
I5
ssg82
g146
sg75
(lp153
g68
(g77
g70
NtRp154
(dp155
g73
(dp156
g81
I4
ssg82
Nsg75
(lp157
sbasbasbasbag68
(g84
g70
NtRp158
(dp159
g73
(dp160
sg82
g78
sg75
(lp161
g68
(g89
g70
NtRp162
(dp163
g73
(dp164
g93
g94
ssg82
g158
sg75
(lp165
S'body'
p166
asbag68
(g89
g70
NtRp167
(dp168
g73
(dp169
g100
g101
ssg82
g158
sg75
(lp170
S':'
asbag68
(g89
g70
NtRp171
(dp172
g73
(dp173
sg82
g158
sg75
(lp174
g68
(g69
g70
NtRp175
(dp176
g73
(dp177
g81
I5
ssg82
g171
sg75
(lp178
S'<cStringIO.StringO object at 0x7fca246c4538>'
p179
asbasbasbag68
(g84
g70
NtRp180
(dp181
g73
(dp182
sg82
g78
sg75
(lp183
g68
(g89
g70
NtRp184
(dp185
g73
(dp186
g93
g94
ssg82
g180
sg75
(lp187
S'cid'
p188
asbag68
(g89
g70
NtRp189
(dp190
g73
(dp191
g100
g101
ssg82
g180
sg75
(lp192
S':'
asbag68
(g89
g70
NtRp193
(dp194
g73
(dp195
sg82
g180
sg75
(lp196
g68
(g69
g70
NtRp197
(dp198
g73
(dp199
g81
I5
ssg82
g193
sg75
(lp200
S'None'
p201
asbasbasbag68
(g84
g70
NtRp202
(dp203
g73
(dp204
sg82
g78
sg75
(lp205
g68
(g89
g70
NtRp206
(dp207
g73
(dp208
g93
g94
ssg82
g202
sg75
(lp209
S'client'
p210
asbag68
(g89
g70
NtRp211
(dp212
g73
(dp213
g100
g101
ssg82
g202
sg75
(lp214
S':'
asbag68
(g89
g70
NtRp215
(dp216
g73
(dp217
sg82
g202
sg75
(lp218
g68
(g69
g70
NtRp219
(dp220
g73
(dp221
g81
I5
ssg82
g215
sg75
(lp222
S'127.0.0.1'
p223
asbasbasbag68
(g84
g70
NtRp224
(dp225
g73
(dp226
sg82
g78
sg75
(lp227
g68
(g89
g70
NtRp228
(dp229
g73
(dp230
g93
g94
ssg82
g224
sg75
(lp231
S'controller'
p232
asbag68
(g89
g70
NtRp233
(dp234
g73
(dp235
g100
g101
ssg82
g224
sg75
(lp236
S':'
asbag68
(g89
g70
NtRp237
(dp238
g73
(dp239
sg82
g224
sg75
(lp240
g68
(g69
g70
NtRp241
(dp242
g73
(dp243
g81
I5
ssg82
g237
sg75
(lp244
S'initial'
p245
asbasbasbag68
(g84
g70
NtRp246
(dp247
g73
(dp248
sg82
g78
sg75
(lp249
g68
(g89
g70
NtRp250
(dp251
g73
(dp252
g93
g94
ssg82
g246
sg75
(lp253
S'cookies'
p254
asbag68
(g89
g70
NtRp255
(dp256
g73
(dp257
g100
g101
ssg82
g246
sg75
(lp258
S':'
asbag68
(g89
g70
NtRp259
(dp260
g73
(dp261
sg82
g246
sg75
(lp262
g68
(g69
g70
NtRp263
(dp264
g73
(dp265
g81
I5
ssg82
g259
sg75
(lp266
g68
(g77
g70
NtRp267
(dp268
g73
(dp269
g81
I4
ssg82
Nsg75
(lp270
g68
(g84
g70
NtRp271
(dp272
g73
(dp273
sg82
g267
sg75
(lp274
g68
(g89
g70
NtRp275
(dp276
g73
(dp277
g93
g94
ssg82
g271
sg75
(lp278
S'session_id_admin'
p279
asbag68
(g89
g70
NtRp280
(dp281
g73
(dp282
g100
g101
ssg82
g271
sg75
(lp283
S':'
asbag68
(g89
g70
NtRp284
(dp285
g73
(dp286
sg82
g271
sg75
(lp287
g68
(g69
g70
NtRp288
(dp289
g73
(dp290
g81
I4
ssg82
g284
sg75
(lp291
S'127.0.0.1-2a9e3bdf-364a-4eee-83f8-3243c1f1d18f'
p292
ag68
(g77
g70
NtRp293
(dp294
g73
(dp295
g81
I3
ssg82
Nsg75
(lp296
g68
(g84
g70
NtRp297
(dp298
g73
(dp299
sg82
g293
sg75
(lp300
g68
(g89
g70
NtRp301
(dp302
g73
(dp303
g93
g94
ssg82
g297
sg75
(lp304
S'comment'
p305
asbag68
(g89
g70
NtRp306
(dp307
g73
(dp308
g100
g101
ssg82
g297
sg75
(lp309
S':'
asbag68
(g89
g70
NtRp310
(dp311
g73
(dp312
sg82
g297
sg75
(lp313
g68
(g69
g70
NtRp314
(dp315
g73
(dp316
g81
I3
ssg82
g310
sg75
(lp317
S''
asbasbasbag68
(g84
g70
NtRp318
(dp319
g73
(dp320
sg82
g293
sg75
(lp321
g68
(g89
g70
NtRp322
(dp323
g73
(dp324
g93
g94
ssg82
g318
sg75
(lp325
S'domain'
p326
asbag68
(g89
g70
NtRp327
(dp328
g73
(dp329
g100
g101
ssg82
g318
sg75
(lp330
S':'
asbag68
(g89
g70
NtRp331
(dp332
g73
(dp333
sg82
g318
sg75
(lp334
g68
(g69
g70
NtRp335
(dp336
g73
(dp337
g81
I3
ssg82
g331
sg75
(lp338
S''
asbasbasbag68
(g84
g70
NtRp339
(dp340
g73
(dp341
sg82
g293
sg75
(lp342
g68
(g89
g70
NtRp343
(dp344
g73
(dp345
g93
g94
ssg82
g339
sg75
(lp346
S'expires'
p347
asbag68
(g89
g70
NtRp348
(dp349
g73
(dp350
g100
g101
ssg82
g339
sg75
(lp351
S':'
asbag68
(g89
g70
NtRp352
(dp353
g73
(dp354
sg82
g339
sg75
(lp355
g68
(g69
g70
NtRp356
(dp357
g73
(dp358
g81
I3
ssg82
g352
sg75
(lp359
S''
asbasbasbag68
(g84
g70
NtRp360
(dp361
g73
(dp362
sg82
g293
sg75
(lp363
g68
(g89
g70
NtRp364
(dp365
g73
(dp366
g93
g94
ssg82
g360
sg75
(lp367
S'httponly'
p368
asbag68
(g89
g70
NtRp369
(dp370
g73
(dp371
g100
g101
ssg82
g360
sg75
(lp372
S':'
asbag68
(g89
g70
NtRp373
(dp374
g73
(dp375
sg82
g360
sg75
(lp376
g68
(g69
g70
NtRp377
(dp378
g73
(dp379
g81
I3
ssg82
g373
sg75
(lp380
S''
asbasbasbag68
(g84
g70
NtRp381
(dp382
g73
(dp383
sg82
g293
sg75
(lp384
g68
(g89
g70
NtRp385
(dp386
g73
(dp387
g93
g94
ssg82
g381
sg75
(lp388
S'max-age'
p389
asbag68
(g89
g70
NtRp390
(dp391
g73
(dp392
g100
g101
ssg82
g381
sg75
(lp393
S':'
asbag68
(g89
g70
NtRp394
(dp395
g73
(dp396
sg82
g381
sg75
(lp397
g68
(g69
g70
NtRp398
(dp399
g73
(dp400
g81
I3
ssg82
g394
sg75
(lp401
S''
asbasbasbag68
(g84
g70
NtRp402
(dp403
g73
(dp404
sg82
g293
sg75
(lp405
g68
(g89
g70
NtRp406
(dp407
g73
(dp408
g93
g94
ssg82
g402
sg75
(lp409
S'path'
p410
asbag68
(g89
g70
NtRp411
(dp412
g73
(dp413
g100
g101
ssg82
g402
sg75
(lp414
S':'
asbag68
(g89
g70
NtRp415
(dp416
g73
(dp417
sg82
g402
sg75
(lp418
g68
(g69
g70
NtRp419
(dp420
g73
(dp421
g81
I3
ssg82
g415
sg75
(lp422
S''
asbasbasbag68
(g84
g70
NtRp423
(dp424
g73
(dp425
sg82
g293
sg75
(lp426
g68
(g89
g70
NtRp427
(dp428
g73
(dp429
g93
g94
ssg82
g423
sg75
(lp430
S'secure'
p431
asbag68
(g89
g70
NtRp432
(dp433
g73
(dp434
g100
g101
ssg82
g423
sg75
(lp435
S':'
asbag68
(g89
g70
NtRp436
(dp437
g73
(dp438
sg82
g423
sg75
(lp439
g68
(g69
g70
NtRp440
(dp441
g73
(dp442
g81
I3
ssg82
g436
sg75
(lp443
S''
asbasbasbag68
(g84
g70
NtRp444
(dp445
g73
(dp446
sg82
g293
sg75
(lp447
g68
(g89
g70
NtRp448
(dp449
g73
(dp450
g93
g94
ssg82
g444
sg75
(lp451
S'version'
p452
asbag68
(g89
g70
NtRp453
(dp454
g73
(dp455
g100
g101
ssg82
g444
sg75
(lp456
S':'
asbag68
(g89
g70
NtRp457
(dp458
g73
(dp459
sg82
g444
sg75
(lp460
g68
(g69
g70
NtRp461
(dp462
g73
(dp463
g81
I3
ssg82
g457
sg75
(lp464
S''
asbasbasbasbasbasbasbag68
(g84
g70
NtRp465
(dp466
g73
(dp467
sg82
g267
sg75
(lp468
g68
(g89
g70
NtRp469
(dp470
g73
(dp471
g93
g94
ssg82
g465
sg75
(lp472
S'session_id_projeto'
p473
asbag68
(g89
g70
NtRp474
(dp475
g73
(dp476
g100
g101
ssg82
g465
sg75
(lp477
S':'
asbag68
(g89
g70
NtRp478
(dp479
g73
(dp480
sg82
g465
sg75
(lp481
g68
(g69
g70
NtRp482
(dp483
g73
(dp484
g81
I4
ssg82
g478
sg75
(lp485
S'127.0.0.1-75f1e5ae-31c3-489a-934f-26d1d736233f'
p486
ag68
(g77
g70
NtRp487
(dp488
g73
(dp489
g81
I3
ssg82
Nsg75
(lp490
g68
(g84
g70
NtRp491
(dp492
g73
(dp493
sg82
g487
sg75
(lp494
g68
(g89
g70
NtRp495
(dp496
g73
(dp497
g93
g94
ssg82
g491
sg75
(lp498
g305
asbag68
(g89
g70
NtRp499
(dp500
g73
(dp501
g100
g101
ssg82
g491
sg75
(lp502
S':'
asbag68
(g89
g70
NtRp503
(dp504
g73
(dp505
sg82
g491
sg75
(lp506
g68
(g69
g70
NtRp507
(dp508
g73
(dp509
g81
I3
ssg82
g503
sg75
(lp510
S''
asbasbasbag68
(g84
g70
NtRp511
(dp512
g73
(dp513
sg82
g487
sg75
(lp514
g68
(g89
g70
NtRp515
(dp516
g73
(dp517
g93
g94
ssg82
g511
sg75
(lp518
g326
asbag68
(g89
g70
NtRp519
(dp520
g73
(dp521
g100
g101
ssg82
g511
sg75
(lp522
S':'
asbag68
(g89
g70
NtRp523
(dp524
g73
(dp525
sg82
g511
sg75
(lp526
g68
(g69
g70
NtRp527
(dp528
g73
(dp529
g81
I3
ssg82
g523
sg75
(lp530
S''
asbasbasbag68
(g84
g70
NtRp531
(dp532
g73
(dp533
sg82
g487
sg75
(lp534
g68
(g89
g70
NtRp535
(dp536
g73
(dp537
g93
g94
ssg82
g531
sg75
(lp538
g347
asbag68
(g89
g70
NtRp539
(dp540
g73
(dp541
g100
g101
ssg82
g531
sg75
(lp542
S':'
asbag68
(g89
g70
NtRp543
(dp544
g73
(dp545
sg82
g531
sg75
(lp546
g68
(g69
g70
NtRp547
(dp548
g73
(dp549
g81
I3
ssg82
g543
sg75
(lp550
S''
asbasbasbag68
(g84
g70
NtRp551
(dp552
g73
(dp553
sg82
g487
sg75
(lp554
g68
(g89
g70
NtRp555
(dp556
g73
(dp557
g93
g94
ssg82
g551
sg75
(lp558
g368
asbag68
(g89
g70
NtRp559
(dp560
g73
(dp561
g100
g101
ssg82
g551
sg75
(lp562
S':'
asbag68
(g89
g70
NtRp563
(dp564
g73
(dp565
sg82
g551
sg75
(lp566
g68
(g69
g70
NtRp567
(dp568
g73
(dp569
g81
I3
ssg82
g563
sg75
(lp570
S''
asbasbasbag68
(g84
g70
NtRp571
(dp572
g73
(dp573
sg82
g487
sg75
(lp574
g68
(g89
g70
NtRp575
(dp576
g73
(dp577
g93
g94
ssg82
g571
sg75
(lp578
g389
asbag68
(g89
g70
NtRp579
(dp580
g73
(dp581
g100
g101
ssg82
g571
sg75
(lp582
S':'
asbag68
(g89
g70
NtRp583
(dp584
g73
(dp585
sg82
g571
sg75
(lp586
g68
(g69
g70
NtRp587
(dp588
g73
(dp589
g81
I3
ssg82
g583
sg75
(lp590
S''
asbasbasbag68
(g84
g70
NtRp591
(dp592
g73
(dp593
sg82
g487
sg75
(lp594
g68
(g89
g70
NtRp595
(dp596
g73
(dp597
g93
g94
ssg82
g591
sg75
(lp598
g410
asbag68
(g89
g70
NtRp599
(dp600
g73
(dp601
g100
g101
ssg82
g591
sg75
(lp602
S':'
asbag68
(g89
g70
NtRp603
(dp604
g73
(dp605
sg82
g591
sg75
(lp606
g68
(g69
g70
NtRp607
(dp608
g73
(dp609
g81
I3
ssg82
g603
sg75
(lp610
S''
asbasbasbag68
(g84
g70
NtRp611
(dp612
g73
(dp613
sg82
g487
sg75
(lp614
g68
(g89
g70
NtRp615
(dp616
g73
(dp617
g93
g94
ssg82
g611
sg75
(lp618
g431
asbag68
(g89
g70
NtRp619
(dp620
g73
(dp621
g100
g101
ssg82
g611
sg75
(lp622
S':'
asbag68
(g89
g70
NtRp623
(dp624
g73
(dp625
sg82
g611
sg75
(lp626
g68
(g69
g70
NtRp627
(dp628
g73
(dp629
g81
I3
ssg82
g623
sg75
(lp630
S''
asbasbasbag68
(g84
g70
NtRp631
(dp632
g73
(dp633
sg82
g487
sg75
(lp634
g68
(g89
g70
NtRp635
(dp636
g73
(dp637
g93
g94
ssg82
g631
sg75
(lp638
g452
asbag68
(g89
g70
NtRp639
(dp640
g73
(dp641
g100
g101
ssg82
g631
sg75
(lp642
S':'
asbag68
(g89
g70
NtRp643
(dp644
g73
(dp645
sg82
g631
sg75
(lp646
g68
(g69
g70
NtRp647
(dp648
g73
(dp649
g81
I3
ssg82
g643
sg75
(lp650
S''
asbasbasbasbasbasbasbasbasbasbasbag68
(g84
g70
NtRp651
(dp652
g73
(dp653
sg82
g78
sg75
(lp654
g68
(g89
g70
NtRp655
(dp656
g73
(dp657
g93
g94
ssg82
g651
sg75
(lp658
S'env'
p659
asbag68
(g89
g70
NtRp660
(dp661
g73
(dp662
g100
g101
ssg82
g651
sg75
(lp663
S':'
asbag68
(g89
g70
NtRp664
(dp665
g73
(dp666
sg82
g651
sg75
(lp667
g68
(g69
g70
NtRp668
(dp669
g73
(dp670
g81
I5
ssg82
g664
sg75
(lp671
g68
(g77
g70
NtRp672
(dp673
g73
(dp674
g81
I4
ssg82
Nsg75
(lp675
g68
(g84
g70
NtRp676
(dp677
g73
(dp678
sg82
g672
sg75
(lp679
g68
(g89
g70
NtRp680
(dp681
g73
(dp682
g93
g94
ssg82
g676
sg75
(lp683
S'app_folders'
p684
asbag68
(g89
g70
NtRp685
(dp686
g73
(dp687
g100
g101
ssg82
g676
sg75
(lp688
S':'
asbag68
(g89
g70
NtRp689
(dp690
g73
(dp691
sg82
g676
sg75
(lp692
g68
(g69
g70
NtRp693
(dp694
g73
(dp695
g81
I4
ssg82
g689
sg75
(lp696
S"set(['/var/www/hosts3/applications/admin/', '/var/www/hosts3/applications/projeto/'])"
p697
asbasbasbag68
(g84
g70
NtRp698
(dp699
g73
(dp700
sg82
g672
sg75
(lp701
g68
(g89
g70
NtRp702
(dp703
g73
(dp704
g93
g94
ssg82
g698
sg75
(lp705
S'applications_parent'
p706
asbag68
(g89
g70
NtRp707
(dp708
g73
(dp709
g100
g101
ssg82
g698
sg75
(lp710
S':'
asbag68
(g89
g70
NtRp711
(dp712
g73
(dp713
sg82
g698
sg75
(lp714
g68
(g69
g70
NtRp715
(dp716
g73
(dp717
g81
I4
ssg82
g711
sg75
(lp718
S'/var/www/hosts3'
p719
asbasbasbag68
(g84
g70
NtRp720
(dp721
g73
(dp722
sg82
g672
sg75
(lp723
g68
(g89
g70
NtRp724
(dp725
g73
(dp726
g93
g94
ssg82
g720
sg75
(lp727
S'cmd_args'
p728
asbag68
(g89
g70
NtRp729
(dp730
g73
(dp731
g100
g101
ssg82
g720
sg75
(lp732
S':'
asbag68
(g89
g70
NtRp733
(dp734
g73
(dp735
sg82
g720
sg75
(lp736
g68
(g69
g70
NtRp737
(dp738
g73
(dp739
g81
I4
ssg82
g733
sg75
(lp740
g68
(g77
g70
NtRp741
(dp742
g73
(dp743
g81
I3
ssg82
Nsg75
(lp744
sbasbasbasbag68
(g84
g70
NtRp745
(dp746
g73
(dp747
sg82
g672
sg75
(lp748
g68
(g89
g70
NtRp749
(dp750
g73
(dp751
g93
g94
ssg82
g745
sg75
(lp752
S'cmd_options'
p753
asbag68
(g89
g70
NtRp754
(dp755
g73
(dp756
g100
g101
ssg82
g745
sg75
(lp757
S':'
asbag68
(g89
g70
NtRp758
(dp759
g73
(dp760
sg82
g745
sg75
(lp761
g68
(g69
g70
NtRp762
(dp763
g73
(dp764
g81
I4
ssg82
g758
sg75
(lp765
S"<Values at 0x1929758: {'verbose': False, 'ip': '127.0.0.1', 'with_scheduler': False, 'ips': [], 'shutdown_timeout': 5, 'taskbar': False, 'port': 8000, 'maxthreads': None, 'softcron': False, 'server_name': 'fernando-workstation', 'bpython': False, 'nogui': False, 'pid_filename': 'httpserver.pid', 'extcron': False, 'runcron': False, 'run_system_tests': False, 'test': None, 'folder': '/var/www/hosts3', 'config': '', 'minthreads': None, 'winservice': '', 'shell': None, 'run': '', 'log_filename': 'httpserver.log', 'debuglevel': 30, 'args': [''], 'socket_timeout': 5, 'ssl_ca_certificate': None, 'scheduler': None, 'profiler_filename': None, 'ssl_private_key': '', 'scheduler_groups': None, 'password': '123456', 'request_queue_size': 5, 'ssl_certificate': '', 'cronjob': False, 'numthreads': None, 'quiet': False, 'interfaces': None, 'import_models': False, 'timeout': 10, 'plain': False, 'nobanner': False}>"
p766
asbasbasbag68
(g84
g70
NtRp767
(dp768
g73
(dp769
sg82
g672
sg75
(lp770
g68
(g89
g70
NtRp771
(dp772
g73
(dp773
g93
g94
ssg82
g767
sg75
(lp774
S'db_sessions'
p775
asbag68
(g89
g70
NtRp776
(dp777
g73
(dp778
g100
g101
ssg82
g767
sg75
(lp779
S':'
asbag68
(g89
g70
NtRp780
(dp781
g73
(dp782
sg82
g767
sg75
(lp783
g68
(g69
g70
NtRp784
(dp785
g73
(dp786
g81
I4
ssg82
g780
sg75
(lp787
S'set([])'
p788
asbasbasbag68
(g84
g70
NtRp789
(dp790
g73
(dp791
sg82
g672
sg75
(lp792
g68
(g89
g70
NtRp793
(dp794
g73
(dp795
g93
g94
ssg82
g789
sg75
(lp796
S'debugging'
p797
asbag68
(g89
g70
NtRp798
(dp799
g73
(dp800
g100
g101
ssg82
g789
sg75
(lp801
S':'
asbag68
(g89
g70
NtRp802
(dp803
g73
(dp804
sg82
g789
sg75
(lp805
g68
(g69
g70
NtRp806
(dp807
g73
(dp808
g81
I4
ssg82
g802
sg75
(lp809
g111
asbasbasbag68
(g84
g70
NtRp810
(dp811
g73
(dp812
sg82
g672
sg75
(lp813
g68
(g89
g70
NtRp814
(dp815
g73
(dp816
g93
g94
ssg82
g810
sg75
(lp817
S'gluon_parent'
p818
asbag68
(g89
g70
NtRp819
(dp820
g73
(dp821
g100
g101
ssg82
g810
sg75
(lp822
S':'
asbag68
(g89
g70
NtRp823
(dp824
g73
(dp825
sg82
g810
sg75
(lp826
g68
(g69
g70
NtRp827
(dp828
g73
(dp829
g81
I4
ssg82
g823
sg75
(lp830
S'/var/www/hosts3'
p831
asbasbasbag68
(g84
g70
NtRp832
(dp833
g73
(dp834
sg82
g672
sg75
(lp835
g68
(g89
g70
NtRp836
(dp837
g73
(dp838
g93
g94
ssg82
g832
sg75
(lp839
S'http_accept'
p840
asbag68
(g89
g70
NtRp841
(dp842
g73
(dp843
g100
g101
ssg82
g832
sg75
(lp844
S':'
asbag68
(g89
g70
NtRp845
(dp846
g73
(dp847
sg82
g832
sg75
(lp848
g68
(g69
g70
NtRp849
(dp850
g73
(dp851
g81
I4
ssg82
g845
sg75
(lp852
S'text/html,application/xhtml+xml,application/xml;q=0.9,*/*;q=0.8'
p853
asbasbasbag68
(g84
g70
NtRp854
(dp855
g73
(dp856
sg82
g672
sg75
(lp857
g68
(g89
g70
NtRp858
(dp859
g73
(dp860
g93
g94
ssg82
g854
sg75
(lp861
S'http_accept_charset'
p862
asbag68
(g89
g70
NtRp863
(dp864
g73
(dp865
g100
g101
ssg82
g854
sg75
(lp866
S':'
asbag68
(g89
g70
NtRp867
(dp868
g73
(dp869
sg82
g854
sg75
(lp870
g68
(g69
g70
NtRp871
(dp872
g73
(dp873
g81
I4
ssg82
g867
sg75
(lp874
S'ISO-8859-1,utf-8;q=0.7,*;q=0.3'
p875
asbasbasbag68
(g84
g70
NtRp876
(dp877
g73
(dp878
sg82
g672
sg75
(lp879
g68
(g89
g70
NtRp880
(dp881
g73
(dp882
g93
g94
ssg82
g876
sg75
(lp883
S'http_accept_encoding'
p884
asbag68
(g89
g70
NtRp885
(dp886
g73
(dp887
g100
g101
ssg82
g876
sg75
(lp888
S':'
asbag68
(g89
g70
NtRp889
(dp890
g73
(dp891
sg82
g876
sg75
(lp892
g68
(g69
g70
NtRp893
(dp894
g73
(dp895
g81
I4
ssg82
g889
sg75
(lp896
S'gzip,deflate,sdch'
p897
asbasbasbag68
(g84
g70
NtRp898
(dp899
g73
(dp900
sg82
g672
sg75
(lp901
g68
(g89
g70
NtRp902
(dp903
g73
(dp904
g93
g94
ssg82
g898
sg75
(lp905
S'http_accept_language'
p906
asbag68
(g89
g70
NtRp907
(dp908
g73
(dp909
g100
g101
ssg82
g898
sg75
(lp910
S':'
asbag68
(g89
g70
NtRp911
(dp912
g73
(dp913
sg82
g898
sg75
(lp914
g68
(g69
g70
NtRp915
(dp916
g73
(dp917
g81
I4
ssg82
g911
sg75
(lp918
S'pt-BR,pt;q=0.8,en-US;q=0.6,en;q=0.4'
p919
asbasbasbag68
(g84
g70
NtRp920
(dp921
g73
(dp922
sg82
g672
sg75
(lp923
g68
(g89
g70
NtRp924
(dp925
g73
(dp926
g93
g94
ssg82
g920
sg75
(lp927
S'http_cache_control'
p928
asbag68
(g89
g70
NtRp929
(dp930
g73
(dp931
g100
g101
ssg82
g920
sg75
(lp932
S':'
asbag68
(g89
g70
NtRp933
(dp934
g73
(dp935
sg82
g920
sg75
(lp936
g68
(g69
g70
NtRp937
(dp938
g73
(dp939
g81
I4
ssg82
g933
sg75
(lp940
S'max-age=0'
p941
asbasbasbag68
(g84
g70
NtRp942
(dp943
g73
(dp944
sg82
g672
sg75
(lp945
g68
(g89
g70
NtRp946
(dp947
g73
(dp948
g93
g94
ssg82
g942
sg75
(lp949
S'http_connection'
p950
asbag68
(g89
g70
NtRp951
(dp952
g73
(dp953
g100
g101
ssg82
g942
sg75
(lp954
S':'
asbag68
(g89
g70
NtRp955
(dp956
g73
(dp957
sg82
g942
sg75
(lp958
g68
(g69
g70
NtRp959
(dp960
g73
(dp961
g81
I4
ssg82
g955
sg75
(lp962
S'keep-alive'
p963
asbasbasbag68
(g84
g70
NtRp964
(dp965
g73
(dp966
sg82
g672
sg75
(lp967
g68
(g89
g70
NtRp968
(dp969
g73
(dp970
g93
g94
ssg82
g964
sg75
(lp971
S'http_cookie'
p972
asbag68
(g89
g70
NtRp973
(dp974
g73
(dp975
g100
g101
ssg82
g964
sg75
(lp976
S':'
asbag68
(g89
g70
NtRp977
(dp978
g73
(dp979
sg82
g964
sg75
(lp980
g68
(g69
g70
NtRp981
(dp982
g73
(dp983
g81
I4
ssg82
g977
sg75
(lp984
S'session_id_admin=127.0.0.1-2a9e3bdf-364a-4eee-83f8-3243c1f1d18f; session_id_projeto=127.0.0.1-75f1e5ae-31c3-489a-934f-26d1d736233f'
p985
asbasbasbag68
(g84
g70
NtRp986
(dp987
g73
(dp988
sg82
g672
sg75
(lp989
g68
(g89
g70
NtRp990
(dp991
g73
(dp992
g93
g94
ssg82
g986
sg75
(lp993
S'http_host'
p994
asbag68
(g89
g70
NtRp995
(dp996
g73
(dp997
g100
g101
ssg82
g986
sg75
(lp998
S':'
asbag68
(g89
g70
NtRp999
(dp1000
g73
(dp1001
sg82
g986
sg75
(lp1002
g68
(g69
g70
NtRp1003
(dp1004
g73
(dp1005
g81
I4
ssg82
g999
sg75
(lp1006
S'127.0.0.1:8000'
p1007
asbasbasbag68
(g84
g70
NtRp1008
(dp1009
g73
(dp1010
sg82
g672
sg75
(lp1011
g68
(g89
g70
NtRp1012
(dp1013
g73
(dp1014
g93
g94
ssg82
g1008
sg75
(lp1015
S'http_user_agent'
p1016
asbag68
(g89
g70
NtRp1017
(dp1018
g73
(dp1019
g100
g101
ssg82
g1008
sg75
(lp1020
S':'
asbag68
(g89
g70
NtRp1021
(dp1022
g73
(dp1023
sg82
g1008
sg75
(lp1024
g68
(g69
g70
NtRp1025
(dp1026
g73
(dp1027
g81
I4
ssg82
g1021
sg75
(lp1028
S'Mozilla/5.0 (X11; Linux x86_64) AppleWebKit/537.4 (KHTML, like Gecko) Ubuntu/12.10 Chromium/22.0.1229.94 Chrome/22.0.1229.94 Safari/537.4'
p1029
asbasbasbag68
(g84
g70
NtRp1030
(dp1031
g73
(dp1032
sg82
g672
sg75
(lp1033
g68
(g89
g70
NtRp1034
(dp1035
g73
(dp1036
g93
g94
ssg82
g1030
sg75
(lp1037
S'is_jython'
p1038
asbag68
(g89
g70
NtRp1039
(dp1040
g73
(dp1041
g100
g101
ssg82
g1030
sg75
(lp1042
S':'
asbag68
(g89
g70
NtRp1043
(dp1044
g73
(dp1045
sg82
g1030
sg75
(lp1046
g68
(g69
g70
NtRp1047
(dp1048
g73
(dp1049
g81
I4
ssg82
g1043
sg75
(lp1050
g111
asbasbasbag68
(g84
g70
NtRp1051
(dp1052
g73
(dp1053
sg82
g672
sg75
(lp1054
g68
(g89
g70
NtRp1055
(dp1056
g73
(dp1057
g93
g94
ssg82
g1051
sg75
(lp1058
S'is_pypy'
p1059
asbag68
(g89
g70
NtRp1060
(dp1061
g73
(dp1062
g100
g101
ssg82
g1051
sg75
(lp1063
S':'
asbag68
(g89
g70
NtRp1064
(dp1065
g73
(dp1066
sg82
g1051
sg75
(lp1067
g68
(g69
g70
NtRp1068
(dp1069
g73
(dp1070
g81
I4
ssg82
g1064
sg75
(lp1071
g111
asbasbasbag68
(g84
g70
NtRp1072
(dp1073
g73
(dp1074
sg82
g672
sg75
(lp1075
g68
(g89
g70
NtRp1076
(dp1077
g73
(dp1078
g93
g94
ssg82
g1072
sg75
(lp1079
S'local_hosts'
p1080
asbag68
(g89
g70
NtRp1081
(dp1082
g73
(dp1083
g100
g101
ssg82
g1072
sg75
(lp1084
S':'
asbag68
(g89
g70
NtRp1085
(dp1086
g73
(dp1087
sg82
g1072
sg75
(lp1088
g68
(g69
g70
NtRp1089
(dp1090
g73
(dp1091
g81
I4
ssg82
g1085
sg75
(lp1092
g68
(g77
g70
NtRp1093
(dp1094
g73
(dp1095
g81
I3
ssg82
Nsg75
(lp1096
g68
(g84
g70
NtRp1097
(dp1098
g73
(dp1099
sg82
g1093
sg75
(lp1100
g68
(g89
g70
NtRp1101
(dp1102
g73
(dp1103
sg82
g1097
sg75
(lp1104
g68
(g69
g70
NtRp1105
(dp1106
g73
(dp1107
g81
I3
ssg82
g1101
sg75
(lp1108
S'::1'
p1109
asbasbasbag68
(g84
g70
NtRp1110
(dp1111
g73
(dp1112
sg82
g1093
sg75
(lp1113
g68
(g89
g70
NtRp1114
(dp1115
g73
(dp1116
sg82
g1110
sg75
(lp1117
g68
(g69
g70
NtRp1118
(dp1119
g73
(dp1120
g81
I3
ssg82
g1114
sg75
(lp1121
S'::ffff:127.0.0.1'
p1122
asbasbasbag68
(g84
g70
NtRp1123
(dp1124
g73
(dp1125
sg82
g1093
sg75
(lp1126
g68
(g89
g70
NtRp1127
(dp1128
g73
(dp1129
sg82
g1123
sg75
(lp1130
g68
(g69
g70
NtRp1131
(dp1132
g73
(dp1133
g81
I3
ssg82
g1127
sg75
(lp1134
S'127.0.0.1'
p1135
asbasbasbag68
(g84
g70
NtRp1136
(dp1137
g73
(dp1138
sg82
g1093
sg75
(lp1139
g68
(g89
g70
NtRp1140
(dp1141
g73
(dp1142
sg82
g1136
sg75
(lp1143
g68
(g69
g70
NtRp1144
(dp1145
g73
(dp1146
g81
I3
ssg82
g1140
sg75
(lp1147
S'fernando-workstation'
p1148
asbasbasbasbasbasbasbag68
(g84
g70
NtRp1149
(dp1150
g73
(dp1151
sg82
g672
sg75
(lp1152
g68
(g89
g70
NtRp1153
(dp1154
g73
(dp1155
g93
g94
ssg82
g1149
sg75
(lp1156
S'path_info'
p1157
asbag68
(g89
g70
NtRp1158
(dp1159
g73
(dp1160
g100
g101
ssg82
g1149
sg75
(lp1161
S':'
asbag68
(g89
g70
NtRp1162
(dp1163
g73
(dp1164
sg82
g1149
sg75
(lp1165
g68
(g69
g70
NtRp1166
(dp1167
g73
(dp1168
g81
I4
ssg82
g1162
sg75
(lp1169
S'/'
asbasbasbag68
(g84
g70
NtRp1170
(dp1171
g73
(dp1172
sg82
g672
sg75
(lp1173
g68
(g89
g70
NtRp1174
(dp1175
g73
(dp1176
g93
g94
ssg82
g1170
sg75
(lp1177
S'query_string'
p1178
asbag68
(g89
g70
NtRp1179
(dp1180
g73
(dp1181
g100
g101
ssg82
g1170
sg75
(lp1182
S':'
asbag68
(g89
g70
NtRp1183
(dp1184
g73
(dp1185
sg82
g1170
sg75
(lp1186
g68
(g69
g70
NtRp1187
(dp1188
g73
(dp1189
g81
I4
ssg82
g1183
sg75
(lp1190
S''
asbasbasbag68
(g84
g70
NtRp1191
(dp1192
g73
(dp1193
sg82
g672
sg75
(lp1194
g68
(g89
g70
NtRp1195
(dp1196
g73
(dp1197
g93
g94
ssg82
g1191
sg75
(lp1198
S'remote_addr'
p1199
asbag68
(g89
g70
NtRp1200
(dp1201
g73
(dp1202
g100
g101
ssg82
g1191
sg75
(lp1203
S':'
asbag68
(g89
g70
NtRp1204
(dp1205
g73
(dp1206
sg82
g1191
sg75
(lp1207
g68
(g69
g70
NtRp1208
(dp1209
g73
(dp1210
g81
I4
ssg82
g1204
sg75
(lp1211
g223
asbasbasbag68
(g84
g70
NtRp1212
(dp1213
g73
(dp1214
sg82
g672
sg75
(lp1215
g68
(g89
g70
NtRp1216
(dp1217
g73
(dp1218
g93
g94
ssg82
g1212
sg75
(lp1219
S'remote_port'
p1220
asbag68
(g89
g70
NtRp1221
(dp1222
g73
(dp1223
g100
g101
ssg82
g1212
sg75
(lp1224
S':'
asbag68
(g89
g70
NtRp1225
(dp1226
g73
(dp1227
sg82
g1212
sg75
(lp1228
g68
(g69
g70
NtRp1229
(dp1230
g73
(dp1231
g81
I4
ssg82
g1225
sg75
(lp1232
S'50336'
p1233
asbasbasbag68
(g84
g70
NtRp1234
(dp1235
g73
(dp1236
sg82
g672
sg75
(lp1237
g68
(g89
g70
NtRp1238
(dp1239
g73
(dp1240
g93
g94
ssg82
g1234
sg75
(lp1241
S'request_method'
p1242
asbag68
(g89
g70
NtRp1243
(dp1244
g73
(dp1245
g100
g101
ssg82
g1234
sg75
(lp1246
S':'
asbag68
(g89
g70
NtRp1247
(dp1248
g73
(dp1249
sg82
g1234
sg75
(lp1250
g68
(g69
g70
NtRp1251
(dp1252
g73
(dp1253
g81
I4
ssg82
g1247
sg75
(lp1254
S'GET'
p1255
asbasbasbag68
(g84
g70
NtRp1256
(dp1257
g73
(dp1258
sg82
g672
sg75
(lp1259
g68
(g89
g70
NtRp1260
(dp1261
g73
(dp1262
g93
g94
ssg82
g1256
sg75
(lp1263
S'request_uri'
p1264
asbag68
(g89
g70
NtRp1265
(dp1266
g73
(dp1267
g100
g101
ssg82
g1256
sg75
(lp1268
S':'
asbag68
(g89
g70
NtRp1269
(dp1270
g73
(dp1271
sg82
g1256
sg75
(lp1272
g68
(g69
g70
NtRp1273
(dp1274
g73
(dp1275
g81
I4
ssg82
g1269
sg75
(lp1276
S'/projeto/initial/principal'
p1277
asbasbasbag68
(g84
g70
NtRp1278
(dp1279
g73
(dp1280
sg82
g672
sg75
(lp1281
g68
(g89
g70
NtRp1282
(dp1283
g73
(dp1284
g93
g94
ssg82
g1278
sg75
(lp1285
S'script_name'
p1286
asbag68
(g89
g70
NtRp1287
(dp1288
g73
(dp1289
g100
g101
ssg82
g1278
sg75
(lp1290
S':'
asbag68
(g89
g70
NtRp1291
(dp1292
g73
(dp1293
sg82
g1278
sg75
(lp1294
g68
(g69
g70
NtRp1295
(dp1296
g73
(dp1297
g81
I4
ssg82
g1291
sg75
(lp1298
S''
asbasbasbag68
(g84
g70
NtRp1299
(dp1300
g73
(dp1301
sg82
g672
sg75
(lp1302
g68
(g89
g70
NtRp1303
(dp1304
g73
(dp1305
g93
g94
ssg82
g1299
sg75
(lp1306
S'server_name'
p1307
asbag68
(g89
g70
NtRp1308
(dp1309
g73
(dp1310
g100
g101
ssg82
g1299
sg75
(lp1311
S':'
asbag68
(g89
g70
NtRp1312
(dp1313
g73
(dp1314
sg82
g1299
sg75
(lp1315
g68
(g69
g70
NtRp1316
(dp1317
g73
(dp1318
g81
I4
ssg82
g1312
sg75
(lp1319
S'fernando-workstation'
p1320
asbasbasbag68
(g84
g70
NtRp1321
(dp1322
g73
(dp1323
sg82
g672
sg75
(lp1324
g68
(g89
g70
NtRp1325
(dp1326
g73
(dp1327
g93
g94
ssg82
g1321
sg75
(lp1328
S'server_port'
p1329
asbag68
(g89
g70
NtRp1330
(dp1331
g73
(dp1332
g100
g101
ssg82
g1321
sg75
(lp1333
S':'
asbag68
(g89
g70
NtRp1334
(dp1335
g73
(dp1336
sg82
g1321
sg75
(lp1337
g68
(g69
g70
NtRp1338
(dp1339
g73
(dp1340
g81
I4
ssg82
g1334
sg75
(lp1341
S'8000'
p1342
asbasbasbag68
(g84
g70
NtRp1343
(dp1344
g73
(dp1345
sg82
g672
sg75
(lp1346
g68
(g89
g70
NtRp1347
(dp1348
g73
(dp1349
g93
g94
ssg82
g1343
sg75
(lp1350
S'server_protocol'
p1351
asbag68
(g89
g70
NtRp1352
(dp1353
g73
(dp1354
g100
g101
ssg82
g1343
sg75
(lp1355
S':'
asbag68
(g89
g70
NtRp1356
(dp1357
g73
(dp1358
sg82
g1343
sg75
(lp1359
g68
(g69
g70
NtRp1360
(dp1361
g73
(dp1362
g81
I4
ssg82
g1356
sg75
(lp1363
S'HTTP/1.1'
p1364
asbasbasbag68
(g84
g70
NtRp1365
(dp1366
g73
(dp1367
sg82
g672
sg75
(lp1368
g68
(g89
g70
NtRp1369
(dp1370
g73
(dp1371
g93
g94
ssg82
g1365
sg75
(lp1372
S'server_software'
p1373
asbag68
(g89
g70
NtRp1374
(dp1375
g73
(dp1376
g100
g101
ssg82
g1365
sg75
(lp1377
S':'
asbag68
(g89
g70
NtRp1378
(dp1379
g73
(dp1380
sg82
g1365
sg75
(lp1381
g68
(g69
g70
NtRp1382
(dp1383
g73
(dp1384
g81
I4
ssg82
g1378
sg75
(lp1385
S'Rocket 1.2.6'
p1386
asbasbasbag68
(g84
g70
NtRp1387
(dp1388
g73
(dp1389
sg82
g672
sg75
(lp1390
g68
(g89
g70
NtRp1391
(dp1392
g73
(dp1393
g93
g94
ssg82
g1387
sg75
(lp1394
S'web2py_original_uri'
p1395
asbag68
(g89
g70
NtRp1396
(dp1397
g73
(dp1398
g100
g101
ssg82
g1387
sg75
(lp1399
S':'
asbag68
(g89
g70
NtRp1400
(dp1401
g73
(dp1402
sg82
g1387
sg75
(lp1403
g68
(g69
g70
NtRp1404
(dp1405
g73
(dp1406
g81
I4
ssg82
g1400
sg75
(lp1407
S'/'
asbasbasbag68
(g84
g70
NtRp1408
(dp1409
g73
(dp1410
sg82
g672
sg75
(lp1411
g68
(g89
g70
NtRp1412
(dp1413
g73
(dp1414
g93
g94
ssg82
g1408
sg75
(lp1415
S'web2py_path'
p1416
asbag68
(g89
g70
NtRp1417
(dp1418
g73
(dp1419
g100
g101
ssg82
g1408
sg75
(lp1420
S':'
asbag68
(g89
g70
NtRp1421
(dp1422
g73
(dp1423
sg82
g1408
sg75
(lp1424
g68
(g69
g70
NtRp1425
(dp1426
g73
(dp1427
g81
I4
ssg82
g1421
sg75
(lp1428
g719
asbasbasbag68
(g84
g70
NtRp1429
(dp1430
g73
(dp1431
sg82
g672
sg75
(lp1432
g68
(g89
g70
NtRp1433
(dp1434
g73
(dp1435
g93
g94
ssg82
g1429
sg75
(lp1436
S'web2py_version'
p1437
asbag68
(g89
g70
NtRp1438
(dp1439
g73
(dp1440
g100
g101
ssg82
g1429
sg75
(lp1441
S':'
asbag68
(g89
g70
NtRp1442
(dp1443
g73
(dp1444
sg82
g1429
sg75
(lp1445
g68
(g69
g70
NtRp1446
(dp1447
g73
(dp1448
g81
I4
ssg82
g1442
sg75
(lp1449
g68
(g77
g70
NtRp1450
(dp1451
g73
(dp1452
g81
I3
ssg82
Nsg75
(lp1453
g68
(g84
g70
NtRp1454
(dp1455
g73
(dp1456
sg82
g1450
sg75
(lp1457
g68
(g89
g70
NtRp1458
(dp1459
g73
(dp1460
sg82
g1454
sg75
(lp1461
g68
(g69
g70
NtRp1462
(dp1463
g73
(dp1464
g81
I3
ssg82
g1458
sg75
(lp1465
S'2'
asbasbasbag68
(g84
g70
NtRp1466
(dp1467
g73
(dp1468
sg82
g1450
sg75
(lp1469
g68
(g89
g70
NtRp1470
(dp1471
g73
(dp1472
sg82
g1466
sg75
(lp1473
g68
(g69
g70
NtRp1474
(dp1475
g73
(dp1476
g81
I3
ssg82
g1470
sg75
(lp1477
S'3'
asbasbasbag68
(g84
g70
NtRp1478
(dp1479
g73
(dp1480
sg82
g1450
sg75
(lp1481
g68
(g89
g70
NtRp1482
(dp1483
g73
(dp1484
sg82
g1478
sg75
(lp1485
g68
(g69
g70
NtRp1486
(dp1487
g73
(dp1488
g81
I3
ssg82
g1482
sg75
(lp1489
S'2'
asbasbasbag68
(g84
g70
NtRp1490
(dp1491
g73
(dp1492
sg82
g1450
sg75
(lp1493
g68
(g89
g70
NtRp1494
(dp1495
g73
(dp1496
sg82
g1490
sg75
(lp1497
g68
(g69
g70
NtRp1498
(dp1499
g73
(dp1500
g81
I3
ssg82
g1494
sg75
(lp1501
S'datetime.datetime(2012, 12, 17, 15, 3, 30)'
p1502
asbasbasbag68
(g84
g70
NtRp1503
(dp1504
g73
(dp1505
sg82
g1450
sg75
(lp1506
g68
(g89
g70
NtRp1507
(dp1508
g73
(dp1509
sg82
g1503
sg75
(lp1510
g68
(g69
g70
NtRp1511
(dp1512
g73
(dp1513
g81
I3
ssg82
g1507
sg75
(lp1514
S'stable'
p1515
asbasbasbasbasbasbasbag68
(g84
g70
NtRp1516
(dp1517
g73
(dp1518
sg82
g672
sg75
(lp1519
g68
(g89
g70
NtRp1520
(dp1521
g73
(dp1522
g93
g94
ssg82
g1516
sg75
(lp1523
S'wsgi_errors'
p1524
asbag68
(g89
g70
NtRp1525
(dp1526
g73
(dp1527
g100
g101
ssg82
g1516
sg75
(lp1528
S':'
asbag68
(g89
g70
NtRp1529
(dp1530
g73
(dp1531
sg82
g1516
sg75
(lp1532
g68
(g69
g70
NtRp1533
(dp1534
g73
(dp1535
g81
I4
ssg82
g1529
sg75
(lp1536
S"<open file '<stderr>', mode 'w' at 0x7fca327ca270>"
p1537
asbasbasbag68
(g84
g70
NtRp1538
(dp1539
g73
(dp1540
sg82
g672
sg75
(lp1541
g68
(g89
g70
NtRp1542
(dp1543
g73
(dp1544
g93
g94
ssg82
g1538
sg75
(lp1545
S'wsgi_file_wrapper'
p1546
asbag68
(g89
g70
NtRp1547
(dp1548
g73
(dp1549
g100
g101
ssg82
g1538
sg75
(lp1550
S':'
asbag68
(g89
g70
NtRp1551
(dp1552
g73
(dp1553
sg82
g1538
sg75
(lp1554
g68
(g69
g70
NtRp1555
(dp1556
g73
(dp1557
g81
I4
ssg82
g1551
sg75
(lp1558
S'<class wsgiref.util.FileWrapper at 0x189f4c8>'
p1559
asbasbasbag68
(g84
g70
NtRp1560
(dp1561
g73
(dp1562
sg82
g672
sg75
(lp1563
g68
(g89
g70
NtRp1564
(dp1565
g73
(dp1566
g93
g94
ssg82
g1560
sg75
(lp1567
S'wsgi_input'
p1568
asbag68
(g89
g70
NtRp1569
(dp1570
g73
(dp1571
g100
g101
ssg82
g1560
sg75
(lp1572
S':'
asbag68
(g89
g70
NtRp1573
(dp1574
g73
(dp1575
sg82
g1560
sg75
(lp1576
g68
(g69
g70
NtRp1577
(dp1578
g73
(dp1579
g81
I4
ssg82
g1573
sg75
(lp1580
S'<socket._fileobject object at 0x7fca1c401250>'
p1581
asbasbasbag68
(g84
g70
NtRp1582
(dp1583
g73
(dp1584
sg82
g672
sg75
(lp1585
g68
(g89
g70
NtRp1586
(dp1587
g73
(dp1588
g93
g94
ssg82
g1582
sg75
(lp1589
S'wsgi_multiprocess'
p1590
asbag68
(g89
g70
NtRp1591
(dp1592
g73
(dp1593
g100
g101
ssg82
g1582
sg75
(lp1594
S':'
asbag68
(g89
g70
NtRp1595
(dp1596
g73
(dp1597
sg82
g1582
sg75
(lp1598
g68
(g69
g70
NtRp1599
(dp1600
g73
(dp1601
g81
I4
ssg82
g1595
sg75
(lp1602
g111
asbasbasbag68
(g84
g70
NtRp1603
(dp1604
g73
(dp1605
sg82
g672
sg75
(lp1606
g68
(g89
g70
NtRp1607
(dp1608
g73
(dp1609
g93
g94
ssg82
g1603
sg75
(lp1610
S'wsgi_multithread'
p1611
asbag68
(g89
g70
NtRp1612
(dp1613
g73
(dp1614
g100
g101
ssg82
g1603
sg75
(lp1615
S':'
asbag68
(g89
g70
NtRp1616
(dp1617
g73
(dp1618
sg82
g1603
sg75
(lp1619
g68
(g69
g70
NtRp1620
(dp1621
g73
(dp1622
g81
I4
ssg82
g1616
sg75
(lp1623
S'True'
p1624
asbasbasbag68
(g84
g70
NtRp1625
(dp1626
g73
(dp1627
sg82
g672
sg75
(lp1628
g68
(g89
g70
NtRp1629
(dp1630
g73
(dp1631
g93
g94
ssg82
g1625
sg75
(lp1632
S'wsgi_run_once'
p1633
asbag68
(g89
g70
NtRp1634
(dp1635
g73
(dp1636
g100
g101
ssg82
g1625
sg75
(lp1637
S':'
asbag68
(g89
g70
NtRp1638
(dp1639
g73
(dp1640
sg82
g1625
sg75
(lp1641
g68
(g69
g70
NtRp1642
(dp1643
g73
(dp1644
g81
I4
ssg82
g1638
sg75
(lp1645
g111
asbasbasbag68
(g84
g70
NtRp1646
(dp1647
g73
(dp1648
sg82
g672
sg75
(lp1649
g68
(g89
g70
NtRp1650
(dp1651
g73
(dp1652
g93
g94
ssg82
g1646
sg75
(lp1653
S'wsgi_url_scheme'
p1654
asbag68
(g89
g70
NtRp1655
(dp1656
g73
(dp1657
g100
g101
ssg82
g1646
sg75
(lp1658
S':'
asbag68
(g89
g70
NtRp1659
(dp1660
g73
(dp1661
sg82
g1646
sg75
(lp1662
g68
(g69
g70
NtRp1663
(dp1664
g73
(dp1665
g81
I4
ssg82
g1659
sg75
(lp1666
S'http'
p1667
asbasbasbag68
(g84
g70
NtRp1668
(dp1669
g73
(dp1670
sg82
g672
sg75
(lp1671
g68
(g89
g70
NtRp1672
(dp1673
g73
(dp1674
g93
g94
ssg82
g1668
sg75
(lp1675
S'wsgi_version'
p1676
asbag68
(g89
g70
NtRp1677
(dp1678
g73
(dp1679
g100
g101
ssg82
g1668
sg75
(lp1680
S':'
asbag68
(g89
g70
NtRp1681
(dp1682
g73
(dp1683
sg82
g1668
sg75
(lp1684
g68
(g69
g70
NtRp1685
(dp1686
g73
(dp1687
g81
I4
ssg82
g1681
sg75
(lp1688
g68
(g77
g70
NtRp1689
(dp1690
g73
(dp1691
g81
I3
ssg82
Nsg75
(lp1692
g68
(g84
g70
NtRp1693
(dp1694
g73
(dp1695
sg82
g1689
sg75
(lp1696
g68
(g89
g70
NtRp1697
(dp1698
g73
(dp1699
sg82
g1693
sg75
(lp1700
g68
(g69
g70
NtRp1701
(dp1702
g73
(dp1703
g81
I3
ssg82
g1697
sg75
(lp1704
S'1'
asbasbasbag68
(g84
g70
NtRp1705
(dp1706
g73
(dp1707
sg82
g1689
sg75
(lp1708
g68
(g89
g70
NtRp1709
(dp1710
g73
(dp1711
sg82
g1705
sg75
(lp1712
g68
(g69
g70
NtRp1713
(dp1714
g73
(dp1715
g81
I3
ssg82
g1709
sg75
(lp1716
S'0'
asbasbasbasbasbasbasbasbasbasbasbag68
(g84
g70
NtRp1717
(dp1718
g73
(dp1719
sg82
g78
sg75
(lp1720
g68
(g89
g70
NtRp1721
(dp1722
g73
(dp1723
g93
g94
ssg82
g1717
sg75
(lp1724
S'extension'
p1725
asbag68
(g89
g70
NtRp1726
(dp1727
g73
(dp1728
g100
g101
ssg82
g1717
sg75
(lp1729
S':'
asbag68
(g89
g70
NtRp1730
(dp1731
g73
(dp1732
sg82
g1717
sg75
(lp1733
g68
(g69
g70
NtRp1734
(dp1735
g73
(dp1736
g81
I5
ssg82
g1730
sg75
(lp1737
S'html'
p1738
asbasbasbag68
(g84
g70
NtRp1739
(dp1740
g73
(dp1741
sg82
g78
sg75
(lp1742
g68
(g89
g70
NtRp1743
(dp1744
g73
(dp1745
g93
g94
ssg82
g1739
sg75
(lp1746
S'folder'
p1747
asbag68
(g89
g70
NtRp1748
(dp1749
g73
(dp1750
g100
g101
ssg82
g1739
sg75
(lp1751
S':'
asbag68
(g89
g70
NtRp1752
(dp1753
g73
(dp1754
sg82
g1739
sg75
(lp1755
g68
(g69
g70
NtRp1756
(dp1757
g73
(dp1758
g81
I5
ssg82
g1752
sg75
(lp1759
S'/var/www/hosts3/applications/projeto/'
p1760
asbasbasbag68
(g84
g70
NtRp1761
(dp1762
g73
(dp1763
sg82
g78
sg75
(lp1764
g68
(g89
g70
NtRp1765
(dp1766
g73
(dp1767
g93
g94
ssg82
g1761
sg75
(lp1768
S'function'
p1769
asbag68
(g89
g70
NtRp1770
(dp1771
g73
(dp1772
g100
g101
ssg82
g1761
sg75
(lp1773
S':'
asbag68
(g89
g70
NtRp1774
(dp1775
g73
(dp1776
sg82
g1761
sg75
(lp1777
g68
(g69
g70
NtRp1778
(dp1779
g73
(dp1780
g81
I5
ssg82
g1774
sg75
(lp1781
S'principal'
p1782
asbasbasbag68
(g84
g70
NtRp1783
(dp1784
g73
(dp1785
sg82
g78
sg75
(lp1786
g68
(g89
g70
NtRp1787
(dp1788
g73
(dp1789
g93
g94
ssg82
g1783
sg75
(lp1790
S'get_vars'
p1791
asbag68
(g89
g70
NtRp1792
(dp1793
g73
(dp1794
g100
g101
ssg82
g1783
sg75
(lp1795
S':'
asbag68
(g89
g70
NtRp1796
(dp1797
g73
(dp1798
sg82
g1783
sg75
(lp1799
g68
(g69
g70
NtRp1800
(dp1801
g73
(dp1802
g81
I5
ssg82
g1796
sg75
(lp1803
g68
(g77
g70
NtRp1804
(dp1805
g73
(dp1806
g81
I4
ssg82
Nsg75
(lp1807
sbasbasbasbag68
(g84
g70
NtRp1808
(dp1809
g73
(dp1810
sg82
g78
sg75
(lp1811
g68
(g89
g70
NtRp1812
(dp1813
g73
(dp1814
g93
g94
ssg82
g1808
sg75
(lp1815
S'global_settings'
p1816
asbag68
(g89
g70
NtRp1817
(dp1818
g73
(dp1819
g100
g101
ssg82
g1808
sg75
(lp1820
S':'
asbag68
(g89
g70
NtRp1821
(dp1822
g73
(dp1823
sg82
g1808
sg75
(lp1824
g68
(g69
g70
NtRp1825
(dp1826
g73
(dp1827
g81
I5
ssg82
g1821
sg75
(lp1828
g68
(g77
g70
NtRp1829
(dp1830
g73
(dp1831
g81
I4
ssg82
Nsg75
(lp1832
g68
(g84
g70
NtRp1833
(dp1834
g73
(dp1835
sg82
g1829
sg75
(lp1836
g68
(g89
g70
NtRp1837
(dp1838
g73
(dp1839
g93
g94
ssg82
g1833
sg75
(lp1840
g684
asbag68
(g89
g70
NtRp1841
(dp1842
g73
(dp1843
g100
g101
ssg82
g1833
sg75
(lp1844
S':'
asbag68
(g89
g70
NtRp1845
(dp1846
g73
(dp1847
sg82
g1833
sg75
(lp1848
g68
(g69
g70
NtRp1849
(dp1850
g73
(dp1851
g81
I4
ssg82
g1845
sg75
(lp1852
S"set(['/var/www/hosts3/applications/admin/', '/var/www/hosts3/applications/projeto/'])"
p1853
asbasbasbag68
(g84
g70
NtRp1854
(dp1855
g73
(dp1856
sg82
g1829
sg75
(lp1857
g68
(g89
g70
NtRp1858
(dp1859
g73
(dp1860
g93
g94
ssg82
g1854
sg75
(lp1861
g706
asbag68
(g89
g70
NtRp1862
(dp1863
g73
(dp1864
g100
g101
ssg82
g1854
sg75
(lp1865
S':'
asbag68
(g89
g70
NtRp1866
(dp1867
g73
(dp1868
sg82
g1854
sg75
(lp1869
g68
(g69
g70
NtRp1870
(dp1871
g73
(dp1872
g81
I4
ssg82
g1866
sg75
(lp1873
g719
asbasbasbag68
(g84
g70
NtRp1874
(dp1875
g73
(dp1876
sg82
g1829
sg75
(lp1877
g68
(g89
g70
NtRp1878
(dp1879
g73
(dp1880
g93
g94
ssg82
g1874
sg75
(lp1881
g728
asbag68
(g89
g70
NtRp1882
(dp1883
g73
(dp1884
g100
g101
ssg82
g1874
sg75
(lp1885
S':'
asbag68
(g89
g70
NtRp1886
(dp1887
g73
(dp1888
sg82
g1874
sg75
(lp1889
g68
(g69
g70
NtRp1890
(dp1891
g73
(dp1892
g81
I4
ssg82
g1886
sg75
(lp1893
g68
(g77
g70
NtRp1894
(dp1895
g73
(dp1896
g81
I3
ssg82
Nsg75
(lp1897
sbasbasbasbag68
(g84
g70
NtRp1898
(dp1899
g73
(dp1900
sg82
g1829
sg75
(lp1901
g68
(g89
g70
NtRp1902
(dp1903
g73
(dp1904
g93
g94
ssg82
g1898
sg75
(lp1905
g753
asbag68
(g89
g70
NtRp1906
(dp1907
g73
(dp1908
g100
g101
ssg82
g1898
sg75
(lp1909
S':'
asbag68
(g89
g70
NtRp1910
(dp1911
g73
(dp1912
sg82
g1898
sg75
(lp1913
g68
(g69
g70
NtRp1914
(dp1915
g73
(dp1916
g81
I4
ssg82
g1910
sg75
(lp1917
S"<Values at 0x1929758: {'verbose': False, 'ip': '127.0.0.1', 'with_scheduler': False, 'ips': [], 'shutdown_timeout': 5, 'taskbar': False, 'port': 8000, 'maxthreads': None, 'softcron': False, 'server_name': 'fernando-workstation', 'bpython': False, 'nogui': False, 'pid_filename': 'httpserver.pid', 'extcron': False, 'runcron': False, 'run_system_tests': False, 'test': None, 'folder': '/var/www/hosts3', 'config': '', 'minthreads': None, 'winservice': '', 'shell': None, 'run': '', 'log_filename': 'httpserver.log', 'debuglevel': 30, 'args': [''], 'socket_timeout': 5, 'ssl_ca_certificate': None, 'scheduler': None, 'profiler_filename': None, 'ssl_private_key': '', 'scheduler_groups': None, 'password': '123456', 'request_queue_size': 5, 'ssl_certificate': '', 'cronjob': False, 'numthreads': None, 'quiet': False, 'interfaces': None, 'import_models': False, 'timeout': 10, 'plain': False, 'nobanner': False}>"
p1918
asbasbasbag68
(g84
g70
NtRp1919
(dp1920
g73
(dp1921
sg82
g1829
sg75
(lp1922
g68
(g89
g70
NtRp1923
(dp1924
g73
(dp1925
g93
g94
ssg82
g1919
sg75
(lp1926
g775
asbag68
(g89
g70
NtRp1927
(dp1928
g73
(dp1929
g100
g101
ssg82
g1919
sg75
(lp1930
S':'
asbag68
(g89
g70
NtRp1931
(dp1932
g73
(dp1933
sg82
g1919
sg75
(lp1934
g68
(g69
g70
NtRp1935
(dp1936
g73
(dp1937
g81
I4
ssg82
g1931
sg75
(lp1938
S'set([])'
p1939
asbasbasbag68
(g84
g70
NtRp1940
(dp1941
g73
(dp1942
sg82
g1829
sg75
(lp1943
g68
(g89
g70
NtRp1944
(dp1945
g73
(dp1946
g93
g94
ssg82
g1940
sg75
(lp1947
g797
asbag68
(g89
g70
NtRp1948
(dp1949
g73
(dp1950
g100
g101
ssg82
g1940
sg75
(lp1951
S':'
asbag68
(g89
g70
NtRp1952
(dp1953
g73
(dp1954
sg82
g1940
sg75
(lp1955
g68
(g69
g70
NtRp1956
(dp1957
g73
(dp1958
g81
I4
ssg82
g1952
sg75
(lp1959
g111
asbasbasbag68
(g84
g70
NtRp1960
(dp1961
g73
(dp1962
sg82
g1829
sg75
(lp1963
g68
(g89
g70
NtRp1964
(dp1965
g73
(dp1966
g93
g94
ssg82
g1960
sg75
(lp1967
g818
asbag68
(g89
g70
NtRp1968
(dp1969
g73
(dp1970
g100
g101
ssg82
g1960
sg75
(lp1971
S':'
asbag68
(g89
g70
NtRp1972
(dp1973
g73
(dp1974
sg82
g1960
sg75
(lp1975
g68
(g69
g70
NtRp1976
(dp1977
g73
(dp1978
g81
I4
ssg82
g1972
sg75
(lp1979
g831
asbasbasbag68
(g84
g70
NtRp1980
(dp1981
g73
(dp1982
sg82
g1829
sg75
(lp1983
g68
(g89
g70
NtRp1984
(dp1985
g73
(dp1986
g93
g94
ssg82
g1980
sg75
(lp1987
g1038
asbag68
(g89
g70
NtRp1988
(dp1989
g73
(dp1990
g100
g101
ssg82
g1980
sg75
(lp1991
S':'
asbag68
(g89
g70
NtRp1992
(dp1993
g73
(dp1994
sg82
g1980
sg75
(lp1995
g68
(g69
g70
NtRp1996
(dp1997
g73
(dp1998
g81
I4
ssg82
g1992
sg75
(lp1999
g111
asbasbasbag68
(g84
g70
NtRp2000
(dp2001
g73
(dp2002
sg82
g1829
sg75
(lp2003
g68
(g89
g70
NtRp2004
(dp2005
g73
(dp2006
g93
g94
ssg82
g2000
sg75
(lp2007
g1059
asbag68
(g89
g70
NtRp2008
(dp2009
g73
(dp2010
g100
g101
ssg82
g2000
sg75
(lp2011
S':'
asbag68
(g89
g70
NtRp2012
(dp2013
g73
(dp2014
sg82
g2000
sg75
(lp2015
g68
(g69
g70
NtRp2016
(dp2017
g73
(dp2018
g81
I4
ssg82
g2012
sg75
(lp2019
g111
asbasbasbag68
(g84
g70
NtRp2020
(dp2021
g73
(dp2022
sg82
g1829
sg75
(lp2023
g68
(g89
g70
NtRp2024
(dp2025
g73
(dp2026
g93
g94
ssg82
g2020
sg75
(lp2027
g1080
asbag68
(g89
g70
NtRp2028
(dp2029
g73
(dp2030
g100
g101
ssg82
g2020
sg75
(lp2031
S':'
asbag68
(g89
g70
NtRp2032
(dp2033
g73
(dp2034
sg82
g2020
sg75
(lp2035
g68
(g69
g70
NtRp2036
(dp2037
g73
(dp2038
g81
I4
ssg82
g2032
sg75
(lp2039
g68
(g77
g70
NtRp2040
(dp2041
g73
(dp2042
g81
I3
ssg82
Nsg75
(lp2043
g68
(g84
g70
NtRp2044
(dp2045
g73
(dp2046
sg82
g2040
sg75
(lp2047
g68
(g89
g70
NtRp2048
(dp2049
g73
(dp2050
sg82
g2044
sg75
(lp2051
g68
(g69
g70
NtRp2052
(dp2053
g73
(dp2054
g81
I3
ssg82
g2048
sg75
(lp2055
g1109
asbasbasbag68
(g84
g70
NtRp2056
(dp2057
g73
(dp2058
sg82
g2040
sg75
(lp2059
g68
(g89
g70
NtRp2060
(dp2061
g73
(dp2062
sg82
g2056
sg75
(lp2063
g68
(g69
g70
NtRp2064
(dp2065
g73
(dp2066
g81
I3
ssg82
g2060
sg75
(lp2067
g1122
asbasbasbag68
(g84
g70
NtRp2068
(dp2069
g73
(dp2070
sg82
g2040
sg75
(lp2071
g68
(g89
g70
NtRp2072
(dp2073
g73
(dp2074
sg82
g2068
sg75
(lp2075
g68
(g69
g70
NtRp2076
(dp2077
g73
(dp2078
g81
I3
ssg82
g2072
sg75
(lp2079
g1135
asbasbasbag68
(g84
g70
NtRp2080
(dp2081
g73
(dp2082
sg82
g2040
sg75
(lp2083
g68
(g89
g70
NtRp2084
(dp2085
g73
(dp2086
sg82
g2080
sg75
(lp2087
g68
(g69
g70
NtRp2088
(dp2089
g73
(dp2090
g81
I3
ssg82
g2084
sg75
(lp2091
g1148
asbasbasbasbasbasbasbag68
(g84
g70
NtRp2092
(dp2093
g73
(dp2094
sg82
g1829
sg75
(lp2095
g68
(g89
g70
NtRp2096
(dp2097
g73
(dp2098
g93
g94
ssg82
g2092
sg75
(lp2099
g1437
asbag68
(g89
g70
NtRp2100
(dp2101
g73
(dp2102
g100
g101
ssg82
g2092
sg75
(lp2103
S':'
asbag68
(g89
g70
NtRp2104
(dp2105
g73
(dp2106
sg82
g2092
sg75
(lp2107
g68
(g69
g70
NtRp2108
(dp2109
g73
(dp2110
g81
I4
ssg82
g2104
sg75
(lp2111
g68
(g77
g70
NtRp2112
(dp2113
g73
(dp2114
g81
I3
ssg82
Nsg75
(lp2115
g68
(g84
g70
NtRp2116
(dp2117
g73
(dp2118
sg82
g2112
sg75
(lp2119
g68
(g89
g70
NtRp2120
(dp2121
g73
(dp2122
sg82
g2116
sg75
(lp2123
g68
(g69
g70
NtRp2124
(dp2125
g73
(dp2126
g81
I3
ssg82
g2120
sg75
(lp2127
S'2'
asbasbasbag68
(g84
g70
NtRp2128
(dp2129
g73
(dp2130
sg82
g2112
sg75
(lp2131
g68
(g89
g70
NtRp2132
(dp2133
g73
(dp2134
sg82
g2128
sg75
(lp2135
g68
(g69
g70
NtRp2136
(dp2137
g73
(dp2138
g81
I3
ssg82
g2132
sg75
(lp2139
S'3'
asbasbasbag68
(g84
g70
NtRp2140
(dp2141
g73
(dp2142
sg82
g2112
sg75
(lp2143
g68
(g89
g70
NtRp2144
(dp2145
g73
(dp2146
sg82
g2140
sg75
(lp2147
g68
(g69
g70
NtRp2148
(dp2149
g73
(dp2150
g81
I3
ssg82
g2144
sg75
(lp2151
S'2'
asbasbasbag68
(g84
g70
NtRp2152
(dp2153
g73
(dp2154
sg82
g2112
sg75
(lp2155
g68
(g89
g70
NtRp2156
(dp2157
g73
(dp2158
sg82
g2152
sg75
(lp2159
g68
(g69
g70
NtRp2160
(dp2161
g73
(dp2162
g81
I3
ssg82
g2156
sg75
(lp2163
S'datetime.datetime(2012, 12, 17, 15, 3, 30)'
p2164
asbasbasbag68
(g84
g70
NtRp2165
(dp2166
g73
(dp2167
sg82
g2112
sg75
(lp2168
g68
(g89
g70
NtRp2169
(dp2170
g73
(dp2171
sg82
g2165
sg75
(lp2172
g68
(g69
g70
NtRp2173
(dp2174
g73
(dp2175
g81
I3
ssg82
g2169
sg75
(lp2176
g1515
asbasbasbasbasbasbasbasbasbasbasbag68
(g84
g70
NtRp2177
(dp2178
g73
(dp2179
sg82
g78
sg75
(lp2180
g68
(g89
g70
NtRp2181
(dp2182
g73
(dp2183
g93
g94
ssg82
g2177
sg75
(lp2184
S'is_https'
p2185
asbag68
(g89
g70
NtRp2186
(dp2187
g73
(dp2188
g100
g101
ssg82
g2177
sg75
(lp2189
S':'
asbag68
(g89
g70
NtRp2190
(dp2191
g73
(dp2192
sg82
g2177
sg75
(lp2193
g68
(g69
g70
NtRp2194
(dp2195
g73
(dp2196
g81
I5
ssg82
g2190
sg75
(lp2197
g111
asbasbasbag68
(g84
g70
NtRp2198
(dp2199
g73
(dp2200
sg82
g78
sg75
(lp2201
g68
(g89
g70
NtRp2202
(dp2203
g73
(dp2204
g93
g94
ssg82
g2198
sg75
(lp2205
S'is_local'
p2206
asbag68
(g89
g70
NtRp2207
(dp2208
g73
(dp2209
g100
g101
ssg82
g2198
sg75
(lp2210
S':'
asbag68
(g89
g70
NtRp2211
(dp2212
g73
(dp2213
sg82
g2198
sg75
(lp2214
g68
(g69
g70
NtRp2215
(dp2216
g73
(dp2217
g81
I5
ssg82
g2211
sg75
(lp2218
g1624
asbasbasbag68
(g84
g70
NtRp2219
(dp2220
g73
(dp2221
sg82
g78
sg75
(lp2222
g68
(g89
g70
NtRp2223
(dp2224
g73
(dp2225
g93
g94
ssg82
g2219
sg75
(lp2226
S'is_restful'
p2227
asbag68
(g89
g70
NtRp2228
(dp2229
g73
(dp2230
g100
g101
ssg82
g2219
sg75
(lp2231
S':'
asbag68
(g89
g70
NtRp2232
(dp2233
g73
(dp2234
sg82
g2219
sg75
(lp2235
g68
(g69
g70
NtRp2236
(dp2237
g73
(dp2238
g81
I5
ssg82
g2232
sg75
(lp2239
g111
asbasbasbag68
(g84
g70
NtRp2240
(dp2241
g73
(dp2242
sg82
g78
sg75
(lp2243
g68
(g89
g70
NtRp2244
(dp2245
g73
(dp2246
g93
g94
ssg82
g2240
sg75
(lp2247
S'now'
p2248
asbag68
(g89
g70
NtRp2249
(dp2250
g73
(dp2251
g100
g101
ssg82
g2240
sg75
(lp2252
S':'
asbag68
(g89
g70
NtRp2253
(dp2254
g73
(dp2255
sg82
g2240
sg75
(lp2256
g68
(g69
g70
NtRp2257
(dp2258
g73
(dp2259
g81
I5
ssg82
g2253
sg75
(lp2260
S'datetime.datetime(2013, 4, 1, 8, 52, 48, 121422)'
p2261
asbasbasbag68
(g84
g70
NtRp2262
(dp2263
g73
(dp2264
sg82
g78
sg75
(lp2265
g68
(g89
g70
NtRp2266
(dp2267
g73
(dp2268
g93
g94
ssg82
g2262
sg75
(lp2269
S'post_vars'
p2270
asbag68
(g89
g70
NtRp2271
(dp2272
g73
(dp2273
g100
g101
ssg82
g2262
sg75
(lp2274
S':'
asbag68
(g89
g70
NtRp2275
(dp2276
g73
(dp2277
sg82
g2262
sg75
(lp2278
g68
(g69
g70
NtRp2279
(dp2280
g73
(dp2281
g81
I5
ssg82
g2275
sg75
(lp2282
g68
(g77
g70
NtRp2283
(dp2284
g73
(dp2285
g81
I4
ssg82
Nsg75
(lp2286
sbasbasbasbag68
(g84
g70
NtRp2287
(dp2288
g73
(dp2289
sg82
g78
sg75
(lp2290
g68
(g89
g70
NtRp2291
(dp2292
g73
(dp2293
g93
g94
ssg82
g2287
sg75
(lp2294
S'url'
p2295
asbag68
(g89
g70
NtRp2296
(dp2297
g73
(dp2298
g100
g101
ssg82
g2287
sg75
(lp2299
S':'
asbag68
(g89
g70
NtRp2300
(dp2301
g73
(dp2302
sg82
g2287
sg75
(lp2303
g68
(g69
g70
NtRp2304
(dp2305
g73
(dp2306
g81
I5
ssg82
g2300
sg75
(lp2307
S'/'
asbasbasbag68
(g84
g70
NtRp2308
(dp2309
g73
(dp2310
sg82
g78
sg75
(lp2311
g68
(g89
g70
NtRp2312
(dp2313
g73
(dp2314
g93
g94
ssg82
g2308
sg75
(lp2315
S'utcnow'
p2316
asbag68
(g89
g70
NtRp2317
(dp2318
g73
(dp2319
g100
g101
ssg82
g2308
sg75
(lp2320
S':'
asbag68
(g89
g70
NtRp2321
(dp2322
g73
(dp2323
sg82
g2308
sg75
(lp2324
g68
(g69
g70
NtRp2325
(dp2326
g73
(dp2327
g81
I5
ssg82
g2321
sg75
(lp2328
S'datetime.datetime(2013, 4, 1, 11, 52, 48, 121479)'
p2329
asbasbasbag68
(g84
g70
NtRp2330
(dp2331
g73
(dp2332
sg82
g78
sg75
(lp2333
g68
(g89
g70
NtRp2334
(dp2335
g73
(dp2336
g93
g94
ssg82
g2330
sg75
(lp2337
S'uuid'
p2338
asbag68
(g89
g70
NtRp2339
(dp2340
g73
(dp2341
g100
g101
ssg82
g2330
sg75
(lp2342
S':'
asbag68
(g89
g70
NtRp2343
(dp2344
g73
(dp2345
sg82
g2330
sg75
(lp2346
g68
(g69
g70
NtRp2347
(dp2348
g73
(dp2349
g81
I5
ssg82
g2343
sg75
(lp2350
S'projeto/127.0.0.1.2013-04-01.08-52-48.01527070-efc5-4a92-9d2a-8682eae26018'
p2351
asbasbasbag68
(g84
g70
NtRp2352
(dp2353
g73
(dp2354
sg82
g78
sg75
(lp2355
g68
(g89
g70
NtRp2356
(dp2357
g73
(dp2358
g93
g94
ssg82
g2352
sg75
(lp2359
S'vars'
p2360
asbag68
(g89
g70
NtRp2361
(dp2362
g73
(dp2363
g100
g101
ssg82
g2352
sg75
(lp2364
S':'
asbag68
(g89
g70
NtRp2365
(dp2366
g73
(dp2367
sg82
g2352
sg75
(lp2368
g68
(g69
g70
NtRp2369
(dp2370
g73
(dp2371
g81
I5
ssg82
g2365
sg75
(lp2372
g68
(g77
g70
NtRp2373
(dp2374
g73
(dp2375
g81
I4
ssg82
Nsg75
(lp2376
sbasbasbasbag68
(g84
g70
NtRp2377
(dp2378
g73
(dp2379
sg82
g78
sg75
(lp2380
g68
(g89
g70
NtRp2381
(dp2382
g73
(dp2383
g93
g94
ssg82
g2377
sg75
(lp2384
S'wsgi'
p2385
asbag68
(g89
g70
NtRp2386
(dp2387
g73
(dp2388
g100
g101
ssg82
g2377
sg75
(lp2389
S':'
asbag68
(g89
g70
NtRp2390
(dp2391
g73
(dp2392
sg82
g2377
sg75
(lp2393
g68
(g69
g70
NtRp2394
(dp2395
g73
(dp2396
g81
I5
ssg82
g2390
sg75
(lp2397
g68
(g77
g70
NtRp2398
(dp2399
g73
(dp2400
g81
I4
ssg82
Nsg75
(lp2401
g68
(g84
g70
NtRp2402
(dp2403
g73
(dp2404
sg82
g2398
sg75
(lp2405
g68
(g89
g70
NtRp2406
(dp2407
g73
(dp2408
g93
g94
ssg82
g2402
sg75
(lp2409
S'environ'
p2410
asbag68
(g89
g70
NtRp2411
(dp2412
g73
(dp2413
g100
g101
ssg82
g2402
sg75
(lp2414
S':'
asbag68
(g89
g70
NtRp2415
(dp2416
g73
(dp2417
sg82
g2402
sg75
(lp2418
g68
(g69
g70
NtRp2419
(dp2420
g73
(dp2421
g81
I4
ssg82
g2415
sg75
(lp2422
g68
(g77
g70
NtRp2423
(dp2424
g73
(dp2425
g81
I3
ssg82
Nsg75
(lp2426
g68
(g84
g70
NtRp2427
(dp2428
g73
(dp2429
sg82
g2423
sg75
(lp2430
g68
(g89
g70
NtRp2431
(dp2432
g73
(dp2433
g93
g94
ssg82
g2427
sg75
(lp2434
S'HTTP_ACCEPT'
p2435
asbag68
(g89
g70
NtRp2436
(dp2437
g73
(dp2438
g100
g101
ssg82
g2427
sg75
(lp2439
S':'
asbag68
(g89
g70
NtRp2440
(dp2441
g73
(dp2442
sg82
g2427
sg75
(lp2443
g68
(g69
g70
NtRp2444
(dp2445
g73
(dp2446
g81
I3
ssg82
g2440
sg75
(lp2447
g853
asbasbasbag68
(g84
g70
NtRp2448
(dp2449
g73
(dp2450
sg82
g2423
sg75
(lp2451
g68
(g89
g70
NtRp2452
(dp2453
g73
(dp2454
g93
g94
ssg82
g2448
sg75
(lp2455
S'HTTP_ACCEPT_CHARSET'
p2456
asbag68
(g89
g70
NtRp2457
(dp2458
g73
(dp2459
g100
g101
ssg82
g2448
sg75
(lp2460
S':'
asbag68
(g89
g70
NtRp2461
(dp2462
g73
(dp2463
sg82
g2448
sg75
(lp2464
g68
(g69
g70
NtRp2465
(dp2466
g73
(dp2467
g81
I3
ssg82
g2461
sg75
(lp2468
g875
asbasbasbag68
(g84
g70
NtRp2469
(dp2470
g73
(dp2471
sg82
g2423
sg75
(lp2472
g68
(g89
g70
NtRp2473
(dp2474
g73
(dp2475
g93
g94
ssg82
g2469
sg75
(lp2476
S'HTTP_ACCEPT_ENCODING'
p2477
asbag68
(g89
g70
NtRp2478
(dp2479
g73
(dp2480
g100
g101
ssg82
g2469
sg75
(lp2481
S':'
asbag68
(g89
g70
NtRp2482
(dp2483
g73
(dp2484
sg82
g2469
sg75
(lp2485
g68
(g69
g70
NtRp2486
(dp2487
g73
(dp2488
g81
I3
ssg82
g2482
sg75
(lp2489
g897
asbasbasbag68
(g84
g70
NtRp2490
(dp2491
g73
(dp2492
sg82
g2423
sg75
(lp2493
g68
(g89
g70
NtRp2494
(dp2495
g73
(dp2496
g93
g94
ssg82
g2490
sg75
(lp2497
S'HTTP_ACCEPT_LANGUAGE'
p2498
asbag68
(g89
g70
NtRp2499
(dp2500
g73
(dp2501
g100
g101
ssg82
g2490
sg75
(lp2502
S':'
asbag68
(g89
g70
NtRp2503
(dp2504
g73
(dp2505
sg82
g2490
sg75
(lp2506
g68
(g69
g70
NtRp2507
(dp2508
g73
(dp2509
g81
I3
ssg82
g2503
sg75
(lp2510
g919
asbasbasbag68
(g84
g70
NtRp2511
(dp2512
g73
(dp2513
sg82
g2423
sg75
(lp2514
g68
(g89
g70
NtRp2515
(dp2516
g73
(dp2517
g93
g94
ssg82
g2511
sg75
(lp2518
S'HTTP_CACHE_CONTROL'
p2519
asbag68
(g89
g70
NtRp2520
(dp2521
g73
(dp2522
g100
g101
ssg82
g2511
sg75
(lp2523
S':'
asbag68
(g89
g70
NtRp2524
(dp2525
g73
(dp2526
sg82
g2511
sg75
(lp2527
g68
(g69
g70
NtRp2528
(dp2529
g73
(dp2530
g81
I3
ssg82
g2524
sg75
(lp2531
g941
asbasbasbag68
(g84
g70
NtRp2532
(dp2533
g73
(dp2534
sg82
g2423
sg75
(lp2535
g68
(g89
g70
NtRp2536
(dp2537
g73
(dp2538
g93
g94
ssg82
g2532
sg75
(lp2539
S'HTTP_CONNECTION'
p2540
asbag68
(g89
g70
NtRp2541
(dp2542
g73
(dp2543
g100
g101
ssg82
g2532
sg75
(lp2544
S':'
asbag68
(g89
g70
NtRp2545
(dp2546
g73
(dp2547
sg82
g2532
sg75
(lp2548
g68
(g69
g70
NtRp2549
(dp2550
g73
(dp2551
g81
I3
ssg82
g2545
sg75
(lp2552
g963
asbasbasbag68
(g84
g70
NtRp2553
(dp2554
g73
(dp2555
sg82
g2423
sg75
(lp2556
g68
(g89
g70
NtRp2557
(dp2558
g73
(dp2559
g93
g94
ssg82
g2553
sg75
(lp2560
S'HTTP_COOKIE'
p2561
asbag68
(g89
g70
NtRp2562
(dp2563
g73
(dp2564
g100
g101
ssg82
g2553
sg75
(lp2565
S':'
asbag68
(g89
g70
NtRp2566
(dp2567
g73
(dp2568
sg82
g2553
sg75
(lp2569
g68
(g69
g70
NtRp2570
(dp2571
g73
(dp2572
g81
I3
ssg82
g2566
sg75
(lp2573
g985
asbasbasbag68
(g84
g70
NtRp2574
(dp2575
g73
(dp2576
sg82
g2423
sg75
(lp2577
g68
(g89
g70
NtRp2578
(dp2579
g73
(dp2580
g93
g94
ssg82
g2574
sg75
(lp2581
S'HTTP_HOST'
p2582
asbag68
(g89
g70
NtRp2583
(dp2584
g73
(dp2585
g100
g101
ssg82
g2574
sg75
(lp2586
S':'
asbag68
(g89
g70
NtRp2587
(dp2588
g73
(dp2589
sg82
g2574
sg75
(lp2590
g68
(g69
g70
NtRp2591
(dp2592
g73
(dp2593
g81
I3
ssg82
g2587
sg75
(lp2594
g1007
asbasbasbag68
(g84
g70
NtRp2595
(dp2596
g73
(dp2597
sg82
g2423
sg75
(lp2598
g68
(g89
g70
NtRp2599
(dp2600
g73
(dp2601
g93
g94
ssg82
g2595
sg75
(lp2602
S'HTTP_USER_AGENT'
p2603
asbag68
(g89
g70
NtRp2604
(dp2605
g73
(dp2606
g100
g101
ssg82
g2595
sg75
(lp2607
S':'
asbag68
(g89
g70
NtRp2608
(dp2609
g73
(dp2610
sg82
g2595
sg75
(lp2611
g68
(g69
g70
NtRp2612
(dp2613
g73
(dp2614
g81
I3
ssg82
g2608
sg75
(lp2615
g1029
asbasbasbag68
(g84
g70
NtRp2616
(dp2617
g73
(dp2618
sg82
g2423
sg75
(lp2619
g68
(g89
g70
NtRp2620
(dp2621
g73
(dp2622
g93
g94
ssg82
g2616
sg75
(lp2623
S'PATH_INFO'
p2624
asbag68
(g89
g70
NtRp2625
(dp2626
g73
(dp2627
g100
g101
ssg82
g2616
sg75
(lp2628
S':'
asbag68
(g89
g70
NtRp2629
(dp2630
g73
(dp2631
sg82
g2616
sg75
(lp2632
g68
(g69
g70
NtRp2633
(dp2634
g73
(dp2635
g81
I3
ssg82
g2629
sg75
(lp2636
S'/'
asbasbasbag68
(g84
g70
NtRp2637
(dp2638
g73
(dp2639
sg82
g2423
sg75
(lp2640
g68
(g89
g70
NtRp2641
(dp2642
g73
(dp2643
g93
g94
ssg82
g2637
sg75
(lp2644
S'QUERY_STRING'
p2645
asbag68
(g89
g70
NtRp2646
(dp2647
g73
(dp2648
g100
g101
ssg82
g2637
sg75
(lp2649
S':'
asbag68
(g89
g70
NtRp2650
(dp2651
g73
(dp2652
sg82
g2637
sg75
(lp2653
g68
(g69
g70
NtRp2654
(dp2655
g73
(dp2656
g81
I3
ssg82
g2650
sg75
(lp2657
S''
asbasbasbag68
(g84
g70
NtRp2658
(dp2659
g73
(dp2660
sg82
g2423
sg75
(lp2661
g68
(g89
g70
NtRp2662
(dp2663
g73
(dp2664
g93
g94
ssg82
g2658
sg75
(lp2665
S'REMOTE_ADDR'
p2666
asbag68
(g89
g70
NtRp2667
(dp2668
g73
(dp2669
g100
g101
ssg82
g2658
sg75
(lp2670
S':'
asbag68
(g89
g70
NtRp2671
(dp2672
g73
(dp2673
sg82
g2658
sg75
(lp2674
g68
(g69
g70
NtRp2675
(dp2676
g73
(dp2677
g81
I3
ssg82
g2671
sg75
(lp2678
g223
asbasbasbag68
(g84
g70
NtRp2679
(dp2680
g73
(dp2681
sg82
g2423
sg75
(lp2682
g68
(g89
g70
NtRp2683
(dp2684
g73
(dp2685
g93
g94
ssg82
g2679
sg75
(lp2686
S'REMOTE_PORT'
p2687
asbag68
(g89
g70
NtRp2688
(dp2689
g73
(dp2690
g100
g101
ssg82
g2679
sg75
(lp2691
S':'
asbag68
(g89
g70
NtRp2692
(dp2693
g73
(dp2694
sg82
g2679
sg75
(lp2695
g68
(g69
g70
NtRp2696
(dp2697
g73
(dp2698
g81
I3
ssg82
g2692
sg75
(lp2699
g1233
asbasbasbag68
(g84
g70
NtRp2700
(dp2701
g73
(dp2702
sg82
g2423
sg75
(lp2703
g68
(g89
g70
NtRp2704
(dp2705
g73
(dp2706
g93
g94
ssg82
g2700
sg75
(lp2707
S'REQUEST_METHOD'
p2708
asbag68
(g89
g70
NtRp2709
(dp2710
g73
(dp2711
g100
g101
ssg82
g2700
sg75
(lp2712
S':'
asbag68
(g89
g70
NtRp2713
(dp2714
g73
(dp2715
sg82
g2700
sg75
(lp2716
g68
(g69
g70
NtRp2717
(dp2718
g73
(dp2719
g81
I3
ssg82
g2713
sg75
(lp2720
g1255
asbasbasbag68
(g84
g70
NtRp2721
(dp2722
g73
(dp2723
sg82
g2423
sg75
(lp2724
g68
(g89
g70
NtRp2725
(dp2726
g73
(dp2727
g93
g94
ssg82
g2721
sg75
(lp2728
S'REQUEST_URI'
p2729
asbag68
(g89
g70
NtRp2730
(dp2731
g73
(dp2732
g100
g101
ssg82
g2721
sg75
(lp2733
S':'
asbag68
(g89
g70
NtRp2734
(dp2735
g73
(dp2736
sg82
g2721
sg75
(lp2737
g68
(g69
g70
NtRp2738
(dp2739
g73
(dp2740
g81
I3
ssg82
g2734
sg75
(lp2741
g1277
asbasbasbag68
(g84
g70
NtRp2742
(dp2743
g73
(dp2744
sg82
g2423
sg75
(lp2745
g68
(g89
g70
NtRp2746
(dp2747
g73
(dp2748
g93
g94
ssg82
g2742
sg75
(lp2749
S'SCRIPT_NAME'
p2750
asbag68
(g89
g70
NtRp2751
(dp2752
g73
(dp2753
g100
g101
ssg82
g2742
sg75
(lp2754
S':'
asbag68
(g89
g70
NtRp2755
(dp2756
g73
(dp2757
sg82
g2742
sg75
(lp2758
g68
(g69
g70
NtRp2759
(dp2760
g73
(dp2761
g81
I3
ssg82
g2755
sg75
(lp2762
S''
asbasbasbag68
(g84
g70
NtRp2763
(dp2764
g73
(dp2765
sg82
g2423
sg75
(lp2766
g68
(g89
g70
NtRp2767
(dp2768
g73
(dp2769
g93
g94
ssg82
g2763
sg75
(lp2770
S'SERVER_NAME'
p2771
asbag68
(g89
g70
NtRp2772
(dp2773
g73
(dp2774
g100
g101
ssg82
g2763
sg75
(lp2775
S':'
asbag68
(g89
g70
NtRp2776
(dp2777
g73
(dp2778
sg82
g2763
sg75
(lp2779
g68
(g69
g70
NtRp2780
(dp2781
g73
(dp2782
g81
I3
ssg82
g2776
sg75
(lp2783
g1320
asbasbasbag68
(g84
g70
NtRp2784
(dp2785
g73
(dp2786
sg82
g2423
sg75
(lp2787
g68
(g89
g70
NtRp2788
(dp2789
g73
(dp2790
g93
g94
ssg82
g2784
sg75
(lp2791
S'SERVER_PORT'
p2792
asbag68
(g89
g70
NtRp2793
(dp2794
g73
(dp2795
g100
g101
ssg82
g2784
sg75
(lp2796
S':'
asbag68
(g89
g70
NtRp2797
(dp2798
g73
(dp2799
sg82
g2784
sg75
(lp2800
g68
(g69
g70
NtRp2801
(dp2802
g73
(dp2803
g81
I3
ssg82
g2797
sg75
(lp2804
g1342
asbasbasbag68
(g84
g70
NtRp2805
(dp2806
g73
(dp2807
sg82
g2423
sg75
(lp2808
g68
(g89
g70
NtRp2809
(dp2810
g73
(dp2811
g93
g94
ssg82
g2805
sg75
(lp2812
S'SERVER_PROTOCOL'
p2813
asbag68
(g89
g70
NtRp2814
(dp2815
g73
(dp2816
g100
g101
ssg82
g2805
sg75
(lp2817
S':'
asbag68
(g89
g70
NtRp2818
(dp2819
g73
(dp2820
sg82
g2805
sg75
(lp2821
g68
(g69
g70
NtRp2822
(dp2823
g73
(dp2824
g81
I3
ssg82
g2818
sg75
(lp2825
g1364
asbasbasbag68
(g84
g70
NtRp2826
(dp2827
g73
(dp2828
sg82
g2423
sg75
(lp2829
g68
(g89
g70
NtRp2830
(dp2831
g73
(dp2832
g93
g94
ssg82
g2826
sg75
(lp2833
S'SERVER_SOFTWARE'
p2834
asbag68
(g89
g70
NtRp2835
(dp2836
g73
(dp2837
g100
g101
ssg82
g2826
sg75
(lp2838
S':'
asbag68
(g89
g70
NtRp2839
(dp2840
g73
(dp2841
sg82
g2826
sg75
(lp2842
g68
(g69
g70
NtRp2843
(dp2844
g73
(dp2845
g81
I3
ssg82
g2839
sg75
(lp2846
g1386
asbasbasbag68
(g84
g70
NtRp2847
(dp2848
g73
(dp2849
sg82
g2423
sg75
(lp2850
g68
(g89
g70
NtRp2851
(dp2852
g73
(dp2853
g93
g94
ssg82
g2847
sg75
(lp2854
S'WEB2PY_ORIGINAL_URI'
p2855
asbag68
(g89
g70
NtRp2856
(dp2857
g73
(dp2858
g100
g101
ssg82
g2847
sg75
(lp2859
S':'
asbag68
(g89
g70
NtRp2860
(dp2861
g73
(dp2862
sg82
g2847
sg75
(lp2863
g68
(g69
g70
NtRp2864
(dp2865
g73
(dp2866
g81
I3
ssg82
g2860
sg75
(lp2867
S'/'
asbasbasbag68
(g84
g70
NtRp2868
(dp2869
g73
(dp2870
sg82
g2423
sg75
(lp2871
g68
(g89
g70
NtRp2872
(dp2873
g73
(dp2874
g93
g94
ssg82
g2868
sg75
(lp2875
S'wsgi.errors'
p2876
asbag68
(g89
g70
NtRp2877
(dp2878
g73
(dp2879
g100
g101
ssg82
g2868
sg75
(lp2880
S':'
asbag68
(g89
g70
NtRp2881
(dp2882
g73
(dp2883
sg82
g2868
sg75
(lp2884
g68
(g69
g70
NtRp2885
(dp2886
g73
(dp2887
g81
I3
ssg82
g2881
sg75
(lp2888
S"<open file '<stderr>', mode 'w' at 0x7fca327ca270>"
p2889
asbasbasbag68
(g84
g70
NtRp2890
(dp2891
g73
(dp2892
sg82
g2423
sg75
(lp2893
g68
(g89
g70
NtRp2894
(dp2895
g73
(dp2896
g93
g94
ssg82
g2890
sg75
(lp2897
S'wsgi.file_wrapper'
p2898
asbag68
(g89
g70
NtRp2899
(dp2900
g73
(dp2901
g100
g101
ssg82
g2890
sg75
(lp2902
S':'
asbag68
(g89
g70
NtRp2903
(dp2904
g73
(dp2905
sg82
g2890
sg75
(lp2906
g68
(g69
g70
NtRp2907
(dp2908
g73
(dp2909
g81
I3
ssg82
g2903
sg75
(lp2910
S'<class wsgiref.util.FileWrapper at 0x189f4c8>'
p2911
asbasbasbag68
(g84
g70
NtRp2912
(dp2913
g73
(dp2914
sg82
g2423
sg75
(lp2915
g68
(g89
g70
NtRp2916
(dp2917
g73
(dp2918
g93
g94
ssg82
g2912
sg75
(lp2919
S'wsgi.input'
p2920
asbag68
(g89
g70
NtRp2921
(dp2922
g73
(dp2923
g100
g101
ssg82
g2912
sg75
(lp2924
S':'
asbag68
(g89
g70
NtRp2925
(dp2926
g73
(dp2927
sg82
g2912
sg75
(lp2928
g68
(g69
g70
NtRp2929
(dp2930
g73
(dp2931
g81
I3
ssg82
g2925
sg75
(lp2932
S'<cStringIO.StringO object at 0x7fca246c4538>'
p2933
asbasbasbag68
(g84
g70
NtRp2934
(dp2935
g73
(dp2936
sg82
g2423
sg75
(lp2937
g68
(g89
g70
NtRp2938
(dp2939
g73
(dp2940
g93
g94
ssg82
g2934
sg75
(lp2941
S'wsgi.multiprocess'
p2942
asbag68
(g89
g70
NtRp2943
(dp2944
g73
(dp2945
g100
g101
ssg82
g2934
sg75
(lp2946
S':'
asbag68
(g89
g70
NtRp2947
(dp2948
g73
(dp2949
sg82
g2934
sg75
(lp2950
g68
(g69
g70
NtRp2951
(dp2952
g73
(dp2953
g81
I3
ssg82
g2947
sg75
(lp2954
g111
asbasbasbag68
(g84
g70
NtRp2955
(dp2956
g73
(dp2957
sg82
g2423
sg75
(lp2958
g68
(g89
g70
NtRp2959
(dp2960
g73
(dp2961
g93
g94
ssg82
g2955
sg75
(lp2962
S'wsgi.multithread'
p2963
asbag68
(g89
g70
NtRp2964
(dp2965
g73
(dp2966
g100
g101
ssg82
g2955
sg75
(lp2967
S':'
asbag68
(g89
g70
NtRp2968
(dp2969
g73
(dp2970
sg82
g2955
sg75
(lp2971
g68
(g69
g70
NtRp2972
(dp2973
g73
(dp2974
g81
I3
ssg82
g2968
sg75
(lp2975
g1624
asbasbasbag68
(g84
g70
NtRp2976
(dp2977
g73
(dp2978
sg82
g2423
sg75
(lp2979
g68
(g89
g70
NtRp2980
(dp2981
g73
(dp2982
g93
g94
ssg82
g2976
sg75
(lp2983
S'wsgi.run_once'
p2984
asbag68
(g89
g70
NtRp2985
(dp2986
g73
(dp2987
g100
g101
ssg82
g2976
sg75
(lp2988
S':'
asbag68
(g89
g70
NtRp2989
(dp2990
g73
(dp2991
sg82
g2976
sg75
(lp2992
g68
(g69
g70
NtRp2993
(dp2994
g73
(dp2995
g81
I3
ssg82
g2989
sg75
(lp2996
g111
asbasbasbag68
(g84
g70
NtRp2997
(dp2998
g73
(dp2999
sg82
g2423
sg75
(lp3000
g68
(g89
g70
NtRp3001
(dp3002
g73
(dp3003
g93
g94
ssg82
g2997
sg75
(lp3004
S'wsgi.url_scheme'
p3005
asbag68
(g89
g70
NtRp3006
(dp3007
g73
(dp3008
g100
g101
ssg82
g2997
sg75
(lp3009
S':'
asbag68
(g89
g70
NtRp3010
(dp3011
g73
(dp3012
sg82
g2997
sg75
(lp3013
g68
(g69
g70
NtRp3014
(dp3015
g73
(dp3016
g81
I3
ssg82
g3010
sg75
(lp3017
g1667
asbasbasbag68
(g84
g70
NtRp3018
(dp3019
g73
(dp3020
sg82
g2423
sg75
(lp3021
g68
(g89
g70
NtRp3022
(dp3023
g73
(dp3024
g93
g94
ssg82
g3018
sg75
(lp3025
S'wsgi.version'
p3026
asbag68
(g89
g70
NtRp3027
(dp3028
g73
(dp3029
g100
g101
ssg82
g3018
sg75
(lp3030
S':'
asbag68
(g89
g70
NtRp3031
(dp3032
g73
(dp3033
sg82
g3018
sg75
(lp3034
g68
(g69
g70
NtRp3035
(dp3036
g73
(dp3037
g81
I3
ssg82
g3031
sg75
(lp3038
S'1'
asbasbasbasbasbasbasbasbasbasbasbasbasbsS'frames'
p3039
(lp3040
(dp3041
S'file'
p3042
S'/var/www/hosts3/gluon/restricted.py'
p3043
sS'dump'
p3044
(dp3045
S'code'
p3046
S"'# coding: utf-8\\n\\n@auth.requires_login()\\ndef show...es)\\t\\n\\nresponse._vars=response._caller(principal)\\n'"
p3047
sS'layer'
p3048
S"'/var/www/hosts3/applications/projeto/controllers/initial.py'"
p3049
sS'global compile2'
p3050
S'<function compile2>'
p3051
sS'ccode'
p3052
S'undefined'
p3053
ssS'lnum'
p3054
I211
sS'lines'
p3055
(dp3056
I206
S"    environment['__name__'] = '__restricted__'"
p3057
sI207
S'    try:'
p3058
sI208
S'        if isinstance(code, types.CodeType):'
p3059
sI209
S'            ccode = code'
p3060
sI210
S'        else:'
p3061
sI211
S'            ccode = compile2(code, layer)'
p3062
sI212
S'        exec ccode in environment'
p3063
sI213
S'    except HTTP:'
p3064
sI214
S'        raise'
p3065
sI215
S'    except RestrictedError:'
p3066
ssS'call'
p3067
S"(code='# coding: utf-8\\n\\n@auth.requires_login()\\ndef show...es)\\t\\n\\nresponse._vars=response._caller(principal)\\n', environment={'A': <class 'gluon.html.A'>, 'Auth': <class 'gluon.tools.Auth'>, 'B': <class 'gluon.html.B'>, 'BEAUTIFY': <class 'gluon.html.BEAUTIFY'>, 'BODY': <class 'gluon.html.BODY'>, 'BR': <class 'gluon.html.BR'>, 'BUTTON': <class 'gluon.html.BUTTON'>, 'CAT': <class 'gluon.html.CAT'>, 'CENTER': <class 'gluon.html.CENTER'>, 'CLEANUP': <class 'gluon.validators.CLEANUP'>, ...}, layer='/var/www/hosts3/applications/projeto/controllers/initial.py')"
p3068
sS'func'
p3069
S'restricted'
p3070
sa(dp3071
g3042
S'/var/www/hosts3/gluon/restricted.py'
p3072
sg3044
(dp3073
S'builtincompile'
p3074
S'<built-in function compile>'
p3075
sS'code'
p3076
S"'# coding: utf-8\\n\\n@auth.requires_login()\\ndef show...es)\\t\\n\\nresponse._vars=response._caller(principal)\\n'"
p3077
sS'code.rstrip'
p3078
S'<built-in method rstrip of str object>'
p3079
sS').replace'
p3080
g3053
sS'layer'
p3081
S"'/var/www/hosts3/applications/projeto/controllers/initial.py'"
p3082
ssg3054
I194
sg3055
(dp3083
I192
S"    The +'\\n' is necessary else compile fails when code ends in a comment."
p3084
sI193
S'    """'
p3085
sI194
S"    return compile(code.rstrip().replace('\\r\\n', '\\n') + '\\n', layer, 'exec')"
p3086
sI195
S''
sI196
S''
sI197
S"def restricted(code, environment=None, layer='Unknown'):"
p3087
sI198
S'    """'
p3088
sI189
S''
sI190
S'def compile2(code, layer):'
p3089
sI191
S'    """'
p3090
ssg3067
S"(code='# coding: utf-8\\n\\n@auth.requires_login()\\ndef show...es)\\t\\n\\nresponse._vars=response._caller(principal)\\n', layer='/var/www/hosts3/applications/projeto/controllers/initial.py')"
p3091
sg3069
S'compile2'
p3092
sasS'pyver'
p3093
S'Python 2.7.3: /usr/bin/python'
p3094
sS'session'
p3095
g68
(g69
g70
NtRp3096
(dp3097
g73
(dp3098
sg75
(lp3099
g68
(g77
g70
NtRp3100
(dp3101
g73
(dp3102
g81
I5
ssg82
Nsg75
(lp3103
g68
(g84
g70
NtRp3104
(dp3105
g73
(dp3106
sg82
g3100
sg75
(lp3107
g68
(g89
g70
NtRp3108
(dp3109
g73
(dp3110
g93
g94
ssg82
g3104
sg75
(lp3111
S'auth'
p3112
asbag68
(g89
g70
NtRp3113
(dp3114
g73
(dp3115
g100
g101
ssg82
g3104
sg75
(lp3116
S':'
asbag68
(g89
g70
NtRp3117
(dp3118
g73
(dp3119
sg82
g3104
sg75
(lp3120
g68
(g69
g70
NtRp3121
(dp3122
g73
(dp3123
g81
I5
ssg82
g3117
sg75
(lp3124
g68
(g77
g70
NtRp3125
(dp3126
g73
(dp3127
g81
I4
ssg82
Nsg75
(lp3128
g68
(g84
g70
NtRp3129
(dp3130
g73
(dp3131
sg82
g3125
sg75
(lp3132
g68
(g89
g70
NtRp3133
(dp3134
g73
(dp3135
g93
g94
ssg82
g3129
sg75
(lp3136
S'expiration'
p3137
asbag68
(g89
g70
NtRp3138
(dp3139
g73
(dp3140
g100
g101
ssg82
g3129
sg75
(lp3141
S':'
asbag68
(g89
g70
NtRp3142
(dp3143
g73
(dp3144
sg82
g3129
sg75
(lp3145
g68
(g69
g70
NtRp3146
(dp3147
g73
(dp3148
g81
I4
ssg82
g3142
sg75
(lp3149
S'3600'
p3150
asbasbasbag68
(g84
g70
NtRp3151
(dp3152
g73
(dp3153
sg82
g3125
sg75
(lp3154
g68
(g89
g70
NtRp3155
(dp3156
g73
(dp3157
g93
g94
ssg82
g3151
sg75
(lp3158
S'hmac_key'
p3159
asbag68
(g89
g70
NtRp3160
(dp3161
g73
(dp3162
g100
g101
ssg82
g3151
sg75
(lp3163
S':'
asbag68
(g89
g70
NtRp3164
(dp3165
g73
(dp3166
sg82
g3151
sg75
(lp3167
g68
(g69
g70
NtRp3168
(dp3169
g73
(dp3170
g81
I4
ssg82
g3164
sg75
(lp3171
S'ddddfe2f-2cea-4940-8b98-874a08189383'
p3172
asbasbasbag68
(g84
g70
NtRp3173
(dp3174
g73
(dp3175
sg82
g3125
sg75
(lp3176
g68
(g89
g70
NtRp3177
(dp3178
g73
(dp3179
g93
g94
ssg82
g3173
sg75
(lp3180
S'last_visit'
p3181
asbag68
(g89
g70
NtRp3182
(dp3183
g73
(dp3184
g100
g101
ssg82
g3173
sg75
(lp3185
S':'
asbag68
(g89
g70
NtRp3186
(dp3187
g73
(dp3188
sg82
g3173
sg75
(lp3189
g68
(g69
g70
NtRp3190
(dp3191
g73
(dp3192
g81
I4
ssg82
g3186
sg75
(lp3193
S'datetime.datetime(2013, 4, 1, 8, 49, 31, 889397)'
p3194
asbasbasbag68
(g84
g70
NtRp3195
(dp3196
g73
(dp3197
sg82
g3125
sg75
(lp3198
g68
(g89
g70
NtRp3199
(dp3200
g73
(dp3201
g93
g94
ssg82
g3195
sg75
(lp3202
S'remember'
p3203
asbag68
(g89
g70
NtRp3204
(dp3205
g73
(dp3206
g100
g101
ssg82
g3195
sg75
(lp3207
S':'
asbag68
(g89
g70
NtRp3208
(dp3209
g73
(dp3210
sg82
g3195
sg75
(lp3211
g68
(g69
g70
NtRp3212
(dp3213
g73
(dp3214
g81
I4
ssg82
g3208
sg75
(lp3215
g111
asbasbasbag68
(g84
g70
NtRp3216
(dp3217
g73
(dp3218
sg82
g3125
sg75
(lp3219
g68
(g89
g70
NtRp3220
(dp3221
g73
(dp3222
g93
g94
ssg82
g3216
sg75
(lp3223
S'user'
p3224
asbag68
(g89
g70
NtRp3225
(dp3226
g73
(dp3227
g100
g101
ssg82
g3216
sg75
(lp3228
S':'
asbag68
(g89
g70
NtRp3229
(dp3230
g73
(dp3231
sg82
g3216
sg75
(lp3232
g68
(g69
g70
NtRp3233
(dp3234
g73
(dp3235
g81
I4
ssg82
g3229
sg75
(lp3236
g68
(g77
g70
NtRp3237
(dp3238
g73
(dp3239
g81
I3
ssg82
Nsg75
(lp3240
g68
(g84
g70
NtRp3241
(dp3242
g73
(dp3243
sg82
g3237
sg75
(lp3244
g68
(g89
g70
NtRp3245
(dp3246
g73
(dp3247
g93
g94
ssg82
g3241
sg75
(lp3248
S'email'
p3249
asbag68
(g89
g70
NtRp3250
(dp3251
g73
(dp3252
g100
g101
ssg82
g3241
sg75
(lp3253
S':'
asbag68
(g89
g70
NtRp3254
(dp3255
g73
(dp3256
sg82
g3241
sg75
(lp3257
g68
(g69
g70
NtRp3258
(dp3259
g73
(dp3260
g81
I3
ssg82
g3254
sg75
(lp3261
S'andre@ad2.com.br'
p3262
asbasbasbag68
(g84
g70
NtRp3263
(dp3264
g73
(dp3265
sg82
g3237
sg75
(lp3266
g68
(g89
g70
NtRp3267
(dp3268
g73
(dp3269
g93
g94
ssg82
g3263
sg75
(lp3270
S'first_name'
p3271
asbag68
(g89
g70
NtRp3272
(dp3273
g73
(dp3274
g100
g101
ssg82
g3263
sg75
(lp3275
S':'
asbag68
(g89
g70
NtRp3276
(dp3277
g73
(dp3278
sg82
g3263
sg75
(lp3279
g68
(g69
g70
NtRp3280
(dp3281
g73
(dp3282
g81
I3
ssg82
g3276
sg75
(lp3283
S'Andre'
p3284
asbasbasbag68
(g84
g70
NtRp3285
(dp3286
g73
(dp3287
sg82
g3237
sg75
(lp3288
g68
(g89
g70
NtRp3289
(dp3290
g73
(dp3291
g93
g94
ssg82
g3285
sg75
(lp3292
S'id'
p3293
asbag68
(g89
g70
NtRp3294
(dp3295
g73
(dp3296
g100
g101
ssg82
g3285
sg75
(lp3297
S':'
asbag68
(g89
g70
NtRp3298
(dp3299
g73
(dp3300
sg82
g3285
sg75
(lp3301
g68
(g69
g70
NtRp3302
(dp3303
g73
(dp3304
g81
I3
ssg82
g3298
sg75
(lp3305
S'2'
asbasbasbag68
(g84
g70
NtRp3306
(dp3307
g73
(dp3308
sg82
g3237
sg75
(lp3309
g68
(g89
g70
NtRp3310
(dp3311
g73
(dp3312
g93
g94
ssg82
g3306
sg75
(lp3313
S'last_name'
p3314
asbag68
(g89
g70
NtRp3315
(dp3316
g73
(dp3317
g100
g101
ssg82
g3306
sg75
(lp3318
S':'
asbag68
(g89
g70
NtRp3319
(dp3320
g73
(dp3321
sg82
g3306
sg75
(lp3322
g68
(g69
g70
NtRp3323
(dp3324
g73
(dp3325
g81
I3
ssg82
g3319
sg75
(lp3326
S'Lu\xc3\xads'
p3327
asbasbasbag68
(g84
g70
NtRp3328
(dp3329
g73
(dp3330
sg82
g3237
sg75
(lp3331
g68
(g89
g70
NtRp3332
(dp3333
g73
(dp3334
g93
g94
ssg82
g3328
sg75
(lp3335
S'registration_id'
p3336
asbag68
(g89
g70
NtRp3337
(dp3338
g73
(dp3339
g100
g101
ssg82
g3328
sg75
(lp3340
S':'
asbag68
(g89
g70
NtRp3341
(dp3342
g73
(dp3343
sg82
g3328
sg75
(lp3344
g68
(g69
g70
NtRp3345
(dp3346
g73
(dp3347
g81
I3
ssg82
g3341
sg75
(lp3348
S''
asbasbasbag68
(g84
g70
NtRp3349
(dp3350
g73
(dp3351
sg82
g3237
sg75
(lp3352
g68
(g89
g70
NtRp3353
(dp3354
g73
(dp3355
g93
g94
ssg82
g3349
sg75
(lp3356
S'registration_key'
p3357
asbag68
(g89
g70
NtRp3358
(dp3359
g73
(dp3360
g100
g101
ssg82
g3349
sg75
(lp3361
S':'
asbag68
(g89
g70
NtRp3362
(dp3363
g73
(dp3364
sg82
g3349
sg75
(lp3365
g68
(g69
g70
NtRp3366
(dp3367
g73
(dp3368
g81
I3
ssg82
g3362
sg75
(lp3369
S''
asbasbasbag68
(g84
g70
NtRp3370
(dp3371
g73
(dp3372
sg82
g3237
sg75
(lp3373
g68
(g89
g70
NtRp3374
(dp3375
g73
(dp3376
g93
g94
ssg82
g3370
sg75
(lp3377
S'reset_password_key'
p3378
asbag68
(g89
g70
NtRp3379
(dp3380
g73
(dp3381
g100
g101
ssg82
g3370
sg75
(lp3382
S':'
asbag68
(g89
g70
NtRp3383
(dp3384
g73
(dp3385
sg82
g3370
sg75
(lp3386
g68
(g69
g70
NtRp3387
(dp3388
g73
(dp3389
g81
I3
ssg82
g3383
sg75
(lp3390
S''
asbasbasbasbasbasbasbag68
(g84
g70
NtRp3391
(dp3392
g73
(dp3393
sg82
g3125
sg75
(lp3394
g68
(g89
g70
NtRp3395
(dp3396
g73
(dp3397
g93
g94
ssg82
g3391
sg75
(lp3398
S'user_groups'
p3399
asbag68
(g89
g70
NtRp3400
(dp3401
g73
(dp3402
g100
g101
ssg82
g3391
sg75
(lp3403
S':'
asbag68
(g89
g70
NtRp3404
(dp3405
g73
(dp3406
sg82
g3391
sg75
(lp3407
g68
(g69
g70
NtRp3408
(dp3409
g73
(dp3410
g81
I4
ssg82
g3404
sg75
(lp3411
g68
(g77
g70
NtRp3412
(dp3413
g73
(dp3414
g81
I3
ssg82
Nsg75
(lp3415
g68
(g84
g70
NtRp3416
(dp3417
g73
(dp3418
sg82
g3412
sg75
(lp3419
g68
(g89
g70
NtRp3420
(dp3421
g73
(dp3422
g93
g94
ssg82
g3416
sg75
(lp3423
S'2'
asbag68
(g89
g70
NtRp3424
(dp3425
g73
(dp3426
g100
g101
ssg82
g3416
sg75
(lp3427
S':'
asbag68
(g89
g70
NtRp3428
(dp3429
g73
(dp3430
sg82
g3416
sg75
(lp3431
g68
(g69
g70
NtRp3432
(dp3433
g73
(dp3434
g81
I3
ssg82
g3428
sg75
(lp3435
S'group2'
p3436
asbasbasbasbasbasbasbasbasbasbasbag68
(g84
g70
NtRp3437
(dp3438
g73
(dp3439
sg82
g3100
sg75
(lp3440
g68
(g89
g70
NtRp3441
(dp3442
g73
(dp3443
g93
g94
ssg82
g3437
sg75
(lp3444
S'flash'
p3445
asbag68
(g89
g70
NtRp3446
(dp3447
g73
(dp3448
g100
g101
ssg82
g3437
sg75
(lp3449
S':'
asbag68
(g89
g70
NtRp3450
(dp3451
g73
(dp3452
sg82
g3437
sg75
(lp3453
g68
(g69
g70
NtRp3454
(dp3455
g73
(dp3456
g81
I5
ssg82
g3450
sg75
(lp3457
S'None'
p3458
asbasbasbasbasbsS'etype'
p3459
S"<type 'exceptions.SyntaxError'>"
p3460
sS'date'
p3461
S'Mon Apr  1 08:52:48 2013'
p3462
sS'response'
p3463
g68
(g69
g70
NtRp3464
(dp3465
g73
(dp3466
sg75
(lp3467
g68
(g77
g70
NtRp3468
(dp3469
g73
(dp3470
g81
I5
ssg82
Nsg75
(lp3471
g68
(g84
g70
NtRp3472
(dp3473
g73
(dp3474
sg82
g3468
sg75
(lp3475
g68
(g89
g70
NtRp3476
(dp3477
g73
(dp3478
g93
g94
ssg82
g3472
sg75
(lp3479
g166
asbag68
(g89
g70
NtRp3480
(dp3481
g73
(dp3482
g100
g101
ssg82
g3472
sg75
(lp3483
S':'
asbag68
(g89
g70
NtRp3484
(dp3485
g73
(dp3486
sg82
g3472
sg75
(lp3487
g68
(g69
g70
NtRp3488
(dp3489
g73
(dp3490
g81
I5
ssg82
g3484
sg75
(lp3491
S'<cStringIO.StringO object at 0x7fca246c4ab0>'
p3492
asbasbasbag68
(g84
g70
NtRp3493
(dp3494
g73
(dp3495
sg82
g3468
sg75
(lp3496
g68
(g89
g70
NtRp3497
(dp3498
g73
(dp3499
g93
g94
ssg82
g3493
sg75
(lp3500
g254
asbag68
(g89
g70
NtRp3501
(dp3502
g73
(dp3503
g100
g101
ssg82
g3493
sg75
(lp3504
S':'
asbag68
(g89
g70
NtRp3505
(dp3506
g73
(dp3507
sg82
g3493
sg75
(lp3508
g68
(g69
g70
NtRp3509
(dp3510
g73
(dp3511
g81
I5
ssg82
g3505
sg75
(lp3512
g68
(g77
g70
NtRp3513
(dp3514
g73
(dp3515
g81
I4
ssg82
Nsg75
(lp3516
g68
(g84
g70
NtRp3517
(dp3518
g73
(dp3519
sg82
g3513
sg75
(lp3520
g68
(g89
g70
NtRp3521
(dp3522
g73
(dp3523
g93
g94
ssg82
g3517
sg75
(lp3524
S'session_id_projeto'
p3525
asbag68
(g89
g70
NtRp3526
(dp3527
g73
(dp3528
g100
g101
ssg82
g3517
sg75
(lp3529
S':'
asbag68
(g89
g70
NtRp3530
(dp3531
g73
(dp3532
sg82
g3517
sg75
(lp3533
g68
(g69
g70
NtRp3534
(dp3535
g73
(dp3536
g81
I4
ssg82
g3530
sg75
(lp3537
g486
ag68
(g77
g70
NtRp3538
(dp3539
g73
(dp3540
g81
I3
ssg82
Nsg75
(lp3541
g68
(g84
g70
NtRp3542
(dp3543
g73
(dp3544
sg82
g3538
sg75
(lp3545
g68
(g89
g70
NtRp3546
(dp3547
g73
(dp3548
g93
g94
ssg82
g3542
sg75
(lp3549
g305
asbag68
(g89
g70
NtRp3550
(dp3551
g73
(dp3552
g100
g101
ssg82
g3542
sg75
(lp3553
S':'
asbag68
(g89
g70
NtRp3554
(dp3555
g73
(dp3556
sg82
g3542
sg75
(lp3557
g68
(g69
g70
NtRp3558
(dp3559
g73
(dp3560
g81
I3
ssg82
g3554
sg75
(lp3561
S''
asbasbasbag68
(g84
g70
NtRp3562
(dp3563
g73
(dp3564
sg82
g3538
sg75
(lp3565
g68
(g89
g70
NtRp3566
(dp3567
g73
(dp3568
g93
g94
ssg82
g3562
sg75
(lp3569
g326
asbag68
(g89
g70
NtRp3570
(dp3571
g73
(dp3572
g100
g101
ssg82
g3562
sg75
(lp3573
S':'
asbag68
(g89
g70
NtRp3574
(dp3575
g73
(dp3576
sg82
g3562
sg75
(lp3577
g68
(g69
g70
NtRp3578
(dp3579
g73
(dp3580
g81
I3
ssg82
g3574
sg75
(lp3581
S''
asbasbasbag68
(g84
g70
NtRp3582
(dp3583
g73
(dp3584
sg82
g3538
sg75
(lp3585
g68
(g89
g70
NtRp3586
(dp3587
g73
(dp3588
g93
g94
ssg82
g3582
sg75
(lp3589
g347
asbag68
(g89
g70
NtRp3590
(dp3591
g73
(dp3592
g100
g101
ssg82
g3582
sg75
(lp3593
S':'
asbag68
(g89
g70
NtRp3594
(dp3595
g73
(dp3596
sg82
g3582
sg75
(lp3597
g68
(g69
g70
NtRp3598
(dp3599
g73
(dp3600
g81
I3
ssg82
g3594
sg75
(lp3601
S''
asbasbasbag68
(g84
g70
NtRp3602
(dp3603
g73
(dp3604
sg82
g3538
sg75
(lp3605
g68
(g89
g70
NtRp3606
(dp3607
g73
(dp3608
g93
g94
ssg82
g3602
sg75
(lp3609
g368
asbag68
(g89
g70
NtRp3610
(dp3611
g73
(dp3612
g100
g101
ssg82
g3602
sg75
(lp3613
S':'
asbag68
(g89
g70
NtRp3614
(dp3615
g73
(dp3616
sg82
g3602
sg75
(lp3617
g68
(g69
g70
NtRp3618
(dp3619
g73
(dp3620
g81
I3
ssg82
g3614
sg75
(lp3621
S''
asbasbasbag68
(g84
g70
NtRp3622
(dp3623
g73
(dp3624
sg82
g3538
sg75
(lp3625
g68
(g89
g70
NtRp3626
(dp3627
g73
(dp3628
g93
g94
ssg82
g3622
sg75
(lp3629
g389
asbag68
(g89
g70
NtRp3630
(dp3631
g73
(dp3632
g100
g101
ssg82
g3622
sg75
(lp3633
S':'
asbag68
(g89
g70
NtRp3634
(dp3635
g73
(dp3636
sg82
g3622
sg75
(lp3637
g68
(g69
g70
NtRp3638
(dp3639
g73
(dp3640
g81
I3
ssg82
g3634
sg75
(lp3641
S''
asbasbasbag68
(g84
g70
NtRp3642
(dp3643
g73
(dp3644
sg82
g3538
sg75
(lp3645
g68
(g89
g70
NtRp3646
(dp3647
g73
(dp3648
g93
g94
ssg82
g3642
sg75
(lp3649
g410
asbag68
(g89
g70
NtRp3650
(dp3651
g73
(dp3652
g100
g101
ssg82
g3642
sg75
(lp3653
S':'
asbag68
(g89
g70
NtRp3654
(dp3655
g73
(dp3656
sg82
g3642
sg75
(lp3657
g68
(g69
g70
NtRp3658
(dp3659
g73
(dp3660
g81
I3
ssg82
g3654
sg75
(lp3661
S'/'
asbasbasbag68
(g84
g70
NtRp3662
(dp3663
g73
(dp3664
sg82
g3538
sg75
(lp3665
g68
(g89
g70
NtRp3666
(dp3667
g73
(dp3668
g93
g94
ssg82
g3662
sg75
(lp3669
g431
asbag68
(g89
g70
NtRp3670
(dp3671
g73
(dp3672
g100
g101
ssg82
g3662
sg75
(lp3673
S':'
asbag68
(g89
g70
NtRp3674
(dp3675
g73
(dp3676
sg82
g3662
sg75
(lp3677
g68
(g69
g70
NtRp3678
(dp3679
g73
(dp3680
g81
I3
ssg82
g3674
sg75
(lp3681
S''
asbasbasbag68
(g84
g70
NtRp3682
(dp3683
g73
(dp3684
sg82
g3538
sg75
(lp3685
g68
(g89
g70
NtRp3686
(dp3687
g73
(dp3688
g93
g94
ssg82
g3682
sg75
(lp3689
g452
asbag68
(g89
g70
NtRp3690
(dp3691
g73
(dp3692
g100
g101
ssg82
g3682
sg75
(lp3693
S':'
asbag68
(g89
g70
NtRp3694
(dp3695
g73
(dp3696
sg82
g3682
sg75
(lp3697
g68
(g69
g70
NtRp3698
(dp3699
g73
(dp3700
g81
I3
ssg82
g3694
sg75
(lp3701
S''
asbasbasbasbasbasbasbasbasbasbasbag68
(g84
g70
NtRp3702
(dp3703
g73
(dp3704
sg82
g3468
sg75
(lp3705
g68
(g89
g70
NtRp3706
(dp3707
g73
(dp3708
g93
g94
ssg82
g3702
sg75
(lp3709
S'delimiters'
p3710
asbag68
(g89
g70
NtRp3711
(dp3712
g73
(dp3713
g100
g101
ssg82
g3702
sg75
(lp3714
S':'
asbag68
(g89
g70
NtRp3715
(dp3716
g73
(dp3717
sg82
g3702
sg75
(lp3718
g68
(g69
g70
NtRp3719
(dp3720
g73
(dp3721
g81
I5
ssg82
g3715
sg75
(lp3722
g68
(g77
g70
NtRp3723
(dp3724
g73
(dp3725
g81
I4
ssg82
Nsg75
(lp3726
g68
(g84
g70
NtRp3727
(dp3728
g73
(dp3729
sg82
g3723
sg75
(lp3730
g68
(g89
g70
NtRp3731
(dp3732
g73
(dp3733
sg82
g3727
sg75
(lp3734
g68
(g69
g70
NtRp3735
(dp3736
g73
(dp3737
g81
I4
ssg82
g3731
sg75
(lp3738
S'{{'
p3739
asbasbasbag68
(g84
g70
NtRp3740
(dp3741
g73
(dp3742
sg82
g3723
sg75
(lp3743
g68
(g89
g70
NtRp3744
(dp3745
g73
(dp3746
sg82
g3740
sg75
(lp3747
g68
(g69
g70
NtRp3748
(dp3749
g73
(dp3750
g81
I4
ssg82
g3744
sg75
(lp3751
S'}}'
p3752
asbasbasbasbasbasbasbag68
(g84
g70
NtRp3753
(dp3754
g73
(dp3755
sg82
g3468
sg75
(lp3756
g68
(g89
g70
NtRp3757
(dp3758
g73
(dp3759
g93
g94
ssg82
g3753
sg75
(lp3760
S'files'
p3761
asbag68
(g89
g70
NtRp3762
(dp3763
g73
(dp3764
g100
g101
ssg82
g3753
sg75
(lp3765
S':'
asbag68
(g89
g70
NtRp3766
(dp3767
g73
(dp3768
sg82
g3753
sg75
(lp3769
g68
(g69
g70
NtRp3770
(dp3771
g73
(dp3772
g81
I5
ssg82
g3766
sg75
(lp3773
g68
(g77
g70
NtRp3774
(dp3775
g73
(dp3776
g81
I4
ssg82
Nsg75
(lp3777
sbasbasbasbag68
(g84
g70
NtRp3778
(dp3779
g73
(dp3780
sg82
g3468
sg75
(lp3781
g68
(g89
g70
NtRp3782
(dp3783
g73
(dp3784
g93
g94
ssg82
g3778
sg75
(lp3785
S'flash'
p3786
asbag68
(g89
g70
NtRp3787
(dp3788
g73
(dp3789
g100
g101
ssg82
g3778
sg75
(lp3790
S':'
asbag68
(g89
g70
NtRp3791
(dp3792
g73
(dp3793
sg82
g3778
sg75
(lp3794
g68
(g69
g70
NtRp3795
(dp3796
g73
(dp3797
g81
I5
ssg82
g3791
sg75
(lp3798
S''
asbasbasbag68
(g84
g70
NtRp3799
(dp3800
g73
(dp3801
sg82
g3468
sg75
(lp3802
g68
(g89
g70
NtRp3803
(dp3804
g73
(dp3805
g93
g94
ssg82
g3799
sg75
(lp3806
S'generic_patterns'
p3807
asbag68
(g89
g70
NtRp3808
(dp3809
g73
(dp3810
g100
g101
ssg82
g3799
sg75
(lp3811
S':'
asbag68
(g89
g70
NtRp3812
(dp3813
g73
(dp3814
sg82
g3799
sg75
(lp3815
g68
(g69
g70
NtRp3816
(dp3817
g73
(dp3818
g81
I5
ssg82
g3812
sg75
(lp3819
g68
(g77
g70
NtRp3820
(dp3821
g73
(dp3822
g81
I4
ssg82
Nsg75
(lp3823
g68
(g84
g70
NtRp3824
(dp3825
g73
(dp3826
sg82
g3820
sg75
(lp3827
g68
(g89
g70
NtRp3828
(dp3829
g73
(dp3830
sg82
g3824
sg75
(lp3831
g68
(g69
g70
NtRp3832
(dp3833
g73
(dp3834
g81
I4
ssg82
g3828
sg75
(lp3835
S'*'
asbasbasbasbasbasbasbag68
(g84
g70
NtRp3836
(dp3837
g73
(dp3838
sg82
g3468
sg75
(lp3839
g68
(g89
g70
NtRp3840
(dp3841
g73
(dp3842
g93
g94
ssg82
g3836
sg75
(lp3843
S'google_analytics_id'
p3844
asbag68
(g89
g70
NtRp3845
(dp3846
g73
(dp3847
g100
g101
ssg82
g3836
sg75
(lp3848
S':'
asbag68
(g89
g70
NtRp3849
(dp3850
g73
(dp3851
sg82
g3836
sg75
(lp3852
g68
(g69
g70
NtRp3853
(dp3854
g73
(dp3855
g81
I5
ssg82
g3849
sg75
(lp3856
S'None'
p3857
asbasbasbag68
(g84
g70
NtRp3858
(dp3859
g73
(dp3860
sg82
g3468
sg75
(lp3861
g68
(g89
g70
NtRp3862
(dp3863
g73
(dp3864
g93
g94
ssg82
g3858
sg75
(lp3865
S'headers'
p3866
asbag68
(g89
g70
NtRp3867
(dp3868
g73
(dp3869
g100
g101
ssg82
g3858
sg75
(lp3870
S':'
asbag68
(g89
g70
NtRp3871
(dp3872
g73
(dp3873
sg82
g3858
sg75
(lp3874
g68
(g69
g70
NtRp3875
(dp3876
g73
(dp3877
g81
I5
ssg82
g3871
sg75
(lp3878
g68
(g77
g70
NtRp3879
(dp3880
g73
(dp3881
g81
I4
ssg82
Nsg75
(lp3882
g68
(g84
g70
NtRp3883
(dp3884
g73
(dp3885
sg82
g3879
sg75
(lp3886
g68
(g89
g70
NtRp3887
(dp3888
g73
(dp3889
g93
g94
ssg82
g3883
sg75
(lp3890
S'X-Powered-By'
p3891
asbag68
(g89
g70
NtRp3892
(dp3893
g73
(dp3894
g100
g101
ssg82
g3883
sg75
(lp3895
S':'
asbag68
(g89
g70
NtRp3896
(dp3897
g73
(dp3898
sg82
g3883
sg75
(lp3899
g68
(g69
g70
NtRp3900
(dp3901
g73
(dp3902
g81
I4
ssg82
g3896
sg75
(lp3903
S'web2py'
p3904
asbasbasbasbasbasbasbag68
(g84
g70
NtRp3905
(dp3906
g73
(dp3907
sg82
g3468
sg75
(lp3908
g68
(g89
g70
NtRp3909
(dp3910
g73
(dp3911
g93
g94
ssg82
g3905
sg75
(lp3912
S'logo'
p3913
asbag68
(g89
g70
NtRp3914
(dp3915
g73
(dp3916
g100
g101
ssg82
g3905
sg75
(lp3917
S':'
asbag68
(g89
g70
NtRp3918
(dp3919
g73
(dp3920
sg82
g3905
sg75
(lp3921
g68
(g69
g70
NtRp3922
(dp3923
g73
(dp3924
g81
I5
ssg82
g3918
sg75
(lp3925
g68
(cgluon.html
A
p3926
g70
NtRp3927
(dp3928
g73
(dp3929
S'_class'
p3930
S'brand'
p3931
sS'_href'
p3932
g1782
ssg82
Nsg75
(lp3933
g68
(cgluon.html
B
p3934
g70
NtRp3935
(dp3936
g73
(dp3937
sg82
g3927
sg75
(lp3938
S'hosts'
p3939
ag68
(cgluon.html
SPAN
p3940
g70
NtRp3941
(dp3942
g73
(dp3943
sg82
g3935
sg75
(lp3944
S'3'
asbaS''
asbacgluon.html
XML_unpickle
p3945
(S's\r\x00\x00\x00&trade;&nbsp;'
tRp3946
asbasbasbasbag68
(g84
g70
NtRp3947
(dp3948
g73
(dp3949
sg82
g3468
sg75
(lp3950
g68
(g89
g70
NtRp3951
(dp3952
g73
(dp3953
g93
g94
ssg82
g3947
sg75
(lp3954
S'menu'
p3955
asbag68
(g89
g70
NtRp3956
(dp3957
g73
(dp3958
g100
g101
ssg82
g3947
sg75
(lp3959
S':'
asbag68
(g89
g70
NtRp3960
(dp3961
g73
(dp3962
sg82
g3947
sg75
(lp3963
g68
(g69
g70
NtRp3964
(dp3965
g73
(dp3966
g81
I5
ssg82
g3960
sg75
(lp3967
g68
(g77
g70
NtRp3968
(dp3969
g73
(dp3970
g81
I4
ssg82
Nsg75
(lp3971
g68
(g84
g70
NtRp3972
(dp3973
g73
(dp3974
sg82
g3968
sg75
(lp3975
g68
(g89
g70
NtRp3976
(dp3977
g73
(dp3978
sg82
g3972
sg75
(lp3979
g68
(g69
g70
NtRp3980
(dp3981
g73
(dp3982
g81
I4
ssg82
g3976
sg75
(lp3983
g68
(g77
g70
NtRp3984
(dp3985
g73
(dp3986
g81
I3
ssg82
Nsg75
(lp3987
g68
(g84
g70
NtRp3988
(dp3989
g73
(dp3990
sg82
g3984
sg75
(lp3991
g68
(g89
g70
NtRp3992
(dp3993
g73
(dp3994
sg82
g3988
sg75
(lp3995
g68
(g69
g70
NtRp3996
(dp3997
g73
(dp3998
g81
I3
ssg82
g3992
sg75
(lp3999
cgluon.languages
lazyT_unpickle
p4000
(S't\x08\x00\x00\x00Clientes'
tRp4001
asbasbasbag68
(g84
g70
NtRp4002
(dp4003
g73
(dp4004
sg82
g3984
sg75
(lp4005
g68
(g89
g70
NtRp4006
(dp4007
g73
(dp4008
sg82
g4002
sg75
(lp4009
g68
(g69
g70
NtRp4010
(dp4011
g73
(dp4012
g81
I3
ssg82
g4006
sg75
(lp4013
g111
asbasbasbag68
(g84
g70
NtRp4014
(dp4015
g73
(dp4016
sg82
g3984
sg75
(lp4017
g68
(g89
g70
NtRp4018
(dp4019
g73
(dp4020
sg82
g4014
sg75
(lp4021
g68
(g69
g70
NtRp4022
(dp4023
g73
(dp4024
g81
I3
ssg82
g4018
sg75
(lp4025
S'/show_cliente'
p4026
asbasbasbag68
(g84
g70
NtRp4027
(dp4028
g73
(dp4029
sg82
g3984
sg75
(lp4030
g68
(g89
g70
NtRp4031
(dp4032
g73
(dp4033
sg82
g4027
sg75
(lp4034
g68
(g69
g70
NtRp4035
(dp4036
g73
(dp4037
g81
I3
ssg82
g4031
sg75
(lp4038
g68
(g77
g70
NtRp4039
(dp4040
g73
(dp4041
g81
I2
ssg82
Nsg75
(lp4042
sbasbasbasbasbasbasbasbag68
(g84
g70
NtRp4043
(dp4044
g73
(dp4045
sg82
g3968
sg75
(lp4046
g68
(g89
g70
NtRp4047
(dp4048
g73
(dp4049
sg82
g4043
sg75
(lp4050
g68
(g69
g70
NtRp4051
(dp4052
g73
(dp4053
g81
I4
ssg82
g4047
sg75
(lp4054
g68
(g77
g70
NtRp4055
(dp4056
g73
(dp4057
g81
I3
ssg82
Nsg75
(lp4058
g68
(g84
g70
NtRp4059
(dp4060
g73
(dp4061
sg82
g4055
sg75
(lp4062
g68
(g89
g70
NtRp4063
(dp4064
g73
(dp4065
sg82
g4059
sg75
(lp4066
g68
(g69
g70
NtRp4067
(dp4068
g73
(dp4069
g81
I3
ssg82
g4063
sg75
(lp4070
g4000
(S't\n\x00\x00\x00Servidores'
tRp4071
asbasbasbag68
(g84
g70
NtRp4072
(dp4073
g73
(dp4074
sg82
g4055
sg75
(lp4075
g68
(g89
g70
NtRp4076
(dp4077
g73
(dp4078
sg82
g4072
sg75
(lp4079
g68
(g69
g70
NtRp4080
(dp4081
g73
(dp4082
g81
I3
ssg82
g4076
sg75
(lp4083
g111
asbasbasbag68
(g84
g70
NtRp4084
(dp4085
g73
(dp4086
sg82
g4055
sg75
(lp4087
g68
(g89
g70
NtRp4088
(dp4089
g73
(dp4090
sg82
g4084
sg75
(lp4091
g68
(g69
g70
NtRp4092
(dp4093
g73
(dp4094
g81
I3
ssg82
g4088
sg75
(lp4095
S'/show_servidor'
p4096
asbasbasbag68
(g84
g70
NtRp4097
(dp4098
g73
(dp4099
sg82
g4055
sg75
(lp4100
g68
(g89
g70
NtRp4101
(dp4102
g73
(dp4103
sg82
g4097
sg75
(lp4104
g68
(g69
g70
NtRp4105
(dp4106
g73
(dp4107
g81
I3
ssg82
g4101
sg75
(lp4108
g68
(g77
g70
NtRp4109
(dp4110
g73
(dp4111
g81
I2
ssg82
Nsg75
(lp4112
sbasbasbasbasbasbasbasbag68
(g84
g70
NtRp4113
(dp4114
g73
(dp4115
sg82
g3968
sg75
(lp4116
g68
(g89
g70
NtRp4117
(dp4118
g73
(dp4119
sg82
g4113
sg75
(lp4120
g68
(g69
g70
NtRp4121
(dp4122
g73
(dp4123
g81
I4
ssg82
g4117
sg75
(lp4124
g68
(g77
g70
NtRp4125
(dp4126
g73
(dp4127
g81
I3
ssg82
Nsg75
(lp4128
g68
(g84
g70
NtRp4129
(dp4130
g73
(dp4131
sg82
g4125
sg75
(lp4132
g68
(g89
g70
NtRp4133
(dp4134
g73
(dp4135
sg82
g4129
sg75
(lp4136
g68
(g69
g70
NtRp4137
(dp4138
g73
(dp4139
g81
I3
ssg82
g4133
sg75
(lp4140
g4000
(S't\x07\x00\x00\x00Distros'
tRp4141
asbasbasbag68
(g84
g70
NtRp4142
(dp4143
g73
(dp4144
sg82
g4125
sg75
(lp4145
g68
(g89
g70
NtRp4146
(dp4147
g73
(dp4148
sg82
g4142
sg75
(lp4149
g68
(g69
g70
NtRp4150
(dp4151
g73
(dp4152
g81
I3
ssg82
g4146
sg75
(lp4153
g111
asbasbasbag68
(g84
g70
NtRp4154
(dp4155
g73
(dp4156
sg82
g4125
sg75
(lp4157
g68
(g89
g70
NtRp4158
(dp4159
g73
(dp4160
sg82
g4154
sg75
(lp4161
g68
(g69
g70
NtRp4162
(dp4163
g73
(dp4164
g81
I3
ssg82
g4158
sg75
(lp4165
S'/show_distro'
p4166
asbasbasbag68
(g84
g70
NtRp4167
(dp4168
g73
(dp4169
sg82
g4125
sg75
(lp4170
g68
(g89
g70
NtRp4171
(dp4172
g73
(dp4173
sg82
g4167
sg75
(lp4174
g68
(g69
g70
NtRp4175
(dp4176
g73
(dp4177
g81
I3
ssg82
g4171
sg75
(lp4178
g68
(g77
g70
NtRp4179
(dp4180
g73
(dp4181
g81
I2
ssg82
Nsg75
(lp4182
sbasbasbasbasbasbasbasbag68
(g84
g70
NtRp4183
(dp4184
g73
(dp4185
sg82
g3968
sg75
(lp4186
g68
(g89
g70
NtRp4187
(dp4188
g73
(dp4189
sg82
g4183
sg75
(lp4190
g68
(g69
g70
NtRp4191
(dp4192
g73
(dp4193
g81
I4
ssg82
g4187
sg75
(lp4194
g68
(g77
g70
NtRp4195
(dp4196
g73
(dp4197
g81
I3
ssg82
Nsg75
(lp4198
g68
(g84
g70
NtRp4199
(dp4200
g73
(dp4201
sg82
g4195
sg75
(lp4202
g68
(g89
g70
NtRp4203
(dp4204
g73
(dp4205
sg82
g4199
sg75
(lp4206
g68
(g69
g70
NtRp4207
(dp4208
g73
(dp4209
g81
I3
ssg82
g4203
sg75
(lp4210
g4000
(S's\x05\x00\x00\x00+host'
tRp4211
asbasbasbag68
(g84
g70
NtRp4212
(dp4213
g73
(dp4214
sg82
g4195
sg75
(lp4215
g68
(g89
g70
NtRp4216
(dp4217
g73
(dp4218
sg82
g4212
sg75
(lp4219
g68
(g69
g70
NtRp4220
(dp4221
g73
(dp4222
g81
I3
ssg82
g4216
sg75
(lp4223
g111
asbasbasbag68
(g84
g70
NtRp4224
(dp4225
g73
(dp4226
sg82
g4195
sg75
(lp4227
g68
(g89
g70
NtRp4228
(dp4229
g73
(dp4230
sg82
g4224
sg75
(lp4231
g68
(g69
g70
NtRp4232
(dp4233
g73
(dp4234
g81
I3
ssg82
g4228
sg75
(lp4235
S'/interface'
p4236
asbasbasbag68
(g84
g70
NtRp4237
(dp4238
g73
(dp4239
sg82
g4195
sg75
(lp4240
g68
(g89
g70
NtRp4241
(dp4242
g73
(dp4243
sg82
g4237
sg75
(lp4244
g68
(g69
g70
NtRp4245
(dp4246
g73
(dp4247
g81
I3
ssg82
g4241
sg75
(lp4248
g68
(g77
g70
NtRp4249
(dp4250
g73
(dp4251
g81
I2
ssg82
Nsg75
(lp4252
sbasbasbasbasbasbasbasbasbasbasbasbag68
(g84
g70
NtRp4253
(dp4254
g73
(dp4255
sg82
g3468
sg75
(lp4256
g68
(g89
g70
NtRp4257
(dp4258
g73
(dp4259
g93
g94
ssg82
g4253
sg75
(lp4260
S'menu2'
p4261
asbag68
(g89
g70
NtRp4262
(dp4263
g73
(dp4264
g100
g101
ssg82
g4253
sg75
(lp4265
S':'
asbag68
(g89
g70
NtRp4266
(dp4267
g73
(dp4268
sg82
g4253
sg75
(lp4269
g68
(g69
g70
NtRp4270
(dp4271
g73
(dp4272
g81
I5
ssg82
g4266
sg75
(lp4273
g68
(g77
g70
NtRp4274
(dp4275
g73
(dp4276
g81
I4
ssg82
Nsg75
(lp4277
g68
(g84
g70
NtRp4278
(dp4279
g73
(dp4280
sg82
g4274
sg75
(lp4281
g68
(g89
g70
NtRp4282
(dp4283
g73
(dp4284
sg82
g4278
sg75
(lp4285
g68
(g69
g70
NtRp4286
(dp4287
g73
(dp4288
g81
I4
ssg82
g4282
sg75
(lp4289
g68
(g77
g70
NtRp4290
(dp4291
g73
(dp4292
g81
I3
ssg82
Nsg75
(lp4293
g68
(g84
g70
NtRp4294
(dp4295
g73
(dp4296
sg82
g4290
sg75
(lp4297
g68
(g89
g70
NtRp4298
(dp4299
g73
(dp4300
sg82
g4294
sg75
(lp4301
g68
(g69
g70
NtRp4302
(dp4303
g73
(dp4304
g81
I3
ssg82
g4298
sg75
(lp4305
g68
(g3940
g70
NtRp4306
(dp4307
g73
(dp4308
g3930
S'dropdown-toggle'
p4309
ssg82
Nsg75
(lp4310
S'Admin'
p4311
asbasbasbasbag68
(g84
g70
NtRp4312
(dp4313
g73
(dp4314
sg82
g4290
sg75
(lp4315
g68
(g89
g70
NtRp4316
(dp4317
g73
(dp4318
sg82
g4312
sg75
(lp4319
g68
(g69
g70
NtRp4320
(dp4321
g73
(dp4322
g81
I3
ssg82
g4316
sg75
(lp4323
g111
asbasbasbag68
(g84
g70
NtRp4324
(dp4325
g73
(dp4326
sg82
g4290
sg75
(lp4327
g68
(g89
g70
NtRp4328
(dp4329
g73
(dp4330
sg82
g4324
sg75
(lp4331
g68
(g69
g70
NtRp4332
(dp4333
g73
(dp4334
g81
I3
ssg82
g4328
sg75
(lp4335
S'#'
asbasbasbag68
(g84
g70
NtRp4336
(dp4337
g73
(dp4338
sg82
g4290
sg75
(lp4339
g68
(g89
g70
NtRp4340
(dp4341
g73
(dp4342
sg82
g4336
sg75
(lp4343
g68
(g69
g70
NtRp4344
(dp4345
g73
(dp4346
g81
I3
ssg82
g4340
sg75
(lp4347
g68
(g77
g70
NtRp4348
(dp4349
g73
(dp4350
g81
I2
ssg82
Nsg75
(lp4351
g68
(g84
g70
NtRp4352
(dp4353
g73
(dp4354
sg82
g4348
sg75
(lp4355
g68
(g89
g70
NtRp4356
(dp4357
g73
(dp4358
sg82
g4352
sg75
(lp4359
g68
(g69
g70
NtRp4360
(dp4361
g73
(dp4362
g81
I2
ssg82
g4356
sg75
(lp4363
g68
(g77
g70
NtRp4364
(dp4365
g73
(dp4366
g81
I1
ssg82
Nsg75
(lp4367
g68
(g84
g70
NtRp4368
(dp4369
g73
(dp4370
sg82
g4364
sg75
(lp4371
g68
(g89
g70
NtRp4372
(dp4373
g73
(dp4374
sg82
g4368
sg75
(lp4375
g68
(g69
g70
NtRp4376
(dp4377
g73
(dp4378
g81
I1
ssg82
g4372
sg75
(lp4379
g4000
(S's\t\x00\x00\x00Usu\xc3\xa1rios'
tRp4380
asbasbasbag68
(g84
g70
NtRp4381
(dp4382
g73
(dp4383
sg82
g4364
sg75
(lp4384
g68
(g89
g70
NtRp4385
(dp4386
g73
(dp4387
sg82
g4381
sg75
(lp4388
g68
(g69
g70
NtRp4389
(dp4390
g73
(dp4391
g81
I1
ssg82
g4385
sg75
(lp4392
I00
asbasbasbag68
(g84
g70
NtRp4393
(dp4394
g73
(dp4395
sg82
g4364
sg75
(lp4396
g68
(g89
g70
NtRp4397
(dp4398
g73
(dp4399
sg82
g4393
sg75
(lp4400
g68
(g69
g70
NtRp4401
(dp4402
g73
(dp4403
g81
I1
ssg82
g4397
sg75
(lp4404
S'/manager/users'
p4405
asbasbasbasbasbasbasbag68
(g84
g70
NtRp4406
(dp4407
g73
(dp4408
sg82
g4348
sg75
(lp4409
g68
(g89
g70
NtRp4410
(dp4411
g73
(dp4412
sg82
g4406
sg75
(lp4413
g68
(g69
g70
NtRp4414
(dp4415
g73
(dp4416
g81
I2
ssg82
g4410
sg75
(lp4417
g68
(g77
g70
NtRp4418
(dp4419
g73
(dp4420
g81
I1
ssg82
Nsg75
(lp4421
g68
(g84
g70
NtRp4422
(dp4423
g73
(dp4424
sg82
g4418
sg75
(lp4425
g68
(g89
g70
NtRp4426
(dp4427
g73
(dp4428
sg82
g4422
sg75
(lp4429
g68
(g69
g70
NtRp4430
(dp4431
g73
(dp4432
g81
I1
ssg82
g4426
sg75
(lp4433
g4000
(S't\x06\x00\x00\x00Grupos'
tRp4434
asbasbasbag68
(g84
g70
NtRp4435
(dp4436
g73
(dp4437
sg82
g4418
sg75
(lp4438
g68
(g89
g70
NtRp4439
(dp4440
g73
(dp4441
sg82
g4435
sg75
(lp4442
g68
(g69
g70
NtRp4443
(dp4444
g73
(dp4445
g81
I1
ssg82
g4439
sg75
(lp4446
I00
asbasbasbag68
(g84
g70
NtRp4447
(dp4448
g73
(dp4449
sg82
g4418
sg75
(lp4450
g68
(g89
g70
NtRp4451
(dp4452
g73
(dp4453
sg82
g4447
sg75
(lp4454
g68
(g69
g70
NtRp4455
(dp4456
g73
(dp4457
g81
I1
ssg82
g4451
sg75
(lp4458
S'/manager/groups'
p4459
asbasbasbasbasbasbasbag68
(g84
g70
NtRp4460
(dp4461
g73
(dp4462
sg82
g4348
sg75
(lp4463
g68
(g89
g70
NtRp4464
(dp4465
g73
(dp4466
sg82
g4460
sg75
(lp4467
g68
(g69
g70
NtRp4468
(dp4469
g73
(dp4470
g81
I2
ssg82
g4464
sg75
(lp4471
g68
(g77
g70
NtRp4472
(dp4473
g73
(dp4474
g81
I1
ssg82
Nsg75
(lp4475
g68
(g84
g70
NtRp4476
(dp4477
g73
(dp4478
sg82
g4472
sg75
(lp4479
g68
(g89
g70
NtRp4480
(dp4481
g73
(dp4482
sg82
g4476
sg75
(lp4483
g68
(g69
g70
NtRp4484
(dp4485
g73
(dp4486
g81
I1
ssg82
g4480
sg75
(lp4487
g4000
(S't\x07\x00\x00\x00Membros'
tRp4488
asbasbasbag68
(g84
g70
NtRp4489
(dp4490
g73
(dp4491
sg82
g4472
sg75
(lp4492
g68
(g89
g70
NtRp4493
(dp4494
g73
(dp4495
sg82
g4489
sg75
(lp4496
g68
(g69
g70
NtRp4497
(dp4498
g73
(dp4499
g81
I1
ssg82
g4493
sg75
(lp4500
I00
asbasbasbag68
(g84
g70
NtRp4501
(dp4502
g73
(dp4503
sg82
g4472
sg75
(lp4504
g68
(g89
g70
NtRp4505
(dp4506
g73
(dp4507
sg82
g4501
sg75
(lp4508
g68
(g69
g70
NtRp4509
(dp4510
g73
(dp4511
g81
I1
ssg82
g4505
sg75
(lp4512
S'/manager/membership'
p4513
asbasbasbasbasbasbasbasbasbasbasbasbasbasbasbag68
(g84
g70
NtRp4514
(dp4515
g73
(dp4516
sg82
g4274
sg75
(lp4517
g68
(g89
g70
NtRp4518
(dp4519
g73
(dp4520
sg82
g4514
sg75
(lp4521
g68
(g69
g70
NtRp4522
(dp4523
g73
(dp4524
g81
I4
ssg82
g4518
sg75
(lp4525
g68
(g77
g70
NtRp4526
(dp4527
g73
(dp4528
g81
I3
ssg82
Nsg75
(lp4529
g68
(g84
g70
NtRp4530
(dp4531
g73
(dp4532
sg82
g4526
sg75
(lp4533
g68
(g89
g70
NtRp4534
(dp4535
g73
(dp4536
sg82
g4530
sg75
(lp4537
g68
(g69
g70
NtRp4538
(dp4539
g73
(dp4540
g81
I3
ssg82
g4534
sg75
(lp4541
g68
(g3940
g70
NtRp4542
(dp4543
g73
(dp4544
g3930
g4309
ssg82
Nsg75
(lp4545
S'Login'
p4546
asbasbasbasbag68
(g84
g70
NtRp4547
(dp4548
g73
(dp4549
sg82
g4526
sg75
(lp4550
g68
(g89
g70
NtRp4551
(dp4552
g73
(dp4553
sg82
g4547
sg75
(lp4554
g68
(g69
g70
NtRp4555
(dp4556
g73
(dp4557
g81
I3
ssg82
g4551
sg75
(lp4558
g111
asbasbasbag68
(g84
g70
NtRp4559
(dp4560
g73
(dp4561
sg82
g4526
sg75
(lp4562
g68
(g89
g70
NtRp4563
(dp4564
g73
(dp4565
sg82
g4559
sg75
(lp4566
g68
(g69
g70
NtRp4567
(dp4568
g73
(dp4569
g81
I3
ssg82
g4563
sg75
(lp4570
S'#'
asbasbasbag68
(g84
g70
NtRp4571
(dp4572
g73
(dp4573
sg82
g4526
sg75
(lp4574
g68
(g89
g70
NtRp4575
(dp4576
g73
(dp4577
sg82
g4571
sg75
(lp4578
g68
(g69
g70
NtRp4579
(dp4580
g73
(dp4581
g81
I3
ssg82
g4575
sg75
(lp4582
g68
(g77
g70
NtRp4583
(dp4584
g73
(dp4585
g81
I2
ssg82
Nsg75
(lp4586
g68
(g84
g70
NtRp4587
(dp4588
g73
(dp4589
sg82
g4583
sg75
(lp4590
g68
(g89
g70
NtRp4591
(dp4592
g73
(dp4593
sg82
g4587
sg75
(lp4594
g68
(g69
g70
NtRp4595
(dp4596
g73
(dp4597
g81
I2
ssg82
g4591
sg75
(lp4598
g68
(g77
g70
NtRp4599
(dp4600
g73
(dp4601
g81
I1
ssg82
Nsg75
(lp4602
g68
(g84
g70
NtRp4603
(dp4604
g73
(dp4605
sg82
g4599
sg75
(lp4606
g68
(g89
g70
NtRp4607
(dp4608
g73
(dp4609
sg82
g4603
sg75
(lp4610
g68
(g69
g70
NtRp4611
(dp4612
g73
(dp4613
g81
I1
ssg82
g4607
sg75
(lp4614
g4000
(S't\x06\x00\x00\x00Logout'
tRp4615
asbasbasbag68
(g84
g70
NtRp4616
(dp4617
g73
(dp4618
sg82
g4599
sg75
(lp4619
g68
(g89
g70
NtRp4620
(dp4621
g73
(dp4622
sg82
g4616
sg75
(lp4623
g68
(g69
g70
NtRp4624
(dp4625
g73
(dp4626
g81
I1
ssg82
g4620
sg75
(lp4627
I00
asbasbasbag68
(g84
g70
NtRp4628
(dp4629
g73
(dp4630
sg82
g4599
sg75
(lp4631
g68
(g89
g70
NtRp4632
(dp4633
g73
(dp4634
sg82
g4628
sg75
(lp4635
g68
(g69
g70
NtRp4636
(dp4637
g73
(dp4638
g81
I1
ssg82
g4632
sg75
(lp4639
S'/initial/user/logout'
p4640
asbasbasbasbasbasbasbasbasbasbasbasbasbasbasbasbasbasbasbag68
(g84
g70
NtRp4641
(dp4642
g73
(dp4643
sg82
g3468
sg75
(lp4644
g68
(g89
g70
NtRp4645
(dp4646
g73
(dp4647
g93
g94
ssg82
g4641
sg75
(lp4648
S'meta'
p4649
asbag68
(g89
g70
NtRp4650
(dp4651
g73
(dp4652
g100
g101
ssg82
g4641
sg75
(lp4653
S':'
asbag68
(g89
g70
NtRp4654
(dp4655
g73
(dp4656
sg82
g4641
sg75
(lp4657
g68
(g69
g70
NtRp4658
(dp4659
g73
(dp4660
g81
I5
ssg82
g4654
sg75
(lp4661
g68
(g77
g70
NtRp4662
(dp4663
g73
(dp4664
g81
I4
ssg82
Nsg75
(lp4665
g68
(g84
g70
NtRp4666
(dp4667
g73
(dp4668
sg82
g4662
sg75
(lp4669
g68
(g89
g70
NtRp4670
(dp4671
g73
(dp4672
g93
g94
ssg82
g4666
sg75
(lp4673
S'author'
p4674
asbag68
(g89
g70
NtRp4675
(dp4676
g73
(dp4677
g100
g101
ssg82
g4666
sg75
(lp4678
S':'
asbag68
(g89
g70
NtRp4679
(dp4680
g73
(dp4681
sg82
g4666
sg75
(lp4682
g68
(g69
g70
NtRp4683
(dp4684
g73
(dp4685
g81
I4
ssg82
g4679
sg75
(lp4686
S'Your Name <you@example.com>'
p4687
asbasbasbag68
(g84
g70
NtRp4688
(dp4689
g73
(dp4690
sg82
g4662
sg75
(lp4691
g68
(g89
g70
NtRp4692
(dp4693
g73
(dp4694
g93
g94
ssg82
g4688
sg75
(lp4695
S'description'
p4696
asbag68
(g89
g70
NtRp4697
(dp4698
g73
(dp4699
g100
g101
ssg82
g4688
sg75
(lp4700
S':'
asbag68
(g89
g70
NtRp4701
(dp4702
g73
(dp4703
sg82
g4688
sg75
(lp4704
g68
(g69
g70
NtRp4705
(dp4706
g73
(dp4707
g81
I4
ssg82
g4701
sg75
(lp4708
S'a cool new app'
p4709
asbasbasbag68
(g84
g70
NtRp4710
(dp4711
g73
(dp4712
sg82
g4662
sg75
(lp4713
g68
(g89
g70
NtRp4714
(dp4715
g73
(dp4716
g93
g94
ssg82
g4710
sg75
(lp4717
S'generator'
p4718
asbag68
(g89
g70
NtRp4719
(dp4720
g73
(dp4721
g100
g101
ssg82
g4710
sg75
(lp4722
S':'
asbag68
(g89
g70
NtRp4723
(dp4724
g73
(dp4725
sg82
g4710
sg75
(lp4726
g68
(g69
g70
NtRp4727
(dp4728
g73
(dp4729
g81
I4
ssg82
g4723
sg75
(lp4730
S'Web2py Web Framework'
p4731
asbasbasbag68
(g84
g70
NtRp4732
(dp4733
g73
(dp4734
sg82
g4662
sg75
(lp4735
g68
(g89
g70
NtRp4736
(dp4737
g73
(dp4738
g93
g94
ssg82
g4732
sg75
(lp4739
S'keywords'
p4740
asbag68
(g89
g70
NtRp4741
(dp4742
g73
(dp4743
g100
g101
ssg82
g4732
sg75
(lp4744
S':'
asbag68
(g89
g70
NtRp4745
(dp4746
g73
(dp4747
sg82
g4732
sg75
(lp4748
g68
(g69
g70
NtRp4749
(dp4750
g73
(dp4751
g81
I4
ssg82
g4745
sg75
(lp4752
S'web2py, python, framework'
p4753
asbasbasbasbasbasbasbag68
(g84
g70
NtRp4754
(dp4755
g73
(dp4756
sg82
g3468
sg75
(lp4757
g68
(g89
g70
NtRp4758
(dp4759
g73
(dp4760
g93
g94
ssg82
g4754
sg75
(lp4761
S'models_to_run'
p4762
asbag68
(g89
g70
NtRp4763
(dp4764
g73
(dp4765
g100
g101
ssg82
g4754
sg75
(lp4766
S':'
asbag68
(g89
g70
NtRp4767
(dp4768
g73
(dp4769
sg82
g4754
sg75
(lp4770
g68
(g69
g70
NtRp4771
(dp4772
g73
(dp4773
g81
I5
ssg82
g4767
sg75
(lp4774
g68
(g77
g70
NtRp4775
(dp4776
g73
(dp4777
g81
I4
ssg82
Nsg75
(lp4778
g68
(g84
g70
NtRp4779
(dp4780
g73
(dp4781
sg82
g4775
sg75
(lp4782
g68
(g89
g70
NtRp4783
(dp4784
g73
(dp4785
sg82
g4779
sg75
(lp4786
g68
(g69
g70
NtRp4787
(dp4788
g73
(dp4789
g81
I4
ssg82
g4783
sg75
(lp4790
S'^\\w+\\.py$'
p4791
asbasbasbag68
(g84
g70
NtRp4792
(dp4793
g73
(dp4794
sg82
g4775
sg75
(lp4795
g68
(g89
g70
NtRp4796
(dp4797
g73
(dp4798
sg82
g4792
sg75
(lp4799
g68
(g69
g70
NtRp4800
(dp4801
g73
(dp4802
g81
I4
ssg82
g4796
sg75
(lp4803
S'^initial/\\w+\\.py$'
p4804
asbasbasbag68
(g84
g70
NtRp4805
(dp4806
g73
(dp4807
sg82
g4775
sg75
(lp4808
g68
(g89
g70
NtRp4809
(dp4810
g73
(dp4811
sg82
g4805
sg75
(lp4812
g68
(g69
g70
NtRp4813
(dp4814
g73
(dp4815
g81
I4
ssg82
g4809
sg75
(lp4816
S'^initial/principal/\\w+\\.py$'
p4817
asbasbasbasbasbasbasbag68
(g84
g70
NtRp4818
(dp4819
g73
(dp4820
sg82
g3468
sg75
(lp4821
g68
(g89
g70
NtRp4822
(dp4823
g73
(dp4824
g93
g94
ssg82
g4818
sg75
(lp4825
S'postprocessing'
p4826
asbag68
(g89
g70
NtRp4827
(dp4828
g73
(dp4829
g100
g101
ssg82
g4818
sg75
(lp4830
S':'
asbag68
(g89
g70
NtRp4831
(dp4832
g73
(dp4833
sg82
g4818
sg75
(lp4834
g68
(g69
g70
NtRp4835
(dp4836
g73
(dp4837
g81
I5
ssg82
g4831
sg75
(lp4838
g68
(g77
g70
NtRp4839
(dp4840
g73
(dp4841
g81
I4
ssg82
Nsg75
(lp4842
sbasbasbasbag68
(g84
g70
NtRp4843
(dp4844
g73
(dp4845
sg82
g3468
sg75
(lp4846
g68
(g89
g70
NtRp4847
(dp4848
g73
(dp4849
g93
g94
ssg82
g4843
sg75
(lp4850
S'session_cookie_expires'
p4851
asbag68
(g89
g70
NtRp4852
(dp4853
g73
(dp4854
g100
g101
ssg82
g4843
sg75
(lp4855
S':'
asbag68
(g89
g70
NtRp4856
(dp4857
g73
(dp4858
sg82
g4843
sg75
(lp4859
g68
(g69
g70
NtRp4860
(dp4861
g73
(dp4862
g81
I5
ssg82
g4856
sg75
(lp4863
S'None'
p4864
asbasbasbag68
(g84
g70
NtRp4865
(dp4866
g73
(dp4867
sg82
g3468
sg75
(lp4868
g68
(g89
g70
NtRp4869
(dp4870
g73
(dp4871
g93
g94
ssg82
g4865
sg75
(lp4872
S'session_data_name'
p4873
asbag68
(g89
g70
NtRp4874
(dp4875
g73
(dp4876
g100
g101
ssg82
g4865
sg75
(lp4877
S':'
asbag68
(g89
g70
NtRp4878
(dp4879
g73
(dp4880
sg82
g4865
sg75
(lp4881
g68
(g69
g70
NtRp4882
(dp4883
g73
(dp4884
g81
I5
ssg82
g4878
sg75
(lp4885
S'session_data_projeto'
p4886
asbasbasbag68
(g84
g70
NtRp4887
(dp4888
g73
(dp4889
sg82
g3468
sg75
(lp4890
g68
(g89
g70
NtRp4891
(dp4892
g73
(dp4893
g93
g94
ssg82
g4887
sg75
(lp4894
S'session_file'
p4895
asbag68
(g89
g70
NtRp4896
(dp4897
g73
(dp4898
g100
g101
ssg82
g4887
sg75
(lp4899
S':'
asbag68
(g89
g70
NtRp4900
(dp4901
g73
(dp4902
sg82
g4887
sg75
(lp4903
g68
(g69
g70
NtRp4904
(dp4905
g73
(dp4906
g81
I5
ssg82
g4900
sg75
(lp4907
S"<open file '/var/www/hosts3/applications/projeto/sessions/127.0.0.1-75f1e5ae-31c3-489a-934f-26d1d736233f', mode 'rb+' at 0x7fca180ea150>"
p4908
asbasbasbag68
(g84
g70
NtRp4909
(dp4910
g73
(dp4911
sg82
g3468
sg75
(lp4912
g68
(g89
g70
NtRp4913
(dp4914
g73
(dp4915
g93
g94
ssg82
g4909
sg75
(lp4916
S'session_filename'
p4917
asbag68
(g89
g70
NtRp4918
(dp4919
g73
(dp4920
g100
g101
ssg82
g4909
sg75
(lp4921
S':'
asbag68
(g89
g70
NtRp4922
(dp4923
g73
(dp4924
sg82
g4909
sg75
(lp4925
g68
(g69
g70
NtRp4926
(dp4927
g73
(dp4928
g81
I5
ssg82
g4922
sg75
(lp4929
S'/var/www/hosts3/applications/projeto/sessions/127.0.0.1-75f1e5ae-31c3-489a-934f-26d1d736233f'
p4930
asbasbasbag68
(g84
g70
NtRp4931
(dp4932
g73
(dp4933
sg82
g3468
sg75
(lp4934
g68
(g89
g70
NtRp4935
(dp4936
g73
(dp4937
g93
g94
ssg82
g4931
sg75
(lp4938
S'session_id'
p4939
asbag68
(g89
g70
NtRp4940
(dp4941
g73
(dp4942
g100
g101
ssg82
g4931
sg75
(lp4943
S':'
asbag68
(g89
g70
NtRp4944
(dp4945
g73
(dp4946
sg82
g4931
sg75
(lp4947
g68
(g69
g70
NtRp4948
(dp4949
g73
(dp4950
g81
I5
ssg82
g4944
sg75
(lp4951
g486
asbasbasbag68
(g84
g70
NtRp4952
(dp4953
g73
(dp4954
sg82
g3468
sg75
(lp4955
g68
(g89
g70
NtRp4956
(dp4957
g73
(dp4958
g93
g94
ssg82
g4952
sg75
(lp4959
S'session_id_name'
p4960
asbag68
(g89
g70
NtRp4961
(dp4962
g73
(dp4963
g100
g101
ssg82
g4952
sg75
(lp4964
S':'
asbag68
(g89
g70
NtRp4965
(dp4966
g73
(dp4967
sg82
g4952
sg75
(lp4968
g68
(g69
g70
NtRp4969
(dp4970
g73
(dp4971
g81
I5
ssg82
g4965
sg75
(lp4972
g3525
asbasbasbag68
(g84
g70
NtRp4973
(dp4974
g73
(dp4975
sg82
g3468
sg75
(lp4976
g68
(g89
g70
NtRp4977
(dp4978
g73
(dp4979
g93
g94
ssg82
g4973
sg75
(lp4980
S'session_locked'
p4981
asbag68
(g89
g70
NtRp4982
(dp4983
g73
(dp4984
g100
g101
ssg82
g4973
sg75
(lp4985
S':'
asbag68
(g89
g70
NtRp4986
(dp4987
g73
(dp4988
sg82
g4973
sg75
(lp4989
g68
(g69
g70
NtRp4990
(dp4991
g73
(dp4992
g81
I5
ssg82
g4986
sg75
(lp4993
g1624
asbasbasbag68
(g84
g70
NtRp4994
(dp4995
g73
(dp4996
sg82
g3468
sg75
(lp4997
g68
(g89
g70
NtRp4998
(dp4999
g73
(dp5000
g93
g94
ssg82
g4994
sg75
(lp5001
S'session_new'
p5002
asbag68
(g89
g70
NtRp5003
(dp5004
g73
(dp5005
g100
g101
ssg82
g4994
sg75
(lp5006
S':'
asbag68
(g89
g70
NtRp5007
(dp5008
g73
(dp5009
sg82
g4994
sg75
(lp5010
g68
(g69
g70
NtRp5011
(dp5012
g73
(dp5013
g81
I5
ssg82
g5007
sg75
(lp5014
g111
asbasbasbag68
(g84
g70
NtRp5015
(dp5016
g73
(dp5017
sg82
g3468
sg75
(lp5018
g68
(g89
g70
NtRp5019
(dp5020
g73
(dp5021
g93
g94
ssg82
g5015
sg75
(lp5022
S'session_storage_type'
p5023
asbag68
(g89
g70
NtRp5024
(dp5025
g73
(dp5026
g100
g101
ssg82
g5015
sg75
(lp5027
S':'
asbag68
(g89
g70
NtRp5028
(dp5029
g73
(dp5030
sg82
g5015
sg75
(lp5031
g68
(g69
g70
NtRp5032
(dp5033
g73
(dp5034
g81
I5
ssg82
g5028
sg75
(lp5035
g3042
asbasbasbag68
(g84
g70
NtRp5036
(dp5037
g73
(dp5038
sg82
g3468
sg75
(lp5039
g68
(g89
g70
NtRp5040
(dp5041
g73
(dp5042
g93
g94
ssg82
g5036
sg75
(lp5043
S'status'
p5044
asbag68
(g89
g70
NtRp5045
(dp5046
g73
(dp5047
g100
g101
ssg82
g5036
sg75
(lp5048
S':'
asbag68
(g89
g70
NtRp5049
(dp5050
g73
(dp5051
sg82
g5036
sg75
(lp5052
g68
(g69
g70
NtRp5053
(dp5054
g73
(dp5055
g81
I5
ssg82
g5049
sg75
(lp5056
S'200'
p5057
asbasbasbag68
(g84
g70
NtRp5058
(dp5059
g73
(dp5060
sg82
g3468
sg75
(lp5061
g68
(g89
g70
NtRp5062
(dp5063
g73
(dp5064
g93
g94
ssg82
g5058
sg75
(lp5065
S'subtitle'
p5066
asbag68
(g89
g70
NtRp5067
(dp5068
g73
(dp5069
g100
g101
ssg82
g5058
sg75
(lp5070
S':'
asbag68
(g89
g70
NtRp5071
(dp5072
g73
(dp5073
sg82
g5058
sg75
(lp5074
g68
(g69
g70
NtRp5075
(dp5076
g73
(dp5077
g81
I5
ssg82
g5071
sg75
(lp5078
g4000
(S's\r\x00\x00\x00customize me!'
tRp5079
asbasbasbag68
(g84
g70
NtRp5080
(dp5081
g73
(dp5082
sg82
g3468
sg75
(lp5083
g68
(g89
g70
NtRp5084
(dp5085
g73
(dp5086
g93
g94
ssg82
g5080
sg75
(lp5087
S'title'
p5088
asbag68
(g89
g70
NtRp5089
(dp5090
g73
(dp5091
g100
g101
ssg82
g5080
sg75
(lp5092
S':'
asbag68
(g89
g70
NtRp5093
(dp5094
g73
(dp5095
sg82
g5080
sg75
(lp5096
g68
(g69
g70
NtRp5097
(dp5098
g73
(dp5099
g81
I5
ssg82
g5093
sg75
(lp5100
S'Projeto'
p5101
asbasbasbag68
(g84
g70
NtRp5102
(dp5103
g73
(dp5104
sg82
g3468
sg75
(lp5105
g68
(g89
g70
NtRp5106
(dp5107
g73
(dp5108
g93
g94
ssg82
g5102
sg75
(lp5109
S'view'
p5110
asbag68
(g89
g70
NtRp5111
(dp5112
g73
(dp5113
g100
g101
ssg82
g5102
sg75
(lp5114
S':'
asbag68
(g89
g70
NtRp5115
(dp5116
g73
(dp5117
sg82
g5102
sg75
(lp5118
g68
(g69
g70
NtRp5119
(dp5120
g73
(dp5121
g81
I5
ssg82
g5115
sg75
(lp5122
S'initial/principal.html'
p5123
asbasbasbasbasbsS'locals'
p5124
(dp5125
g4
S"'/var/www/hosts3/applications/projeto/controllers/initial.py'"
p5126
sg6
S"'# coding: utf-8\\n\\n@auth.requires_login()\\ndef show...es)\\t\\n\\nresponse._vars=response._caller(principal)\\n'"
p5127
sssS'traceback'
p5128
S'Traceback (most recent call last):\n  File "/var/www/hosts3/gluon/restricted.py", line 211, in restricted\n    ccode = compile2(code, layer)\n  File "/var/www/hosts3/gluon/restricted.py", line 194, in compile2\n    return compile(code.rstrip().replace(\'\\r\\n\', \'\\n\') + \'\\n\', layer, \'exec\')\n  File "/var/www/hosts3/applications/projeto/controllers/initial.py", line 266\n    elif auth.has_membership(\'internet\'):\n       ^\nSyntaxError: invalid syntax\n'
p5129
s.