(dp1
S'output'
p2
S"<type 'exceptions.IndexError'> list index out of range"
p3
sS'layer'
p4
S'/var/www/hosts3/applications/projeto/views/initial/show_form.html'
p5
sS'code'
p6
S'response.write(\'<!DOCTYPE html>\\n<!-- paulirish.com/2008/conditional-stylesheets-vs-css-hacks-answer-neither/ -->\\n<!--[if lt IE 7]><html class="ie ie6 ie-lte9 ie-lte8 ie-lte7 no-js" lang="\', escape=False)\nresponse.write(T.accepted_language or \'en\')\nresponse.write(\'"> <![endif]-->\\n<!--[if IE 7]><html class="ie ie7 ie-lte9 ie-lte8 ie-lte7 no-js" lang="\', escape=False)\nresponse.write(T.accepted_language or \'en\')\nresponse.write(\'"> <![endif]-->\\n<!--[if IE 8]><html class="ie ie8 ie-lte9 ie-lte8 no-js" lang="\', escape=False)\nresponse.write(T.accepted_language or \'en\')\nresponse.write(\'"> <![endif]-->\\n<!--[if IE 9]><html class="ie9 ie-lte9 no-js" lang="\', escape=False)\nresponse.write(T.accepted_language or \'en\')\nresponse.write(\'"> <![endif]-->\\n<!--[if (gt IE 9)|!(IE)]><!--> <html class="no-js" lang="\', escape=False)\nresponse.write(T.accepted_language or \'en\')\nresponse.write(\'"> <!--<![endif]-->\\n<head>\\n  <meta charset="utf-8" />\\n  <!-- www.phpied.com/conditional-comments-block-downloads/ -->\\n  <!-- Always force latest IE rendering engine\\n       (even in intranet) & Chrome Frame\\n       Remove this if you use the .htaccess -->\\n  <!--[if IE]>\\n      <meta http-equiv="X-UA-Compatible" content="IE=edge\', escape=False)\nresponse.write(not request.is_local and \',chrome=1\' or \'\')\nresponse.write(\'">\\n      <![endif]-->\\n\\n  <title>\', escape=False)\nresponse.write(response.title or request.application)\nresponse.write(\'</title>\\n\\n  <!-- http://dev.w3.org/html5/markup/meta.name.html -->\\n  <meta name="application-name" content="\', escape=False)\nresponse.write(request.application)\nresponse.write(\'" />\\n\\n  <!-- Speaking of Google, don\\\'t forget to set your site up:\\n       http://google.com/webmasters -->\\n  <meta name="google-site-verification" content="" />\\n\\n  <!--  Mobile Viewport Fix\\n        j.mp/mobileviewport & davidbcalhoun.com/2010/viewport-metatag\\n        device-width: Occupy full width of the screen in its current orientation\\n        initial-scale = 1.0 retains dimensions instead of zooming out if page height > device height\\n        user-scalable = yes allows the user to zoom in -->\\n  <meta name="viewport" content="width=device-width, initial-scale=1.0" />\\n\\n  <link rel="shortcut icon" href="\', escape=False)\nresponse.write(URL(\'static\',\'images/favicon.ico\'))\nresponse.write(\'" type="image/x-icon">\\n  <link rel="apple-touch-icon" href="\', escape=False)\nresponse.write(URL(\'static\',\'images/favicon.png\'))\nresponse.write(\'">\\n\\n  <!-- All JavaScript at the bottom, except for Modernizr which enables\\n       HTML5 elements & feature detects -->\\n  <script src="\', escape=False)\nresponse.write(URL(\'static\',\'js/modernizr.custom.js\'))\nresponse.write(\'"></script>\\n\\n  <!-- include stylesheets -->\\n  \', escape=False)\nresponse.files.append(URL(\'static\',\'css/web2py.css\'))\nresponse.files.append(URL(\'static\',\'css/bootstrap.min.css\'))\nresponse.files.append(URL(\'static\',\'css/bootstrap-responsive.min.css\'))\nresponse.files.append(URL(\'static\',\'css/web2py_bootstrap.css\'))\nresponse.write(\'\\n\\n  \', escape=False)\nresponse.write(\'<script type="text/javascript"><!--\\n    // These variables are used by the web2py_ajax_init function in web2py_ajax.js (which is loaded below).\\n    var w2p_ajax_confirm_message = "\', escape=False)\nresponse.write(T(\'Are you sure you want to delete this object?\'))\nresponse.write(\'";\\n    var w2p_ajax_date_format = "\', escape=False)\nresponse.write(T(\'%Y-%m-%d\'))\nresponse.write(\'";\\n    var w2p_ajax_datetime_format = "\', escape=False)\nresponse.write(T(\'%Y-%m-%d %H:%M:%S\'))\nresponse.write(\'";\\n    //--></script>\\n\', escape=False)\nresponse.files.insert(0,URL(\'static\',\'js/jquery.js\'))\nresponse.files.insert(1,URL(\'static\',\'css/calendar.css\'))\nresponse.files.insert(2,URL(\'static\',\'js/calendar.js\'))\nresponse.files.insert(3,URL(\'static\',\'js/web2py.js\'))\nresponse.include_meta()\nresponse.include_files()\nresponse.write(\'\\n\', escape=False)\nresponse.write(\'\\n\\n  \', escape=False)\n# using sidebars need to know what sidebar you want to use\nleft_sidebar_enabled = globals().get(\'left_sidebar_enabled\',False)\nright_sidebar_enabled = globals().get(\'right_sidebar_enabled\',False)\nmiddle_columns = {0:\'span12\',1:\'span9\',2:\'span6\'}[\n(left_sidebar_enabled and 1 or 0)+(right_sidebar_enabled and 1 or 0)]\nresponse.write(\'\\n\\n  <!-- uncomment here to load jquery-ui\\n       <link rel="stylesheet" href="http://ajax.googleapis.com/ajax/libs/jqueryui/1.8.16/themes/base/jquery-ui.css" type="text/css" media="all" />\\n       <script src="http://ajax.googleapis.com/ajax/libs/jqueryui/1.8.16/jquery-ui.min.js" type="text/javascript"></script>\\n       uncomment to load jquery-ui //-->\\n  <noscript><link href="\', escape=False)\nresponse.write(URL(\'static\', \'css/web2py_bootstrap_nojs.css\'))\nresponse.write(\'" rel="stylesheet" type="text/css" /></noscript>\\n  \', escape=False)\nresponse.write(\'\\n</head>\\n\\n<body>\\n  <!-- Navbar ================================================== -->\\n  <div class="navbar navbar-inverse navbar-fixed-top">\\n    <div class="flash">\', escape=False)\nresponse.write(response.flash or \'\')\nresponse.write(\'</div>\\n    <div class="navbar-inner">\\n      <div class="container">\\n        <!-- the next tag is necessary for bootstrap menus, do not remove -->\\n        <button type="button" class="btn btn-navbar" data-toggle="collapse" data-target=".nav-collapse">\\n          <span class="icon-bar"></span>\\n          <span class="icon-bar"></span>\\n          <span class="icon-bar"></span>\\n        </button>\\n\\t\', escape=False)\nresponse.write(response.logo or \'\')\nresponse.write(\'\\n       <ul id="navbar" class="nav pull-right">\', escape=False)\nresponse.write(MENU(response.menu2, _class=\'mobile-menu nav\', li_class=\'dropdown\',ul_class=\'dropdown-menu\'))\nresponse.write(\'</ul>\\n        <div class="nav-collapse"><ul class="nav">\\n          \', escape=False)\nis_mobile=request.user_agent().is_mobile\nresponse.write(\'\\n          \', escape=False)\nif response.menu:\n    response.write(\'\\n          \', escape=False)\n    response.write(MENU(response.menu, _class=\'mobile-menu nav\' if is_mobile else \'nav\',mobile=is_mobile,li_class=\'dropdown\',ul_class=\'dropdown-menu\'))\n    response.write(\'\\n          \', escape=False)\n    pass\nresponse.write(\'\\n        </div><!--/.nav-collapse --></ul>\\n      </div>\\n    </div>\\n  </div><!--/top navbar -->\\n\\n  <div class="container">\\n    <!-- Masthead ================================================== -->\\n    <header class="mastheader row" id="header">\\n        <div class="span12">\\n            <div class="page-header">\\n                <h1>\\n                    hosts\\n                    <small>\', escape=False)\nresponse.write(response.title or \'\')\nresponse.write(\'</small>\\n                </h1>\\n            </div>\\n        </div>\\n    </header>\\n\\n    <section id="main" class="main row">\\n        \', escape=False)\nif left_sidebar_enabled:\n    response.write(\'\\n        <div class="span3 left-sidebar">\\n            \', escape=False)\n    response.write(\'\\n            <h3>Left Sidebar</h3>\\n            <p></p>\\n            \', escape=False)\n    response.write(\'\\n        </div>\\n        \', escape=False)\n    pass\nresponse.write(\'\\n        \\n        <div class="\', escape=False)\nresponse.write(middle_columns)\nresponse.write(\'">\\n            \', escape=False)\nresponse.write(\'\\n\', escape=False)\narg = request.args[0]\nresponse.write(\'\\n\\n<ul class="breadcrumb">\\n        <li><a href="\', escape=False)\nresponse.write(URL(\'initial\', \'/show_cliente\'))\nresponse.write(\'">Clientes</a> <span class="divider">/</span></li>\\n        <li><a href="\', escape=False)\nresponse.write(URL(\'initial\', \'/cliente_host\', vars=dict(f=arg)))\nresponse.write(\'">Library</a> <span class="divider">/</span></li>\\n        <li class="active">Data</li>\\n      </ul>\\n\', escape=False)\nresponse.write(form)\nresponse.write(\'\\n\', escape=False)\nresponse.write(\'\\n        </div>\\n\\n        \', escape=False)\nif right_sidebar_enabled:\n    response.write(\'\\n        <div class="span3">\\n            \', escape=False)\n    response.write(\'\\n            <h3>Right Sidebar</h3>\\n            <p></p>\\n            \', escape=False)\n    response.write(\'\\n        </div>\\n        \', escape=False)\n    pass\nresponse.write(\'\\n    </section><!--/main-->\\n\\n    <!-- Footer ================================================== -->\\n    <div class="row">\\n        <footer class="footer span12" id="footer">\\n            <div class="footer-content">\\n                \', escape=False)\nresponse.write(\' <!-- this is default footer -->\\n                <div class="copyright pull-left">\', escape=False)\nresponse.write(T(\'Copyright\'))\nresponse.write(\' &#169; \', escape=False)\nresponse.write(request.now.year)\nresponse.write(\'</div>\\n                <div id="poweredBy" class="pull-right">\\n                    \', escape=False)\nresponse.write(T(\'Powered by\'))\nresponse.write(\'\\n                    <a href="www.google.com">Aldeia Digital</a>\\n                </div>\\n                \', escape=False)\nresponse.write(\'\\n            </div>\\n        </footer>\\n    </div>\\n\\n  </div> <!-- /container -->\\n\\n  <!-- The javascript =============================================\\n       (Placed at the end of the document so the pages load faster) -->\\n  <script src="\', escape=False)\nresponse.write(URL(\'static\',\'js/bootstrap.min.js\'))\nresponse.write(\'"></script>\\n  <script src="\', escape=False)\nresponse.write(URL(\'static\',\'js/web2py_bootstrap.js\'))\nresponse.write(\'"></script>\\n  <!--[if lt IE 7 ]>\\n      <script src="\', escape=False)\nresponse.write(URL(\'static\',\'js/dd_belatedpng.js\'))\nresponse.write(\'"></script>\\n      <script> DD_belatedPNG.fix(\\\'img, .png_bg\\\'); //fix any <img> or .png_bg background-images </script>\\n      <![endif]-->\\n  \\n  \', escape=False)\nif response.google_analytics_id:\n    response.write(\'\\n  <script src="\', escape=False)\n    response.write(URL(\'static\',\'js/analytics.js\'))\n    response.write(\'"></script>\\n  <script type="text/javascript">\\n  analytics.initialize({\\n    \\\'Google Analytics\\\':{trackingId:\\\'\', escape=False)\n    response.write(response.google_analytics_id)\n    response.write("\'} \\n  });</script>\\n  ", escape=False)\n    pass\nresponse.write(\'\\n  <script src="\', escape=False)\nresponse.write(URL(\'static\',\'js/share.js\',vars=dict(static=URL(\'static\',\'images\'))))\nresponse.write(\'"></script>\\n</body>\\n</html>\\n\', escape=False)'
p7
sS'snapshot'
p8
(dp9
S'exception'
p10
(dp11
S'__hash__'
p12
S"<method-wrapper '__hash__' of exceptions.IndexError object>"
p13
sS'__setattr__'
p14
S"<method-wrapper '__setattr__' of exceptions.IndexError object>"
p15
sS'__reduce_ex__'
p16
S'<built-in method __reduce_ex__ of exceptions.IndexError object>'
p17
sS'__getslice__'
p18
S"<method-wrapper '__getslice__' of exceptions.IndexError object>"
p19
sS'__getitem__'
p20
S"<method-wrapper '__getitem__' of exceptions.IndexError object>"
p21
sS'__setstate__'
p22
S'<built-in method __setstate__ of exceptions.IndexError object>'
p23
sS'args'
p24
S"('list index out of range',)"
p25
sS'__reduce__'
p26
S'<built-in method __reduce__ of exceptions.IndexError object>'
p27
sS'__str__'
p28
S"<method-wrapper '__str__' of exceptions.IndexError object>"
p29
sS'__format__'
p30
S'<built-in method __format__ of exceptions.IndexError object>'
p31
sS'__getattribute__'
p32
S"<method-wrapper '__getattribute__' of exceptions.IndexError object>"
p33
sS'__class__'
p34
S"<type 'exceptions.IndexError'>"
p35
sS'__unicode__'
p36
S'<built-in method __unicode__ of exceptions.IndexError object>'
p37
sS'__delattr__'
p38
S"<method-wrapper '__delattr__' of exceptions.IndexError object>"
p39
sS'__subclasshook__'
p40
S'<built-in method __subclasshook__ of type object>'
p41
sS'__repr__'
p42
S"<method-wrapper '__repr__' of exceptions.IndexError object>"
p43
sS'__dict__'
p44
S'{}'
p45
sS'__sizeof__'
p46
S'<built-in method __sizeof__ of exceptions.IndexError object>'
p47
sS'__doc__'
p48
S"'Sequence index out of range.'"
p49
sS'__init__'
p50
S"<method-wrapper '__init__' of exceptions.IndexError object>"
p51
sS'__new__'
p52
S'<built-in method __new__ of type object>'
p53
ssS'evalue'
p54
S'list index out of range'
p55
sS'request'
p56
ccopy_reg
_reconstructor
p57
(cgluon.html
BEAUTIFY
p58
c__builtin__
object
p59
NtRp60
(dp61
S'attributes'
p62
(dp63
sS'components'
p64
(lp65
g57
(cgluon.html
TABLE
p66
g59
NtRp67
(dp68
g62
(dp69
S'level'
p70
I5
ssS'parent'
p71
Nsg64
(lp72
g57
(cgluon.html
TR
p73
g59
NtRp74
(dp75
g62
(dp76
sg71
g67
sg64
(lp77
g57
(cgluon.html
TD
p78
g59
NtRp79
(dp80
g62
(dp81
S'_style'
p82
S'font-weight:bold;vertical-align:top'
p83
ssg71
g74
sg64
(lp84
S'ajax'
p85
asbag57
(g78
g59
NtRp86
(dp87
g62
(dp88
S'_valign'
p89
S'top'
p90
ssg71
g74
sg64
(lp91
S':'
asbag57
(g78
g59
NtRp92
(dp93
g62
(dp94
sg71
g74
sg64
(lp95
g57
(g58
g59
NtRp96
(dp97
g62
(dp98
g70
I5
ssg71
g92
sg64
(lp99
S'False'
p100
asbasbasbag57
(g73
g59
NtRp101
(dp102
g62
(dp103
sg71
g67
sg64
(lp104
g57
(g78
g59
NtRp105
(dp106
g62
(dp107
g82
g83
ssg71
g101
sg64
(lp108
S'application'
p109
asbag57
(g78
g59
NtRp110
(dp111
g62
(dp112
g89
g90
ssg71
g101
sg64
(lp113
S':'
asbag57
(g78
g59
NtRp114
(dp115
g62
(dp116
sg71
g101
sg64
(lp117
g57
(g58
g59
NtRp118
(dp119
g62
(dp120
g70
I5
ssg71
g114
sg64
(lp121
S'projeto'
p122
asbasbasbag57
(g73
g59
NtRp123
(dp124
g62
(dp125
sg71
g67
sg64
(lp126
g57
(g78
g59
NtRp127
(dp128
g62
(dp129
g82
g83
ssg71
g123
sg64
(lp130
g24
asbag57
(g78
g59
NtRp131
(dp132
g62
(dp133
g89
g90
ssg71
g123
sg64
(lp134
S':'
asbag57
(g78
g59
NtRp135
(dp136
g62
(dp137
sg71
g123
sg64
(lp138
g57
(g58
g59
NtRp139
(dp140
g62
(dp141
g70
I5
ssg71
g135
sg64
(lp142
g57
(g66
g59
NtRp143
(dp144
g62
(dp145
g70
I4
ssg71
Nsg64
(lp146
sbasbasbasbag57
(g73
g59
NtRp147
(dp148
g62
(dp149
sg71
g67
sg64
(lp150
g57
(g78
g59
NtRp151
(dp152
g62
(dp153
g82
g83
ssg71
g147
sg64
(lp154
S'body'
p155
asbag57
(g78
g59
NtRp156
(dp157
g62
(dp158
g89
g90
ssg71
g147
sg64
(lp159
S':'
asbag57
(g78
g59
NtRp160
(dp161
g62
(dp162
sg71
g147
sg64
(lp163
g57
(g58
g59
NtRp164
(dp165
g62
(dp166
g70
I5
ssg71
g160
sg64
(lp167
S'<cStringIO.StringO object at 0x7fe50c21ced8>'
p168
asbasbasbag57
(g73
g59
NtRp169
(dp170
g62
(dp171
sg71
g67
sg64
(lp172
g57
(g78
g59
NtRp173
(dp174
g62
(dp175
g82
g83
ssg71
g169
sg64
(lp176
S'cid'
p177
asbag57
(g78
g59
NtRp178
(dp179
g62
(dp180
g89
g90
ssg71
g169
sg64
(lp181
S':'
asbag57
(g78
g59
NtRp182
(dp183
g62
(dp184
sg71
g169
sg64
(lp185
g57
(g58
g59
NtRp186
(dp187
g62
(dp188
g70
I5
ssg71
g182
sg64
(lp189
S'None'
p190
asbasbasbag57
(g73
g59
NtRp191
(dp192
g62
(dp193
sg71
g67
sg64
(lp194
g57
(g78
g59
NtRp195
(dp196
g62
(dp197
g82
g83
ssg71
g191
sg64
(lp198
S'client'
p199
asbag57
(g78
g59
NtRp200
(dp201
g62
(dp202
g89
g90
ssg71
g191
sg64
(lp203
S':'
asbag57
(g78
g59
NtRp204
(dp205
g62
(dp206
sg71
g191
sg64
(lp207
g57
(g58
g59
NtRp208
(dp209
g62
(dp210
g70
I5
ssg71
g204
sg64
(lp211
S'127.0.0.1'
p212
asbasbasbag57
(g73
g59
NtRp213
(dp214
g62
(dp215
sg71
g67
sg64
(lp216
g57
(g78
g59
NtRp217
(dp218
g62
(dp219
g82
g83
ssg71
g213
sg64
(lp220
S'controller'
p221
asbag57
(g78
g59
NtRp222
(dp223
g62
(dp224
g89
g90
ssg71
g213
sg64
(lp225
S':'
asbag57
(g78
g59
NtRp226
(dp227
g62
(dp228
sg71
g213
sg64
(lp229
g57
(g58
g59
NtRp230
(dp231
g62
(dp232
g70
I5
ssg71
g226
sg64
(lp233
S'initial'
p234
asbasbasbag57
(g73
g59
NtRp235
(dp236
g62
(dp237
sg71
g67
sg64
(lp238
g57
(g78
g59
NtRp239
(dp240
g62
(dp241
g82
g83
ssg71
g235
sg64
(lp242
S'cookies'
p243
asbag57
(g78
g59
NtRp244
(dp245
g62
(dp246
g89
g90
ssg71
g235
sg64
(lp247
S':'
asbag57
(g78
g59
NtRp248
(dp249
g62
(dp250
sg71
g235
sg64
(lp251
g57
(g58
g59
NtRp252
(dp253
g62
(dp254
g70
I5
ssg71
g248
sg64
(lp255
g57
(g66
g59
NtRp256
(dp257
g62
(dp258
g70
I4
ssg71
Nsg64
(lp259
g57
(g73
g59
NtRp260
(dp261
g62
(dp262
sg71
g256
sg64
(lp263
g57
(g78
g59
NtRp264
(dp265
g62
(dp266
g82
g83
ssg71
g260
sg64
(lp267
S'admin'
p268
asbag57
(g78
g59
NtRp269
(dp270
g62
(dp271
g89
g90
ssg71
g260
sg64
(lp272
S':'
asbag57
(g78
g59
NtRp273
(dp274
g62
(dp275
sg71
g260
sg64
(lp276
g57
(g58
g59
NtRp277
(dp278
g62
(dp279
g70
I4
ssg71
g273
sg64
(lp280
S'admin'
p281
ag57
(g66
g59
NtRp282
(dp283
g62
(dp284
g70
I3
ssg71
Nsg64
(lp285
g57
(g73
g59
NtRp286
(dp287
g62
(dp288
sg71
g282
sg64
(lp289
g57
(g78
g59
NtRp290
(dp291
g62
(dp292
g82
g83
ssg71
g286
sg64
(lp293
S'comment'
p294
asbag57
(g78
g59
NtRp295
(dp296
g62
(dp297
g89
g90
ssg71
g286
sg64
(lp298
S':'
asbag57
(g78
g59
NtRp299
(dp300
g62
(dp301
sg71
g286
sg64
(lp302
g57
(g58
g59
NtRp303
(dp304
g62
(dp305
g70
I3
ssg71
g299
sg64
(lp306
S''
asbasbasbag57
(g73
g59
NtRp307
(dp308
g62
(dp309
sg71
g282
sg64
(lp310
g57
(g78
g59
NtRp311
(dp312
g62
(dp313
g82
g83
ssg71
g307
sg64
(lp314
S'domain'
p315
asbag57
(g78
g59
NtRp316
(dp317
g62
(dp318
g89
g90
ssg71
g307
sg64
(lp319
S':'
asbag57
(g78
g59
NtRp320
(dp321
g62
(dp322
sg71
g307
sg64
(lp323
g57
(g58
g59
NtRp324
(dp325
g62
(dp326
g70
I3
ssg71
g320
sg64
(lp327
S''
asbasbasbag57
(g73
g59
NtRp328
(dp329
g62
(dp330
sg71
g282
sg64
(lp331
g57
(g78
g59
NtRp332
(dp333
g62
(dp334
g82
g83
ssg71
g328
sg64
(lp335
S'expires'
p336
asbag57
(g78
g59
NtRp337
(dp338
g62
(dp339
g89
g90
ssg71
g328
sg64
(lp340
S':'
asbag57
(g78
g59
NtRp341
(dp342
g62
(dp343
sg71
g328
sg64
(lp344
g57
(g58
g59
NtRp345
(dp346
g62
(dp347
g70
I3
ssg71
g341
sg64
(lp348
S''
asbasbasbag57
(g73
g59
NtRp349
(dp350
g62
(dp351
sg71
g282
sg64
(lp352
g57
(g78
g59
NtRp353
(dp354
g62
(dp355
g82
g83
ssg71
g349
sg64
(lp356
S'httponly'
p357
asbag57
(g78
g59
NtRp358
(dp359
g62
(dp360
g89
g90
ssg71
g349
sg64
(lp361
S':'
asbag57
(g78
g59
NtRp362
(dp363
g62
(dp364
sg71
g349
sg64
(lp365
g57
(g58
g59
NtRp366
(dp367
g62
(dp368
g70
I3
ssg71
g362
sg64
(lp369
S''
asbasbasbag57
(g73
g59
NtRp370
(dp371
g62
(dp372
sg71
g282
sg64
(lp373
g57
(g78
g59
NtRp374
(dp375
g62
(dp376
g82
g83
ssg71
g370
sg64
(lp377
S'max-age'
p378
asbag57
(g78
g59
NtRp379
(dp380
g62
(dp381
g89
g90
ssg71
g370
sg64
(lp382
S':'
asbag57
(g78
g59
NtRp383
(dp384
g62
(dp385
sg71
g370
sg64
(lp386
g57
(g58
g59
NtRp387
(dp388
g62
(dp389
g70
I3
ssg71
g383
sg64
(lp390
S''
asbasbasbag57
(g73
g59
NtRp391
(dp392
g62
(dp393
sg71
g282
sg64
(lp394
g57
(g78
g59
NtRp395
(dp396
g62
(dp397
g82
g83
ssg71
g391
sg64
(lp398
S'path'
p399
asbag57
(g78
g59
NtRp400
(dp401
g62
(dp402
g89
g90
ssg71
g391
sg64
(lp403
S':'
asbag57
(g78
g59
NtRp404
(dp405
g62
(dp406
sg71
g391
sg64
(lp407
g57
(g58
g59
NtRp408
(dp409
g62
(dp410
g70
I3
ssg71
g404
sg64
(lp411
S''
asbasbasbag57
(g73
g59
NtRp412
(dp413
g62
(dp414
sg71
g282
sg64
(lp415
g57
(g78
g59
NtRp416
(dp417
g62
(dp418
g82
g83
ssg71
g412
sg64
(lp419
S'secure'
p420
asbag57
(g78
g59
NtRp421
(dp422
g62
(dp423
g89
g90
ssg71
g412
sg64
(lp424
S':'
asbag57
(g78
g59
NtRp425
(dp426
g62
(dp427
sg71
g412
sg64
(lp428
g57
(g58
g59
NtRp429
(dp430
g62
(dp431
g70
I3
ssg71
g425
sg64
(lp432
S''
asbasbasbag57
(g73
g59
NtRp433
(dp434
g62
(dp435
sg71
g282
sg64
(lp436
g57
(g78
g59
NtRp437
(dp438
g62
(dp439
g82
g83
ssg71
g433
sg64
(lp440
S'version'
p441
asbag57
(g78
g59
NtRp442
(dp443
g62
(dp444
g89
g90
ssg71
g433
sg64
(lp445
S':'
asbag57
(g78
g59
NtRp446
(dp447
g62
(dp448
sg71
g433
sg64
(lp449
g57
(g58
g59
NtRp450
(dp451
g62
(dp452
g70
I3
ssg71
g446
sg64
(lp453
S''
asbasbasbasbasbasbasbag57
(g73
g59
NtRp454
(dp455
g62
(dp456
sg71
g256
sg64
(lp457
g57
(g78
g59
NtRp458
(dp459
g62
(dp460
g82
g83
ssg71
g454
sg64
(lp461
S'cookie'
p462
asbag57
(g78
g59
NtRp463
(dp464
g62
(dp465
g89
g90
ssg71
g454
sg64
(lp466
S':'
asbag57
(g78
g59
NtRp467
(dp468
g62
(dp469
sg71
g454
sg64
(lp470
g57
(g58
g59
NtRp471
(dp472
g62
(dp473
g70
I4
ssg71
g467
sg64
(lp474
S'1649423593'
p475
ag57
(g66
g59
NtRp476
(dp477
g62
(dp478
g70
I3
ssg71
Nsg64
(lp479
g57
(g73
g59
NtRp480
(dp481
g62
(dp482
sg71
g476
sg64
(lp483
g57
(g78
g59
NtRp484
(dp485
g62
(dp486
g82
g83
ssg71
g480
sg64
(lp487
g294
asbag57
(g78
g59
NtRp488
(dp489
g62
(dp490
g89
g90
ssg71
g480
sg64
(lp491
S':'
asbag57
(g78
g59
NtRp492
(dp493
g62
(dp494
sg71
g480
sg64
(lp495
g57
(g58
g59
NtRp496
(dp497
g62
(dp498
g70
I3
ssg71
g492
sg64
(lp499
S''
asbasbasbag57
(g73
g59
NtRp500
(dp501
g62
(dp502
sg71
g476
sg64
(lp503
g57
(g78
g59
NtRp504
(dp505
g62
(dp506
g82
g83
ssg71
g500
sg64
(lp507
g315
asbag57
(g78
g59
NtRp508
(dp509
g62
(dp510
g89
g90
ssg71
g500
sg64
(lp511
S':'
asbag57
(g78
g59
NtRp512
(dp513
g62
(dp514
sg71
g500
sg64
(lp515
g57
(g58
g59
NtRp516
(dp517
g62
(dp518
g70
I3
ssg71
g512
sg64
(lp519
S''
asbasbasbag57
(g73
g59
NtRp520
(dp521
g62
(dp522
sg71
g476
sg64
(lp523
g57
(g78
g59
NtRp524
(dp525
g62
(dp526
g82
g83
ssg71
g520
sg64
(lp527
g336
asbag57
(g78
g59
NtRp528
(dp529
g62
(dp530
g89
g90
ssg71
g520
sg64
(lp531
S':'
asbag57
(g78
g59
NtRp532
(dp533
g62
(dp534
sg71
g520
sg64
(lp535
g57
(g58
g59
NtRp536
(dp537
g62
(dp538
g70
I3
ssg71
g532
sg64
(lp539
S''
asbasbasbag57
(g73
g59
NtRp540
(dp541
g62
(dp542
sg71
g476
sg64
(lp543
g57
(g78
g59
NtRp544
(dp545
g62
(dp546
g82
g83
ssg71
g540
sg64
(lp547
g357
asbag57
(g78
g59
NtRp548
(dp549
g62
(dp550
g89
g90
ssg71
g540
sg64
(lp551
S':'
asbag57
(g78
g59
NtRp552
(dp553
g62
(dp554
sg71
g540
sg64
(lp555
g57
(g58
g59
NtRp556
(dp557
g62
(dp558
g70
I3
ssg71
g552
sg64
(lp559
S''
asbasbasbag57
(g73
g59
NtRp560
(dp561
g62
(dp562
sg71
g476
sg64
(lp563
g57
(g78
g59
NtRp564
(dp565
g62
(dp566
g82
g83
ssg71
g560
sg64
(lp567
g378
asbag57
(g78
g59
NtRp568
(dp569
g62
(dp570
g89
g90
ssg71
g560
sg64
(lp571
S':'
asbag57
(g78
g59
NtRp572
(dp573
g62
(dp574
sg71
g560
sg64
(lp575
g57
(g58
g59
NtRp576
(dp577
g62
(dp578
g70
I3
ssg71
g572
sg64
(lp579
S''
asbasbasbag57
(g73
g59
NtRp580
(dp581
g62
(dp582
sg71
g476
sg64
(lp583
g57
(g78
g59
NtRp584
(dp585
g62
(dp586
g82
g83
ssg71
g580
sg64
(lp587
g399
asbag57
(g78
g59
NtRp588
(dp589
g62
(dp590
g89
g90
ssg71
g580
sg64
(lp591
S':'
asbag57
(g78
g59
NtRp592
(dp593
g62
(dp594
sg71
g580
sg64
(lp595
g57
(g58
g59
NtRp596
(dp597
g62
(dp598
g70
I3
ssg71
g592
sg64
(lp599
S''
asbasbasbag57
(g73
g59
NtRp600
(dp601
g62
(dp602
sg71
g476
sg64
(lp603
g57
(g78
g59
NtRp604
(dp605
g62
(dp606
g82
g83
ssg71
g600
sg64
(lp607
g420
asbag57
(g78
g59
NtRp608
(dp609
g62
(dp610
g89
g90
ssg71
g600
sg64
(lp611
S':'
asbag57
(g78
g59
NtRp612
(dp613
g62
(dp614
sg71
g600
sg64
(lp615
g57
(g58
g59
NtRp616
(dp617
g62
(dp618
g70
I3
ssg71
g612
sg64
(lp619
S''
asbasbasbag57
(g73
g59
NtRp620
(dp621
g62
(dp622
sg71
g476
sg64
(lp623
g57
(g78
g59
NtRp624
(dp625
g62
(dp626
g82
g83
ssg71
g620
sg64
(lp627
g441
asbag57
(g78
g59
NtRp628
(dp629
g62
(dp630
g89
g90
ssg71
g620
sg64
(lp631
S':'
asbag57
(g78
g59
NtRp632
(dp633
g62
(dp634
sg71
g620
sg64
(lp635
g57
(g58
g59
NtRp636
(dp637
g62
(dp638
g70
I3
ssg71
g632
sg64
(lp639
S''
asbasbasbasbasbasbasbag57
(g73
g59
NtRp640
(dp641
g62
(dp642
sg71
g256
sg64
(lp643
g57
(g78
g59
NtRp644
(dp645
g62
(dp646
g82
g83
ssg71
g640
sg64
(lp647
S'hw_type'
p648
asbag57
(g78
g59
NtRp649
(dp650
g62
(dp651
g89
g90
ssg71
g640
sg64
(lp652
S':'
asbag57
(g78
g59
NtRp653
(dp654
g62
(dp655
sg71
g640
sg64
(lp656
g57
(g58
g59
NtRp657
(dp658
g62
(dp659
g70
I4
ssg71
g653
sg64
(lp660
S'MX60'
p661
ag57
(g66
g59
NtRp662
(dp663
g62
(dp664
g70
I3
ssg71
Nsg64
(lp665
g57
(g73
g59
NtRp666
(dp667
g62
(dp668
sg71
g662
sg64
(lp669
g57
(g78
g59
NtRp670
(dp671
g62
(dp672
g82
g83
ssg71
g666
sg64
(lp673
g294
asbag57
(g78
g59
NtRp674
(dp675
g62
(dp676
g89
g90
ssg71
g666
sg64
(lp677
S':'
asbag57
(g78
g59
NtRp678
(dp679
g62
(dp680
sg71
g666
sg64
(lp681
g57
(g58
g59
NtRp682
(dp683
g62
(dp684
g70
I3
ssg71
g678
sg64
(lp685
S''
asbasbasbag57
(g73
g59
NtRp686
(dp687
g62
(dp688
sg71
g662
sg64
(lp689
g57
(g78
g59
NtRp690
(dp691
g62
(dp692
g82
g83
ssg71
g686
sg64
(lp693
g315
asbag57
(g78
g59
NtRp694
(dp695
g62
(dp696
g89
g90
ssg71
g686
sg64
(lp697
S':'
asbag57
(g78
g59
NtRp698
(dp699
g62
(dp700
sg71
g686
sg64
(lp701
g57
(g58
g59
NtRp702
(dp703
g62
(dp704
g70
I3
ssg71
g698
sg64
(lp705
S''
asbasbasbag57
(g73
g59
NtRp706
(dp707
g62
(dp708
sg71
g662
sg64
(lp709
g57
(g78
g59
NtRp710
(dp711
g62
(dp712
g82
g83
ssg71
g706
sg64
(lp713
g336
asbag57
(g78
g59
NtRp714
(dp715
g62
(dp716
g89
g90
ssg71
g706
sg64
(lp717
S':'
asbag57
(g78
g59
NtRp718
(dp719
g62
(dp720
sg71
g706
sg64
(lp721
g57
(g58
g59
NtRp722
(dp723
g62
(dp724
g70
I3
ssg71
g718
sg64
(lp725
S''
asbasbasbag57
(g73
g59
NtRp726
(dp727
g62
(dp728
sg71
g662
sg64
(lp729
g57
(g78
g59
NtRp730
(dp731
g62
(dp732
g82
g83
ssg71
g726
sg64
(lp733
g357
asbag57
(g78
g59
NtRp734
(dp735
g62
(dp736
g89
g90
ssg71
g726
sg64
(lp737
S':'
asbag57
(g78
g59
NtRp738
(dp739
g62
(dp740
sg71
g726
sg64
(lp741
g57
(g58
g59
NtRp742
(dp743
g62
(dp744
g70
I3
ssg71
g738
sg64
(lp745
S''
asbasbasbag57
(g73
g59
NtRp746
(dp747
g62
(dp748
sg71
g662
sg64
(lp749
g57
(g78
g59
NtRp750
(dp751
g62
(dp752
g82
g83
ssg71
g746
sg64
(lp753
g378
asbag57
(g78
g59
NtRp754
(dp755
g62
(dp756
g89
g90
ssg71
g746
sg64
(lp757
S':'
asbag57
(g78
g59
NtRp758
(dp759
g62
(dp760
sg71
g746
sg64
(lp761
g57
(g58
g59
NtRp762
(dp763
g62
(dp764
g70
I3
ssg71
g758
sg64
(lp765
S''
asbasbasbag57
(g73
g59
NtRp766
(dp767
g62
(dp768
sg71
g662
sg64
(lp769
g57
(g78
g59
NtRp770
(dp771
g62
(dp772
g82
g83
ssg71
g766
sg64
(lp773
g399
asbag57
(g78
g59
NtRp774
(dp775
g62
(dp776
g89
g90
ssg71
g766
sg64
(lp777
S':'
asbag57
(g78
g59
NtRp778
(dp779
g62
(dp780
sg71
g766
sg64
(lp781
g57
(g58
g59
NtRp782
(dp783
g62
(dp784
g70
I3
ssg71
g778
sg64
(lp785
S''
asbasbasbag57
(g73
g59
NtRp786
(dp787
g62
(dp788
sg71
g662
sg64
(lp789
g57
(g78
g59
NtRp790
(dp791
g62
(dp792
g82
g83
ssg71
g786
sg64
(lp793
g420
asbag57
(g78
g59
NtRp794
(dp795
g62
(dp796
g89
g90
ssg71
g786
sg64
(lp797
S':'
asbag57
(g78
g59
NtRp798
(dp799
g62
(dp800
sg71
g786
sg64
(lp801
g57
(g58
g59
NtRp802
(dp803
g62
(dp804
g70
I3
ssg71
g798
sg64
(lp805
S''
asbasbasbag57
(g73
g59
NtRp806
(dp807
g62
(dp808
sg71
g662
sg64
(lp809
g57
(g78
g59
NtRp810
(dp811
g62
(dp812
g82
g83
ssg71
g806
sg64
(lp813
g441
asbag57
(g78
g59
NtRp814
(dp815
g62
(dp816
g89
g90
ssg71
g806
sg64
(lp817
S':'
asbag57
(g78
g59
NtRp818
(dp819
g62
(dp820
sg71
g806
sg64
(lp821
g57
(g58
g59
NtRp822
(dp823
g62
(dp824
g70
I3
ssg71
g818
sg64
(lp825
S''
asbasbasbasbasbasbasbag57
(g73
g59
NtRp826
(dp827
g62
(dp828
sg71
g256
sg64
(lp829
g57
(g78
g59
NtRp830
(dp831
g62
(dp832
g82
g83
ssg71
g826
sg64
(lp833
S'hw_version'
p834
asbag57
(g78
g59
NtRp835
(dp836
g62
(dp837
g89
g90
ssg71
g826
sg64
(lp838
S':'
asbag57
(g78
g59
NtRp839
(dp840
g62
(dp841
sg71
g826
sg64
(lp842
g57
(g58
g59
NtRp843
(dp844
g62
(dp845
g70
I4
ssg71
g839
sg64
(lp846
S'Rev%201.9.82.316'
p847
ag57
(g66
g59
NtRp848
(dp849
g62
(dp850
g70
I3
ssg71
Nsg64
(lp851
g57
(g73
g59
NtRp852
(dp853
g62
(dp854
sg71
g848
sg64
(lp855
g57
(g78
g59
NtRp856
(dp857
g62
(dp858
g82
g83
ssg71
g852
sg64
(lp859
g294
asbag57
(g78
g59
NtRp860
(dp861
g62
(dp862
g89
g90
ssg71
g852
sg64
(lp863
S':'
asbag57
(g78
g59
NtRp864
(dp865
g62
(dp866
sg71
g852
sg64
(lp867
g57
(g58
g59
NtRp868
(dp869
g62
(dp870
g70
I3
ssg71
g864
sg64
(lp871
S''
asbasbasbag57
(g73
g59
NtRp872
(dp873
g62
(dp874
sg71
g848
sg64
(lp875
g57
(g78
g59
NtRp876
(dp877
g62
(dp878
g82
g83
ssg71
g872
sg64
(lp879
g315
asbag57
(g78
g59
NtRp880
(dp881
g62
(dp882
g89
g90
ssg71
g872
sg64
(lp883
S':'
asbag57
(g78
g59
NtRp884
(dp885
g62
(dp886
sg71
g872
sg64
(lp887
g57
(g58
g59
NtRp888
(dp889
g62
(dp890
g70
I3
ssg71
g884
sg64
(lp891
S''
asbasbasbag57
(g73
g59
NtRp892
(dp893
g62
(dp894
sg71
g848
sg64
(lp895
g57
(g78
g59
NtRp896
(dp897
g62
(dp898
g82
g83
ssg71
g892
sg64
(lp899
g336
asbag57
(g78
g59
NtRp900
(dp901
g62
(dp902
g89
g90
ssg71
g892
sg64
(lp903
S':'
asbag57
(g78
g59
NtRp904
(dp905
g62
(dp906
sg71
g892
sg64
(lp907
g57
(g58
g59
NtRp908
(dp909
g62
(dp910
g70
I3
ssg71
g904
sg64
(lp911
S''
asbasbasbag57
(g73
g59
NtRp912
(dp913
g62
(dp914
sg71
g848
sg64
(lp915
g57
(g78
g59
NtRp916
(dp917
g62
(dp918
g82
g83
ssg71
g912
sg64
(lp919
g357
asbag57
(g78
g59
NtRp920
(dp921
g62
(dp922
g89
g90
ssg71
g912
sg64
(lp923
S':'
asbag57
(g78
g59
NtRp924
(dp925
g62
(dp926
sg71
g912
sg64
(lp927
g57
(g58
g59
NtRp928
(dp929
g62
(dp930
g70
I3
ssg71
g924
sg64
(lp931
S''
asbasbasbag57
(g73
g59
NtRp932
(dp933
g62
(dp934
sg71
g848
sg64
(lp935
g57
(g78
g59
NtRp936
(dp937
g62
(dp938
g82
g83
ssg71
g932
sg64
(lp939
g378
asbag57
(g78
g59
NtRp940
(dp941
g62
(dp942
g89
g90
ssg71
g932
sg64
(lp943
S':'
asbag57
(g78
g59
NtRp944
(dp945
g62
(dp946
sg71
g932
sg64
(lp947
g57
(g58
g59
NtRp948
(dp949
g62
(dp950
g70
I3
ssg71
g944
sg64
(lp951
S''
asbasbasbag57
(g73
g59
NtRp952
(dp953
g62
(dp954
sg71
g848
sg64
(lp955
g57
(g78
g59
NtRp956
(dp957
g62
(dp958
g82
g83
ssg71
g952
sg64
(lp959
g399
asbag57
(g78
g59
NtRp960
(dp961
g62
(dp962
g89
g90
ssg71
g952
sg64
(lp963
S':'
asbag57
(g78
g59
NtRp964
(dp965
g62
(dp966
sg71
g952
sg64
(lp967
g57
(g58
g59
NtRp968
(dp969
g62
(dp970
g70
I3
ssg71
g964
sg64
(lp971
S''
asbasbasbag57
(g73
g59
NtRp972
(dp973
g62
(dp974
sg71
g848
sg64
(lp975
g57
(g78
g59
NtRp976
(dp977
g62
(dp978
g82
g83
ssg71
g972
sg64
(lp979
g420
asbag57
(g78
g59
NtRp980
(dp981
g62
(dp982
g89
g90
ssg71
g972
sg64
(lp983
S':'
asbag57
(g78
g59
NtRp984
(dp985
g62
(dp986
sg71
g972
sg64
(lp987
g57
(g58
g59
NtRp988
(dp989
g62
(dp990
g70
I3
ssg71
g984
sg64
(lp991
S''
asbasbasbag57
(g73
g59
NtRp992
(dp993
g62
(dp994
sg71
g848
sg64
(lp995
g57
(g78
g59
NtRp996
(dp997
g62
(dp998
g82
g83
ssg71
g992
sg64
(lp999
g441
asbag57
(g78
g59
NtRp1000
(dp1001
g62
(dp1002
g89
g90
ssg71
g992
sg64
(lp1003
S':'
asbag57
(g78
g59
NtRp1004
(dp1005
g62
(dp1006
sg71
g992
sg64
(lp1007
g57
(g58
g59
NtRp1008
(dp1009
g62
(dp1010
g70
I3
ssg71
g1004
sg64
(lp1011
S''
asbasbasbasbasbasbasbag57
(g73
g59
NtRp1012
(dp1013
g62
(dp1014
sg71
g256
sg64
(lp1015
g57
(g78
g59
NtRp1016
(dp1017
g62
(dp1018
g82
g83
ssg71
g1012
sg64
(lp1019
S'language'
p1020
asbag57
(g78
g59
NtRp1021
(dp1022
g62
(dp1023
g89
g90
ssg71
g1012
sg64
(lp1024
S':'
asbag57
(g78
g59
NtRp1025
(dp1026
g62
(dp1027
sg71
g1012
sg64
(lp1028
g57
(g58
g59
NtRp1029
(dp1030
g62
(dp1031
g70
I4
ssg71
g1025
sg64
(lp1032
S'1'
ag57
(g66
g59
NtRp1033
(dp1034
g62
(dp1035
g70
I3
ssg71
Nsg64
(lp1036
g57
(g73
g59
NtRp1037
(dp1038
g62
(dp1039
sg71
g1033
sg64
(lp1040
g57
(g78
g59
NtRp1041
(dp1042
g62
(dp1043
g82
g83
ssg71
g1037
sg64
(lp1044
g294
asbag57
(g78
g59
NtRp1045
(dp1046
g62
(dp1047
g89
g90
ssg71
g1037
sg64
(lp1048
S':'
asbag57
(g78
g59
NtRp1049
(dp1050
g62
(dp1051
sg71
g1037
sg64
(lp1052
g57
(g58
g59
NtRp1053
(dp1054
g62
(dp1055
g70
I3
ssg71
g1049
sg64
(lp1056
S''
asbasbasbag57
(g73
g59
NtRp1057
(dp1058
g62
(dp1059
sg71
g1033
sg64
(lp1060
g57
(g78
g59
NtRp1061
(dp1062
g62
(dp1063
g82
g83
ssg71
g1057
sg64
(lp1064
g315
asbag57
(g78
g59
NtRp1065
(dp1066
g62
(dp1067
g89
g90
ssg71
g1057
sg64
(lp1068
S':'
asbag57
(g78
g59
NtRp1069
(dp1070
g62
(dp1071
sg71
g1057
sg64
(lp1072
g57
(g58
g59
NtRp1073
(dp1074
g62
(dp1075
g70
I3
ssg71
g1069
sg64
(lp1076
S''
asbasbasbag57
(g73
g59
NtRp1077
(dp1078
g62
(dp1079
sg71
g1033
sg64
(lp1080
g57
(g78
g59
NtRp1081
(dp1082
g62
(dp1083
g82
g83
ssg71
g1077
sg64
(lp1084
g336
asbag57
(g78
g59
NtRp1085
(dp1086
g62
(dp1087
g89
g90
ssg71
g1077
sg64
(lp1088
S':'
asbag57
(g78
g59
NtRp1089
(dp1090
g62
(dp1091
sg71
g1077
sg64
(lp1092
g57
(g58
g59
NtRp1093
(dp1094
g62
(dp1095
g70
I3
ssg71
g1089
sg64
(lp1096
S''
asbasbasbag57
(g73
g59
NtRp1097
(dp1098
g62
(dp1099
sg71
g1033
sg64
(lp1100
g57
(g78
g59
NtRp1101
(dp1102
g62
(dp1103
g82
g83
ssg71
g1097
sg64
(lp1104
g357
asbag57
(g78
g59
NtRp1105
(dp1106
g62
(dp1107
g89
g90
ssg71
g1097
sg64
(lp1108
S':'
asbag57
(g78
g59
NtRp1109
(dp1110
g62
(dp1111
sg71
g1097
sg64
(lp1112
g57
(g58
g59
NtRp1113
(dp1114
g62
(dp1115
g70
I3
ssg71
g1109
sg64
(lp1116
S''
asbasbasbag57
(g73
g59
NtRp1117
(dp1118
g62
(dp1119
sg71
g1033
sg64
(lp1120
g57
(g78
g59
NtRp1121
(dp1122
g62
(dp1123
g82
g83
ssg71
g1117
sg64
(lp1124
g378
asbag57
(g78
g59
NtRp1125
(dp1126
g62
(dp1127
g89
g90
ssg71
g1117
sg64
(lp1128
S':'
asbag57
(g78
g59
NtRp1129
(dp1130
g62
(dp1131
sg71
g1117
sg64
(lp1132
g57
(g58
g59
NtRp1133
(dp1134
g62
(dp1135
g70
I3
ssg71
g1129
sg64
(lp1136
S''
asbasbasbag57
(g73
g59
NtRp1137
(dp1138
g62
(dp1139
sg71
g1033
sg64
(lp1140
g57
(g78
g59
NtRp1141
(dp1142
g62
(dp1143
g82
g83
ssg71
g1137
sg64
(lp1144
g399
asbag57
(g78
g59
NtRp1145
(dp1146
g62
(dp1147
g89
g90
ssg71
g1137
sg64
(lp1148
S':'
asbag57
(g78
g59
NtRp1149
(dp1150
g62
(dp1151
sg71
g1137
sg64
(lp1152
g57
(g58
g59
NtRp1153
(dp1154
g62
(dp1155
g70
I3
ssg71
g1149
sg64
(lp1156
S''
asbasbasbag57
(g73
g59
NtRp1157
(dp1158
g62
(dp1159
sg71
g1033
sg64
(lp1160
g57
(g78
g59
NtRp1161
(dp1162
g62
(dp1163
g82
g83
ssg71
g1157
sg64
(lp1164
g420
asbag57
(g78
g59
NtRp1165
(dp1166
g62
(dp1167
g89
g90
ssg71
g1157
sg64
(lp1168
S':'
asbag57
(g78
g59
NtRp1169
(dp1170
g62
(dp1171
sg71
g1157
sg64
(lp1172
g57
(g58
g59
NtRp1173
(dp1174
g62
(dp1175
g70
I3
ssg71
g1169
sg64
(lp1176
S''
asbasbasbag57
(g73
g59
NtRp1177
(dp1178
g62
(dp1179
sg71
g1033
sg64
(lp1180
g57
(g78
g59
NtRp1181
(dp1182
g62
(dp1183
g82
g83
ssg71
g1177
sg64
(lp1184
g441
asbag57
(g78
g59
NtRp1185
(dp1186
g62
(dp1187
g89
g90
ssg71
g1177
sg64
(lp1188
S':'
asbag57
(g78
g59
NtRp1189
(dp1190
g62
(dp1191
sg71
g1177
sg64
(lp1192
g57
(g58
g59
NtRp1193
(dp1194
g62
(dp1195
g70
I3
ssg71
g1189
sg64
(lp1196
S''
asbasbasbasbasbasbasbag57
(g73
g59
NtRp1197
(dp1198
g62
(dp1199
sg71
g256
sg64
(lp1200
g57
(g78
g59
NtRp1201
(dp1202
g62
(dp1203
g82
g83
ssg71
g1197
sg64
(lp1204
S'model'
p1205
asbag57
(g78
g59
NtRp1206
(dp1207
g62
(dp1208
g89
g90
ssg71
g1197
sg64
(lp1209
S':'
asbag57
(g78
g59
NtRp1210
(dp1211
g62
(dp1212
sg71
g1197
sg64
(lp1213
g57
(g58
g59
NtRp1214
(dp1215
g62
(dp1216
g70
I4
ssg71
g1210
sg64
(lp1217
S'MX'
p1218
ag57
(g66
g59
NtRp1219
(dp1220
g62
(dp1221
g70
I3
ssg71
Nsg64
(lp1222
g57
(g73
g59
NtRp1223
(dp1224
g62
(dp1225
sg71
g1219
sg64
(lp1226
g57
(g78
g59
NtRp1227
(dp1228
g62
(dp1229
g82
g83
ssg71
g1223
sg64
(lp1230
g294
asbag57
(g78
g59
NtRp1231
(dp1232
g62
(dp1233
g89
g90
ssg71
g1223
sg64
(lp1234
S':'
asbag57
(g78
g59
NtRp1235
(dp1236
g62
(dp1237
sg71
g1223
sg64
(lp1238
g57
(g58
g59
NtRp1239
(dp1240
g62
(dp1241
g70
I3
ssg71
g1235
sg64
(lp1242
S''
asbasbasbag57
(g73
g59
NtRp1243
(dp1244
g62
(dp1245
sg71
g1219
sg64
(lp1246
g57
(g78
g59
NtRp1247
(dp1248
g62
(dp1249
g82
g83
ssg71
g1243
sg64
(lp1250
g315
asbag57
(g78
g59
NtRp1251
(dp1252
g62
(dp1253
g89
g90
ssg71
g1243
sg64
(lp1254
S':'
asbag57
(g78
g59
NtRp1255
(dp1256
g62
(dp1257
sg71
g1243
sg64
(lp1258
g57
(g58
g59
NtRp1259
(dp1260
g62
(dp1261
g70
I3
ssg71
g1255
sg64
(lp1262
S''
asbasbasbag57
(g73
g59
NtRp1263
(dp1264
g62
(dp1265
sg71
g1219
sg64
(lp1266
g57
(g78
g59
NtRp1267
(dp1268
g62
(dp1269
g82
g83
ssg71
g1263
sg64
(lp1270
g336
asbag57
(g78
g59
NtRp1271
(dp1272
g62
(dp1273
g89
g90
ssg71
g1263
sg64
(lp1274
S':'
asbag57
(g78
g59
NtRp1275
(dp1276
g62
(dp1277
sg71
g1263
sg64
(lp1278
g57
(g58
g59
NtRp1279
(dp1280
g62
(dp1281
g70
I3
ssg71
g1275
sg64
(lp1282
S''
asbasbasbag57
(g73
g59
NtRp1283
(dp1284
g62
(dp1285
sg71
g1219
sg64
(lp1286
g57
(g78
g59
NtRp1287
(dp1288
g62
(dp1289
g82
g83
ssg71
g1283
sg64
(lp1290
g357
asbag57
(g78
g59
NtRp1291
(dp1292
g62
(dp1293
g89
g90
ssg71
g1283
sg64
(lp1294
S':'
asbag57
(g78
g59
NtRp1295
(dp1296
g62
(dp1297
sg71
g1283
sg64
(lp1298
g57
(g58
g59
NtRp1299
(dp1300
g62
(dp1301
g70
I3
ssg71
g1295
sg64
(lp1302
S''
asbasbasbag57
(g73
g59
NtRp1303
(dp1304
g62
(dp1305
sg71
g1219
sg64
(lp1306
g57
(g78
g59
NtRp1307
(dp1308
g62
(dp1309
g82
g83
ssg71
g1303
sg64
(lp1310
g378
asbag57
(g78
g59
NtRp1311
(dp1312
g62
(dp1313
g89
g90
ssg71
g1303
sg64
(lp1314
S':'
asbag57
(g78
g59
NtRp1315
(dp1316
g62
(dp1317
sg71
g1303
sg64
(lp1318
g57
(g58
g59
NtRp1319
(dp1320
g62
(dp1321
g70
I3
ssg71
g1315
sg64
(lp1322
S''
asbasbasbag57
(g73
g59
NtRp1323
(dp1324
g62
(dp1325
sg71
g1219
sg64
(lp1326
g57
(g78
g59
NtRp1327
(dp1328
g62
(dp1329
g82
g83
ssg71
g1323
sg64
(lp1330
g399
asbag57
(g78
g59
NtRp1331
(dp1332
g62
(dp1333
g89
g90
ssg71
g1323
sg64
(lp1334
S':'
asbag57
(g78
g59
NtRp1335
(dp1336
g62
(dp1337
sg71
g1323
sg64
(lp1338
g57
(g58
g59
NtRp1339
(dp1340
g62
(dp1341
g70
I3
ssg71
g1335
sg64
(lp1342
S''
asbasbasbag57
(g73
g59
NtRp1343
(dp1344
g62
(dp1345
sg71
g1219
sg64
(lp1346
g57
(g78
g59
NtRp1347
(dp1348
g62
(dp1349
g82
g83
ssg71
g1343
sg64
(lp1350
g420
asbag57
(g78
g59
NtRp1351
(dp1352
g62
(dp1353
g89
g90
ssg71
g1343
sg64
(lp1354
S':'
asbag57
(g78
g59
NtRp1355
(dp1356
g62
(dp1357
sg71
g1343
sg64
(lp1358
g57
(g58
g59
NtRp1359
(dp1360
g62
(dp1361
g70
I3
ssg71
g1355
sg64
(lp1362
S''
asbasbasbag57
(g73
g59
NtRp1363
(dp1364
g62
(dp1365
sg71
g1219
sg64
(lp1366
g57
(g78
g59
NtRp1367
(dp1368
g62
(dp1369
g82
g83
ssg71
g1363
sg64
(lp1370
g441
asbag57
(g78
g59
NtRp1371
(dp1372
g62
(dp1373
g89
g90
ssg71
g1363
sg64
(lp1374
S':'
asbag57
(g78
g59
NtRp1375
(dp1376
g62
(dp1377
sg71
g1363
sg64
(lp1378
g57
(g58
g59
NtRp1379
(dp1380
g62
(dp1381
g70
I3
ssg71
g1375
sg64
(lp1382
S''
asbasbasbasbasbasbasbag57
(g73
g59
NtRp1383
(dp1384
g62
(dp1385
sg71
g256
sg64
(lp1386
g57
(g78
g59
NtRp1387
(dp1388
g62
(dp1389
g82
g83
ssg71
g1383
sg64
(lp1390
S'nr'
p1391
asbag57
(g78
g59
NtRp1392
(dp1393
g62
(dp1394
g89
g90
ssg71
g1383
sg64
(lp1395
S':'
asbag57
(g78
g59
NtRp1396
(dp1397
g62
(dp1398
sg71
g1383
sg64
(lp1399
g57
(g58
g59
NtRp1400
(dp1401
g62
(dp1402
g70
I4
ssg71
g1396
sg64
(lp1403
S'1'
ag57
(g66
g59
NtRp1404
(dp1405
g62
(dp1406
g70
I3
ssg71
Nsg64
(lp1407
g57
(g73
g59
NtRp1408
(dp1409
g62
(dp1410
sg71
g1404
sg64
(lp1411
g57
(g78
g59
NtRp1412
(dp1413
g62
(dp1414
g82
g83
ssg71
g1408
sg64
(lp1415
g294
asbag57
(g78
g59
NtRp1416
(dp1417
g62
(dp1418
g89
g90
ssg71
g1408
sg64
(lp1419
S':'
asbag57
(g78
g59
NtRp1420
(dp1421
g62
(dp1422
sg71
g1408
sg64
(lp1423
g57
(g58
g59
NtRp1424
(dp1425
g62
(dp1426
g70
I3
ssg71
g1420
sg64
(lp1427
S''
asbasbasbag57
(g73
g59
NtRp1428
(dp1429
g62
(dp1430
sg71
g1404
sg64
(lp1431
g57
(g78
g59
NtRp1432
(dp1433
g62
(dp1434
g82
g83
ssg71
g1428
sg64
(lp1435
g315
asbag57
(g78
g59
NtRp1436
(dp1437
g62
(dp1438
g89
g90
ssg71
g1428
sg64
(lp1439
S':'
asbag57
(g78
g59
NtRp1440
(dp1441
g62
(dp1442
sg71
g1428
sg64
(lp1443
g57
(g58
g59
NtRp1444
(dp1445
g62
(dp1446
g70
I3
ssg71
g1440
sg64
(lp1447
S''
asbasbasbag57
(g73
g59
NtRp1448
(dp1449
g62
(dp1450
sg71
g1404
sg64
(lp1451
g57
(g78
g59
NtRp1452
(dp1453
g62
(dp1454
g82
g83
ssg71
g1448
sg64
(lp1455
g336
asbag57
(g78
g59
NtRp1456
(dp1457
g62
(dp1458
g89
g90
ssg71
g1448
sg64
(lp1459
S':'
asbag57
(g78
g59
NtRp1460
(dp1461
g62
(dp1462
sg71
g1448
sg64
(lp1463
g57
(g58
g59
NtRp1464
(dp1465
g62
(dp1466
g70
I3
ssg71
g1460
sg64
(lp1467
S''
asbasbasbag57
(g73
g59
NtRp1468
(dp1469
g62
(dp1470
sg71
g1404
sg64
(lp1471
g57
(g78
g59
NtRp1472
(dp1473
g62
(dp1474
g82
g83
ssg71
g1468
sg64
(lp1475
g357
asbag57
(g78
g59
NtRp1476
(dp1477
g62
(dp1478
g89
g90
ssg71
g1468
sg64
(lp1479
S':'
asbag57
(g78
g59
NtRp1480
(dp1481
g62
(dp1482
sg71
g1468
sg64
(lp1483
g57
(g58
g59
NtRp1484
(dp1485
g62
(dp1486
g70
I3
ssg71
g1480
sg64
(lp1487
S''
asbasbasbag57
(g73
g59
NtRp1488
(dp1489
g62
(dp1490
sg71
g1404
sg64
(lp1491
g57
(g78
g59
NtRp1492
(dp1493
g62
(dp1494
g82
g83
ssg71
g1488
sg64
(lp1495
g378
asbag57
(g78
g59
NtRp1496
(dp1497
g62
(dp1498
g89
g90
ssg71
g1488
sg64
(lp1499
S':'
asbag57
(g78
g59
NtRp1500
(dp1501
g62
(dp1502
sg71
g1488
sg64
(lp1503
g57
(g58
g59
NtRp1504
(dp1505
g62
(dp1506
g70
I3
ssg71
g1500
sg64
(lp1507
S''
asbasbasbag57
(g73
g59
NtRp1508
(dp1509
g62
(dp1510
sg71
g1404
sg64
(lp1511
g57
(g78
g59
NtRp1512
(dp1513
g62
(dp1514
g82
g83
ssg71
g1508
sg64
(lp1515
g399
asbag57
(g78
g59
NtRp1516
(dp1517
g62
(dp1518
g89
g90
ssg71
g1508
sg64
(lp1519
S':'
asbag57
(g78
g59
NtRp1520
(dp1521
g62
(dp1522
sg71
g1508
sg64
(lp1523
g57
(g58
g59
NtRp1524
(dp1525
g62
(dp1526
g70
I3
ssg71
g1520
sg64
(lp1527
S''
asbasbasbag57
(g73
g59
NtRp1528
(dp1529
g62
(dp1530
sg71
g1404
sg64
(lp1531
g57
(g78
g59
NtRp1532
(dp1533
g62
(dp1534
g82
g83
ssg71
g1528
sg64
(lp1535
g420
asbag57
(g78
g59
NtRp1536
(dp1537
g62
(dp1538
g89
g90
ssg71
g1528
sg64
(lp1539
S':'
asbag57
(g78
g59
NtRp1540
(dp1541
g62
(dp1542
sg71
g1528
sg64
(lp1543
g57
(g58
g59
NtRp1544
(dp1545
g62
(dp1546
g70
I3
ssg71
g1540
sg64
(lp1547
S''
asbasbasbag57
(g73
g59
NtRp1548
(dp1549
g62
(dp1550
sg71
g1404
sg64
(lp1551
g57
(g78
g59
NtRp1552
(dp1553
g62
(dp1554
g82
g83
ssg71
g1548
sg64
(lp1555
g441
asbag57
(g78
g59
NtRp1556
(dp1557
g62
(dp1558
g89
g90
ssg71
g1548
sg64
(lp1559
S':'
asbag57
(g78
g59
NtRp1560
(dp1561
g62
(dp1562
sg71
g1548
sg64
(lp1563
g57
(g58
g59
NtRp1564
(dp1565
g62
(dp1566
g70
I3
ssg71
g1560
sg64
(lp1567
S''
asbasbasbasbasbasbasbag57
(g73
g59
NtRp1568
(dp1569
g62
(dp1570
sg71
g256
sg64
(lp1571
g57
(g78
g59
NtRp1572
(dp1573
g62
(dp1574
g82
g83
ssg71
g1568
sg64
(lp1575
S'session_id_projeto'
p1576
asbag57
(g78
g59
NtRp1577
(dp1578
g62
(dp1579
g89
g90
ssg71
g1568
sg64
(lp1580
S':'
asbag57
(g78
g59
NtRp1581
(dp1582
g62
(dp1583
sg71
g1568
sg64
(lp1584
g57
(g58
g59
NtRp1585
(dp1586
g62
(dp1587
g70
I4
ssg71
g1581
sg64
(lp1588
S'127.0.0.1-16fc0dc1-6b52-4186-8d63-b2f62349e5bd'
p1589
ag57
(g66
g59
NtRp1590
(dp1591
g62
(dp1592
g70
I3
ssg71
Nsg64
(lp1593
g57
(g73
g59
NtRp1594
(dp1595
g62
(dp1596
sg71
g1590
sg64
(lp1597
g57
(g78
g59
NtRp1598
(dp1599
g62
(dp1600
g82
g83
ssg71
g1594
sg64
(lp1601
g294
asbag57
(g78
g59
NtRp1602
(dp1603
g62
(dp1604
g89
g90
ssg71
g1594
sg64
(lp1605
S':'
asbag57
(g78
g59
NtRp1606
(dp1607
g62
(dp1608
sg71
g1594
sg64
(lp1609
g57
(g58
g59
NtRp1610
(dp1611
g62
(dp1612
g70
I3
ssg71
g1606
sg64
(lp1613
S''
asbasbasbag57
(g73
g59
NtRp1614
(dp1615
g62
(dp1616
sg71
g1590
sg64
(lp1617
g57
(g78
g59
NtRp1618
(dp1619
g62
(dp1620
g82
g83
ssg71
g1614
sg64
(lp1621
g315
asbag57
(g78
g59
NtRp1622
(dp1623
g62
(dp1624
g89
g90
ssg71
g1614
sg64
(lp1625
S':'
asbag57
(g78
g59
NtRp1626
(dp1627
g62
(dp1628
sg71
g1614
sg64
(lp1629
g57
(g58
g59
NtRp1630
(dp1631
g62
(dp1632
g70
I3
ssg71
g1626
sg64
(lp1633
S''
asbasbasbag57
(g73
g59
NtRp1634
(dp1635
g62
(dp1636
sg71
g1590
sg64
(lp1637
g57
(g78
g59
NtRp1638
(dp1639
g62
(dp1640
g82
g83
ssg71
g1634
sg64
(lp1641
g336
asbag57
(g78
g59
NtRp1642
(dp1643
g62
(dp1644
g89
g90
ssg71
g1634
sg64
(lp1645
S':'
asbag57
(g78
g59
NtRp1646
(dp1647
g62
(dp1648
sg71
g1634
sg64
(lp1649
g57
(g58
g59
NtRp1650
(dp1651
g62
(dp1652
g70
I3
ssg71
g1646
sg64
(lp1653
S''
asbasbasbag57
(g73
g59
NtRp1654
(dp1655
g62
(dp1656
sg71
g1590
sg64
(lp1657
g57
(g78
g59
NtRp1658
(dp1659
g62
(dp1660
g82
g83
ssg71
g1654
sg64
(lp1661
g357
asbag57
(g78
g59
NtRp1662
(dp1663
g62
(dp1664
g89
g90
ssg71
g1654
sg64
(lp1665
S':'
asbag57
(g78
g59
NtRp1666
(dp1667
g62
(dp1668
sg71
g1654
sg64
(lp1669
g57
(g58
g59
NtRp1670
(dp1671
g62
(dp1672
g70
I3
ssg71
g1666
sg64
(lp1673
S''
asbasbasbag57
(g73
g59
NtRp1674
(dp1675
g62
(dp1676
sg71
g1590
sg64
(lp1677
g57
(g78
g59
NtRp1678
(dp1679
g62
(dp1680
g82
g83
ssg71
g1674
sg64
(lp1681
g378
asbag57
(g78
g59
NtRp1682
(dp1683
g62
(dp1684
g89
g90
ssg71
g1674
sg64
(lp1685
S':'
asbag57
(g78
g59
NtRp1686
(dp1687
g62
(dp1688
sg71
g1674
sg64
(lp1689
g57
(g58
g59
NtRp1690
(dp1691
g62
(dp1692
g70
I3
ssg71
g1686
sg64
(lp1693
S''
asbasbasbag57
(g73
g59
NtRp1694
(dp1695
g62
(dp1696
sg71
g1590
sg64
(lp1697
g57
(g78
g59
NtRp1698
(dp1699
g62
(dp1700
g82
g83
ssg71
g1694
sg64
(lp1701
g399
asbag57
(g78
g59
NtRp1702
(dp1703
g62
(dp1704
g89
g90
ssg71
g1694
sg64
(lp1705
S':'
asbag57
(g78
g59
NtRp1706
(dp1707
g62
(dp1708
sg71
g1694
sg64
(lp1709
g57
(g58
g59
NtRp1710
(dp1711
g62
(dp1712
g70
I3
ssg71
g1706
sg64
(lp1713
S''
asbasbasbag57
(g73
g59
NtRp1714
(dp1715
g62
(dp1716
sg71
g1590
sg64
(lp1717
g57
(g78
g59
NtRp1718
(dp1719
g62
(dp1720
g82
g83
ssg71
g1714
sg64
(lp1721
g420
asbag57
(g78
g59
NtRp1722
(dp1723
g62
(dp1724
g89
g90
ssg71
g1714
sg64
(lp1725
S':'
asbag57
(g78
g59
NtRp1726
(dp1727
g62
(dp1728
sg71
g1714
sg64
(lp1729
g57
(g58
g59
NtRp1730
(dp1731
g62
(dp1732
g70
I3
ssg71
g1726
sg64
(lp1733
S''
asbasbasbag57
(g73
g59
NtRp1734
(dp1735
g62
(dp1736
sg71
g1590
sg64
(lp1737
g57
(g78
g59
NtRp1738
(dp1739
g62
(dp1740
g82
g83
ssg71
g1734
sg64
(lp1741
g441
asbag57
(g78
g59
NtRp1742
(dp1743
g62
(dp1744
g89
g90
ssg71
g1734
sg64
(lp1745
S':'
asbag57
(g78
g59
NtRp1746
(dp1747
g62
(dp1748
sg71
g1734
sg64
(lp1749
g57
(g58
g59
NtRp1750
(dp1751
g62
(dp1752
g70
I3
ssg71
g1746
sg64
(lp1753
S''
asbasbasbasbasbasbasbag57
(g73
g59
NtRp1754
(dp1755
g62
(dp1756
sg71
g256
sg64
(lp1757
g57
(g78
g59
NtRp1758
(dp1759
g62
(dp1760
g82
g83
ssg71
g1754
sg64
(lp1761
S'types'
p1762
asbag57
(g78
g59
NtRp1763
(dp1764
g62
(dp1765
g89
g90
ssg71
g1754
sg64
(lp1766
S':'
asbag57
(g78
g59
NtRp1767
(dp1768
g62
(dp1769
sg71
g1754
sg64
(lp1770
g57
(g58
g59
NtRp1771
(dp1772
g62
(dp1773
g70
I4
ssg71
g1767
sg64
(lp1774
S'Rev%201.0.1%20MX60-32S%20%20Kernel%201.0.11%20%28F%29'
p1775
ag57
(g66
g59
NtRp1776
(dp1777
g62
(dp1778
g70
I3
ssg71
Nsg64
(lp1779
g57
(g73
g59
NtRp1780
(dp1781
g62
(dp1782
sg71
g1776
sg64
(lp1783
g57
(g78
g59
NtRp1784
(dp1785
g62
(dp1786
g82
g83
ssg71
g1780
sg64
(lp1787
g294
asbag57
(g78
g59
NtRp1788
(dp1789
g62
(dp1790
g89
g90
ssg71
g1780
sg64
(lp1791
S':'
asbag57
(g78
g59
NtRp1792
(dp1793
g62
(dp1794
sg71
g1780
sg64
(lp1795
g57
(g58
g59
NtRp1796
(dp1797
g62
(dp1798
g70
I3
ssg71
g1792
sg64
(lp1799
S''
asbasbasbag57
(g73
g59
NtRp1800
(dp1801
g62
(dp1802
sg71
g1776
sg64
(lp1803
g57
(g78
g59
NtRp1804
(dp1805
g62
(dp1806
g82
g83
ssg71
g1800
sg64
(lp1807
g315
asbag57
(g78
g59
NtRp1808
(dp1809
g62
(dp1810
g89
g90
ssg71
g1800
sg64
(lp1811
S':'
asbag57
(g78
g59
NtRp1812
(dp1813
g62
(dp1814
sg71
g1800
sg64
(lp1815
g57
(g58
g59
NtRp1816
(dp1817
g62
(dp1818
g70
I3
ssg71
g1812
sg64
(lp1819
S''
asbasbasbag57
(g73
g59
NtRp1820
(dp1821
g62
(dp1822
sg71
g1776
sg64
(lp1823
g57
(g78
g59
NtRp1824
(dp1825
g62
(dp1826
g82
g83
ssg71
g1820
sg64
(lp1827
g336
asbag57
(g78
g59
NtRp1828
(dp1829
g62
(dp1830
g89
g90
ssg71
g1820
sg64
(lp1831
S':'
asbag57
(g78
g59
NtRp1832
(dp1833
g62
(dp1834
sg71
g1820
sg64
(lp1835
g57
(g58
g59
NtRp1836
(dp1837
g62
(dp1838
g70
I3
ssg71
g1832
sg64
(lp1839
S''
asbasbasbag57
(g73
g59
NtRp1840
(dp1841
g62
(dp1842
sg71
g1776
sg64
(lp1843
g57
(g78
g59
NtRp1844
(dp1845
g62
(dp1846
g82
g83
ssg71
g1840
sg64
(lp1847
g357
asbag57
(g78
g59
NtRp1848
(dp1849
g62
(dp1850
g89
g90
ssg71
g1840
sg64
(lp1851
S':'
asbag57
(g78
g59
NtRp1852
(dp1853
g62
(dp1854
sg71
g1840
sg64
(lp1855
g57
(g58
g59
NtRp1856
(dp1857
g62
(dp1858
g70
I3
ssg71
g1852
sg64
(lp1859
S''
asbasbasbag57
(g73
g59
NtRp1860
(dp1861
g62
(dp1862
sg71
g1776
sg64
(lp1863
g57
(g78
g59
NtRp1864
(dp1865
g62
(dp1866
g82
g83
ssg71
g1860
sg64
(lp1867
g378
asbag57
(g78
g59
NtRp1868
(dp1869
g62
(dp1870
g89
g90
ssg71
g1860
sg64
(lp1871
S':'
asbag57
(g78
g59
NtRp1872
(dp1873
g62
(dp1874
sg71
g1860
sg64
(lp1875
g57
(g58
g59
NtRp1876
(dp1877
g62
(dp1878
g70
I3
ssg71
g1872
sg64
(lp1879
S''
asbasbasbag57
(g73
g59
NtRp1880
(dp1881
g62
(dp1882
sg71
g1776
sg64
(lp1883
g57
(g78
g59
NtRp1884
(dp1885
g62
(dp1886
g82
g83
ssg71
g1880
sg64
(lp1887
g399
asbag57
(g78
g59
NtRp1888
(dp1889
g62
(dp1890
g89
g90
ssg71
g1880
sg64
(lp1891
S':'
asbag57
(g78
g59
NtRp1892
(dp1893
g62
(dp1894
sg71
g1880
sg64
(lp1895
g57
(g58
g59
NtRp1896
(dp1897
g62
(dp1898
g70
I3
ssg71
g1892
sg64
(lp1899
S''
asbasbasbag57
(g73
g59
NtRp1900
(dp1901
g62
(dp1902
sg71
g1776
sg64
(lp1903
g57
(g78
g59
NtRp1904
(dp1905
g62
(dp1906
g82
g83
ssg71
g1900
sg64
(lp1907
g420
asbag57
(g78
g59
NtRp1908
(dp1909
g62
(dp1910
g89
g90
ssg71
g1900
sg64
(lp1911
S':'
asbag57
(g78
g59
NtRp1912
(dp1913
g62
(dp1914
sg71
g1900
sg64
(lp1915
g57
(g58
g59
NtRp1916
(dp1917
g62
(dp1918
g70
I3
ssg71
g1912
sg64
(lp1919
S''
asbasbasbag57
(g73
g59
NtRp1920
(dp1921
g62
(dp1922
sg71
g1776
sg64
(lp1923
g57
(g78
g59
NtRp1924
(dp1925
g62
(dp1926
g82
g83
ssg71
g1920
sg64
(lp1927
g441
asbag57
(g78
g59
NtRp1928
(dp1929
g62
(dp1930
g89
g90
ssg71
g1920
sg64
(lp1931
S':'
asbag57
(g78
g59
NtRp1932
(dp1933
g62
(dp1934
sg71
g1920
sg64
(lp1935
g57
(g58
g59
NtRp1936
(dp1937
g62
(dp1938
g70
I3
ssg71
g1932
sg64
(lp1939
S''
asbasbasbasbasbasbasbasbasbasbasbag57
(g73
g59
NtRp1940
(dp1941
g62
(dp1942
sg71
g67
sg64
(lp1943
g57
(g78
g59
NtRp1944
(dp1945
g62
(dp1946
g82
g83
ssg71
g1940
sg64
(lp1947
S'env'
p1948
asbag57
(g78
g59
NtRp1949
(dp1950
g62
(dp1951
g89
g90
ssg71
g1940
sg64
(lp1952
S':'
asbag57
(g78
g59
NtRp1953
(dp1954
g62
(dp1955
sg71
g1940
sg64
(lp1956
g57
(g58
g59
NtRp1957
(dp1958
g62
(dp1959
g70
I5
ssg71
g1953
sg64
(lp1960
g57
(g66
g59
NtRp1961
(dp1962
g62
(dp1963
g70
I4
ssg71
Nsg64
(lp1964
g57
(g73
g59
NtRp1965
(dp1966
g62
(dp1967
sg71
g1961
sg64
(lp1968
g57
(g78
g59
NtRp1969
(dp1970
g62
(dp1971
g82
g83
ssg71
g1965
sg64
(lp1972
S'app_folders'
p1973
asbag57
(g78
g59
NtRp1974
(dp1975
g62
(dp1976
g89
g90
ssg71
g1965
sg64
(lp1977
S':'
asbag57
(g78
g59
NtRp1978
(dp1979
g62
(dp1980
sg71
g1965
sg64
(lp1981
g57
(g58
g59
NtRp1982
(dp1983
g62
(dp1984
g70
I4
ssg71
g1978
sg64
(lp1985
S"set(['/var/www/hosts3/applications/projeto/'])"
p1986
asbasbasbag57
(g73
g59
NtRp1987
(dp1988
g62
(dp1989
sg71
g1961
sg64
(lp1990
g57
(g78
g59
NtRp1991
(dp1992
g62
(dp1993
g82
g83
ssg71
g1987
sg64
(lp1994
S'applications_parent'
p1995
asbag57
(g78
g59
NtRp1996
(dp1997
g62
(dp1998
g89
g90
ssg71
g1987
sg64
(lp1999
S':'
asbag57
(g78
g59
NtRp2000
(dp2001
g62
(dp2002
sg71
g1987
sg64
(lp2003
g57
(g58
g59
NtRp2004
(dp2005
g62
(dp2006
g70
I4
ssg71
g2000
sg64
(lp2007
S'/var/www/hosts3'
p2008
asbasbasbag57
(g73
g59
NtRp2009
(dp2010
g62
(dp2011
sg71
g1961
sg64
(lp2012
g57
(g78
g59
NtRp2013
(dp2014
g62
(dp2015
g82
g83
ssg71
g2009
sg64
(lp2016
S'cmd_args'
p2017
asbag57
(g78
g59
NtRp2018
(dp2019
g62
(dp2020
g89
g90
ssg71
g2009
sg64
(lp2021
S':'
asbag57
(g78
g59
NtRp2022
(dp2023
g62
(dp2024
sg71
g2009
sg64
(lp2025
g57
(g58
g59
NtRp2026
(dp2027
g62
(dp2028
g70
I4
ssg71
g2022
sg64
(lp2029
g57
(g66
g59
NtRp2030
(dp2031
g62
(dp2032
g70
I3
ssg71
Nsg64
(lp2033
sbasbasbasbag57
(g73
g59
NtRp2034
(dp2035
g62
(dp2036
sg71
g1961
sg64
(lp2037
g57
(g78
g59
NtRp2038
(dp2039
g62
(dp2040
g82
g83
ssg71
g2034
sg64
(lp2041
S'cmd_options'
p2042
asbag57
(g78
g59
NtRp2043
(dp2044
g62
(dp2045
g89
g90
ssg71
g2034
sg64
(lp2046
S':'
asbag57
(g78
g59
NtRp2047
(dp2048
g62
(dp2049
sg71
g2034
sg64
(lp2050
g57
(g58
g59
NtRp2051
(dp2052
g62
(dp2053
g70
I4
ssg71
g2047
sg64
(lp2054
S"<Values at 0x248a050: {'verbose': False, 'ip': '127.0.0.1', 'with_scheduler': False, 'ips': [], 'shutdown_timeout': 5, 'taskbar': False, 'port': 8000, 'maxthreads': None, 'softcron': False, 'server_name': 'fernado-desktop', 'bpython': False, 'nogui': False, 'pid_filename': 'httpserver.pid', 'extcron': False, 'runcron': False, 'run_system_tests': False, 'test': None, 'folder': '/var/www/hosts3', 'config': '', 'minthreads': None, 'winservice': '', 'shell': None, 'run': '', 'log_filename': 'httpserver.log', 'debuglevel': 30, 'args': [''], 'socket_timeout': 5, 'ssl_ca_certificate': None, 'scheduler': None, 'profiler_filename': None, 'ssl_private_key': '', 'scheduler_groups': None, 'password': '123456', 'request_queue_size': 5, 'ssl_certificate': '', 'cronjob': False, 'numthreads': None, 'quiet': False, 'interfaces': None, 'import_models': False, 'timeout': 10, 'plain': False, 'nobanner': False}>"
p2055
asbasbasbag57
(g73
g59
NtRp2056
(dp2057
g62
(dp2058
sg71
g1961
sg64
(lp2059
g57
(g78
g59
NtRp2060
(dp2061
g62
(dp2062
g82
g83
ssg71
g2056
sg64
(lp2063
S'db_sessions'
p2064
asbag57
(g78
g59
NtRp2065
(dp2066
g62
(dp2067
g89
g90
ssg71
g2056
sg64
(lp2068
S':'
asbag57
(g78
g59
NtRp2069
(dp2070
g62
(dp2071
sg71
g2056
sg64
(lp2072
g57
(g58
g59
NtRp2073
(dp2074
g62
(dp2075
g70
I4
ssg71
g2069
sg64
(lp2076
S'set([])'
p2077
asbasbasbag57
(g73
g59
NtRp2078
(dp2079
g62
(dp2080
sg71
g1961
sg64
(lp2081
g57
(g78
g59
NtRp2082
(dp2083
g62
(dp2084
g82
g83
ssg71
g2078
sg64
(lp2085
S'debugging'
p2086
asbag57
(g78
g59
NtRp2087
(dp2088
g62
(dp2089
g89
g90
ssg71
g2078
sg64
(lp2090
S':'
asbag57
(g78
g59
NtRp2091
(dp2092
g62
(dp2093
sg71
g2078
sg64
(lp2094
g57
(g58
g59
NtRp2095
(dp2096
g62
(dp2097
g70
I4
ssg71
g2091
sg64
(lp2098
g100
asbasbasbag57
(g73
g59
NtRp2099
(dp2100
g62
(dp2101
sg71
g1961
sg64
(lp2102
g57
(g78
g59
NtRp2103
(dp2104
g62
(dp2105
g82
g83
ssg71
g2099
sg64
(lp2106
S'gluon_parent'
p2107
asbag57
(g78
g59
NtRp2108
(dp2109
g62
(dp2110
g89
g90
ssg71
g2099
sg64
(lp2111
S':'
asbag57
(g78
g59
NtRp2112
(dp2113
g62
(dp2114
sg71
g2099
sg64
(lp2115
g57
(g58
g59
NtRp2116
(dp2117
g62
(dp2118
g70
I4
ssg71
g2112
sg64
(lp2119
S'/var/www/hosts3'
p2120
asbasbasbag57
(g73
g59
NtRp2121
(dp2122
g62
(dp2123
sg71
g1961
sg64
(lp2124
g57
(g78
g59
NtRp2125
(dp2126
g62
(dp2127
g82
g83
ssg71
g2121
sg64
(lp2128
S'http_accept'
p2129
asbag57
(g78
g59
NtRp2130
(dp2131
g62
(dp2132
g89
g90
ssg71
g2121
sg64
(lp2133
S':'
asbag57
(g78
g59
NtRp2134
(dp2135
g62
(dp2136
sg71
g2121
sg64
(lp2137
g57
(g58
g59
NtRp2138
(dp2139
g62
(dp2140
g70
I4
ssg71
g2134
sg64
(lp2141
S'text/html,application/xhtml+xml,application/xml;q=0.9,*/*;q=0.8'
p2142
asbasbasbag57
(g73
g59
NtRp2143
(dp2144
g62
(dp2145
sg71
g1961
sg64
(lp2146
g57
(g78
g59
NtRp2147
(dp2148
g62
(dp2149
g82
g83
ssg71
g2143
sg64
(lp2150
S'http_accept_charset'
p2151
asbag57
(g78
g59
NtRp2152
(dp2153
g62
(dp2154
g89
g90
ssg71
g2143
sg64
(lp2155
S':'
asbag57
(g78
g59
NtRp2156
(dp2157
g62
(dp2158
sg71
g2143
sg64
(lp2159
g57
(g58
g59
NtRp2160
(dp2161
g62
(dp2162
g70
I4
ssg71
g2156
sg64
(lp2163
S'ISO-8859-1,utf-8;q=0.7,*;q=0.3'
p2164
asbasbasbag57
(g73
g59
NtRp2165
(dp2166
g62
(dp2167
sg71
g1961
sg64
(lp2168
g57
(g78
g59
NtRp2169
(dp2170
g62
(dp2171
g82
g83
ssg71
g2165
sg64
(lp2172
S'http_accept_encoding'
p2173
asbag57
(g78
g59
NtRp2174
(dp2175
g62
(dp2176
g89
g90
ssg71
g2165
sg64
(lp2177
S':'
asbag57
(g78
g59
NtRp2178
(dp2179
g62
(dp2180
sg71
g2165
sg64
(lp2181
g57
(g58
g59
NtRp2182
(dp2183
g62
(dp2184
g70
I4
ssg71
g2178
sg64
(lp2185
S'gzip,deflate,sdch'
p2186
asbasbasbag57
(g73
g59
NtRp2187
(dp2188
g62
(dp2189
sg71
g1961
sg64
(lp2190
g57
(g78
g59
NtRp2191
(dp2192
g62
(dp2193
g82
g83
ssg71
g2187
sg64
(lp2194
S'http_accept_language'
p2195
asbag57
(g78
g59
NtRp2196
(dp2197
g62
(dp2198
g89
g90
ssg71
g2187
sg64
(lp2199
S':'
asbag57
(g78
g59
NtRp2200
(dp2201
g62
(dp2202
sg71
g2187
sg64
(lp2203
g57
(g58
g59
NtRp2204
(dp2205
g62
(dp2206
g70
I4
ssg71
g2200
sg64
(lp2207
S'pt-BR,pt;q=0.8,en-US;q=0.6,en;q=0.4'
p2208
asbasbasbag57
(g73
g59
NtRp2209
(dp2210
g62
(dp2211
sg71
g1961
sg64
(lp2212
g57
(g78
g59
NtRp2213
(dp2214
g62
(dp2215
g82
g83
ssg71
g2209
sg64
(lp2216
S'http_cache_control'
p2217
asbag57
(g78
g59
NtRp2218
(dp2219
g62
(dp2220
g89
g90
ssg71
g2209
sg64
(lp2221
S':'
asbag57
(g78
g59
NtRp2222
(dp2223
g62
(dp2224
sg71
g2209
sg64
(lp2225
g57
(g58
g59
NtRp2226
(dp2227
g62
(dp2228
g70
I4
ssg71
g2222
sg64
(lp2229
S'max-age=0'
p2230
asbasbasbag57
(g73
g59
NtRp2231
(dp2232
g62
(dp2233
sg71
g1961
sg64
(lp2234
g57
(g78
g59
NtRp2235
(dp2236
g62
(dp2237
g82
g83
ssg71
g2231
sg64
(lp2238
S'http_connection'
p2239
asbag57
(g78
g59
NtRp2240
(dp2241
g62
(dp2242
g89
g90
ssg71
g2231
sg64
(lp2243
S':'
asbag57
(g78
g59
NtRp2244
(dp2245
g62
(dp2246
sg71
g2231
sg64
(lp2247
g57
(g58
g59
NtRp2248
(dp2249
g62
(dp2250
g70
I4
ssg71
g2244
sg64
(lp2251
S'keep-alive'
p2252
asbasbasbag57
(g73
g59
NtRp2253
(dp2254
g62
(dp2255
sg71
g1961
sg64
(lp2256
g57
(g78
g59
NtRp2257
(dp2258
g62
(dp2259
g82
g83
ssg71
g2253
sg64
(lp2260
S'http_cookie'
p2261
asbag57
(g78
g59
NtRp2262
(dp2263
g62
(dp2264
g89
g90
ssg71
g2253
sg64
(lp2265
S':'
asbag57
(g78
g59
NtRp2266
(dp2267
g62
(dp2268
sg71
g2253
sg64
(lp2269
g57
(g58
g59
NtRp2270
(dp2271
g62
(dp2272
g70
I4
ssg71
g2266
sg64
(lp2273
S'hw_type=MX60; hw_version=Rev%201.9.82.316; types=Rev%201.0.1%20MX60-32S%20%20Kernel%201.0.11%20%28F%29; admin=admin; cookie=1649423593; model=MX; nr=1; language=1; session_id_projeto=127.0.0.1-16fc0dc1-6b52-4186-8d63-b2f62349e5bd'
p2274
asbasbasbag57
(g73
g59
NtRp2275
(dp2276
g62
(dp2277
sg71
g1961
sg64
(lp2278
g57
(g78
g59
NtRp2279
(dp2280
g62
(dp2281
g82
g83
ssg71
g2275
sg64
(lp2282
S'http_host'
p2283
asbag57
(g78
g59
NtRp2284
(dp2285
g62
(dp2286
g89
g90
ssg71
g2275
sg64
(lp2287
S':'
asbag57
(g78
g59
NtRp2288
(dp2289
g62
(dp2290
sg71
g2275
sg64
(lp2291
g57
(g58
g59
NtRp2292
(dp2293
g62
(dp2294
g70
I4
ssg71
g2288
sg64
(lp2295
S'127.0.0.1:8000'
p2296
asbasbasbag57
(g73
g59
NtRp2297
(dp2298
g62
(dp2299
sg71
g1961
sg64
(lp2300
g57
(g78
g59
NtRp2301
(dp2302
g62
(dp2303
g82
g83
ssg71
g2297
sg64
(lp2304
S'http_referer'
p2305
asbag57
(g78
g59
NtRp2306
(dp2307
g62
(dp2308
g89
g90
ssg71
g2297
sg64
(lp2309
S':'
asbag57
(g78
g59
NtRp2310
(dp2311
g62
(dp2312
sg71
g2297
sg64
(lp2313
g57
(g58
g59
NtRp2314
(dp2315
g62
(dp2316
g70
I4
ssg71
g2310
sg64
(lp2317
S'http://127.0.0.1:8000/cliente_host?f=1'
p2318
asbasbasbag57
(g73
g59
NtRp2319
(dp2320
g62
(dp2321
sg71
g1961
sg64
(lp2322
g57
(g78
g59
NtRp2323
(dp2324
g62
(dp2325
g82
g83
ssg71
g2319
sg64
(lp2326
S'http_user_agent'
p2327
asbag57
(g78
g59
NtRp2328
(dp2329
g62
(dp2330
g89
g90
ssg71
g2319
sg64
(lp2331
S':'
asbag57
(g78
g59
NtRp2332
(dp2333
g62
(dp2334
sg71
g2319
sg64
(lp2335
g57
(g58
g59
NtRp2336
(dp2337
g62
(dp2338
g70
I4
ssg71
g2332
sg64
(lp2339
S'Mozilla/5.0 (X11; Linux x86_64) AppleWebKit/537.4 (KHTML, like Gecko) Ubuntu/12.10 Chromium/22.0.1229.94 Chrome/22.0.1229.94 Safari/537.4'
p2340
asbasbasbag57
(g73
g59
NtRp2341
(dp2342
g62
(dp2343
sg71
g1961
sg64
(lp2344
g57
(g78
g59
NtRp2345
(dp2346
g62
(dp2347
g82
g83
ssg71
g2341
sg64
(lp2348
S'is_jython'
p2349
asbag57
(g78
g59
NtRp2350
(dp2351
g62
(dp2352
g89
g90
ssg71
g2341
sg64
(lp2353
S':'
asbag57
(g78
g59
NtRp2354
(dp2355
g62
(dp2356
sg71
g2341
sg64
(lp2357
g57
(g58
g59
NtRp2358
(dp2359
g62
(dp2360
g70
I4
ssg71
g2354
sg64
(lp2361
g100
asbasbasbag57
(g73
g59
NtRp2362
(dp2363
g62
(dp2364
sg71
g1961
sg64
(lp2365
g57
(g78
g59
NtRp2366
(dp2367
g62
(dp2368
g82
g83
ssg71
g2362
sg64
(lp2369
S'is_pypy'
p2370
asbag57
(g78
g59
NtRp2371
(dp2372
g62
(dp2373
g89
g90
ssg71
g2362
sg64
(lp2374
S':'
asbag57
(g78
g59
NtRp2375
(dp2376
g62
(dp2377
sg71
g2362
sg64
(lp2378
g57
(g58
g59
NtRp2379
(dp2380
g62
(dp2381
g70
I4
ssg71
g2375
sg64
(lp2382
g100
asbasbasbag57
(g73
g59
NtRp2383
(dp2384
g62
(dp2385
sg71
g1961
sg64
(lp2386
g57
(g78
g59
NtRp2387
(dp2388
g62
(dp2389
g82
g83
ssg71
g2383
sg64
(lp2390
S'local_hosts'
p2391
asbag57
(g78
g59
NtRp2392
(dp2393
g62
(dp2394
g89
g90
ssg71
g2383
sg64
(lp2395
S':'
asbag57
(g78
g59
NtRp2396
(dp2397
g62
(dp2398
sg71
g2383
sg64
(lp2399
g57
(g58
g59
NtRp2400
(dp2401
g62
(dp2402
g70
I4
ssg71
g2396
sg64
(lp2403
g57
(g66
g59
NtRp2404
(dp2405
g62
(dp2406
g70
I3
ssg71
Nsg64
(lp2407
g57
(g73
g59
NtRp2408
(dp2409
g62
(dp2410
sg71
g2404
sg64
(lp2411
g57
(g78
g59
NtRp2412
(dp2413
g62
(dp2414
sg71
g2408
sg64
(lp2415
g57
(g58
g59
NtRp2416
(dp2417
g62
(dp2418
g70
I3
ssg71
g2412
sg64
(lp2419
S'127.0.1.1'
p2420
asbasbasbag57
(g73
g59
NtRp2421
(dp2422
g62
(dp2423
sg71
g2404
sg64
(lp2424
g57
(g78
g59
NtRp2425
(dp2426
g62
(dp2427
sg71
g2421
sg64
(lp2428
g57
(g58
g59
NtRp2429
(dp2430
g62
(dp2431
g70
I3
ssg71
g2425
sg64
(lp2432
S'::1'
p2433
asbasbasbag57
(g73
g59
NtRp2434
(dp2435
g62
(dp2436
sg71
g2404
sg64
(lp2437
g57
(g78
g59
NtRp2438
(dp2439
g62
(dp2440
sg71
g2434
sg64
(lp2441
g57
(g58
g59
NtRp2442
(dp2443
g62
(dp2444
g70
I3
ssg71
g2438
sg64
(lp2445
S'fernado-desktop'
p2446
asbasbasbag57
(g73
g59
NtRp2447
(dp2448
g62
(dp2449
sg71
g2404
sg64
(lp2450
g57
(g78
g59
NtRp2451
(dp2452
g62
(dp2453
sg71
g2447
sg64
(lp2454
g57
(g58
g59
NtRp2455
(dp2456
g62
(dp2457
g70
I3
ssg71
g2451
sg64
(lp2458
S'::ffff:127.0.0.1'
p2459
asbasbasbag57
(g73
g59
NtRp2460
(dp2461
g62
(dp2462
sg71
g2404
sg64
(lp2463
g57
(g78
g59
NtRp2464
(dp2465
g62
(dp2466
sg71
g2460
sg64
(lp2467
g57
(g58
g59
NtRp2468
(dp2469
g62
(dp2470
g70
I3
ssg71
g2464
sg64
(lp2471
S'127.0.0.1'
p2472
asbasbasbasbasbasbasbag57
(g73
g59
NtRp2473
(dp2474
g62
(dp2475
sg71
g1961
sg64
(lp2476
g57
(g78
g59
NtRp2477
(dp2478
g62
(dp2479
g82
g83
ssg71
g2473
sg64
(lp2480
S'path_info'
p2481
asbag57
(g78
g59
NtRp2482
(dp2483
g62
(dp2484
g89
g90
ssg71
g2473
sg64
(lp2485
S':'
asbag57
(g78
g59
NtRp2486
(dp2487
g62
(dp2488
sg71
g2473
sg64
(lp2489
g57
(g58
g59
NtRp2490
(dp2491
g62
(dp2492
g70
I4
ssg71
g2486
sg64
(lp2493
S'/edit_host'
p2494
asbasbasbag57
(g73
g59
NtRp2495
(dp2496
g62
(dp2497
sg71
g1961
sg64
(lp2498
g57
(g78
g59
NtRp2499
(dp2500
g62
(dp2501
g82
g83
ssg71
g2495
sg64
(lp2502
S'query_string'
p2503
asbag57
(g78
g59
NtRp2504
(dp2505
g62
(dp2506
g89
g90
ssg71
g2495
sg64
(lp2507
S':'
asbag57
(g78
g59
NtRp2508
(dp2509
g62
(dp2510
sg71
g2495
sg64
(lp2511
g57
(g58
g59
NtRp2512
(dp2513
g62
(dp2514
g70
I4
ssg71
g2508
sg64
(lp2515
S'f=1'
p2516
asbasbasbag57
(g73
g59
NtRp2517
(dp2518
g62
(dp2519
sg71
g1961
sg64
(lp2520
g57
(g78
g59
NtRp2521
(dp2522
g62
(dp2523
g82
g83
ssg71
g2517
sg64
(lp2524
S'remote_addr'
p2525
asbag57
(g78
g59
NtRp2526
(dp2527
g62
(dp2528
g89
g90
ssg71
g2517
sg64
(lp2529
S':'
asbag57
(g78
g59
NtRp2530
(dp2531
g62
(dp2532
sg71
g2517
sg64
(lp2533
g57
(g58
g59
NtRp2534
(dp2535
g62
(dp2536
g70
I4
ssg71
g2530
sg64
(lp2537
g212
asbasbasbag57
(g73
g59
NtRp2538
(dp2539
g62
(dp2540
sg71
g1961
sg64
(lp2541
g57
(g78
g59
NtRp2542
(dp2543
g62
(dp2544
g82
g83
ssg71
g2538
sg64
(lp2545
S'remote_port'
p2546
asbag57
(g78
g59
NtRp2547
(dp2548
g62
(dp2549
g89
g90
ssg71
g2538
sg64
(lp2550
S':'
asbag57
(g78
g59
NtRp2551
(dp2552
g62
(dp2553
sg71
g2538
sg64
(lp2554
g57
(g58
g59
NtRp2555
(dp2556
g62
(dp2557
g70
I4
ssg71
g2551
sg64
(lp2558
S'38566'
p2559
asbasbasbag57
(g73
g59
NtRp2560
(dp2561
g62
(dp2562
sg71
g1961
sg64
(lp2563
g57
(g78
g59
NtRp2564
(dp2565
g62
(dp2566
g82
g83
ssg71
g2560
sg64
(lp2567
S'request_method'
p2568
asbag57
(g78
g59
NtRp2569
(dp2570
g62
(dp2571
g89
g90
ssg71
g2560
sg64
(lp2572
S':'
asbag57
(g78
g59
NtRp2573
(dp2574
g62
(dp2575
sg71
g2560
sg64
(lp2576
g57
(g58
g59
NtRp2577
(dp2578
g62
(dp2579
g70
I4
ssg71
g2573
sg64
(lp2580
S'GET'
p2581
asbasbasbag57
(g73
g59
NtRp2582
(dp2583
g62
(dp2584
sg71
g1961
sg64
(lp2585
g57
(g78
g59
NtRp2586
(dp2587
g62
(dp2588
g82
g83
ssg71
g2582
sg64
(lp2589
S'request_uri'
p2590
asbag57
(g78
g59
NtRp2591
(dp2592
g62
(dp2593
g89
g90
ssg71
g2582
sg64
(lp2594
S':'
asbag57
(g78
g59
NtRp2595
(dp2596
g62
(dp2597
sg71
g2582
sg64
(lp2598
g57
(g58
g59
NtRp2599
(dp2600
g62
(dp2601
g70
I4
ssg71
g2595
sg64
(lp2602
S'/projeto/initial/edit_host?f=1'
p2603
asbasbasbag57
(g73
g59
NtRp2604
(dp2605
g62
(dp2606
sg71
g1961
sg64
(lp2607
g57
(g78
g59
NtRp2608
(dp2609
g62
(dp2610
g82
g83
ssg71
g2604
sg64
(lp2611
S'script_name'
p2612
asbag57
(g78
g59
NtRp2613
(dp2614
g62
(dp2615
g89
g90
ssg71
g2604
sg64
(lp2616
S':'
asbag57
(g78
g59
NtRp2617
(dp2618
g62
(dp2619
sg71
g2604
sg64
(lp2620
g57
(g58
g59
NtRp2621
(dp2622
g62
(dp2623
g70
I4
ssg71
g2617
sg64
(lp2624
S''
asbasbasbag57
(g73
g59
NtRp2625
(dp2626
g62
(dp2627
sg71
g1961
sg64
(lp2628
g57
(g78
g59
NtRp2629
(dp2630
g62
(dp2631
g82
g83
ssg71
g2625
sg64
(lp2632
S'server_name'
p2633
asbag57
(g78
g59
NtRp2634
(dp2635
g62
(dp2636
g89
g90
ssg71
g2625
sg64
(lp2637
S':'
asbag57
(g78
g59
NtRp2638
(dp2639
g62
(dp2640
sg71
g2625
sg64
(lp2641
g57
(g58
g59
NtRp2642
(dp2643
g62
(dp2644
g70
I4
ssg71
g2638
sg64
(lp2645
S'fernado-desktop'
p2646
asbasbasbag57
(g73
g59
NtRp2647
(dp2648
g62
(dp2649
sg71
g1961
sg64
(lp2650
g57
(g78
g59
NtRp2651
(dp2652
g62
(dp2653
g82
g83
ssg71
g2647
sg64
(lp2654
S'server_port'
p2655
asbag57
(g78
g59
NtRp2656
(dp2657
g62
(dp2658
g89
g90
ssg71
g2647
sg64
(lp2659
S':'
asbag57
(g78
g59
NtRp2660
(dp2661
g62
(dp2662
sg71
g2647
sg64
(lp2663
g57
(g58
g59
NtRp2664
(dp2665
g62
(dp2666
g70
I4
ssg71
g2660
sg64
(lp2667
S'8000'
p2668
asbasbasbag57
(g73
g59
NtRp2669
(dp2670
g62
(dp2671
sg71
g1961
sg64
(lp2672
g57
(g78
g59
NtRp2673
(dp2674
g62
(dp2675
g82
g83
ssg71
g2669
sg64
(lp2676
S'server_protocol'
p2677
asbag57
(g78
g59
NtRp2678
(dp2679
g62
(dp2680
g89
g90
ssg71
g2669
sg64
(lp2681
S':'
asbag57
(g78
g59
NtRp2682
(dp2683
g62
(dp2684
sg71
g2669
sg64
(lp2685
g57
(g58
g59
NtRp2686
(dp2687
g62
(dp2688
g70
I4
ssg71
g2682
sg64
(lp2689
S'HTTP/1.1'
p2690
asbasbasbag57
(g73
g59
NtRp2691
(dp2692
g62
(dp2693
sg71
g1961
sg64
(lp2694
g57
(g78
g59
NtRp2695
(dp2696
g62
(dp2697
g82
g83
ssg71
g2691
sg64
(lp2698
S'server_software'
p2699
asbag57
(g78
g59
NtRp2700
(dp2701
g62
(dp2702
g89
g90
ssg71
g2691
sg64
(lp2703
S':'
asbag57
(g78
g59
NtRp2704
(dp2705
g62
(dp2706
sg71
g2691
sg64
(lp2707
g57
(g58
g59
NtRp2708
(dp2709
g62
(dp2710
g70
I4
ssg71
g2704
sg64
(lp2711
S'Rocket 1.2.6'
p2712
asbasbasbag57
(g73
g59
NtRp2713
(dp2714
g62
(dp2715
sg71
g1961
sg64
(lp2716
g57
(g78
g59
NtRp2717
(dp2718
g62
(dp2719
g82
g83
ssg71
g2713
sg64
(lp2720
S'web2py_original_uri'
p2721
asbag57
(g78
g59
NtRp2722
(dp2723
g62
(dp2724
g89
g90
ssg71
g2713
sg64
(lp2725
S':'
asbag57
(g78
g59
NtRp2726
(dp2727
g62
(dp2728
sg71
g2713
sg64
(lp2729
g57
(g58
g59
NtRp2730
(dp2731
g62
(dp2732
g70
I4
ssg71
g2726
sg64
(lp2733
S'/edit_host?f=1'
p2734
asbasbasbag57
(g73
g59
NtRp2735
(dp2736
g62
(dp2737
sg71
g1961
sg64
(lp2738
g57
(g78
g59
NtRp2739
(dp2740
g62
(dp2741
g82
g83
ssg71
g2735
sg64
(lp2742
S'web2py_path'
p2743
asbag57
(g78
g59
NtRp2744
(dp2745
g62
(dp2746
g89
g90
ssg71
g2735
sg64
(lp2747
S':'
asbag57
(g78
g59
NtRp2748
(dp2749
g62
(dp2750
sg71
g2735
sg64
(lp2751
g57
(g58
g59
NtRp2752
(dp2753
g62
(dp2754
g70
I4
ssg71
g2748
sg64
(lp2755
g2008
asbasbasbag57
(g73
g59
NtRp2756
(dp2757
g62
(dp2758
sg71
g1961
sg64
(lp2759
g57
(g78
g59
NtRp2760
(dp2761
g62
(dp2762
g82
g83
ssg71
g2756
sg64
(lp2763
S'web2py_version'
p2764
asbag57
(g78
g59
NtRp2765
(dp2766
g62
(dp2767
g89
g90
ssg71
g2756
sg64
(lp2768
S':'
asbag57
(g78
g59
NtRp2769
(dp2770
g62
(dp2771
sg71
g2756
sg64
(lp2772
g57
(g58
g59
NtRp2773
(dp2774
g62
(dp2775
g70
I4
ssg71
g2769
sg64
(lp2776
g57
(g66
g59
NtRp2777
(dp2778
g62
(dp2779
g70
I3
ssg71
Nsg64
(lp2780
g57
(g73
g59
NtRp2781
(dp2782
g62
(dp2783
sg71
g2777
sg64
(lp2784
g57
(g78
g59
NtRp2785
(dp2786
g62
(dp2787
sg71
g2781
sg64
(lp2788
g57
(g58
g59
NtRp2789
(dp2790
g62
(dp2791
g70
I3
ssg71
g2785
sg64
(lp2792
S'2'
asbasbasbag57
(g73
g59
NtRp2793
(dp2794
g62
(dp2795
sg71
g2777
sg64
(lp2796
g57
(g78
g59
NtRp2797
(dp2798
g62
(dp2799
sg71
g2793
sg64
(lp2800
g57
(g58
g59
NtRp2801
(dp2802
g62
(dp2803
g70
I3
ssg71
g2797
sg64
(lp2804
S'3'
asbasbasbag57
(g73
g59
NtRp2805
(dp2806
g62
(dp2807
sg71
g2777
sg64
(lp2808
g57
(g78
g59
NtRp2809
(dp2810
g62
(dp2811
sg71
g2805
sg64
(lp2812
g57
(g58
g59
NtRp2813
(dp2814
g62
(dp2815
g70
I3
ssg71
g2809
sg64
(lp2816
S'2'
asbasbasbag57
(g73
g59
NtRp2817
(dp2818
g62
(dp2819
sg71
g2777
sg64
(lp2820
g57
(g78
g59
NtRp2821
(dp2822
g62
(dp2823
sg71
g2817
sg64
(lp2824
g57
(g58
g59
NtRp2825
(dp2826
g62
(dp2827
g70
I3
ssg71
g2821
sg64
(lp2828
S'datetime.datetime(2012, 12, 17, 15, 3, 30)'
p2829
asbasbasbag57
(g73
g59
NtRp2830
(dp2831
g62
(dp2832
sg71
g2777
sg64
(lp2833
g57
(g78
g59
NtRp2834
(dp2835
g62
(dp2836
sg71
g2830
sg64
(lp2837
g57
(g58
g59
NtRp2838
(dp2839
g62
(dp2840
g70
I3
ssg71
g2834
sg64
(lp2841
S'stable'
p2842
asbasbasbasbasbasbasbag57
(g73
g59
NtRp2843
(dp2844
g62
(dp2845
sg71
g1961
sg64
(lp2846
g57
(g78
g59
NtRp2847
(dp2848
g62
(dp2849
g82
g83
ssg71
g2843
sg64
(lp2850
S'wsgi_errors'
p2851
asbag57
(g78
g59
NtRp2852
(dp2853
g62
(dp2854
g89
g90
ssg71
g2843
sg64
(lp2855
S':'
asbag57
(g78
g59
NtRp2856
(dp2857
g62
(dp2858
sg71
g2843
sg64
(lp2859
g57
(g58
g59
NtRp2860
(dp2861
g62
(dp2862
g70
I4
ssg71
g2856
sg64
(lp2863
S"<open file '<stderr>', mode 'w' at 0x7fe521d9a270>"
p2864
asbasbasbag57
(g73
g59
NtRp2865
(dp2866
g62
(dp2867
sg71
g1961
sg64
(lp2868
g57
(g78
g59
NtRp2869
(dp2870
g62
(dp2871
g82
g83
ssg71
g2865
sg64
(lp2872
S'wsgi_file_wrapper'
p2873
asbag57
(g78
g59
NtRp2874
(dp2875
g62
(dp2876
g89
g90
ssg71
g2865
sg64
(lp2877
S':'
asbag57
(g78
g59
NtRp2878
(dp2879
g62
(dp2880
sg71
g2865
sg64
(lp2881
g57
(g58
g59
NtRp2882
(dp2883
g62
(dp2884
g70
I4
ssg71
g2878
sg64
(lp2885
S'<class wsgiref.util.FileWrapper at 0x23dc8d8>'
p2886
asbasbasbag57
(g73
g59
NtRp2887
(dp2888
g62
(dp2889
sg71
g1961
sg64
(lp2890
g57
(g78
g59
NtRp2891
(dp2892
g62
(dp2893
g82
g83
ssg71
g2887
sg64
(lp2894
S'wsgi_input'
p2895
asbag57
(g78
g59
NtRp2896
(dp2897
g62
(dp2898
g89
g90
ssg71
g2887
sg64
(lp2899
S':'
asbag57
(g78
g59
NtRp2900
(dp2901
g62
(dp2902
sg71
g2887
sg64
(lp2903
g57
(g58
g59
NtRp2904
(dp2905
g62
(dp2906
g70
I4
ssg71
g2900
sg64
(lp2907
S'<socket._fileobject object at 0x7fe51455db50>'
p2908
asbasbasbag57
(g73
g59
NtRp2909
(dp2910
g62
(dp2911
sg71
g1961
sg64
(lp2912
g57
(g78
g59
NtRp2913
(dp2914
g62
(dp2915
g82
g83
ssg71
g2909
sg64
(lp2916
S'wsgi_multiprocess'
p2917
asbag57
(g78
g59
NtRp2918
(dp2919
g62
(dp2920
g89
g90
ssg71
g2909
sg64
(lp2921
S':'
asbag57
(g78
g59
NtRp2922
(dp2923
g62
(dp2924
sg71
g2909
sg64
(lp2925
g57
(g58
g59
NtRp2926
(dp2927
g62
(dp2928
g70
I4
ssg71
g2922
sg64
(lp2929
g100
asbasbasbag57
(g73
g59
NtRp2930
(dp2931
g62
(dp2932
sg71
g1961
sg64
(lp2933
g57
(g78
g59
NtRp2934
(dp2935
g62
(dp2936
g82
g83
ssg71
g2930
sg64
(lp2937
S'wsgi_multithread'
p2938
asbag57
(g78
g59
NtRp2939
(dp2940
g62
(dp2941
g89
g90
ssg71
g2930
sg64
(lp2942
S':'
asbag57
(g78
g59
NtRp2943
(dp2944
g62
(dp2945
sg71
g2930
sg64
(lp2946
g57
(g58
g59
NtRp2947
(dp2948
g62
(dp2949
g70
I4
ssg71
g2943
sg64
(lp2950
S'True'
p2951
asbasbasbag57
(g73
g59
NtRp2952
(dp2953
g62
(dp2954
sg71
g1961
sg64
(lp2955
g57
(g78
g59
NtRp2956
(dp2957
g62
(dp2958
g82
g83
ssg71
g2952
sg64
(lp2959
S'wsgi_run_once'
p2960
asbag57
(g78
g59
NtRp2961
(dp2962
g62
(dp2963
g89
g90
ssg71
g2952
sg64
(lp2964
S':'
asbag57
(g78
g59
NtRp2965
(dp2966
g62
(dp2967
sg71
g2952
sg64
(lp2968
g57
(g58
g59
NtRp2969
(dp2970
g62
(dp2971
g70
I4
ssg71
g2965
sg64
(lp2972
g100
asbasbasbag57
(g73
g59
NtRp2973
(dp2974
g62
(dp2975
sg71
g1961
sg64
(lp2976
g57
(g78
g59
NtRp2977
(dp2978
g62
(dp2979
g82
g83
ssg71
g2973
sg64
(lp2980
S'wsgi_url_scheme'
p2981
asbag57
(g78
g59
NtRp2982
(dp2983
g62
(dp2984
g89
g90
ssg71
g2973
sg64
(lp2985
S':'
asbag57
(g78
g59
NtRp2986
(dp2987
g62
(dp2988
sg71
g2973
sg64
(lp2989
g57
(g58
g59
NtRp2990
(dp2991
g62
(dp2992
g70
I4
ssg71
g2986
sg64
(lp2993
S'http'
p2994
asbasbasbag57
(g73
g59
NtRp2995
(dp2996
g62
(dp2997
sg71
g1961
sg64
(lp2998
g57
(g78
g59
NtRp2999
(dp3000
g62
(dp3001
g82
g83
ssg71
g2995
sg64
(lp3002
S'wsgi_version'
p3003
asbag57
(g78
g59
NtRp3004
(dp3005
g62
(dp3006
g89
g90
ssg71
g2995
sg64
(lp3007
S':'
asbag57
(g78
g59
NtRp3008
(dp3009
g62
(dp3010
sg71
g2995
sg64
(lp3011
g57
(g58
g59
NtRp3012
(dp3013
g62
(dp3014
g70
I4
ssg71
g3008
sg64
(lp3015
g57
(g66
g59
NtRp3016
(dp3017
g62
(dp3018
g70
I3
ssg71
Nsg64
(lp3019
g57
(g73
g59
NtRp3020
(dp3021
g62
(dp3022
sg71
g3016
sg64
(lp3023
g57
(g78
g59
NtRp3024
(dp3025
g62
(dp3026
sg71
g3020
sg64
(lp3027
g57
(g58
g59
NtRp3028
(dp3029
g62
(dp3030
g70
I3
ssg71
g3024
sg64
(lp3031
S'1'
asbasbasbag57
(g73
g59
NtRp3032
(dp3033
g62
(dp3034
sg71
g3016
sg64
(lp3035
g57
(g78
g59
NtRp3036
(dp3037
g62
(dp3038
sg71
g3032
sg64
(lp3039
g57
(g58
g59
NtRp3040
(dp3041
g62
(dp3042
g70
I3
ssg71
g3036
sg64
(lp3043
S'0'
asbasbasbasbasbasbasbasbasbasbasbag57
(g73
g59
NtRp3044
(dp3045
g62
(dp3046
sg71
g67
sg64
(lp3047
g57
(g78
g59
NtRp3048
(dp3049
g62
(dp3050
g82
g83
ssg71
g3044
sg64
(lp3051
S'extension'
p3052
asbag57
(g78
g59
NtRp3053
(dp3054
g62
(dp3055
g89
g90
ssg71
g3044
sg64
(lp3056
S':'
asbag57
(g78
g59
NtRp3057
(dp3058
g62
(dp3059
sg71
g3044
sg64
(lp3060
g57
(g58
g59
NtRp3061
(dp3062
g62
(dp3063
g70
I5
ssg71
g3057
sg64
(lp3064
S'html'
p3065
asbasbasbag57
(g73
g59
NtRp3066
(dp3067
g62
(dp3068
sg71
g67
sg64
(lp3069
g57
(g78
g59
NtRp3070
(dp3071
g62
(dp3072
g82
g83
ssg71
g3066
sg64
(lp3073
S'folder'
p3074
asbag57
(g78
g59
NtRp3075
(dp3076
g62
(dp3077
g89
g90
ssg71
g3066
sg64
(lp3078
S':'
asbag57
(g78
g59
NtRp3079
(dp3080
g62
(dp3081
sg71
g3066
sg64
(lp3082
g57
(g58
g59
NtRp3083
(dp3084
g62
(dp3085
g70
I5
ssg71
g3079
sg64
(lp3086
S'/var/www/hosts3/applications/projeto/'
p3087
asbasbasbag57
(g73
g59
NtRp3088
(dp3089
g62
(dp3090
sg71
g67
sg64
(lp3091
g57
(g78
g59
NtRp3092
(dp3093
g62
(dp3094
g82
g83
ssg71
g3088
sg64
(lp3095
S'function'
p3096
asbag57
(g78
g59
NtRp3097
(dp3098
g62
(dp3099
g89
g90
ssg71
g3088
sg64
(lp3100
S':'
asbag57
(g78
g59
NtRp3101
(dp3102
g62
(dp3103
sg71
g3088
sg64
(lp3104
g57
(g58
g59
NtRp3105
(dp3106
g62
(dp3107
g70
I5
ssg71
g3101
sg64
(lp3108
S'edit_host'
p3109
asbasbasbag57
(g73
g59
NtRp3110
(dp3111
g62
(dp3112
sg71
g67
sg64
(lp3113
g57
(g78
g59
NtRp3114
(dp3115
g62
(dp3116
g82
g83
ssg71
g3110
sg64
(lp3117
S'get_vars'
p3118
asbag57
(g78
g59
NtRp3119
(dp3120
g62
(dp3121
g89
g90
ssg71
g3110
sg64
(lp3122
S':'
asbag57
(g78
g59
NtRp3123
(dp3124
g62
(dp3125
sg71
g3110
sg64
(lp3126
g57
(g58
g59
NtRp3127
(dp3128
g62
(dp3129
g70
I5
ssg71
g3123
sg64
(lp3130
g57
(g66
g59
NtRp3131
(dp3132
g62
(dp3133
g70
I4
ssg71
Nsg64
(lp3134
g57
(g73
g59
NtRp3135
(dp3136
g62
(dp3137
sg71
g3131
sg64
(lp3138
g57
(g78
g59
NtRp3139
(dp3140
g62
(dp3141
g82
g83
ssg71
g3135
sg64
(lp3142
S'f'
asbag57
(g78
g59
NtRp3143
(dp3144
g62
(dp3145
g89
g90
ssg71
g3135
sg64
(lp3146
S':'
asbag57
(g78
g59
NtRp3147
(dp3148
g62
(dp3149
sg71
g3135
sg64
(lp3150
g57
(g58
g59
NtRp3151
(dp3152
g62
(dp3153
g70
I4
ssg71
g3147
sg64
(lp3154
S'1'
asbasbasbasbasbasbasbag57
(g73
g59
NtRp3155
(dp3156
g62
(dp3157
sg71
g67
sg64
(lp3158
g57
(g78
g59
NtRp3159
(dp3160
g62
(dp3161
g82
g83
ssg71
g3155
sg64
(lp3162
S'global_settings'
p3163
asbag57
(g78
g59
NtRp3164
(dp3165
g62
(dp3166
g89
g90
ssg71
g3155
sg64
(lp3167
S':'
asbag57
(g78
g59
NtRp3168
(dp3169
g62
(dp3170
sg71
g3155
sg64
(lp3171
g57
(g58
g59
NtRp3172
(dp3173
g62
(dp3174
g70
I5
ssg71
g3168
sg64
(lp3175
g57
(g66
g59
NtRp3176
(dp3177
g62
(dp3178
g70
I4
ssg71
Nsg64
(lp3179
g57
(g73
g59
NtRp3180
(dp3181
g62
(dp3182
sg71
g3176
sg64
(lp3183
g57
(g78
g59
NtRp3184
(dp3185
g62
(dp3186
g82
g83
ssg71
g3180
sg64
(lp3187
g1973
asbag57
(g78
g59
NtRp3188
(dp3189
g62
(dp3190
g89
g90
ssg71
g3180
sg64
(lp3191
S':'
asbag57
(g78
g59
NtRp3192
(dp3193
g62
(dp3194
sg71
g3180
sg64
(lp3195
g57
(g58
g59
NtRp3196
(dp3197
g62
(dp3198
g70
I4
ssg71
g3192
sg64
(lp3199
S"set(['/var/www/hosts3/applications/projeto/'])"
p3200
asbasbasbag57
(g73
g59
NtRp3201
(dp3202
g62
(dp3203
sg71
g3176
sg64
(lp3204
g57
(g78
g59
NtRp3205
(dp3206
g62
(dp3207
g82
g83
ssg71
g3201
sg64
(lp3208
g1995
asbag57
(g78
g59
NtRp3209
(dp3210
g62
(dp3211
g89
g90
ssg71
g3201
sg64
(lp3212
S':'
asbag57
(g78
g59
NtRp3213
(dp3214
g62
(dp3215
sg71
g3201
sg64
(lp3216
g57
(g58
g59
NtRp3217
(dp3218
g62
(dp3219
g70
I4
ssg71
g3213
sg64
(lp3220
g2008
asbasbasbag57
(g73
g59
NtRp3221
(dp3222
g62
(dp3223
sg71
g3176
sg64
(lp3224
g57
(g78
g59
NtRp3225
(dp3226
g62
(dp3227
g82
g83
ssg71
g3221
sg64
(lp3228
g2017
asbag57
(g78
g59
NtRp3229
(dp3230
g62
(dp3231
g89
g90
ssg71
g3221
sg64
(lp3232
S':'
asbag57
(g78
g59
NtRp3233
(dp3234
g62
(dp3235
sg71
g3221
sg64
(lp3236
g57
(g58
g59
NtRp3237
(dp3238
g62
(dp3239
g70
I4
ssg71
g3233
sg64
(lp3240
g57
(g66
g59
NtRp3241
(dp3242
g62
(dp3243
g70
I3
ssg71
Nsg64
(lp3244
sbasbasbasbag57
(g73
g59
NtRp3245
(dp3246
g62
(dp3247
sg71
g3176
sg64
(lp3248
g57
(g78
g59
NtRp3249
(dp3250
g62
(dp3251
g82
g83
ssg71
g3245
sg64
(lp3252
g2042
asbag57
(g78
g59
NtRp3253
(dp3254
g62
(dp3255
g89
g90
ssg71
g3245
sg64
(lp3256
S':'
asbag57
(g78
g59
NtRp3257
(dp3258
g62
(dp3259
sg71
g3245
sg64
(lp3260
g57
(g58
g59
NtRp3261
(dp3262
g62
(dp3263
g70
I4
ssg71
g3257
sg64
(lp3264
S"<Values at 0x248a050: {'verbose': False, 'ip': '127.0.0.1', 'with_scheduler': False, 'ips': [], 'shutdown_timeout': 5, 'taskbar': False, 'port': 8000, 'maxthreads': None, 'softcron': False, 'server_name': 'fernado-desktop', 'bpython': False, 'nogui': False, 'pid_filename': 'httpserver.pid', 'extcron': False, 'runcron': False, 'run_system_tests': False, 'test': None, 'folder': '/var/www/hosts3', 'config': '', 'minthreads': None, 'winservice': '', 'shell': None, 'run': '', 'log_filename': 'httpserver.log', 'debuglevel': 30, 'args': [''], 'socket_timeout': 5, 'ssl_ca_certificate': None, 'scheduler': None, 'profiler_filename': None, 'ssl_private_key': '', 'scheduler_groups': None, 'password': '123456', 'request_queue_size': 5, 'ssl_certificate': '', 'cronjob': False, 'numthreads': None, 'quiet': False, 'interfaces': None, 'import_models': False, 'timeout': 10, 'plain': False, 'nobanner': False}>"
p3265
asbasbasbag57
(g73
g59
NtRp3266
(dp3267
g62
(dp3268
sg71
g3176
sg64
(lp3269
g57
(g78
g59
NtRp3270
(dp3271
g62
(dp3272
g82
g83
ssg71
g3266
sg64
(lp3273
g2064
asbag57
(g78
g59
NtRp3274
(dp3275
g62
(dp3276
g89
g90
ssg71
g3266
sg64
(lp3277
S':'
asbag57
(g78
g59
NtRp3278
(dp3279
g62
(dp3280
sg71
g3266
sg64
(lp3281
g57
(g58
g59
NtRp3282
(dp3283
g62
(dp3284
g70
I4
ssg71
g3278
sg64
(lp3285
S'set([])'
p3286
asbasbasbag57
(g73
g59
NtRp3287
(dp3288
g62
(dp3289
sg71
g3176
sg64
(lp3290
g57
(g78
g59
NtRp3291
(dp3292
g62
(dp3293
g82
g83
ssg71
g3287
sg64
(lp3294
g2086
asbag57
(g78
g59
NtRp3295
(dp3296
g62
(dp3297
g89
g90
ssg71
g3287
sg64
(lp3298
S':'
asbag57
(g78
g59
NtRp3299
(dp3300
g62
(dp3301
sg71
g3287
sg64
(lp3302
g57
(g58
g59
NtRp3303
(dp3304
g62
(dp3305
g70
I4
ssg71
g3299
sg64
(lp3306
g100
asbasbasbag57
(g73
g59
NtRp3307
(dp3308
g62
(dp3309
sg71
g3176
sg64
(lp3310
g57
(g78
g59
NtRp3311
(dp3312
g62
(dp3313
g82
g83
ssg71
g3307
sg64
(lp3314
g2107
asbag57
(g78
g59
NtRp3315
(dp3316
g62
(dp3317
g89
g90
ssg71
g3307
sg64
(lp3318
S':'
asbag57
(g78
g59
NtRp3319
(dp3320
g62
(dp3321
sg71
g3307
sg64
(lp3322
g57
(g58
g59
NtRp3323
(dp3324
g62
(dp3325
g70
I4
ssg71
g3319
sg64
(lp3326
g2120
asbasbasbag57
(g73
g59
NtRp3327
(dp3328
g62
(dp3329
sg71
g3176
sg64
(lp3330
g57
(g78
g59
NtRp3331
(dp3332
g62
(dp3333
g82
g83
ssg71
g3327
sg64
(lp3334
g2349
asbag57
(g78
g59
NtRp3335
(dp3336
g62
(dp3337
g89
g90
ssg71
g3327
sg64
(lp3338
S':'
asbag57
(g78
g59
NtRp3339
(dp3340
g62
(dp3341
sg71
g3327
sg64
(lp3342
g57
(g58
g59
NtRp3343
(dp3344
g62
(dp3345
g70
I4
ssg71
g3339
sg64
(lp3346
g100
asbasbasbag57
(g73
g59
NtRp3347
(dp3348
g62
(dp3349
sg71
g3176
sg64
(lp3350
g57
(g78
g59
NtRp3351
(dp3352
g62
(dp3353
g82
g83
ssg71
g3347
sg64
(lp3354
g2370
asbag57
(g78
g59
NtRp3355
(dp3356
g62
(dp3357
g89
g90
ssg71
g3347
sg64
(lp3358
S':'
asbag57
(g78
g59
NtRp3359
(dp3360
g62
(dp3361
sg71
g3347
sg64
(lp3362
g57
(g58
g59
NtRp3363
(dp3364
g62
(dp3365
g70
I4
ssg71
g3359
sg64
(lp3366
g100
asbasbasbag57
(g73
g59
NtRp3367
(dp3368
g62
(dp3369
sg71
g3176
sg64
(lp3370
g57
(g78
g59
NtRp3371
(dp3372
g62
(dp3373
g82
g83
ssg71
g3367
sg64
(lp3374
g2391
asbag57
(g78
g59
NtRp3375
(dp3376
g62
(dp3377
g89
g90
ssg71
g3367
sg64
(lp3378
S':'
asbag57
(g78
g59
NtRp3379
(dp3380
g62
(dp3381
sg71
g3367
sg64
(lp3382
g57
(g58
g59
NtRp3383
(dp3384
g62
(dp3385
g70
I4
ssg71
g3379
sg64
(lp3386
g57
(g66
g59
NtRp3387
(dp3388
g62
(dp3389
g70
I3
ssg71
Nsg64
(lp3390
g57
(g73
g59
NtRp3391
(dp3392
g62
(dp3393
sg71
g3387
sg64
(lp3394
g57
(g78
g59
NtRp3395
(dp3396
g62
(dp3397
sg71
g3391
sg64
(lp3398
g57
(g58
g59
NtRp3399
(dp3400
g62
(dp3401
g70
I3
ssg71
g3395
sg64
(lp3402
g2420
asbasbasbag57
(g73
g59
NtRp3403
(dp3404
g62
(dp3405
sg71
g3387
sg64
(lp3406
g57
(g78
g59
NtRp3407
(dp3408
g62
(dp3409
sg71
g3403
sg64
(lp3410
g57
(g58
g59
NtRp3411
(dp3412
g62
(dp3413
g70
I3
ssg71
g3407
sg64
(lp3414
g2433
asbasbasbag57
(g73
g59
NtRp3415
(dp3416
g62
(dp3417
sg71
g3387
sg64
(lp3418
g57
(g78
g59
NtRp3419
(dp3420
g62
(dp3421
sg71
g3415
sg64
(lp3422
g57
(g58
g59
NtRp3423
(dp3424
g62
(dp3425
g70
I3
ssg71
g3419
sg64
(lp3426
g2446
asbasbasbag57
(g73
g59
NtRp3427
(dp3428
g62
(dp3429
sg71
g3387
sg64
(lp3430
g57
(g78
g59
NtRp3431
(dp3432
g62
(dp3433
sg71
g3427
sg64
(lp3434
g57
(g58
g59
NtRp3435
(dp3436
g62
(dp3437
g70
I3
ssg71
g3431
sg64
(lp3438
g2459
asbasbasbag57
(g73
g59
NtRp3439
(dp3440
g62
(dp3441
sg71
g3387
sg64
(lp3442
g57
(g78
g59
NtRp3443
(dp3444
g62
(dp3445
sg71
g3439
sg64
(lp3446
g57
(g58
g59
NtRp3447
(dp3448
g62
(dp3449
g70
I3
ssg71
g3443
sg64
(lp3450
g2472
asbasbasbasbasbasbasbag57
(g73
g59
NtRp3451
(dp3452
g62
(dp3453
sg71
g3176
sg64
(lp3454
g57
(g78
g59
NtRp3455
(dp3456
g62
(dp3457
g82
g83
ssg71
g3451
sg64
(lp3458
g2764
asbag57
(g78
g59
NtRp3459
(dp3460
g62
(dp3461
g89
g90
ssg71
g3451
sg64
(lp3462
S':'
asbag57
(g78
g59
NtRp3463
(dp3464
g62
(dp3465
sg71
g3451
sg64
(lp3466
g57
(g58
g59
NtRp3467
(dp3468
g62
(dp3469
g70
I4
ssg71
g3463
sg64
(lp3470
g57
(g66
g59
NtRp3471
(dp3472
g62
(dp3473
g70
I3
ssg71
Nsg64
(lp3474
g57
(g73
g59
NtRp3475
(dp3476
g62
(dp3477
sg71
g3471
sg64
(lp3478
g57
(g78
g59
NtRp3479
(dp3480
g62
(dp3481
sg71
g3475
sg64
(lp3482
g57
(g58
g59
NtRp3483
(dp3484
g62
(dp3485
g70
I3
ssg71
g3479
sg64
(lp3486
S'2'
asbasbasbag57
(g73
g59
NtRp3487
(dp3488
g62
(dp3489
sg71
g3471
sg64
(lp3490
g57
(g78
g59
NtRp3491
(dp3492
g62
(dp3493
sg71
g3487
sg64
(lp3494
g57
(g58
g59
NtRp3495
(dp3496
g62
(dp3497
g70
I3
ssg71
g3491
sg64
(lp3498
S'3'
asbasbasbag57
(g73
g59
NtRp3499
(dp3500
g62
(dp3501
sg71
g3471
sg64
(lp3502
g57
(g78
g59
NtRp3503
(dp3504
g62
(dp3505
sg71
g3499
sg64
(lp3506
g57
(g58
g59
NtRp3507
(dp3508
g62
(dp3509
g70
I3
ssg71
g3503
sg64
(lp3510
S'2'
asbasbasbag57
(g73
g59
NtRp3511
(dp3512
g62
(dp3513
sg71
g3471
sg64
(lp3514
g57
(g78
g59
NtRp3515
(dp3516
g62
(dp3517
sg71
g3511
sg64
(lp3518
g57
(g58
g59
NtRp3519
(dp3520
g62
(dp3521
g70
I3
ssg71
g3515
sg64
(lp3522
S'datetime.datetime(2012, 12, 17, 15, 3, 30)'
p3523
asbasbasbag57
(g73
g59
NtRp3524
(dp3525
g62
(dp3526
sg71
g3471
sg64
(lp3527
g57
(g78
g59
NtRp3528
(dp3529
g62
(dp3530
sg71
g3524
sg64
(lp3531
g57
(g58
g59
NtRp3532
(dp3533
g62
(dp3534
g70
I3
ssg71
g3528
sg64
(lp3535
g2842
asbasbasbasbasbasbasbasbasbasbasbag57
(g73
g59
NtRp3536
(dp3537
g62
(dp3538
sg71
g67
sg64
(lp3539
g57
(g78
g59
NtRp3540
(dp3541
g62
(dp3542
g82
g83
ssg71
g3536
sg64
(lp3543
S'is_https'
p3544
asbag57
(g78
g59
NtRp3545
(dp3546
g62
(dp3547
g89
g90
ssg71
g3536
sg64
(lp3548
S':'
asbag57
(g78
g59
NtRp3549
(dp3550
g62
(dp3551
sg71
g3536
sg64
(lp3552
g57
(g58
g59
NtRp3553
(dp3554
g62
(dp3555
g70
I5
ssg71
g3549
sg64
(lp3556
g100
asbasbasbag57
(g73
g59
NtRp3557
(dp3558
g62
(dp3559
sg71
g67
sg64
(lp3560
g57
(g78
g59
NtRp3561
(dp3562
g62
(dp3563
g82
g83
ssg71
g3557
sg64
(lp3564
S'is_local'
p3565
asbag57
(g78
g59
NtRp3566
(dp3567
g62
(dp3568
g89
g90
ssg71
g3557
sg64
(lp3569
S':'
asbag57
(g78
g59
NtRp3570
(dp3571
g62
(dp3572
sg71
g3557
sg64
(lp3573
g57
(g58
g59
NtRp3574
(dp3575
g62
(dp3576
g70
I5
ssg71
g3570
sg64
(lp3577
g2951
asbasbasbag57
(g73
g59
NtRp3578
(dp3579
g62
(dp3580
sg71
g67
sg64
(lp3581
g57
(g78
g59
NtRp3582
(dp3583
g62
(dp3584
g82
g83
ssg71
g3578
sg64
(lp3585
S'is_restful'
p3586
asbag57
(g78
g59
NtRp3587
(dp3588
g62
(dp3589
g89
g90
ssg71
g3578
sg64
(lp3590
S':'
asbag57
(g78
g59
NtRp3591
(dp3592
g62
(dp3593
sg71
g3578
sg64
(lp3594
g57
(g58
g59
NtRp3595
(dp3596
g62
(dp3597
g70
I5
ssg71
g3591
sg64
(lp3598
g100
asbasbasbag57
(g73
g59
NtRp3599
(dp3600
g62
(dp3601
sg71
g67
sg64
(lp3602
g57
(g78
g59
NtRp3603
(dp3604
g62
(dp3605
g82
g83
ssg71
g3599
sg64
(lp3606
S'now'
p3607
asbag57
(g78
g59
NtRp3608
(dp3609
g62
(dp3610
g89
g90
ssg71
g3599
sg64
(lp3611
S':'
asbag57
(g78
g59
NtRp3612
(dp3613
g62
(dp3614
sg71
g3599
sg64
(lp3615
g57
(g58
g59
NtRp3616
(dp3617
g62
(dp3618
g70
I5
ssg71
g3612
sg64
(lp3619
S'datetime.datetime(2013, 2, 21, 9, 15, 35, 77059)'
p3620
asbasbasbag57
(g73
g59
NtRp3621
(dp3622
g62
(dp3623
sg71
g67
sg64
(lp3624
g57
(g78
g59
NtRp3625
(dp3626
g62
(dp3627
g82
g83
ssg71
g3621
sg64
(lp3628
S'post_vars'
p3629
asbag57
(g78
g59
NtRp3630
(dp3631
g62
(dp3632
g89
g90
ssg71
g3621
sg64
(lp3633
S':'
asbag57
(g78
g59
NtRp3634
(dp3635
g62
(dp3636
sg71
g3621
sg64
(lp3637
g57
(g58
g59
NtRp3638
(dp3639
g62
(dp3640
g70
I5
ssg71
g3634
sg64
(lp3641
g57
(g66
g59
NtRp3642
(dp3643
g62
(dp3644
g70
I4
ssg71
Nsg64
(lp3645
sbasbasbasbag57
(g73
g59
NtRp3646
(dp3647
g62
(dp3648
sg71
g67
sg64
(lp3649
g57
(g78
g59
NtRp3650
(dp3651
g62
(dp3652
g82
g83
ssg71
g3646
sg64
(lp3653
S'url'
p3654
asbag57
(g78
g59
NtRp3655
(dp3656
g62
(dp3657
g89
g90
ssg71
g3646
sg64
(lp3658
S':'
asbag57
(g78
g59
NtRp3659
(dp3660
g62
(dp3661
sg71
g3646
sg64
(lp3662
g57
(g58
g59
NtRp3663
(dp3664
g62
(dp3665
g70
I5
ssg71
g3659
sg64
(lp3666
g2494
asbasbasbag57
(g73
g59
NtRp3667
(dp3668
g62
(dp3669
sg71
g67
sg64
(lp3670
g57
(g78
g59
NtRp3671
(dp3672
g62
(dp3673
g82
g83
ssg71
g3667
sg64
(lp3674
S'utcnow'
p3675
asbag57
(g78
g59
NtRp3676
(dp3677
g62
(dp3678
g89
g90
ssg71
g3667
sg64
(lp3679
S':'
asbag57
(g78
g59
NtRp3680
(dp3681
g62
(dp3682
sg71
g3667
sg64
(lp3683
g57
(g58
g59
NtRp3684
(dp3685
g62
(dp3686
g70
I5
ssg71
g3680
sg64
(lp3687
S'datetime.datetime(2013, 2, 21, 12, 15, 35, 77106)'
p3688
asbasbasbag57
(g73
g59
NtRp3689
(dp3690
g62
(dp3691
sg71
g67
sg64
(lp3692
g57
(g78
g59
NtRp3693
(dp3694
g62
(dp3695
g82
g83
ssg71
g3689
sg64
(lp3696
S'uuid'
p3697
asbag57
(g78
g59
NtRp3698
(dp3699
g62
(dp3700
g89
g90
ssg71
g3689
sg64
(lp3701
S':'
asbag57
(g78
g59
NtRp3702
(dp3703
g62
(dp3704
sg71
g3689
sg64
(lp3705
g57
(g58
g59
NtRp3706
(dp3707
g62
(dp3708
g70
I5
ssg71
g3702
sg64
(lp3709
S'projeto/127.0.0.1.2013-02-21.09-15-35.3e330dac-3fd9-4dfd-adbd-10c71a493dc8'
p3710
asbasbasbag57
(g73
g59
NtRp3711
(dp3712
g62
(dp3713
sg71
g67
sg64
(lp3714
g57
(g78
g59
NtRp3715
(dp3716
g62
(dp3717
g82
g83
ssg71
g3711
sg64
(lp3718
S'vars'
p3719
asbag57
(g78
g59
NtRp3720
(dp3721
g62
(dp3722
g89
g90
ssg71
g3711
sg64
(lp3723
S':'
asbag57
(g78
g59
NtRp3724
(dp3725
g62
(dp3726
sg71
g3711
sg64
(lp3727
g57
(g58
g59
NtRp3728
(dp3729
g62
(dp3730
g70
I5
ssg71
g3724
sg64
(lp3731
g57
(g66
g59
NtRp3732
(dp3733
g62
(dp3734
g70
I4
ssg71
Nsg64
(lp3735
g57
(g73
g59
NtRp3736
(dp3737
g62
(dp3738
sg71
g3732
sg64
(lp3739
g57
(g78
g59
NtRp3740
(dp3741
g62
(dp3742
g82
g83
ssg71
g3736
sg64
(lp3743
S'f'
asbag57
(g78
g59
NtRp3744
(dp3745
g62
(dp3746
g89
g90
ssg71
g3736
sg64
(lp3747
S':'
asbag57
(g78
g59
NtRp3748
(dp3749
g62
(dp3750
sg71
g3736
sg64
(lp3751
g57
(g58
g59
NtRp3752
(dp3753
g62
(dp3754
g70
I4
ssg71
g3748
sg64
(lp3755
S'1'
asbasbasbasbasbasbasbag57
(g73
g59
NtRp3756
(dp3757
g62
(dp3758
sg71
g67
sg64
(lp3759
g57
(g78
g59
NtRp3760
(dp3761
g62
(dp3762
g82
g83
ssg71
g3756
sg64
(lp3763
S'wsgi'
p3764
asbag57
(g78
g59
NtRp3765
(dp3766
g62
(dp3767
g89
g90
ssg71
g3756
sg64
(lp3768
S':'
asbag57
(g78
g59
NtRp3769
(dp3770
g62
(dp3771
sg71
g3756
sg64
(lp3772
g57
(g58
g59
NtRp3773
(dp3774
g62
(dp3775
g70
I5
ssg71
g3769
sg64
(lp3776
g57
(g66
g59
NtRp3777
(dp3778
g62
(dp3779
g70
I4
ssg71
Nsg64
(lp3780
g57
(g73
g59
NtRp3781
(dp3782
g62
(dp3783
sg71
g3777
sg64
(lp3784
g57
(g78
g59
NtRp3785
(dp3786
g62
(dp3787
g82
g83
ssg71
g3781
sg64
(lp3788
S'environ'
p3789
asbag57
(g78
g59
NtRp3790
(dp3791
g62
(dp3792
g89
g90
ssg71
g3781
sg64
(lp3793
S':'
asbag57
(g78
g59
NtRp3794
(dp3795
g62
(dp3796
sg71
g3781
sg64
(lp3797
g57
(g58
g59
NtRp3798
(dp3799
g62
(dp3800
g70
I4
ssg71
g3794
sg64
(lp3801
g57
(g66
g59
NtRp3802
(dp3803
g62
(dp3804
g70
I3
ssg71
Nsg64
(lp3805
g57
(g73
g59
NtRp3806
(dp3807
g62
(dp3808
sg71
g3802
sg64
(lp3809
g57
(g78
g59
NtRp3810
(dp3811
g62
(dp3812
g82
g83
ssg71
g3806
sg64
(lp3813
S'HTTP_ACCEPT'
p3814
asbag57
(g78
g59
NtRp3815
(dp3816
g62
(dp3817
g89
g90
ssg71
g3806
sg64
(lp3818
S':'
asbag57
(g78
g59
NtRp3819
(dp3820
g62
(dp3821
sg71
g3806
sg64
(lp3822
g57
(g58
g59
NtRp3823
(dp3824
g62
(dp3825
g70
I3
ssg71
g3819
sg64
(lp3826
g2142
asbasbasbag57
(g73
g59
NtRp3827
(dp3828
g62
(dp3829
sg71
g3802
sg64
(lp3830
g57
(g78
g59
NtRp3831
(dp3832
g62
(dp3833
g82
g83
ssg71
g3827
sg64
(lp3834
S'HTTP_ACCEPT_CHARSET'
p3835
asbag57
(g78
g59
NtRp3836
(dp3837
g62
(dp3838
g89
g90
ssg71
g3827
sg64
(lp3839
S':'
asbag57
(g78
g59
NtRp3840
(dp3841
g62
(dp3842
sg71
g3827
sg64
(lp3843
g57
(g58
g59
NtRp3844
(dp3845
g62
(dp3846
g70
I3
ssg71
g3840
sg64
(lp3847
g2164
asbasbasbag57
(g73
g59
NtRp3848
(dp3849
g62
(dp3850
sg71
g3802
sg64
(lp3851
g57
(g78
g59
NtRp3852
(dp3853
g62
(dp3854
g82
g83
ssg71
g3848
sg64
(lp3855
S'HTTP_ACCEPT_ENCODING'
p3856
asbag57
(g78
g59
NtRp3857
(dp3858
g62
(dp3859
g89
g90
ssg71
g3848
sg64
(lp3860
S':'
asbag57
(g78
g59
NtRp3861
(dp3862
g62
(dp3863
sg71
g3848
sg64
(lp3864
g57
(g58
g59
NtRp3865
(dp3866
g62
(dp3867
g70
I3
ssg71
g3861
sg64
(lp3868
g2186
asbasbasbag57
(g73
g59
NtRp3869
(dp3870
g62
(dp3871
sg71
g3802
sg64
(lp3872
g57
(g78
g59
NtRp3873
(dp3874
g62
(dp3875
g82
g83
ssg71
g3869
sg64
(lp3876
S'HTTP_ACCEPT_LANGUAGE'
p3877
asbag57
(g78
g59
NtRp3878
(dp3879
g62
(dp3880
g89
g90
ssg71
g3869
sg64
(lp3881
S':'
asbag57
(g78
g59
NtRp3882
(dp3883
g62
(dp3884
sg71
g3869
sg64
(lp3885
g57
(g58
g59
NtRp3886
(dp3887
g62
(dp3888
g70
I3
ssg71
g3882
sg64
(lp3889
g2208
asbasbasbag57
(g73
g59
NtRp3890
(dp3891
g62
(dp3892
sg71
g3802
sg64
(lp3893
g57
(g78
g59
NtRp3894
(dp3895
g62
(dp3896
g82
g83
ssg71
g3890
sg64
(lp3897
S'HTTP_CACHE_CONTROL'
p3898
asbag57
(g78
g59
NtRp3899
(dp3900
g62
(dp3901
g89
g90
ssg71
g3890
sg64
(lp3902
S':'
asbag57
(g78
g59
NtRp3903
(dp3904
g62
(dp3905
sg71
g3890
sg64
(lp3906
g57
(g58
g59
NtRp3907
(dp3908
g62
(dp3909
g70
I3
ssg71
g3903
sg64
(lp3910
g2230
asbasbasbag57
(g73
g59
NtRp3911
(dp3912
g62
(dp3913
sg71
g3802
sg64
(lp3914
g57
(g78
g59
NtRp3915
(dp3916
g62
(dp3917
g82
g83
ssg71
g3911
sg64
(lp3918
S'HTTP_CONNECTION'
p3919
asbag57
(g78
g59
NtRp3920
(dp3921
g62
(dp3922
g89
g90
ssg71
g3911
sg64
(lp3923
S':'
asbag57
(g78
g59
NtRp3924
(dp3925
g62
(dp3926
sg71
g3911
sg64
(lp3927
g57
(g58
g59
NtRp3928
(dp3929
g62
(dp3930
g70
I3
ssg71
g3924
sg64
(lp3931
g2252
asbasbasbag57
(g73
g59
NtRp3932
(dp3933
g62
(dp3934
sg71
g3802
sg64
(lp3935
g57
(g78
g59
NtRp3936
(dp3937
g62
(dp3938
g82
g83
ssg71
g3932
sg64
(lp3939
S'HTTP_COOKIE'
p3940
asbag57
(g78
g59
NtRp3941
(dp3942
g62
(dp3943
g89
g90
ssg71
g3932
sg64
(lp3944
S':'
asbag57
(g78
g59
NtRp3945
(dp3946
g62
(dp3947
sg71
g3932
sg64
(lp3948
g57
(g58
g59
NtRp3949
(dp3950
g62
(dp3951
g70
I3
ssg71
g3945
sg64
(lp3952
g2274
asbasbasbag57
(g73
g59
NtRp3953
(dp3954
g62
(dp3955
sg71
g3802
sg64
(lp3956
g57
(g78
g59
NtRp3957
(dp3958
g62
(dp3959
g82
g83
ssg71
g3953
sg64
(lp3960
S'HTTP_HOST'
p3961
asbag57
(g78
g59
NtRp3962
(dp3963
g62
(dp3964
g89
g90
ssg71
g3953
sg64
(lp3965
S':'
asbag57
(g78
g59
NtRp3966
(dp3967
g62
(dp3968
sg71
g3953
sg64
(lp3969
g57
(g58
g59
NtRp3970
(dp3971
g62
(dp3972
g70
I3
ssg71
g3966
sg64
(lp3973
g2296
asbasbasbag57
(g73
g59
NtRp3974
(dp3975
g62
(dp3976
sg71
g3802
sg64
(lp3977
g57
(g78
g59
NtRp3978
(dp3979
g62
(dp3980
g82
g83
ssg71
g3974
sg64
(lp3981
S'HTTP_REFERER'
p3982
asbag57
(g78
g59
NtRp3983
(dp3984
g62
(dp3985
g89
g90
ssg71
g3974
sg64
(lp3986
S':'
asbag57
(g78
g59
NtRp3987
(dp3988
g62
(dp3989
sg71
g3974
sg64
(lp3990
g57
(g58
g59
NtRp3991
(dp3992
g62
(dp3993
g70
I3
ssg71
g3987
sg64
(lp3994
g2318
asbasbasbag57
(g73
g59
NtRp3995
(dp3996
g62
(dp3997
sg71
g3802
sg64
(lp3998
g57
(g78
g59
NtRp3999
(dp4000
g62
(dp4001
g82
g83
ssg71
g3995
sg64
(lp4002
S'HTTP_USER_AGENT'
p4003
asbag57
(g78
g59
NtRp4004
(dp4005
g62
(dp4006
g89
g90
ssg71
g3995
sg64
(lp4007
S':'
asbag57
(g78
g59
NtRp4008
(dp4009
g62
(dp4010
sg71
g3995
sg64
(lp4011
g57
(g58
g59
NtRp4012
(dp4013
g62
(dp4014
g70
I3
ssg71
g4008
sg64
(lp4015
g2340
asbasbasbag57
(g73
g59
NtRp4016
(dp4017
g62
(dp4018
sg71
g3802
sg64
(lp4019
g57
(g78
g59
NtRp4020
(dp4021
g62
(dp4022
g82
g83
ssg71
g4016
sg64
(lp4023
S'PATH_INFO'
p4024
asbag57
(g78
g59
NtRp4025
(dp4026
g62
(dp4027
g89
g90
ssg71
g4016
sg64
(lp4028
S':'
asbag57
(g78
g59
NtRp4029
(dp4030
g62
(dp4031
sg71
g4016
sg64
(lp4032
g57
(g58
g59
NtRp4033
(dp4034
g62
(dp4035
g70
I3
ssg71
g4029
sg64
(lp4036
g2494
asbasbasbag57
(g73
g59
NtRp4037
(dp4038
g62
(dp4039
sg71
g3802
sg64
(lp4040
g57
(g78
g59
NtRp4041
(dp4042
g62
(dp4043
g82
g83
ssg71
g4037
sg64
(lp4044
S'QUERY_STRING'
p4045
asbag57
(g78
g59
NtRp4046
(dp4047
g62
(dp4048
g89
g90
ssg71
g4037
sg64
(lp4049
S':'
asbag57
(g78
g59
NtRp4050
(dp4051
g62
(dp4052
sg71
g4037
sg64
(lp4053
g57
(g58
g59
NtRp4054
(dp4055
g62
(dp4056
g70
I3
ssg71
g4050
sg64
(lp4057
g2516
asbasbasbag57
(g73
g59
NtRp4058
(dp4059
g62
(dp4060
sg71
g3802
sg64
(lp4061
g57
(g78
g59
NtRp4062
(dp4063
g62
(dp4064
g82
g83
ssg71
g4058
sg64
(lp4065
S'REMOTE_ADDR'
p4066
asbag57
(g78
g59
NtRp4067
(dp4068
g62
(dp4069
g89
g90
ssg71
g4058
sg64
(lp4070
S':'
asbag57
(g78
g59
NtRp4071
(dp4072
g62
(dp4073
sg71
g4058
sg64
(lp4074
g57
(g58
g59
NtRp4075
(dp4076
g62
(dp4077
g70
I3
ssg71
g4071
sg64
(lp4078
g212
asbasbasbag57
(g73
g59
NtRp4079
(dp4080
g62
(dp4081
sg71
g3802
sg64
(lp4082
g57
(g78
g59
NtRp4083
(dp4084
g62
(dp4085
g82
g83
ssg71
g4079
sg64
(lp4086
S'REMOTE_PORT'
p4087
asbag57
(g78
g59
NtRp4088
(dp4089
g62
(dp4090
g89
g90
ssg71
g4079
sg64
(lp4091
S':'
asbag57
(g78
g59
NtRp4092
(dp4093
g62
(dp4094
sg71
g4079
sg64
(lp4095
g57
(g58
g59
NtRp4096
(dp4097
g62
(dp4098
g70
I3
ssg71
g4092
sg64
(lp4099
g2559
asbasbasbag57
(g73
g59
NtRp4100
(dp4101
g62
(dp4102
sg71
g3802
sg64
(lp4103
g57
(g78
g59
NtRp4104
(dp4105
g62
(dp4106
g82
g83
ssg71
g4100
sg64
(lp4107
S'REQUEST_METHOD'
p4108
asbag57
(g78
g59
NtRp4109
(dp4110
g62
(dp4111
g89
g90
ssg71
g4100
sg64
(lp4112
S':'
asbag57
(g78
g59
NtRp4113
(dp4114
g62
(dp4115
sg71
g4100
sg64
(lp4116
g57
(g58
g59
NtRp4117
(dp4118
g62
(dp4119
g70
I3
ssg71
g4113
sg64
(lp4120
g2581
asbasbasbag57
(g73
g59
NtRp4121
(dp4122
g62
(dp4123
sg71
g3802
sg64
(lp4124
g57
(g78
g59
NtRp4125
(dp4126
g62
(dp4127
g82
g83
ssg71
g4121
sg64
(lp4128
S'REQUEST_URI'
p4129
asbag57
(g78
g59
NtRp4130
(dp4131
g62
(dp4132
g89
g90
ssg71
g4121
sg64
(lp4133
S':'
asbag57
(g78
g59
NtRp4134
(dp4135
g62
(dp4136
sg71
g4121
sg64
(lp4137
g57
(g58
g59
NtRp4138
(dp4139
g62
(dp4140
g70
I3
ssg71
g4134
sg64
(lp4141
g2603
asbasbasbag57
(g73
g59
NtRp4142
(dp4143
g62
(dp4144
sg71
g3802
sg64
(lp4145
g57
(g78
g59
NtRp4146
(dp4147
g62
(dp4148
g82
g83
ssg71
g4142
sg64
(lp4149
S'SCRIPT_NAME'
p4150
asbag57
(g78
g59
NtRp4151
(dp4152
g62
(dp4153
g89
g90
ssg71
g4142
sg64
(lp4154
S':'
asbag57
(g78
g59
NtRp4155
(dp4156
g62
(dp4157
sg71
g4142
sg64
(lp4158
g57
(g58
g59
NtRp4159
(dp4160
g62
(dp4161
g70
I3
ssg71
g4155
sg64
(lp4162
S''
asbasbasbag57
(g73
g59
NtRp4163
(dp4164
g62
(dp4165
sg71
g3802
sg64
(lp4166
g57
(g78
g59
NtRp4167
(dp4168
g62
(dp4169
g82
g83
ssg71
g4163
sg64
(lp4170
S'SERVER_NAME'
p4171
asbag57
(g78
g59
NtRp4172
(dp4173
g62
(dp4174
g89
g90
ssg71
g4163
sg64
(lp4175
S':'
asbag57
(g78
g59
NtRp4176
(dp4177
g62
(dp4178
sg71
g4163
sg64
(lp4179
g57
(g58
g59
NtRp4180
(dp4181
g62
(dp4182
g70
I3
ssg71
g4176
sg64
(lp4183
g2646
asbasbasbag57
(g73
g59
NtRp4184
(dp4185
g62
(dp4186
sg71
g3802
sg64
(lp4187
g57
(g78
g59
NtRp4188
(dp4189
g62
(dp4190
g82
g83
ssg71
g4184
sg64
(lp4191
S'SERVER_PORT'
p4192
asbag57
(g78
g59
NtRp4193
(dp4194
g62
(dp4195
g89
g90
ssg71
g4184
sg64
(lp4196
S':'
asbag57
(g78
g59
NtRp4197
(dp4198
g62
(dp4199
sg71
g4184
sg64
(lp4200
g57
(g58
g59
NtRp4201
(dp4202
g62
(dp4203
g70
I3
ssg71
g4197
sg64
(lp4204
g2668
asbasbasbag57
(g73
g59
NtRp4205
(dp4206
g62
(dp4207
sg71
g3802
sg64
(lp4208
g57
(g78
g59
NtRp4209
(dp4210
g62
(dp4211
g82
g83
ssg71
g4205
sg64
(lp4212
S'SERVER_PROTOCOL'
p4213
asbag57
(g78
g59
NtRp4214
(dp4215
g62
(dp4216
g89
g90
ssg71
g4205
sg64
(lp4217
S':'
asbag57
(g78
g59
NtRp4218
(dp4219
g62
(dp4220
sg71
g4205
sg64
(lp4221
g57
(g58
g59
NtRp4222
(dp4223
g62
(dp4224
g70
I3
ssg71
g4218
sg64
(lp4225
g2690
asbasbasbag57
(g73
g59
NtRp4226
(dp4227
g62
(dp4228
sg71
g3802
sg64
(lp4229
g57
(g78
g59
NtRp4230
(dp4231
g62
(dp4232
g82
g83
ssg71
g4226
sg64
(lp4233
S'SERVER_SOFTWARE'
p4234
asbag57
(g78
g59
NtRp4235
(dp4236
g62
(dp4237
g89
g90
ssg71
g4226
sg64
(lp4238
S':'
asbag57
(g78
g59
NtRp4239
(dp4240
g62
(dp4241
sg71
g4226
sg64
(lp4242
g57
(g58
g59
NtRp4243
(dp4244
g62
(dp4245
g70
I3
ssg71
g4239
sg64
(lp4246
g2712
asbasbasbag57
(g73
g59
NtRp4247
(dp4248
g62
(dp4249
sg71
g3802
sg64
(lp4250
g57
(g78
g59
NtRp4251
(dp4252
g62
(dp4253
g82
g83
ssg71
g4247
sg64
(lp4254
S'WEB2PY_ORIGINAL_URI'
p4255
asbag57
(g78
g59
NtRp4256
(dp4257
g62
(dp4258
g89
g90
ssg71
g4247
sg64
(lp4259
S':'
asbag57
(g78
g59
NtRp4260
(dp4261
g62
(dp4262
sg71
g4247
sg64
(lp4263
g57
(g58
g59
NtRp4264
(dp4265
g62
(dp4266
g70
I3
ssg71
g4260
sg64
(lp4267
g2734
asbasbasbag57
(g73
g59
NtRp4268
(dp4269
g62
(dp4270
sg71
g3802
sg64
(lp4271
g57
(g78
g59
NtRp4272
(dp4273
g62
(dp4274
g82
g83
ssg71
g4268
sg64
(lp4275
S'wsgi.errors'
p4276
asbag57
(g78
g59
NtRp4277
(dp4278
g62
(dp4279
g89
g90
ssg71
g4268
sg64
(lp4280
S':'
asbag57
(g78
g59
NtRp4281
(dp4282
g62
(dp4283
sg71
g4268
sg64
(lp4284
g57
(g58
g59
NtRp4285
(dp4286
g62
(dp4287
g70
I3
ssg71
g4281
sg64
(lp4288
S"<open file '<stderr>', mode 'w' at 0x7fe521d9a270>"
p4289
asbasbasbag57
(g73
g59
NtRp4290
(dp4291
g62
(dp4292
sg71
g3802
sg64
(lp4293
g57
(g78
g59
NtRp4294
(dp4295
g62
(dp4296
g82
g83
ssg71
g4290
sg64
(lp4297
S'wsgi.file_wrapper'
p4298
asbag57
(g78
g59
NtRp4299
(dp4300
g62
(dp4301
g89
g90
ssg71
g4290
sg64
(lp4302
S':'
asbag57
(g78
g59
NtRp4303
(dp4304
g62
(dp4305
sg71
g4290
sg64
(lp4306
g57
(g58
g59
NtRp4307
(dp4308
g62
(dp4309
g70
I3
ssg71
g4303
sg64
(lp4310
S'<class wsgiref.util.FileWrapper at 0x23dc8d8>'
p4311
asbasbasbag57
(g73
g59
NtRp4312
(dp4313
g62
(dp4314
sg71
g3802
sg64
(lp4315
g57
(g78
g59
NtRp4316
(dp4317
g62
(dp4318
g82
g83
ssg71
g4312
sg64
(lp4319
S'wsgi.input'
p4320
asbag57
(g78
g59
NtRp4321
(dp4322
g62
(dp4323
g89
g90
ssg71
g4312
sg64
(lp4324
S':'
asbag57
(g78
g59
NtRp4325
(dp4326
g62
(dp4327
sg71
g4312
sg64
(lp4328
g57
(g58
g59
NtRp4329
(dp4330
g62
(dp4331
g70
I3
ssg71
g4325
sg64
(lp4332
S'<cStringIO.StringO object at 0x7fe50c21ced8>'
p4333
asbasbasbag57
(g73
g59
NtRp4334
(dp4335
g62
(dp4336
sg71
g3802
sg64
(lp4337
g57
(g78
g59
NtRp4338
(dp4339
g62
(dp4340
g82
g83
ssg71
g4334
sg64
(lp4341
S'wsgi.multiprocess'
p4342
asbag57
(g78
g59
NtRp4343
(dp4344
g62
(dp4345
g89
g90
ssg71
g4334
sg64
(lp4346
S':'
asbag57
(g78
g59
NtRp4347
(dp4348
g62
(dp4349
sg71
g4334
sg64
(lp4350
g57
(g58
g59
NtRp4351
(dp4352
g62
(dp4353
g70
I3
ssg71
g4347
sg64
(lp4354
g100
asbasbasbag57
(g73
g59
NtRp4355
(dp4356
g62
(dp4357
sg71
g3802
sg64
(lp4358
g57
(g78
g59
NtRp4359
(dp4360
g62
(dp4361
g82
g83
ssg71
g4355
sg64
(lp4362
S'wsgi.multithread'
p4363
asbag57
(g78
g59
NtRp4364
(dp4365
g62
(dp4366
g89
g90
ssg71
g4355
sg64
(lp4367
S':'
asbag57
(g78
g59
NtRp4368
(dp4369
g62
(dp4370
sg71
g4355
sg64
(lp4371
g57
(g58
g59
NtRp4372
(dp4373
g62
(dp4374
g70
I3
ssg71
g4368
sg64
(lp4375
g2951
asbasbasbag57
(g73
g59
NtRp4376
(dp4377
g62
(dp4378
sg71
g3802
sg64
(lp4379
g57
(g78
g59
NtRp4380
(dp4381
g62
(dp4382
g82
g83
ssg71
g4376
sg64
(lp4383
S'wsgi.run_once'
p4384
asbag57
(g78
g59
NtRp4385
(dp4386
g62
(dp4387
g89
g90
ssg71
g4376
sg64
(lp4388
S':'
asbag57
(g78
g59
NtRp4389
(dp4390
g62
(dp4391
sg71
g4376
sg64
(lp4392
g57
(g58
g59
NtRp4393
(dp4394
g62
(dp4395
g70
I3
ssg71
g4389
sg64
(lp4396
g100
asbasbasbag57
(g73
g59
NtRp4397
(dp4398
g62
(dp4399
sg71
g3802
sg64
(lp4400
g57
(g78
g59
NtRp4401
(dp4402
g62
(dp4403
g82
g83
ssg71
g4397
sg64
(lp4404
S'wsgi.url_scheme'
p4405
asbag57
(g78
g59
NtRp4406
(dp4407
g62
(dp4408
g89
g90
ssg71
g4397
sg64
(lp4409
S':'
asbag57
(g78
g59
NtRp4410
(dp4411
g62
(dp4412
sg71
g4397
sg64
(lp4413
g57
(g58
g59
NtRp4414
(dp4415
g62
(dp4416
g70
I3
ssg71
g4410
sg64
(lp4417
g2994
asbasbasbag57
(g73
g59
NtRp4418
(dp4419
g62
(dp4420
sg71
g3802
sg64
(lp4421
g57
(g78
g59
NtRp4422
(dp4423
g62
(dp4424
g82
g83
ssg71
g4418
sg64
(lp4425
S'wsgi.version'
p4426
asbag57
(g78
g59
NtRp4427
(dp4428
g62
(dp4429
g89
g90
ssg71
g4418
sg64
(lp4430
S':'
asbag57
(g78
g59
NtRp4431
(dp4432
g62
(dp4433
sg71
g4418
sg64
(lp4434
g57
(g58
g59
NtRp4435
(dp4436
g62
(dp4437
g70
I3
ssg71
g4431
sg64
(lp4438
S'1'
asbasbasbasbasbasbasbasbasbasbasbasbasbsS'frames'
p4439
(lp4440
(dp4441
S'file'
p4442
S'/var/www/hosts3/gluon/restricted.py'
p4443
sS'dump'
p4444
(dp4445
S'environment'
p4446
S"{'A': <class 'gluon.html.A'>, 'Auth': <class 'gluon.tools.Auth'>, 'B': <class 'gluon.html.B'>, 'BEAUTIFY': <class 'gluon.html.BEAUTIFY'>, 'BODY': <class 'gluon.html.BODY'>, 'BR': <class 'gluon.html.BR'>, 'BUTTON': <class 'gluon.html.BUTTON'>, 'CAT': <class 'gluon.html.CAT'>, 'CENTER': <class 'gluon.html.CENTER'>, 'CLEANUP': <class 'gluon.validators.CLEANUP'>, ...}"
p4447
sS'ccode'
p4448
S'<code object <module> at 0x7fe5143c2030, file "/...ns/projeto/views/initial/show_form.html", line 1>'
p4449
ssS'lnum'
p4450
I212
sS'lines'
p4451
(dp4452
I207
S'    try:'
p4453
sI208
S'        if isinstance(code, types.CodeType):'
p4454
sI209
S'            ccode = code'
p4455
sI210
S'        else:'
p4456
sI211
S'            ccode = compile2(code, layer)'
p4457
sI212
S'        exec ccode in environment'
p4458
sI213
S'    except HTTP:'
p4459
sI214
S'        raise'
p4460
sI215
S'    except RestrictedError:'
p4461
sI216
S'        # do not encapsulate (obfuscate) the original RestrictedError'
p4462
ssS'call'
p4463
S'(code=\'response.write(\\\'<!DOCTYPE html>\\\\n<!-- paulirish....(\\\'"></script>\\\\n</body>\\\\n</html>\\\\n\\\', escape=False)\', environment={\'A\': <class \'gluon.html.A\'>, \'Auth\': <class \'gluon.tools.Auth\'>, \'B\': <class \'gluon.html.B\'>, \'BEAUTIFY\': <class \'gluon.html.BEAUTIFY\'>, \'BODY\': <class \'gluon.html.BODY\'>, \'BR\': <class \'gluon.html.BR\'>, \'BUTTON\': <class \'gluon.html.BUTTON\'>, \'CAT\': <class \'gluon.html.CAT\'>, \'CENTER\': <class \'gluon.html.CENTER\'>, \'CLEANUP\': <class \'gluon.validators.CLEANUP\'>, ...}, layer=\'/var/www/hosts3/applications/projeto/views/initial/show_form.html\')'
p4464
sS'func'
p4465
S'restricted'
p4466
sa(dp4467
g4442
S'/var/www/hosts3/applications/projeto/views/initial/show_form.html'
p4468
sg4444
(dp4469
sg4450
I78
sg4451
(dp4470
I69
S'if left_sidebar_enabled:'
p4471
sI70
S'    response.write(\'\\n        <div class="span3 left-sidebar">\\n            \', escape=False)'
p4472
sI71
S"    response.write('\\n            <h3>Left Sidebar</h3>\\n            <p></p>\\n            ', escape=False)"
p4473
sI72
S"    response.write('\\n        </div>\\n        ', escape=False)"
p4474
sI73
S'    pass'
p4475
sI74
S'response.write(\'\\n        \\n        <div class="\', escape=False)'
p4476
sI75
S'response.write(middle_columns)'
p4477
sI76
S'response.write(\'">\\n            \', escape=False)'
p4478
sI77
S"response.write('\\n', escape=False)"
p4479
sI78
S'arg = request.args[0]'
p4480
sI79
S'response.write(\'\\n\\n<ul class="breadcrumb">\\n        <li><a href="\', escape=False)'
p4481
sI80
S"response.write(URL('initial', '/show_cliente'))"
p4482
sI81
S'response.write(\'">Clientes</a> <span class="divider">/</span></li>\\n        <li><a href="\', escape=False)'
p4483
sI82
S"response.write(URL('initial', '/cliente_host', vars=dict(f=arg)))"
p4484
sI83
S'response.write(\'">Library</a> <span class="divider">/</span></li>\\n        <li class="active">Data</li>\\n      </ul>\\n\', escape=False)'
p4485
sI84
S'response.write(form)'
p4486
sI85
S"response.write('\\n', escape=False)"
p4487
sI86
S"response.write('\\n        </div>\\n\\n        ', escape=False)"
p4488
sI87
S'if right_sidebar_enabled:'
p4489
sI88
S'    response.write(\'\\n        <div class="span3">\\n            \', escape=False)'
p4490
ssg4463
S'()'
p4491
sg4465
S'<module>'
p4492
sasS'pyver'
p4493
S'Python 2.7.3: /usr/bin/python'
p4494
sS'session'
p4495
g57
(g58
g59
NtRp4496
(dp4497
g62
(dp4498
sg64
(lp4499
g57
(g66
g59
NtRp4500
(dp4501
g62
(dp4502
g70
I5
ssg71
Nsg64
(lp4503
g57
(g73
g59
NtRp4504
(dp4505
g62
(dp4506
sg71
g4500
sg64
(lp4507
g57
(g78
g59
NtRp4508
(dp4509
g62
(dp4510
g82
g83
ssg71
g4504
sg64
(lp4511
S'auth'
p4512
asbag57
(g78
g59
NtRp4513
(dp4514
g62
(dp4515
g89
g90
ssg71
g4504
sg64
(lp4516
S':'
asbag57
(g78
g59
NtRp4517
(dp4518
g62
(dp4519
sg71
g4504
sg64
(lp4520
g57
(g58
g59
NtRp4521
(dp4522
g62
(dp4523
g70
I5
ssg71
g4517
sg64
(lp4524
g57
(g66
g59
NtRp4525
(dp4526
g62
(dp4527
g70
I4
ssg71
Nsg64
(lp4528
g57
(g73
g59
NtRp4529
(dp4530
g62
(dp4531
sg71
g4525
sg64
(lp4532
g57
(g78
g59
NtRp4533
(dp4534
g62
(dp4535
g82
g83
ssg71
g4529
sg64
(lp4536
S'expiration'
p4537
asbag57
(g78
g59
NtRp4538
(dp4539
g62
(dp4540
g89
g90
ssg71
g4529
sg64
(lp4541
S':'
asbag57
(g78
g59
NtRp4542
(dp4543
g62
(dp4544
sg71
g4529
sg64
(lp4545
g57
(g58
g59
NtRp4546
(dp4547
g62
(dp4548
g70
I4
ssg71
g4542
sg64
(lp4549
S'3600'
p4550
asbasbasbag57
(g73
g59
NtRp4551
(dp4552
g62
(dp4553
sg71
g4525
sg64
(lp4554
g57
(g78
g59
NtRp4555
(dp4556
g62
(dp4557
g82
g83
ssg71
g4551
sg64
(lp4558
S'hmac_key'
p4559
asbag57
(g78
g59
NtRp4560
(dp4561
g62
(dp4562
g89
g90
ssg71
g4551
sg64
(lp4563
S':'
asbag57
(g78
g59
NtRp4564
(dp4565
g62
(dp4566
sg71
g4551
sg64
(lp4567
g57
(g58
g59
NtRp4568
(dp4569
g62
(dp4570
g70
I4
ssg71
g4564
sg64
(lp4571
S'f6917611-1221-426c-be6c-42a76c1537d9'
p4572
asbasbasbag57
(g73
g59
NtRp4573
(dp4574
g62
(dp4575
sg71
g4525
sg64
(lp4576
g57
(g78
g59
NtRp4577
(dp4578
g62
(dp4579
g82
g83
ssg71
g4573
sg64
(lp4580
S'last_visit'
p4581
asbag57
(g78
g59
NtRp4582
(dp4583
g62
(dp4584
g89
g90
ssg71
g4573
sg64
(lp4585
S':'
asbag57
(g78
g59
NtRp4586
(dp4587
g62
(dp4588
sg71
g4573
sg64
(lp4589
g57
(g58
g59
NtRp4590
(dp4591
g62
(dp4592
g70
I4
ssg71
g4586
sg64
(lp4593
S'datetime.datetime(2013, 2, 21, 9, 12, 57, 527683)'
p4594
asbasbasbag57
(g73
g59
NtRp4595
(dp4596
g62
(dp4597
sg71
g4525
sg64
(lp4598
g57
(g78
g59
NtRp4599
(dp4600
g62
(dp4601
g82
g83
ssg71
g4595
sg64
(lp4602
S'remember'
p4603
asbag57
(g78
g59
NtRp4604
(dp4605
g62
(dp4606
g89
g90
ssg71
g4595
sg64
(lp4607
S':'
asbag57
(g78
g59
NtRp4608
(dp4609
g62
(dp4610
sg71
g4595
sg64
(lp4611
g57
(g58
g59
NtRp4612
(dp4613
g62
(dp4614
g70
I4
ssg71
g4608
sg64
(lp4615
g100
asbasbasbag57
(g73
g59
NtRp4616
(dp4617
g62
(dp4618
sg71
g4525
sg64
(lp4619
g57
(g78
g59
NtRp4620
(dp4621
g62
(dp4622
g82
g83
ssg71
g4616
sg64
(lp4623
S'user'
p4624
asbag57
(g78
g59
NtRp4625
(dp4626
g62
(dp4627
g89
g90
ssg71
g4616
sg64
(lp4628
S':'
asbag57
(g78
g59
NtRp4629
(dp4630
g62
(dp4631
sg71
g4616
sg64
(lp4632
g57
(g58
g59
NtRp4633
(dp4634
g62
(dp4635
g70
I4
ssg71
g4629
sg64
(lp4636
g57
(g66
g59
NtRp4637
(dp4638
g62
(dp4639
g70
I3
ssg71
Nsg64
(lp4640
g57
(g73
g59
NtRp4641
(dp4642
g62
(dp4643
sg71
g4637
sg64
(lp4644
g57
(g78
g59
NtRp4645
(dp4646
g62
(dp4647
g82
g83
ssg71
g4641
sg64
(lp4648
S'bio'
p4649
asbag57
(g78
g59
NtRp4650
(dp4651
g62
(dp4652
g89
g90
ssg71
g4641
sg64
(lp4653
S':'
asbag57
(g78
g59
NtRp4654
(dp4655
g62
(dp4656
sg71
g4641
sg64
(lp4657
g57
(g58
g59
NtRp4658
(dp4659
g62
(dp4660
g70
I3
ssg71
g4654
sg64
(lp4661
S'eu'
p4662
asbasbasbag57
(g73
g59
NtRp4663
(dp4664
g62
(dp4665
sg71
g4637
sg64
(lp4666
g57
(g78
g59
NtRp4667
(dp4668
g62
(dp4669
g82
g83
ssg71
g4663
sg64
(lp4670
S'email'
p4671
asbag57
(g78
g59
NtRp4672
(dp4673
g62
(dp4674
g89
g90
ssg71
g4663
sg64
(lp4675
S':'
asbag57
(g78
g59
NtRp4676
(dp4677
g62
(dp4678
sg71
g4663
sg64
(lp4679
g57
(g58
g59
NtRp4680
(dp4681
g62
(dp4682
g70
I3
ssg71
g4676
sg64
(lp4683
S'fernando@ad2.com.br'
p4684
asbasbasbag57
(g73
g59
NtRp4685
(dp4686
g62
(dp4687
sg71
g4637
sg64
(lp4688
g57
(g78
g59
NtRp4689
(dp4690
g62
(dp4691
g82
g83
ssg71
g4685
sg64
(lp4692
S'first_name'
p4693
asbag57
(g78
g59
NtRp4694
(dp4695
g62
(dp4696
g89
g90
ssg71
g4685
sg64
(lp4697
S':'
asbag57
(g78
g59
NtRp4698
(dp4699
g62
(dp4700
sg71
g4685
sg64
(lp4701
g57
(g58
g59
NtRp4702
(dp4703
g62
(dp4704
g70
I3
ssg71
g4698
sg64
(lp4705
S'Fernando'
p4706
asbasbasbag57
(g73
g59
NtRp4707
(dp4708
g62
(dp4709
sg71
g4637
sg64
(lp4710
g57
(g78
g59
NtRp4711
(dp4712
g62
(dp4713
g82
g83
ssg71
g4707
sg64
(lp4714
S'gender'
p4715
asbag57
(g78
g59
NtRp4716
(dp4717
g62
(dp4718
g89
g90
ssg71
g4707
sg64
(lp4719
S':'
asbag57
(g78
g59
NtRp4720
(dp4721
g62
(dp4722
sg71
g4707
sg64
(lp4723
g57
(g58
g59
NtRp4724
(dp4725
g62
(dp4726
g70
I3
ssg71
g4720
sg64
(lp4727
S'masculino'
p4728
asbasbasbag57
(g73
g59
NtRp4729
(dp4730
g62
(dp4731
sg71
g4637
sg64
(lp4732
g57
(g78
g59
NtRp4733
(dp4734
g62
(dp4735
g82
g83
ssg71
g4729
sg64
(lp4736
S'id'
p4737
asbag57
(g78
g59
NtRp4738
(dp4739
g62
(dp4740
g89
g90
ssg71
g4729
sg64
(lp4741
S':'
asbag57
(g78
g59
NtRp4742
(dp4743
g62
(dp4744
sg71
g4729
sg64
(lp4745
g57
(g58
g59
NtRp4746
(dp4747
g62
(dp4748
g70
I3
ssg71
g4742
sg64
(lp4749
S'1'
asbasbasbag57
(g73
g59
NtRp4750
(dp4751
g62
(dp4752
sg71
g4637
sg64
(lp4753
g57
(g78
g59
NtRp4754
(dp4755
g62
(dp4756
g82
g83
ssg71
g4750
sg64
(lp4757
S'last_name'
p4758
asbag57
(g78
g59
NtRp4759
(dp4760
g62
(dp4761
g89
g90
ssg71
g4750
sg64
(lp4762
S':'
asbag57
(g78
g59
NtRp4763
(dp4764
g62
(dp4765
sg71
g4750
sg64
(lp4766
g57
(g58
g59
NtRp4767
(dp4768
g62
(dp4769
g70
I3
ssg71
g4763
sg64
(lp4770
S'Vieira'
p4771
asbasbasbag57
(g73
g59
NtRp4772
(dp4773
g62
(dp4774
sg71
g4637
sg64
(lp4775
g57
(g78
g59
NtRp4776
(dp4777
g62
(dp4778
g82
g83
ssg71
g4772
sg64
(lp4779
S'photo'
p4780
asbag57
(g78
g59
NtRp4781
(dp4782
g62
(dp4783
g89
g90
ssg71
g4772
sg64
(lp4784
S':'
asbag57
(g78
g59
NtRp4785
(dp4786
g62
(dp4787
sg71
g4772
sg64
(lp4788
g57
(g58
g59
NtRp4789
(dp4790
g62
(dp4791
g70
I3
ssg71
g4785
sg64
(lp4792
S'auth_user.photo.8d19308e71e5fcad.73796e637765622e706e67.png'
p4793
asbasbasbag57
(g73
g59
NtRp4794
(dp4795
g62
(dp4796
sg71
g4637
sg64
(lp4797
g57
(g78
g59
NtRp4798
(dp4799
g62
(dp4800
g82
g83
ssg71
g4794
sg64
(lp4801
S'registration_id'
p4802
asbag57
(g78
g59
NtRp4803
(dp4804
g62
(dp4805
g89
g90
ssg71
g4794
sg64
(lp4806
S':'
asbag57
(g78
g59
NtRp4807
(dp4808
g62
(dp4809
sg71
g4794
sg64
(lp4810
g57
(g58
g59
NtRp4811
(dp4812
g62
(dp4813
g70
I3
ssg71
g4807
sg64
(lp4814
S''
asbasbasbag57
(g73
g59
NtRp4815
(dp4816
g62
(dp4817
sg71
g4637
sg64
(lp4818
g57
(g78
g59
NtRp4819
(dp4820
g62
(dp4821
g82
g83
ssg71
g4815
sg64
(lp4822
S'registration_key'
p4823
asbag57
(g78
g59
NtRp4824
(dp4825
g62
(dp4826
g89
g90
ssg71
g4815
sg64
(lp4827
S':'
asbag57
(g78
g59
NtRp4828
(dp4829
g62
(dp4830
sg71
g4815
sg64
(lp4831
g57
(g58
g59
NtRp4832
(dp4833
g62
(dp4834
g70
I3
ssg71
g4828
sg64
(lp4835
S''
asbasbasbag57
(g73
g59
NtRp4836
(dp4837
g62
(dp4838
sg71
g4637
sg64
(lp4839
g57
(g78
g59
NtRp4840
(dp4841
g62
(dp4842
g82
g83
ssg71
g4836
sg64
(lp4843
S'reset_password_key'
p4844
asbag57
(g78
g59
NtRp4845
(dp4846
g62
(dp4847
g89
g90
ssg71
g4836
sg64
(lp4848
S':'
asbag57
(g78
g59
NtRp4849
(dp4850
g62
(dp4851
sg71
g4836
sg64
(lp4852
g57
(g58
g59
NtRp4853
(dp4854
g62
(dp4855
g70
I3
ssg71
g4849
sg64
(lp4856
S''
asbasbasbasbasbasbasbag57
(g73
g59
NtRp4857
(dp4858
g62
(dp4859
sg71
g4525
sg64
(lp4860
g57
(g78
g59
NtRp4861
(dp4862
g62
(dp4863
g82
g83
ssg71
g4857
sg64
(lp4864
S'user_groups'
p4865
asbag57
(g78
g59
NtRp4866
(dp4867
g62
(dp4868
g89
g90
ssg71
g4857
sg64
(lp4869
S':'
asbag57
(g78
g59
NtRp4870
(dp4871
g62
(dp4872
sg71
g4857
sg64
(lp4873
g57
(g58
g59
NtRp4874
(dp4875
g62
(dp4876
g70
I4
ssg71
g4870
sg64
(lp4877
g57
(g66
g59
NtRp4878
(dp4879
g62
(dp4880
g70
I3
ssg71
Nsg64
(lp4881
g57
(g73
g59
NtRp4882
(dp4883
g62
(dp4884
sg71
g4878
sg64
(lp4885
g57
(g78
g59
NtRp4886
(dp4887
g62
(dp4888
g82
g83
ssg71
g4882
sg64
(lp4889
S'1'
asbag57
(g78
g59
NtRp4890
(dp4891
g62
(dp4892
g89
g90
ssg71
g4882
sg64
(lp4893
S':'
asbag57
(g78
g59
NtRp4894
(dp4895
g62
(dp4896
sg71
g4882
sg64
(lp4897
g57
(g58
g59
NtRp4898
(dp4899
g62
(dp4900
g70
I3
ssg71
g4894
sg64
(lp4901
S'user_1'
p4902
asbasbasbag57
(g73
g59
NtRp4903
(dp4904
g62
(dp4905
sg71
g4878
sg64
(lp4906
g57
(g78
g59
NtRp4907
(dp4908
g62
(dp4909
g82
g83
ssg71
g4903
sg64
(lp4910
S'8'
asbag57
(g78
g59
NtRp4911
(dp4912
g62
(dp4913
g89
g90
ssg71
g4903
sg64
(lp4914
S':'
asbag57
(g78
g59
NtRp4915
(dp4916
g62
(dp4917
sg71
g4903
sg64
(lp4918
g57
(g58
g59
NtRp4919
(dp4920
g62
(dp4921
g70
I3
ssg71
g4915
sg64
(lp4922
S'admin'
p4923
asbasbasbasbasbasbasbasbasbasbasbag57
(g73
g59
NtRp4924
(dp4925
g62
(dp4926
sg71
g4500
sg64
(lp4927
g57
(g78
g59
NtRp4928
(dp4929
g62
(dp4930
g82
g83
ssg71
g4924
sg64
(lp4931
S'flash'
p4932
asbag57
(g78
g59
NtRp4933
(dp4934
g62
(dp4935
g89
g90
ssg71
g4924
sg64
(lp4936
S':'
asbag57
(g78
g59
NtRp4937
(dp4938
g62
(dp4939
sg71
g4924
sg64
(lp4940
g57
(g58
g59
NtRp4941
(dp4942
g62
(dp4943
g70
I5
ssg71
g4937
sg64
(lp4944
S'None'
p4945
asbasbasbasbasbsS'etype'
p4946
S"<type 'exceptions.IndexError'>"
p4947
sS'date'
p4948
S'Thu Feb 21 09:15:35 2013'
p4949
sS'response'
p4950
g57
(g58
g59
NtRp4951
(dp4952
g62
(dp4953
sg64
(lp4954
g57
(g66
g59
NtRp4955
(dp4956
g62
(dp4957
g70
I5
ssg71
Nsg64
(lp4958
g57
(g73
g59
NtRp4959
(dp4960
g62
(dp4961
sg71
g4955
sg64
(lp4962
g57
(g78
g59
NtRp4963
(dp4964
g62
(dp4965
g82
g83
ssg71
g4959
sg64
(lp4966
g155
asbag57
(g78
g59
NtRp4967
(dp4968
g62
(dp4969
g89
g90
ssg71
g4959
sg64
(lp4970
S':'
asbag57
(g78
g59
NtRp4971
(dp4972
g62
(dp4973
sg71
g4959
sg64
(lp4974
g57
(g58
g59
NtRp4975
(dp4976
g62
(dp4977
g70
I5
ssg71
g4971
sg64
(lp4978
S'<cStringIO.StringO object at 0x7fe50c21cb20>'
p4979
asbasbasbag57
(g73
g59
NtRp4980
(dp4981
g62
(dp4982
sg71
g4955
sg64
(lp4983
g57
(g78
g59
NtRp4984
(dp4985
g62
(dp4986
g82
g83
ssg71
g4980
sg64
(lp4987
g243
asbag57
(g78
g59
NtRp4988
(dp4989
g62
(dp4990
g89
g90
ssg71
g4980
sg64
(lp4991
S':'
asbag57
(g78
g59
NtRp4992
(dp4993
g62
(dp4994
sg71
g4980
sg64
(lp4995
g57
(g58
g59
NtRp4996
(dp4997
g62
(dp4998
g70
I5
ssg71
g4992
sg64
(lp4999
g57
(g66
g59
NtRp5000
(dp5001
g62
(dp5002
g70
I4
ssg71
Nsg64
(lp5003
g57
(g73
g59
NtRp5004
(dp5005
g62
(dp5006
sg71
g5000
sg64
(lp5007
g57
(g78
g59
NtRp5008
(dp5009
g62
(dp5010
g82
g83
ssg71
g5004
sg64
(lp5011
S'session_id_projeto'
p5012
asbag57
(g78
g59
NtRp5013
(dp5014
g62
(dp5015
g89
g90
ssg71
g5004
sg64
(lp5016
S':'
asbag57
(g78
g59
NtRp5017
(dp5018
g62
(dp5019
sg71
g5004
sg64
(lp5020
g57
(g58
g59
NtRp5021
(dp5022
g62
(dp5023
g70
I4
ssg71
g5017
sg64
(lp5024
g1589
ag57
(g66
g59
NtRp5025
(dp5026
g62
(dp5027
g70
I3
ssg71
Nsg64
(lp5028
g57
(g73
g59
NtRp5029
(dp5030
g62
(dp5031
sg71
g5025
sg64
(lp5032
g57
(g78
g59
NtRp5033
(dp5034
g62
(dp5035
g82
g83
ssg71
g5029
sg64
(lp5036
g294
asbag57
(g78
g59
NtRp5037
(dp5038
g62
(dp5039
g89
g90
ssg71
g5029
sg64
(lp5040
S':'
asbag57
(g78
g59
NtRp5041
(dp5042
g62
(dp5043
sg71
g5029
sg64
(lp5044
g57
(g58
g59
NtRp5045
(dp5046
g62
(dp5047
g70
I3
ssg71
g5041
sg64
(lp5048
S''
asbasbasbag57
(g73
g59
NtRp5049
(dp5050
g62
(dp5051
sg71
g5025
sg64
(lp5052
g57
(g78
g59
NtRp5053
(dp5054
g62
(dp5055
g82
g83
ssg71
g5049
sg64
(lp5056
g315
asbag57
(g78
g59
NtRp5057
(dp5058
g62
(dp5059
g89
g90
ssg71
g5049
sg64
(lp5060
S':'
asbag57
(g78
g59
NtRp5061
(dp5062
g62
(dp5063
sg71
g5049
sg64
(lp5064
g57
(g58
g59
NtRp5065
(dp5066
g62
(dp5067
g70
I3
ssg71
g5061
sg64
(lp5068
S''
asbasbasbag57
(g73
g59
NtRp5069
(dp5070
g62
(dp5071
sg71
g5025
sg64
(lp5072
g57
(g78
g59
NtRp5073
(dp5074
g62
(dp5075
g82
g83
ssg71
g5069
sg64
(lp5076
g336
asbag57
(g78
g59
NtRp5077
(dp5078
g62
(dp5079
g89
g90
ssg71
g5069
sg64
(lp5080
S':'
asbag57
(g78
g59
NtRp5081
(dp5082
g62
(dp5083
sg71
g5069
sg64
(lp5084
g57
(g58
g59
NtRp5085
(dp5086
g62
(dp5087
g70
I3
ssg71
g5081
sg64
(lp5088
S''
asbasbasbag57
(g73
g59
NtRp5089
(dp5090
g62
(dp5091
sg71
g5025
sg64
(lp5092
g57
(g78
g59
NtRp5093
(dp5094
g62
(dp5095
g82
g83
ssg71
g5089
sg64
(lp5096
g357
asbag57
(g78
g59
NtRp5097
(dp5098
g62
(dp5099
g89
g90
ssg71
g5089
sg64
(lp5100
S':'
asbag57
(g78
g59
NtRp5101
(dp5102
g62
(dp5103
sg71
g5089
sg64
(lp5104
g57
(g58
g59
NtRp5105
(dp5106
g62
(dp5107
g70
I3
ssg71
g5101
sg64
(lp5108
S''
asbasbasbag57
(g73
g59
NtRp5109
(dp5110
g62
(dp5111
sg71
g5025
sg64
(lp5112
g57
(g78
g59
NtRp5113
(dp5114
g62
(dp5115
g82
g83
ssg71
g5109
sg64
(lp5116
g378
asbag57
(g78
g59
NtRp5117
(dp5118
g62
(dp5119
g89
g90
ssg71
g5109
sg64
(lp5120
S':'
asbag57
(g78
g59
NtRp5121
(dp5122
g62
(dp5123
sg71
g5109
sg64
(lp5124
g57
(g58
g59
NtRp5125
(dp5126
g62
(dp5127
g70
I3
ssg71
g5121
sg64
(lp5128
S''
asbasbasbag57
(g73
g59
NtRp5129
(dp5130
g62
(dp5131
sg71
g5025
sg64
(lp5132
g57
(g78
g59
NtRp5133
(dp5134
g62
(dp5135
g82
g83
ssg71
g5129
sg64
(lp5136
g399
asbag57
(g78
g59
NtRp5137
(dp5138
g62
(dp5139
g89
g90
ssg71
g5129
sg64
(lp5140
S':'
asbag57
(g78
g59
NtRp5141
(dp5142
g62
(dp5143
sg71
g5129
sg64
(lp5144
g57
(g58
g59
NtRp5145
(dp5146
g62
(dp5147
g70
I3
ssg71
g5141
sg64
(lp5148
S'/'
asbasbasbag57
(g73
g59
NtRp5149
(dp5150
g62
(dp5151
sg71
g5025
sg64
(lp5152
g57
(g78
g59
NtRp5153
(dp5154
g62
(dp5155
g82
g83
ssg71
g5149
sg64
(lp5156
g420
asbag57
(g78
g59
NtRp5157
(dp5158
g62
(dp5159
g89
g90
ssg71
g5149
sg64
(lp5160
S':'
asbag57
(g78
g59
NtRp5161
(dp5162
g62
(dp5163
sg71
g5149
sg64
(lp5164
g57
(g58
g59
NtRp5165
(dp5166
g62
(dp5167
g70
I3
ssg71
g5161
sg64
(lp5168
S''
asbasbasbag57
(g73
g59
NtRp5169
(dp5170
g62
(dp5171
sg71
g5025
sg64
(lp5172
g57
(g78
g59
NtRp5173
(dp5174
g62
(dp5175
g82
g83
ssg71
g5169
sg64
(lp5176
g441
asbag57
(g78
g59
NtRp5177
(dp5178
g62
(dp5179
g89
g90
ssg71
g5169
sg64
(lp5180
S':'
asbag57
(g78
g59
NtRp5181
(dp5182
g62
(dp5183
sg71
g5169
sg64
(lp5184
g57
(g58
g59
NtRp5185
(dp5186
g62
(dp5187
g70
I3
ssg71
g5181
sg64
(lp5188
S''
asbasbasbasbasbasbasbasbasbasbasbag57
(g73
g59
NtRp5189
(dp5190
g62
(dp5191
sg71
g4955
sg64
(lp5192
g57
(g78
g59
NtRp5193
(dp5194
g62
(dp5195
g82
g83
ssg71
g5189
sg64
(lp5196
S'delimiters'
p5197
asbag57
(g78
g59
NtRp5198
(dp5199
g62
(dp5200
g89
g90
ssg71
g5189
sg64
(lp5201
S':'
asbag57
(g78
g59
NtRp5202
(dp5203
g62
(dp5204
sg71
g5189
sg64
(lp5205
g57
(g58
g59
NtRp5206
(dp5207
g62
(dp5208
g70
I5
ssg71
g5202
sg64
(lp5209
g57
(g66
g59
NtRp5210
(dp5211
g62
(dp5212
g70
I4
ssg71
Nsg64
(lp5213
g57
(g73
g59
NtRp5214
(dp5215
g62
(dp5216
sg71
g5210
sg64
(lp5217
g57
(g78
g59
NtRp5218
(dp5219
g62
(dp5220
sg71
g5214
sg64
(lp5221
g57
(g58
g59
NtRp5222
(dp5223
g62
(dp5224
g70
I4
ssg71
g5218
sg64
(lp5225
S'{{'
p5226
asbasbasbag57
(g73
g59
NtRp5227
(dp5228
g62
(dp5229
sg71
g5210
sg64
(lp5230
g57
(g78
g59
NtRp5231
(dp5232
g62
(dp5233
sg71
g5227
sg64
(lp5234
g57
(g58
g59
NtRp5235
(dp5236
g62
(dp5237
g70
I4
ssg71
g5231
sg64
(lp5238
S'}}'
p5239
asbasbasbasbasbasbasbag57
(g73
g59
NtRp5240
(dp5241
g62
(dp5242
sg71
g4955
sg64
(lp5243
g57
(g78
g59
NtRp5244
(dp5245
g62
(dp5246
g82
g83
ssg71
g5240
sg64
(lp5247
S'files'
p5248
asbag57
(g78
g59
NtRp5249
(dp5250
g62
(dp5251
g89
g90
ssg71
g5240
sg64
(lp5252
S':'
asbag57
(g78
g59
NtRp5253
(dp5254
g62
(dp5255
sg71
g5240
sg64
(lp5256
g57
(g58
g59
NtRp5257
(dp5258
g62
(dp5259
g70
I5
ssg71
g5253
sg64
(lp5260
g57
(g66
g59
NtRp5261
(dp5262
g62
(dp5263
g70
I4
ssg71
Nsg64
(lp5264
g57
(g73
g59
NtRp5265
(dp5266
g62
(dp5267
sg71
g5261
sg64
(lp5268
g57
(g78
g59
NtRp5269
(dp5270
g62
(dp5271
sg71
g5265
sg64
(lp5272
g57
(g58
g59
NtRp5273
(dp5274
g62
(dp5275
g70
I4
ssg71
g5269
sg64
(lp5276
S'/projeto/static/js/jquery.js'
p5277
asbasbasbag57
(g73
g59
NtRp5278
(dp5279
g62
(dp5280
sg71
g5261
sg64
(lp5281
g57
(g78
g59
NtRp5282
(dp5283
g62
(dp5284
sg71
g5278
sg64
(lp5285
g57
(g58
g59
NtRp5286
(dp5287
g62
(dp5288
g70
I4
ssg71
g5282
sg64
(lp5289
S'/projeto/static/css/calendar.css'
p5290
asbasbasbag57
(g73
g59
NtRp5291
(dp5292
g62
(dp5293
sg71
g5261
sg64
(lp5294
g57
(g78
g59
NtRp5295
(dp5296
g62
(dp5297
sg71
g5291
sg64
(lp5298
g57
(g58
g59
NtRp5299
(dp5300
g62
(dp5301
g70
I4
ssg71
g5295
sg64
(lp5302
S'/projeto/static/js/calendar.js'
p5303
asbasbasbag57
(g73
g59
NtRp5304
(dp5305
g62
(dp5306
sg71
g5261
sg64
(lp5307
g57
(g78
g59
NtRp5308
(dp5309
g62
(dp5310
sg71
g5304
sg64
(lp5311
g57
(g58
g59
NtRp5312
(dp5313
g62
(dp5314
g70
I4
ssg71
g5308
sg64
(lp5315
S'/projeto/static/js/web2py.js'
p5316
asbasbasbag57
(g73
g59
NtRp5317
(dp5318
g62
(dp5319
sg71
g5261
sg64
(lp5320
g57
(g78
g59
NtRp5321
(dp5322
g62
(dp5323
sg71
g5317
sg64
(lp5324
g57
(g58
g59
NtRp5325
(dp5326
g62
(dp5327
g70
I4
ssg71
g5321
sg64
(lp5328
S'/projeto/static/css/web2py.css'
p5329
asbasbasbag57
(g73
g59
NtRp5330
(dp5331
g62
(dp5332
sg71
g5261
sg64
(lp5333
g57
(g78
g59
NtRp5334
(dp5335
g62
(dp5336
sg71
g5330
sg64
(lp5337
g57
(g58
g59
NtRp5338
(dp5339
g62
(dp5340
g70
I4
ssg71
g5334
sg64
(lp5341
S'/projeto/static/css/bootstrap.min.css'
p5342
asbasbasbag57
(g73
g59
NtRp5343
(dp5344
g62
(dp5345
sg71
g5261
sg64
(lp5346
g57
(g78
g59
NtRp5347
(dp5348
g62
(dp5349
sg71
g5343
sg64
(lp5350
g57
(g58
g59
NtRp5351
(dp5352
g62
(dp5353
g70
I4
ssg71
g5347
sg64
(lp5354
S'/projeto/static/css/bootstrap-responsive.min.css'
p5355
asbasbasbag57
(g73
g59
NtRp5356
(dp5357
g62
(dp5358
sg71
g5261
sg64
(lp5359
g57
(g78
g59
NtRp5360
(dp5361
g62
(dp5362
sg71
g5356
sg64
(lp5363
g57
(g58
g59
NtRp5364
(dp5365
g62
(dp5366
g70
I4
ssg71
g5360
sg64
(lp5367
S'/projeto/static/css/web2py_bootstrap.css'
p5368
asbasbasbasbasbasbasbag57
(g73
g59
NtRp5369
(dp5370
g62
(dp5371
sg71
g4955
sg64
(lp5372
g57
(g78
g59
NtRp5373
(dp5374
g62
(dp5375
g82
g83
ssg71
g5369
sg64
(lp5376
S'flash'
p5377
asbag57
(g78
g59
NtRp5378
(dp5379
g62
(dp5380
g89
g90
ssg71
g5369
sg64
(lp5381
S':'
asbag57
(g78
g59
NtRp5382
(dp5383
g62
(dp5384
sg71
g5369
sg64
(lp5385
g57
(g58
g59
NtRp5386
(dp5387
g62
(dp5388
g70
I5
ssg71
g5382
sg64
(lp5389
S''
asbasbasbag57
(g73
g59
NtRp5390
(dp5391
g62
(dp5392
sg71
g4955
sg64
(lp5393
g57
(g78
g59
NtRp5394
(dp5395
g62
(dp5396
g82
g83
ssg71
g5390
sg64
(lp5397
S'generic_patterns'
p5398
asbag57
(g78
g59
NtRp5399
(dp5400
g62
(dp5401
g89
g90
ssg71
g5390
sg64
(lp5402
S':'
asbag57
(g78
g59
NtRp5403
(dp5404
g62
(dp5405
sg71
g5390
sg64
(lp5406
g57
(g58
g59
NtRp5407
(dp5408
g62
(dp5409
g70
I5
ssg71
g5403
sg64
(lp5410
g57
(g66
g59
NtRp5411
(dp5412
g62
(dp5413
g70
I4
ssg71
Nsg64
(lp5414
g57
(g73
g59
NtRp5415
(dp5416
g62
(dp5417
sg71
g5411
sg64
(lp5418
g57
(g78
g59
NtRp5419
(dp5420
g62
(dp5421
sg71
g5415
sg64
(lp5422
g57
(g58
g59
NtRp5423
(dp5424
g62
(dp5425
g70
I4
ssg71
g5419
sg64
(lp5426
S'*'
asbasbasbasbasbasbasbag57
(g73
g59
NtRp5427
(dp5428
g62
(dp5429
sg71
g4955
sg64
(lp5430
g57
(g78
g59
NtRp5431
(dp5432
g62
(dp5433
g82
g83
ssg71
g5427
sg64
(lp5434
S'google_analytics_id'
p5435
asbag57
(g78
g59
NtRp5436
(dp5437
g62
(dp5438
g89
g90
ssg71
g5427
sg64
(lp5439
S':'
asbag57
(g78
g59
NtRp5440
(dp5441
g62
(dp5442
sg71
g5427
sg64
(lp5443
g57
(g58
g59
NtRp5444
(dp5445
g62
(dp5446
g70
I5
ssg71
g5440
sg64
(lp5447
S'None'
p5448
asbasbasbag57
(g73
g59
NtRp5449
(dp5450
g62
(dp5451
sg71
g4955
sg64
(lp5452
g57
(g78
g59
NtRp5453
(dp5454
g62
(dp5455
g82
g83
ssg71
g5449
sg64
(lp5456
S'headers'
p5457
asbag57
(g78
g59
NtRp5458
(dp5459
g62
(dp5460
g89
g90
ssg71
g5449
sg64
(lp5461
S':'
asbag57
(g78
g59
NtRp5462
(dp5463
g62
(dp5464
sg71
g5449
sg64
(lp5465
g57
(g58
g59
NtRp5466
(dp5467
g62
(dp5468
g70
I5
ssg71
g5462
sg64
(lp5469
g57
(g66
g59
NtRp5470
(dp5471
g62
(dp5472
g70
I4
ssg71
Nsg64
(lp5473
g57
(g73
g59
NtRp5474
(dp5475
g62
(dp5476
sg71
g5470
sg64
(lp5477
g57
(g78
g59
NtRp5478
(dp5479
g62
(dp5480
g82
g83
ssg71
g5474
sg64
(lp5481
S'X-Powered-By'
p5482
asbag57
(g78
g59
NtRp5483
(dp5484
g62
(dp5485
g89
g90
ssg71
g5474
sg64
(lp5486
S':'
asbag57
(g78
g59
NtRp5487
(dp5488
g62
(dp5489
sg71
g5474
sg64
(lp5490
g57
(g58
g59
NtRp5491
(dp5492
g62
(dp5493
g70
I4
ssg71
g5487
sg64
(lp5494
S'web2py'
p5495
asbasbasbasbasbasbasbag57
(g73
g59
NtRp5496
(dp5497
g62
(dp5498
sg71
g4955
sg64
(lp5499
g57
(g78
g59
NtRp5500
(dp5501
g62
(dp5502
g82
g83
ssg71
g5496
sg64
(lp5503
S'logo'
p5504
asbag57
(g78
g59
NtRp5505
(dp5506
g62
(dp5507
g89
g90
ssg71
g5496
sg64
(lp5508
S':'
asbag57
(g78
g59
NtRp5509
(dp5510
g62
(dp5511
sg71
g5496
sg64
(lp5512
g57
(g58
g59
NtRp5513
(dp5514
g62
(dp5515
g70
I5
ssg71
g5509
sg64
(lp5516
g57
(cgluon.html
A
p5517
g59
NtRp5518
(dp5519
g62
(dp5520
S'_class'
p5521
S'brand'
p5522
sS'_href'
p5523
S''
ssg71
Nsg64
(lp5524
g57
(cgluon.html
B
p5525
g59
NtRp5526
(dp5527
g62
(dp5528
sg71
g5518
sg64
(lp5529
S'hosts'
p5530
ag57
(cgluon.html
SPAN
p5531
g59
NtRp5532
(dp5533
g62
(dp5534
sg71
g5526
sg64
(lp5535
S'3'
asbaS''
asbacgluon.html
XML_unpickle
p5536
(S's\r\x00\x00\x00&trade;&nbsp;'
tRp5537
asbasbasbasbag57
(g73
g59
NtRp5538
(dp5539
g62
(dp5540
sg71
g4955
sg64
(lp5541
g57
(g78
g59
NtRp5542
(dp5543
g62
(dp5544
g82
g83
ssg71
g5538
sg64
(lp5545
S'menu'
p5546
asbag57
(g78
g59
NtRp5547
(dp5548
g62
(dp5549
g89
g90
ssg71
g5538
sg64
(lp5550
S':'
asbag57
(g78
g59
NtRp5551
(dp5552
g62
(dp5553
sg71
g5538
sg64
(lp5554
g57
(g58
g59
NtRp5555
(dp5556
g62
(dp5557
g70
I5
ssg71
g5551
sg64
(lp5558
g57
(g66
g59
NtRp5559
(dp5560
g62
(dp5561
g70
I4
ssg71
Nsg64
(lp5562
g57
(g73
g59
NtRp5563
(dp5564
g62
(dp5565
sg71
g5559
sg64
(lp5566
g57
(g78
g59
NtRp5567
(dp5568
g62
(dp5569
sg71
g5563
sg64
(lp5570
g57
(g58
g59
NtRp5571
(dp5572
g62
(dp5573
g70
I4
ssg71
g5567
sg64
(lp5574
g57
(g66
g59
NtRp5575
(dp5576
g62
(dp5577
g70
I3
ssg71
Nsg64
(lp5578
g57
(g73
g59
NtRp5579
(dp5580
g62
(dp5581
sg71
g5575
sg64
(lp5582
g57
(g78
g59
NtRp5583
(dp5584
g62
(dp5585
sg71
g5579
sg64
(lp5586
g57
(g58
g59
NtRp5587
(dp5588
g62
(dp5589
g70
I3
ssg71
g5583
sg64
(lp5590
cgluon.languages
lazyT_unpickle
p5591
(S't\x08\x00\x00\x00Clientes'
tRp5592
asbasbasbag57
(g73
g59
NtRp5593
(dp5594
g62
(dp5595
sg71
g5575
sg64
(lp5596
g57
(g78
g59
NtRp5597
(dp5598
g62
(dp5599
sg71
g5593
sg64
(lp5600
g57
(g58
g59
NtRp5601
(dp5602
g62
(dp5603
g70
I3
ssg71
g5597
sg64
(lp5604
g100
asbasbasbag57
(g73
g59
NtRp5605
(dp5606
g62
(dp5607
sg71
g5575
sg64
(lp5608
g57
(g78
g59
NtRp5609
(dp5610
g62
(dp5611
sg71
g5605
sg64
(lp5612
g57
(g58
g59
NtRp5613
(dp5614
g62
(dp5615
g70
I3
ssg71
g5609
sg64
(lp5616
S'/'
asbasbasbag57
(g73
g59
NtRp5617
(dp5618
g62
(dp5619
sg71
g5575
sg64
(lp5620
g57
(g78
g59
NtRp5621
(dp5622
g62
(dp5623
sg71
g5617
sg64
(lp5624
g57
(g58
g59
NtRp5625
(dp5626
g62
(dp5627
g70
I3
ssg71
g5621
sg64
(lp5628
g57
(g66
g59
NtRp5629
(dp5630
g62
(dp5631
g70
I2
ssg71
Nsg64
(lp5632
sbasbasbasbasbasbasbasbag57
(g73
g59
NtRp5633
(dp5634
g62
(dp5635
sg71
g5559
sg64
(lp5636
g57
(g78
g59
NtRp5637
(dp5638
g62
(dp5639
sg71
g5633
sg64
(lp5640
g57
(g58
g59
NtRp5641
(dp5642
g62
(dp5643
g70
I4
ssg71
g5637
sg64
(lp5644
g57
(g66
g59
NtRp5645
(dp5646
g62
(dp5647
g70
I3
ssg71
Nsg64
(lp5648
g57
(g73
g59
NtRp5649
(dp5650
g62
(dp5651
sg71
g5645
sg64
(lp5652
g57
(g78
g59
NtRp5653
(dp5654
g62
(dp5655
sg71
g5649
sg64
(lp5656
g57
(g58
g59
NtRp5657
(dp5658
g62
(dp5659
g70
I3
ssg71
g5653
sg64
(lp5660
g5591
(S't\n\x00\x00\x00Servidores'
tRp5661
asbasbasbag57
(g73
g59
NtRp5662
(dp5663
g62
(dp5664
sg71
g5645
sg64
(lp5665
g57
(g78
g59
NtRp5666
(dp5667
g62
(dp5668
sg71
g5662
sg64
(lp5669
g57
(g58
g59
NtRp5670
(dp5671
g62
(dp5672
g70
I3
ssg71
g5666
sg64
(lp5673
g100
asbasbasbag57
(g73
g59
NtRp5674
(dp5675
g62
(dp5676
sg71
g5645
sg64
(lp5677
g57
(g78
g59
NtRp5678
(dp5679
g62
(dp5680
sg71
g5674
sg64
(lp5681
g57
(g58
g59
NtRp5682
(dp5683
g62
(dp5684
g70
I3
ssg71
g5678
sg64
(lp5685
S'/show_servidor'
p5686
asbasbasbag57
(g73
g59
NtRp5687
(dp5688
g62
(dp5689
sg71
g5645
sg64
(lp5690
g57
(g78
g59
NtRp5691
(dp5692
g62
(dp5693
sg71
g5687
sg64
(lp5694
g57
(g58
g59
NtRp5695
(dp5696
g62
(dp5697
g70
I3
ssg71
g5691
sg64
(lp5698
g57
(g66
g59
NtRp5699
(dp5700
g62
(dp5701
g70
I2
ssg71
Nsg64
(lp5702
sbasbasbasbasbasbasbasbag57
(g73
g59
NtRp5703
(dp5704
g62
(dp5705
sg71
g5559
sg64
(lp5706
g57
(g78
g59
NtRp5707
(dp5708
g62
(dp5709
sg71
g5703
sg64
(lp5710
g57
(g58
g59
NtRp5711
(dp5712
g62
(dp5713
g70
I4
ssg71
g5707
sg64
(lp5714
g57
(g66
g59
NtRp5715
(dp5716
g62
(dp5717
g70
I3
ssg71
Nsg64
(lp5718
g57
(g73
g59
NtRp5719
(dp5720
g62
(dp5721
sg71
g5715
sg64
(lp5722
g57
(g78
g59
NtRp5723
(dp5724
g62
(dp5725
sg71
g5719
sg64
(lp5726
g57
(g58
g59
NtRp5727
(dp5728
g62
(dp5729
g70
I3
ssg71
g5723
sg64
(lp5730
g5591
(S't\x07\x00\x00\x00Distros'
tRp5731
asbasbasbag57
(g73
g59
NtRp5732
(dp5733
g62
(dp5734
sg71
g5715
sg64
(lp5735
g57
(g78
g59
NtRp5736
(dp5737
g62
(dp5738
sg71
g5732
sg64
(lp5739
g57
(g58
g59
NtRp5740
(dp5741
g62
(dp5742
g70
I3
ssg71
g5736
sg64
(lp5743
g100
asbasbasbag57
(g73
g59
NtRp5744
(dp5745
g62
(dp5746
sg71
g5715
sg64
(lp5747
g57
(g78
g59
NtRp5748
(dp5749
g62
(dp5750
sg71
g5744
sg64
(lp5751
g57
(g58
g59
NtRp5752
(dp5753
g62
(dp5754
g70
I3
ssg71
g5748
sg64
(lp5755
S'/show_distro'
p5756
asbasbasbag57
(g73
g59
NtRp5757
(dp5758
g62
(dp5759
sg71
g5715
sg64
(lp5760
g57
(g78
g59
NtRp5761
(dp5762
g62
(dp5763
sg71
g5757
sg64
(lp5764
g57
(g58
g59
NtRp5765
(dp5766
g62
(dp5767
g70
I3
ssg71
g5761
sg64
(lp5768
g57
(g66
g59
NtRp5769
(dp5770
g62
(dp5771
g70
I2
ssg71
Nsg64
(lp5772
sbasbasbasbasbasbasbasbasbasbasbasbag57
(g73
g59
NtRp5773
(dp5774
g62
(dp5775
sg71
g4955
sg64
(lp5776
g57
(g78
g59
NtRp5777
(dp5778
g62
(dp5779
g82
g83
ssg71
g5773
sg64
(lp5780
S'menu2'
p5781
asbag57
(g78
g59
NtRp5782
(dp5783
g62
(dp5784
g89
g90
ssg71
g5773
sg64
(lp5785
S':'
asbag57
(g78
g59
NtRp5786
(dp5787
g62
(dp5788
sg71
g5773
sg64
(lp5789
g57
(g58
g59
NtRp5790
(dp5791
g62
(dp5792
g70
I5
ssg71
g5786
sg64
(lp5793
g57
(g66
g59
NtRp5794
(dp5795
g62
(dp5796
g70
I4
ssg71
Nsg64
(lp5797
g57
(g73
g59
NtRp5798
(dp5799
g62
(dp5800
sg71
g5794
sg64
(lp5801
g57
(g78
g59
NtRp5802
(dp5803
g62
(dp5804
sg71
g5798
sg64
(lp5805
g57
(g58
g59
NtRp5806
(dp5807
g62
(dp5808
g70
I4
ssg71
g5802
sg64
(lp5809
g57
(g66
g59
NtRp5810
(dp5811
g62
(dp5812
g70
I3
ssg71
Nsg64
(lp5813
g57
(g73
g59
NtRp5814
(dp5815
g62
(dp5816
sg71
g5810
sg64
(lp5817
g57
(g78
g59
NtRp5818
(dp5819
g62
(dp5820
sg71
g5814
sg64
(lp5821
g57
(g58
g59
NtRp5822
(dp5823
g62
(dp5824
g70
I3
ssg71
g5818
sg64
(lp5825
g57
(g5531
g59
NtRp5826
(dp5827
g62
(dp5828
g5521
S'dropdown-toggle'
p5829
ssg71
g57
(g5517
g59
NtRp5830
(dp5831
g62
(dp5832
g5523
S'#'
ssg71
g57
(cgluon.html
LI
p5833
g59
NtRp5834
(dp5835
g62
(dp5836
g5521
S'dropdown'
p5837
ssg71
g57
(cgluon.html
UL
p5838
g59
NtRp5839
(dp5840
g62
(dp5841
S'mobile'
p5842
I00
sS'ul_class'
p5843
S'dropdown-menu'
p5844
sS'li_active'
p5845
S'web2py-menu-active'
p5846
sS'li_class'
p5847
g5837
sS'li_first'
p5848
S'web2py-menu-first'
p5849
sg5521
S'mobile-menu nav'
p5850
sS'li_last'
p5851
S'web2py-menu-last'
p5852
ssg71
Nsg64
(lp5853
g5834
ag57
(g5833
g59
NtRp5854
(dp5855
g62
(dp5856
g5521
g5837
ssg71
g5839
sg64
(lp5857
g57
(g5517
g59
NtRp5858
(dp5859
g62
(dp5860
g5523
S'#'
ssg71
g5854
sg64
(lp5861
g57
(g5531
g59
NtRp5862
(dp5863
g62
(dp5864
g5521
g5829
ssg71
g5858
sg64
(lp5865
S'Login'
p5866
asbasbag57
(g5838
g59
NtRp5867
(dp5868
g62
(dp5869
g5521
g5844
ssg71
g5854
sg64
(lp5870
g57
(g5833
g59
NtRp5871
(dp5872
g62
(dp5873
sg71
g5867
sg64
(lp5874
g57
(g5517
g59
NtRp5875
(dp5876
g62
(dp5877
g5523
S'/initial/user/logout'
p5878
ssg71
g5871
sg64
(lp5879
g5591
(S't\x06\x00\x00\x00Logout'
tRp5880
asbasbasbasbasbsg64
(lp5881
g5830
ag57
(g5838
g59
NtRp5882
(dp5883
g62
(dp5884
g5521
g5844
ssg71
g5834
sg64
(lp5885
g57
(g5833
g59
NtRp5886
(dp5887
g62
(dp5888
sg71
g5882
sg64
(lp5889
g57
(g5517
g59
NtRp5890
(dp5891
g62
(dp5892
g5523
S'/manager/users'
p5893
ssg71
g5886
sg64
(lp5894
g5591
(S's\t\x00\x00\x00Usu\xc3\xa1rios'
tRp5895
asbasbag57
(g5833
g59
NtRp5896
(dp5897
g62
(dp5898
sg71
g5882
sg64
(lp5899
g57
(g5517
g59
NtRp5900
(dp5901
g62
(dp5902
g5523
S'/manager/groups'
p5903
ssg71
g5896
sg64
(lp5904
g5591
(S't\x06\x00\x00\x00Grupos'
tRp5905
asbasbag57
(g5833
g59
NtRp5906
(dp5907
g62
(dp5908
sg71
g5882
sg64
(lp5909
g57
(g5517
g59
NtRp5910
(dp5911
g62
(dp5912
g5523
S'/manager/membership'
p5913
ssg71
g5906
sg64
(lp5914
g5591
(S't\x07\x00\x00\x00Membros'
tRp5915
asbasbasbasbsg64
(lp5916
g5826
asbsg64
(lp5917
S'Admin'
p5918
asbasbasbasbag57
(g73
g59
NtRp5919
(dp5920
g62
(dp5921
sg71
g5810
sg64
(lp5922
g57
(g78
g59
NtRp5923
(dp5924
g62
(dp5925
sg71
g5919
sg64
(lp5926
g57
(g58
g59
NtRp5927
(dp5928
g62
(dp5929
g70
I3
ssg71
g5923
sg64
(lp5930
g100
asbasbasbag57
(g73
g59
NtRp5931
(dp5932
g62
(dp5933
sg71
g5810
sg64
(lp5934
g57
(g78
g59
NtRp5935
(dp5936
g62
(dp5937
sg71
g5931
sg64
(lp5938
g57
(g58
g59
NtRp5939
(dp5940
g62
(dp5941
g70
I3
ssg71
g5935
sg64
(lp5942
S'#'
asbasbasbag57
(g73
g59
NtRp5943
(dp5944
g62
(dp5945
sg71
g5810
sg64
(lp5946
g57
(g78
g59
NtRp5947
(dp5948
g62
(dp5949
sg71
g5943
sg64
(lp5950
g57
(g58
g59
NtRp5951
(dp5952
g62
(dp5953
g70
I3
ssg71
g5947
sg64
(lp5954
g57
(g66
g59
NtRp5955
(dp5956
g62
(dp5957
g70
I2
ssg71
Nsg64
(lp5958
g57
(g73
g59
NtRp5959
(dp5960
g62
(dp5961
sg71
g5955
sg64
(lp5962
g57
(g78
g59
NtRp5963
(dp5964
g62
(dp5965
sg71
g5959
sg64
(lp5966
g57
(g58
g59
NtRp5967
(dp5968
g62
(dp5969
g70
I2
ssg71
g5963
sg64
(lp5970
g57
(g66
g59
NtRp5971
(dp5972
g62
(dp5973
g70
I1
ssg71
Nsg64
(lp5974
g57
(g73
g59
NtRp5975
(dp5976
g62
(dp5977
sg71
g5971
sg64
(lp5978
g57
(g78
g59
NtRp5979
(dp5980
g62
(dp5981
sg71
g5975
sg64
(lp5982
g57
(g58
g59
NtRp5983
(dp5984
g62
(dp5985
g70
I1
ssg71
g5979
sg64
(lp5986
g5895
asbasbasbag57
(g73
g59
NtRp5987
(dp5988
g62
(dp5989
sg71
g5971
sg64
(lp5990
g57
(g78
g59
NtRp5991
(dp5992
g62
(dp5993
sg71
g5987
sg64
(lp5994
g57
(g58
g59
NtRp5995
(dp5996
g62
(dp5997
g70
I1
ssg71
g5991
sg64
(lp5998
I00
asbasbasbag57
(g73
g59
NtRp5999
(dp6000
g62
(dp6001
sg71
g5971
sg64
(lp6002
g57
(g78
g59
NtRp6003
(dp6004
g62
(dp6005
sg71
g5999
sg64
(lp6006
g57
(g58
g59
NtRp6007
(dp6008
g62
(dp6009
g70
I1
ssg71
g6003
sg64
(lp6010
g5893
asbasbasbasbasbasbasbag57
(g73
g59
NtRp6011
(dp6012
g62
(dp6013
sg71
g5955
sg64
(lp6014
g57
(g78
g59
NtRp6015
(dp6016
g62
(dp6017
sg71
g6011
sg64
(lp6018
g57
(g58
g59
NtRp6019
(dp6020
g62
(dp6021
g70
I2
ssg71
g6015
sg64
(lp6022
g57
(g66
g59
NtRp6023
(dp6024
g62
(dp6025
g70
I1
ssg71
Nsg64
(lp6026
g57
(g73
g59
NtRp6027
(dp6028
g62
(dp6029
sg71
g6023
sg64
(lp6030
g57
(g78
g59
NtRp6031
(dp6032
g62
(dp6033
sg71
g6027
sg64
(lp6034
g57
(g58
g59
NtRp6035
(dp6036
g62
(dp6037
g70
I1
ssg71
g6031
sg64
(lp6038
g5905
asbasbasbag57
(g73
g59
NtRp6039
(dp6040
g62
(dp6041
sg71
g6023
sg64
(lp6042
g57
(g78
g59
NtRp6043
(dp6044
g62
(dp6045
sg71
g6039
sg64
(lp6046
g57
(g58
g59
NtRp6047
(dp6048
g62
(dp6049
g70
I1
ssg71
g6043
sg64
(lp6050
I00
asbasbasbag57
(g73
g59
NtRp6051
(dp6052
g62
(dp6053
sg71
g6023
sg64
(lp6054
g57
(g78
g59
NtRp6055
(dp6056
g62
(dp6057
sg71
g6051
sg64
(lp6058
g57
(g58
g59
NtRp6059
(dp6060
g62
(dp6061
g70
I1
ssg71
g6055
sg64
(lp6062
g5903
asbasbasbasbasbasbasbag57
(g73
g59
NtRp6063
(dp6064
g62
(dp6065
sg71
g5955
sg64
(lp6066
g57
(g78
g59
NtRp6067
(dp6068
g62
(dp6069
sg71
g6063
sg64
(lp6070
g57
(g58
g59
NtRp6071
(dp6072
g62
(dp6073
g70
I2
ssg71
g6067
sg64
(lp6074
g57
(g66
g59
NtRp6075
(dp6076
g62
(dp6077
g70
I1
ssg71
Nsg64
(lp6078
g57
(g73
g59
NtRp6079
(dp6080
g62
(dp6081
sg71
g6075
sg64
(lp6082
g57
(g78
g59
NtRp6083
(dp6084
g62
(dp6085
sg71
g6079
sg64
(lp6086
g57
(g58
g59
NtRp6087
(dp6088
g62
(dp6089
g70
I1
ssg71
g6083
sg64
(lp6090
g5915
asbasbasbag57
(g73
g59
NtRp6091
(dp6092
g62
(dp6093
sg71
g6075
sg64
(lp6094
g57
(g78
g59
NtRp6095
(dp6096
g62
(dp6097
sg71
g6091
sg64
(lp6098
g57
(g58
g59
NtRp6099
(dp6100
g62
(dp6101
g70
I1
ssg71
g6095
sg64
(lp6102
I00
asbasbasbag57
(g73
g59
NtRp6103
(dp6104
g62
(dp6105
sg71
g6075
sg64
(lp6106
g57
(g78
g59
NtRp6107
(dp6108
g62
(dp6109
sg71
g6103
sg64
(lp6110
g57
(g58
g59
NtRp6111
(dp6112
g62
(dp6113
g70
I1
ssg71
g6107
sg64
(lp6114
g5913
asbasbasbasbasbasbasbasbasbasbasbasbasbasbasbag57
(g73
g59
NtRp6115
(dp6116
g62
(dp6117
sg71
g5794
sg64
(lp6118
g57
(g78
g59
NtRp6119
(dp6120
g62
(dp6121
sg71
g6115
sg64
(lp6122
g57
(g58
g59
NtRp6123
(dp6124
g62
(dp6125
g70
I4
ssg71
g6119
sg64
(lp6126
g57
(g66
g59
NtRp6127
(dp6128
g62
(dp6129
g70
I3
ssg71
Nsg64
(lp6130
g57
(g73
g59
NtRp6131
(dp6132
g62
(dp6133
sg71
g6127
sg64
(lp6134
g57
(g78
g59
NtRp6135
(dp6136
g62
(dp6137
sg71
g6131
sg64
(lp6138
g57
(g58
g59
NtRp6139
(dp6140
g62
(dp6141
g70
I3
ssg71
g6135
sg64
(lp6142
g5862
asbasbasbag57
(g73
g59
NtRp6143
(dp6144
g62
(dp6145
sg71
g6127
sg64
(lp6146
g57
(g78
g59
NtRp6147
(dp6148
g62
(dp6149
sg71
g6143
sg64
(lp6150
g57
(g58
g59
NtRp6151
(dp6152
g62
(dp6153
g70
I3
ssg71
g6147
sg64
(lp6154
g100
asbasbasbag57
(g73
g59
NtRp6155
(dp6156
g62
(dp6157
sg71
g6127
sg64
(lp6158
g57
(g78
g59
NtRp6159
(dp6160
g62
(dp6161
sg71
g6155
sg64
(lp6162
g57
(g58
g59
NtRp6163
(dp6164
g62
(dp6165
g70
I3
ssg71
g6159
sg64
(lp6166
S'#'
asbasbasbag57
(g73
g59
NtRp6167
(dp6168
g62
(dp6169
sg71
g6127
sg64
(lp6170
g57
(g78
g59
NtRp6171
(dp6172
g62
(dp6173
sg71
g6167
sg64
(lp6174
g57
(g58
g59
NtRp6175
(dp6176
g62
(dp6177
g70
I3
ssg71
g6171
sg64
(lp6178
g57
(g66
g59
NtRp6179
(dp6180
g62
(dp6181
g70
I2
ssg71
Nsg64
(lp6182
g57
(g73
g59
NtRp6183
(dp6184
g62
(dp6185
sg71
g6179
sg64
(lp6186
g57
(g78
g59
NtRp6187
(dp6188
g62
(dp6189
sg71
g6183
sg64
(lp6190
g57
(g58
g59
NtRp6191
(dp6192
g62
(dp6193
g70
I2
ssg71
g6187
sg64
(lp6194
g57
(g66
g59
NtRp6195
(dp6196
g62
(dp6197
g70
I1
ssg71
Nsg64
(lp6198
g57
(g73
g59
NtRp6199
(dp6200
g62
(dp6201
sg71
g6195
sg64
(lp6202
g57
(g78
g59
NtRp6203
(dp6204
g62
(dp6205
sg71
g6199
sg64
(lp6206
g57
(g58
g59
NtRp6207
(dp6208
g62
(dp6209
g70
I1
ssg71
g6203
sg64
(lp6210
g5880
asbasbasbag57
(g73
g59
NtRp6211
(dp6212
g62
(dp6213
sg71
g6195
sg64
(lp6214
g57
(g78
g59
NtRp6215
(dp6216
g62
(dp6217
sg71
g6211
sg64
(lp6218
g57
(g58
g59
NtRp6219
(dp6220
g62
(dp6221
g70
I1
ssg71
g6215
sg64
(lp6222
I00
asbasbasbag57
(g73
g59
NtRp6223
(dp6224
g62
(dp6225
sg71
g6195
sg64
(lp6226
g57
(g78
g59
NtRp6227
(dp6228
g62
(dp6229
sg71
g6223
sg64
(lp6230
g57
(g58
g59
NtRp6231
(dp6232
g62
(dp6233
g70
I1
ssg71
g6227
sg64
(lp6234
g5878
asbasbasbasbasbasbasbasbasbasbasbasbasbasbasbasbasbasbasbag57
(g73
g59
NtRp6235
(dp6236
g62
(dp6237
sg71
g4955
sg64
(lp6238
g57
(g78
g59
NtRp6239
(dp6240
g62
(dp6241
g82
g83
ssg71
g6235
sg64
(lp6242
S'meta'
p6243
asbag57
(g78
g59
NtRp6244
(dp6245
g62
(dp6246
g89
g90
ssg71
g6235
sg64
(lp6247
S':'
asbag57
(g78
g59
NtRp6248
(dp6249
g62
(dp6250
sg71
g6235
sg64
(lp6251
g57
(g58
g59
NtRp6252
(dp6253
g62
(dp6254
g70
I5
ssg71
g6248
sg64
(lp6255
g57
(g66
g59
NtRp6256
(dp6257
g62
(dp6258
g70
I4
ssg71
Nsg64
(lp6259
g57
(g73
g59
NtRp6260
(dp6261
g62
(dp6262
sg71
g6256
sg64
(lp6263
g57
(g78
g59
NtRp6264
(dp6265
g62
(dp6266
g82
g83
ssg71
g6260
sg64
(lp6267
S'author'
p6268
asbag57
(g78
g59
NtRp6269
(dp6270
g62
(dp6271
g89
g90
ssg71
g6260
sg64
(lp6272
S':'
asbag57
(g78
g59
NtRp6273
(dp6274
g62
(dp6275
sg71
g6260
sg64
(lp6276
g57
(g58
g59
NtRp6277
(dp6278
g62
(dp6279
g70
I4
ssg71
g6273
sg64
(lp6280
S'Your Name <you@example.com>'
p6281
asbasbasbag57
(g73
g59
NtRp6282
(dp6283
g62
(dp6284
sg71
g6256
sg64
(lp6285
g57
(g78
g59
NtRp6286
(dp6287
g62
(dp6288
g82
g83
ssg71
g6282
sg64
(lp6289
S'description'
p6290
asbag57
(g78
g59
NtRp6291
(dp6292
g62
(dp6293
g89
g90
ssg71
g6282
sg64
(lp6294
S':'
asbag57
(g78
g59
NtRp6295
(dp6296
g62
(dp6297
sg71
g6282
sg64
(lp6298
g57
(g58
g59
NtRp6299
(dp6300
g62
(dp6301
g70
I4
ssg71
g6295
sg64
(lp6302
S'a cool new app'
p6303
asbasbasbag57
(g73
g59
NtRp6304
(dp6305
g62
(dp6306
sg71
g6256
sg64
(lp6307
g57
(g78
g59
NtRp6308
(dp6309
g62
(dp6310
g82
g83
ssg71
g6304
sg64
(lp6311
S'generator'
p6312
asbag57
(g78
g59
NtRp6313
(dp6314
g62
(dp6315
g89
g90
ssg71
g6304
sg64
(lp6316
S':'
asbag57
(g78
g59
NtRp6317
(dp6318
g62
(dp6319
sg71
g6304
sg64
(lp6320
g57
(g58
g59
NtRp6321
(dp6322
g62
(dp6323
g70
I4
ssg71
g6317
sg64
(lp6324
S'Web2py Web Framework'
p6325
asbasbasbag57
(g73
g59
NtRp6326
(dp6327
g62
(dp6328
sg71
g6256
sg64
(lp6329
g57
(g78
g59
NtRp6330
(dp6331
g62
(dp6332
g82
g83
ssg71
g6326
sg64
(lp6333
S'keywords'
p6334
asbag57
(g78
g59
NtRp6335
(dp6336
g62
(dp6337
g89
g90
ssg71
g6326
sg64
(lp6338
S':'
asbag57
(g78
g59
NtRp6339
(dp6340
g62
(dp6341
sg71
g6326
sg64
(lp6342
g57
(g58
g59
NtRp6343
(dp6344
g62
(dp6345
g70
I4
ssg71
g6339
sg64
(lp6346
S'web2py, python, framework'
p6347
asbasbasbasbasbasbasbag57
(g73
g59
NtRp6348
(dp6349
g62
(dp6350
sg71
g4955
sg64
(lp6351
g57
(g78
g59
NtRp6352
(dp6353
g62
(dp6354
g82
g83
ssg71
g6348
sg64
(lp6355
S'models_to_run'
p6356
asbag57
(g78
g59
NtRp6357
(dp6358
g62
(dp6359
g89
g90
ssg71
g6348
sg64
(lp6360
S':'
asbag57
(g78
g59
NtRp6361
(dp6362
g62
(dp6363
sg71
g6348
sg64
(lp6364
g57
(g58
g59
NtRp6365
(dp6366
g62
(dp6367
g70
I5
ssg71
g6361
sg64
(lp6368
g57
(g66
g59
NtRp6369
(dp6370
g62
(dp6371
g70
I4
ssg71
Nsg64
(lp6372
g57
(g73
g59
NtRp6373
(dp6374
g62
(dp6375
sg71
g6369
sg64
(lp6376
g57
(g78
g59
NtRp6377
(dp6378
g62
(dp6379
sg71
g6373
sg64
(lp6380
g57
(g58
g59
NtRp6381
(dp6382
g62
(dp6383
g70
I4
ssg71
g6377
sg64
(lp6384
S'^\\w+\\.py$'
p6385
asbasbasbag57
(g73
g59
NtRp6386
(dp6387
g62
(dp6388
sg71
g6369
sg64
(lp6389
g57
(g78
g59
NtRp6390
(dp6391
g62
(dp6392
sg71
g6386
sg64
(lp6393
g57
(g58
g59
NtRp6394
(dp6395
g62
(dp6396
g70
I4
ssg71
g6390
sg64
(lp6397
S'^initial/\\w+\\.py$'
p6398
asbasbasbag57
(g73
g59
NtRp6399
(dp6400
g62
(dp6401
sg71
g6369
sg64
(lp6402
g57
(g78
g59
NtRp6403
(dp6404
g62
(dp6405
sg71
g6399
sg64
(lp6406
g57
(g58
g59
NtRp6407
(dp6408
g62
(dp6409
g70
I4
ssg71
g6403
sg64
(lp6410
S'^initial/edit_host/\\w+\\.py$'
p6411
asbasbasbasbasbasbasbag57
(g73
g59
NtRp6412
(dp6413
g62
(dp6414
sg71
g4955
sg64
(lp6415
g57
(g78
g59
NtRp6416
(dp6417
g62
(dp6418
g82
g83
ssg71
g6412
sg64
(lp6419
S'postprocessing'
p6420
asbag57
(g78
g59
NtRp6421
(dp6422
g62
(dp6423
g89
g90
ssg71
g6412
sg64
(lp6424
S':'
asbag57
(g78
g59
NtRp6425
(dp6426
g62
(dp6427
sg71
g6412
sg64
(lp6428
g57
(g58
g59
NtRp6429
(dp6430
g62
(dp6431
g70
I5
ssg71
g6425
sg64
(lp6432
g57
(g66
g59
NtRp6433
(dp6434
g62
(dp6435
g70
I4
ssg71
Nsg64
(lp6436
sbasbasbasbag57
(g73
g59
NtRp6437
(dp6438
g62
(dp6439
sg71
g4955
sg64
(lp6440
g57
(g78
g59
NtRp6441
(dp6442
g62
(dp6443
g82
g83
ssg71
g6437
sg64
(lp6444
S'session_cookie_expires'
p6445
asbag57
(g78
g59
NtRp6446
(dp6447
g62
(dp6448
g89
g90
ssg71
g6437
sg64
(lp6449
S':'
asbag57
(g78
g59
NtRp6450
(dp6451
g62
(dp6452
sg71
g6437
sg64
(lp6453
g57
(g58
g59
NtRp6454
(dp6455
g62
(dp6456
g70
I5
ssg71
g6450
sg64
(lp6457
S'None'
p6458
asbasbasbag57
(g73
g59
NtRp6459
(dp6460
g62
(dp6461
sg71
g4955
sg64
(lp6462
g57
(g78
g59
NtRp6463
(dp6464
g62
(dp6465
g82
g83
ssg71
g6459
sg64
(lp6466
S'session_data_name'
p6467
asbag57
(g78
g59
NtRp6468
(dp6469
g62
(dp6470
g89
g90
ssg71
g6459
sg64
(lp6471
S':'
asbag57
(g78
g59
NtRp6472
(dp6473
g62
(dp6474
sg71
g6459
sg64
(lp6475
g57
(g58
g59
NtRp6476
(dp6477
g62
(dp6478
g70
I5
ssg71
g6472
sg64
(lp6479
S'session_data_projeto'
p6480
asbasbasbag57
(g73
g59
NtRp6481
(dp6482
g62
(dp6483
sg71
g4955
sg64
(lp6484
g57
(g78
g59
NtRp6485
(dp6486
g62
(dp6487
g82
g83
ssg71
g6481
sg64
(lp6488
S'session_file'
p6489
asbag57
(g78
g59
NtRp6490
(dp6491
g62
(dp6492
g89
g90
ssg71
g6481
sg64
(lp6493
S':'
asbag57
(g78
g59
NtRp6494
(dp6495
g62
(dp6496
sg71
g6481
sg64
(lp6497
g57
(g58
g59
NtRp6498
(dp6499
g62
(dp6500
g70
I5
ssg71
g6494
sg64
(lp6501
S"<open file '/var/www/hosts3/applications/projeto/sessions/127.0.0.1-16fc0dc1-6b52-4186-8d63-b2f62349e5bd', mode 'rb+' at 0x7fe5145594b0>"
p6502
asbasbasbag57
(g73
g59
NtRp6503
(dp6504
g62
(dp6505
sg71
g4955
sg64
(lp6506
g57
(g78
g59
NtRp6507
(dp6508
g62
(dp6509
g82
g83
ssg71
g6503
sg64
(lp6510
S'session_filename'
p6511
asbag57
(g78
g59
NtRp6512
(dp6513
g62
(dp6514
g89
g90
ssg71
g6503
sg64
(lp6515
S':'
asbag57
(g78
g59
NtRp6516
(dp6517
g62
(dp6518
sg71
g6503
sg64
(lp6519
g57
(g58
g59
NtRp6520
(dp6521
g62
(dp6522
g70
I5
ssg71
g6516
sg64
(lp6523
S'/var/www/hosts3/applications/projeto/sessions/127.0.0.1-16fc0dc1-6b52-4186-8d63-b2f62349e5bd'
p6524
asbasbasbag57
(g73
g59
NtRp6525
(dp6526
g62
(dp6527
sg71
g4955
sg64
(lp6528
g57
(g78
g59
NtRp6529
(dp6530
g62
(dp6531
g82
g83
ssg71
g6525
sg64
(lp6532
S'session_id'
p6533
asbag57
(g78
g59
NtRp6534
(dp6535
g62
(dp6536
g89
g90
ssg71
g6525
sg64
(lp6537
S':'
asbag57
(g78
g59
NtRp6538
(dp6539
g62
(dp6540
sg71
g6525
sg64
(lp6541
g57
(g58
g59
NtRp6542
(dp6543
g62
(dp6544
g70
I5
ssg71
g6538
sg64
(lp6545
g1589
asbasbasbag57
(g73
g59
NtRp6546
(dp6547
g62
(dp6548
sg71
g4955
sg64
(lp6549
g57
(g78
g59
NtRp6550
(dp6551
g62
(dp6552
g82
g83
ssg71
g6546
sg64
(lp6553
S'session_id_name'
p6554
asbag57
(g78
g59
NtRp6555
(dp6556
g62
(dp6557
g89
g90
ssg71
g6546
sg64
(lp6558
S':'
asbag57
(g78
g59
NtRp6559
(dp6560
g62
(dp6561
sg71
g6546
sg64
(lp6562
g57
(g58
g59
NtRp6563
(dp6564
g62
(dp6565
g70
I5
ssg71
g6559
sg64
(lp6566
g5012
asbasbasbag57
(g73
g59
NtRp6567
(dp6568
g62
(dp6569
sg71
g4955
sg64
(lp6570
g57
(g78
g59
NtRp6571
(dp6572
g62
(dp6573
g82
g83
ssg71
g6567
sg64
(lp6574
S'session_locked'
p6575
asbag57
(g78
g59
NtRp6576
(dp6577
g62
(dp6578
g89
g90
ssg71
g6567
sg64
(lp6579
S':'
asbag57
(g78
g59
NtRp6580
(dp6581
g62
(dp6582
sg71
g6567
sg64
(lp6583
g57
(g58
g59
NtRp6584
(dp6585
g62
(dp6586
g70
I5
ssg71
g6580
sg64
(lp6587
g2951
asbasbasbag57
(g73
g59
NtRp6588
(dp6589
g62
(dp6590
sg71
g4955
sg64
(lp6591
g57
(g78
g59
NtRp6592
(dp6593
g62
(dp6594
g82
g83
ssg71
g6588
sg64
(lp6595
S'session_new'
p6596
asbag57
(g78
g59
NtRp6597
(dp6598
g62
(dp6599
g89
g90
ssg71
g6588
sg64
(lp6600
S':'
asbag57
(g78
g59
NtRp6601
(dp6602
g62
(dp6603
sg71
g6588
sg64
(lp6604
g57
(g58
g59
NtRp6605
(dp6606
g62
(dp6607
g70
I5
ssg71
g6601
sg64
(lp6608
g100
asbasbasbag57
(g73
g59
NtRp6609
(dp6610
g62
(dp6611
sg71
g4955
sg64
(lp6612
g57
(g78
g59
NtRp6613
(dp6614
g62
(dp6615
g82
g83
ssg71
g6609
sg64
(lp6616
S'session_storage_type'
p6617
asbag57
(g78
g59
NtRp6618
(dp6619
g62
(dp6620
g89
g90
ssg71
g6609
sg64
(lp6621
S':'
asbag57
(g78
g59
NtRp6622
(dp6623
g62
(dp6624
sg71
g6609
sg64
(lp6625
g57
(g58
g59
NtRp6626
(dp6627
g62
(dp6628
g70
I5
ssg71
g6622
sg64
(lp6629
g4442
asbasbasbag57
(g73
g59
NtRp6630
(dp6631
g62
(dp6632
sg71
g4955
sg64
(lp6633
g57
(g78
g59
NtRp6634
(dp6635
g62
(dp6636
g82
g83
ssg71
g6630
sg64
(lp6637
S'status'
p6638
asbag57
(g78
g59
NtRp6639
(dp6640
g62
(dp6641
g89
g90
ssg71
g6630
sg64
(lp6642
S':'
asbag57
(g78
g59
NtRp6643
(dp6644
g62
(dp6645
sg71
g6630
sg64
(lp6646
g57
(g58
g59
NtRp6647
(dp6648
g62
(dp6649
g70
I5
ssg71
g6643
sg64
(lp6650
S'200'
p6651
asbasbasbag57
(g73
g59
NtRp6652
(dp6653
g62
(dp6654
sg71
g4955
sg64
(lp6655
g57
(g78
g59
NtRp6656
(dp6657
g62
(dp6658
g82
g83
ssg71
g6652
sg64
(lp6659
S'subtitle'
p6660
asbag57
(g78
g59
NtRp6661
(dp6662
g62
(dp6663
g89
g90
ssg71
g6652
sg64
(lp6664
S':'
asbag57
(g78
g59
NtRp6665
(dp6666
g62
(dp6667
sg71
g6652
sg64
(lp6668
g57
(g58
g59
NtRp6669
(dp6670
g62
(dp6671
g70
I5
ssg71
g6665
sg64
(lp6672
g5591
(S's\r\x00\x00\x00customize me!'
tRp6673
asbasbasbag57
(g73
g59
NtRp6674
(dp6675
g62
(dp6676
sg71
g4955
sg64
(lp6677
g57
(g78
g59
NtRp6678
(dp6679
g62
(dp6680
g82
g83
ssg71
g6674
sg64
(lp6681
S'title'
p6682
asbag57
(g78
g59
NtRp6683
(dp6684
g62
(dp6685
g89
g90
ssg71
g6674
sg64
(lp6686
S':'
asbag57
(g78
g59
NtRp6687
(dp6688
g62
(dp6689
sg71
g6674
sg64
(lp6690
g57
(g58
g59
NtRp6691
(dp6692
g62
(dp6693
g70
I5
ssg71
g6687
sg64
(lp6694
S'Projeto'
p6695
asbasbasbag57
(g73
g59
NtRp6696
(dp6697
g62
(dp6698
sg71
g4955
sg64
(lp6699
g57
(g78
g59
NtRp6700
(dp6701
g62
(dp6702
g82
g83
ssg71
g6696
sg64
(lp6703
S'view'
p6704
asbag57
(g78
g59
NtRp6705
(dp6706
g62
(dp6707
g89
g90
ssg71
g6696
sg64
(lp6708
S':'
asbag57
(g78
g59
NtRp6709
(dp6710
g62
(dp6711
sg71
g6696
sg64
(lp6712
g57
(g58
g59
NtRp6713
(dp6714
g62
(dp6715
g70
I5
ssg71
g6709
sg64
(lp6716
S'initial/show_form.html'
p6717
asbasbasbasbasbsS'locals'
p6718
(dp6719
S'OBJECT'
p6720
S"<class 'gluon.html.OBJECT'>"
p6721
sS'SQLDB'
p6722
S"<class 'gluon.dal.DAL'>"
p6723
sS'Servidor'
p6724
S'<Table servidor (id,nome)>'
p6725
sg4495
S"<Storage {'_formkey[hosts/1]': '56457907-59e4-4d...login]': 'e23d5c63-7724-48bf-bfbd-7e1aafeefefa'}>"
p6726
sS'LINK'
p6727
S"<class 'gluon.html.LINK'>"
p6728
sS'BR'
p6729
S"<class 'gluon.html.BR'>"
p6730
sS'local_import'
p6731
S'<function <lambda>>'
p6732
sS'OPTGROUP'
p6733
S"<class 'gluon.html.OPTGROUP'>"
p6734
sS'__package__'
p6735
S'None'
p6736
sS'Distro'
p6737
S'<Table distro (id,nome,img,imagem)>'
p6738
sS'PRE'
p6739
S"<class 'gluon.html.PRE'>"
p6740
sS'IS_INT_IN_RANGE'
p6741
S"<class 'gluon.validators.IS_INT_IN_RANGE'>"
p6742
sS'left_sidebar_enabled'
p6743
g100
sS'IS_LOWER'
p6744
S"<class 'gluon.validators.IS_LOWER'>"
p6745
sS'IS_STRONG'
p6746
S"<class 'gluon.validators.IS_STRONG'>"
p6747
sS'cache'
p6748
S'<gluon.cache.Cache object>'
p6749
sS'IS_IN_DB'
p6750
S"<class 'gluon.validators.IS_IN_DB'>"
p6751
sS'TAG'
p6752
S'<gluon.html.__TAG__ object>'
p6753
sS'SQLField'
p6754
S"<class 'gluon.dal.Field'>"
p6755
sS'mail'
p6756
S'<gluon.tools.Mail object>'
p6757
sS'logger'
p6758
S'<logging.Logger object>'
p6759
sS'BODY'
p6760
S"<class 'gluon.html.BODY'>"
p6761
sS'IS_DATE_IN_RANGE'
p6762
S"<class 'gluon.validators.IS_DATE_IN_RANGE'>"
p6763
sS'IFRAME'
p6764
S"<class 'gluon.html.IFRAME'>"
p6765
sS'URL'
p6766
S'<function URL>'
p6767
sS'config'
p6768
S"<Storage {'mail': <Storage {}>, 'db': <Storage {...qlite', 'pool_size': 10}>, 'auth': <Storage {}>}>"
p6769
sS'__file__'
p6770
S"'/var/www/hosts3/applications/projeto/views/initial/show_form.html'"
p6771
sS'db'
p6772
S'<DAL uri="sqlite://projeto.sqlite">'
p6773
sS'auth'
p6774
S'<gluon.tools.Auth object>'
p6775
sS'P'
S"<class 'gluon.html.P'>"
p6776
sS'Hosts'
p6777
S'<Table hosts (id,id_cliente,id_servidor,id_distr...,masc3,obs3,if4,ip4,masc4,obs4,rotas,obs_gerais)>'
p6778
sS'TFOOT'
p6779
S"<class 'gluon.html.TFOOT'>"
p6780
sS'XHTML'
p6781
S"<class 'gluon.html.XHTML'>"
p6782
sS'ON'
p6783
g2951
sS'OL'
p6784
S"<class 'gluon.html.OL'>"
p6785
sS'TEXTAREA'
p6786
S"<class 'gluon.html.TEXTAREA'>"
p6787
sS'MENU'
p6788
S"<class 'gluon.html.MENU'>"
p6789
sS'IS_IMAGE'
p6790
S"<class 'gluon.validators.IS_IMAGE'>"
p6791
sS'EM'
p6792
S"<class 'gluon.html.EM'>"
p6793
sS'CODE'
p6794
S"<class 'gluon.html.CODE'>"
p6795
sS'HTTP'
p6796
S"<class 'gluon.http.HTTP'>"
p6797
sS'HR'
p6798
S"<class 'gluon.html.HR'>"
p6799
sS'IS_DATETIME'
p6800
S"<class 'gluon.validators.IS_DATETIME'>"
p6801
sS'Storage'
p6802
S"<class 'gluon.storage.Storage'>"
p6803
sS'STYLE'
p6804
S"<class 'gluon.html.STYLE'>"
p6805
sS'LABEL'
p6806
S"<class 'gluon.html.LABEL'>"
p6807
sS'CLEANUP'
p6808
S"<class 'gluon.validators.CLEANUP'>"
p6809
sS'SELECT'
p6810
S"<class 'gluon.html.SELECT'>"
p6811
sS'CENTER'
p6812
S"<class 'gluon.html.CENTER'>"
p6813
sS'Auth'
p6814
S"<class 'gluon.tools.Auth'>"
p6815
sS'DEVELOPMENT_MENU'
p6816
g2951
sS'__builtins__'
p6817
S"{'ArithmeticError': <type 'exceptions.ArithmeticError'>, 'AssertionError': <type 'exceptions.AssertionError'>, 'AttributeError': <type 'exceptions.AttributeError'>, 'BaseException': <type 'exceptions.BaseException'>, 'BufferError': <type 'exceptions.BufferError'>, 'BytesWarning': <type 'exceptions.BytesWarning'>, 'DeprecationWarning': <type 'exceptions.DeprecationWarning'>, 'EOFError': <type 'exceptions.EOFError'>, 'Ellipsis': Ellipsis, 'EnvironmentError': <type 'exceptions.EnvironmentError'>, ...}"
p6818
sS'HTML'
p6819
S"<class 'gluon.html.HTML'>"
p6820
sS'Interface'
p6821
S'<Table interface (id,id_hosts,nome,ip)>'
p6822
sS'SQLFORM'
p6823
S"<class 'gluon.sqlhtml.SQLFORM'>"
p6824
sS'LOAD'
p6825
S'<function LOAD>'
p6826
sS'redirect'
p6827
S'<function redirect>'
p6828
sS'FIELDSET'
p6829
S"<class 'gluon.html.FIELDSET'>"
p6830
sS'IS_EQUAL_TO'
p6831
S"<class 'gluon.validators.IS_EQUAL_TO'>"
p6832
sS'embed64'
p6833
S'<function embed64>'
p6834
sS'IS_LIST_OF'
p6835
S"<class 'gluon.validators.IS_LIST_OF'>"
p6836
sS'INPUT'
p6837
S"<class 'gluon.html.INPUT'>"
p6838
sS'EMBED'
p6839
S"<class 'gluon.html.EMBED'>"
p6840
sS'_'
S'<function _>'
p6841
sS'logging'
p6842
S"<module 'logging' from '/usr/lib/python2.7/logging/__init__.pyc'>"
p6843
sS'H2'
p6844
S"<class 'gluon.html.H2'>"
p6845
sS'H3'
p6846
S"<class 'gluon.html.H3'>"
p6847
sS'BUTTON'
p6848
S"<class 'gluon.html.BUTTON'>"
p6849
sS'H1'
p6850
S"<class 'gluon.html.H1'>"
p6851
sS'H6'
p6852
S"<class 'gluon.html.H6'>"
p6853
sS'H4'
p6854
S"<class 'gluon.html.H4'>"
p6855
sS'H5'
p6856
S"<class 'gluon.html.H5'>"
p6857
sS'UL'
p6858
S"<class 'gluon.html.UL'>"
p6859
sS'IS_UPPER'
p6860
S"<class 'gluon.validators.IS_UPPER'>"
p6861
sS'xmlescape'
p6862
S'<function xmlescape>'
p6863
sS'IS_TIME'
p6864
S"<class 'gluon.validators.IS_TIME'>"
p6865
sS'OPTION'
p6866
S"<class 'gluon.html.OPTION'>"
p6867
sS'TITLE'
p6868
S"<class 'gluon.html.TITLE'>"
p6869
sS'CRYPT'
p6870
S"<class 'gluon.validators.CRYPT'>"
p6871
sS'IS_EMPTY_OR'
p6872
S"<class 'gluon.validators.IS_EMPTY_OR'>"
p6873
sS'MARKMIN'
p6874
S"<class 'gluon.html.MARKMIN'>"
p6875
sS'notifica'
p6876
S'<function notifica>'
p6877
sS'STRONG'
p6878
S"<class 'gluon.html.STRONG'>"
p6879
sS'COL'
p6880
S"<class 'gluon.html.COL'>"
p6881
sS'SCRIPT'
p6882
S"<class 'gluon.html.SCRIPT'>"
p6883
sS'is_mobile'
p6884
g100
sS'TABLE'
p6885
S"<class 'gluon.html.TABLE'>"
p6886
sS'IS_IPV4'
p6887
S"<class 'gluon.validators.IS_IPV4'>"
p6888
sS'IS_LENGTH'
p6889
S"<class 'gluon.validators.IS_LENGTH'>"
p6890
sS'XML'
p6891
S"<class 'gluon.html.XML'>"
p6892
sS'B'
S"<class 'gluon.html.B'>"
p6893
sS'IMG'
p6894
S"<class 'gluon.html.IMG'>"
p6895
sS'SQLTABLE'
p6896
S"<class 'gluon.sqlhtml.SQLTABLE'>"
p6897
sS'IS_MATCH'
p6898
S"<class 'gluon.validators.IS_MATCH'>"
p6899
sS'IS_ALPHANUMERIC'
p6900
S"<class 'gluon.validators.IS_ALPHANUMERIC'>"
p6901
sS'Cliente'
p6902
S'<Table cliente (id,nome,email)>'
p6903
sS'SPAN'
p6904
S"<class 'gluon.html.SPAN'>"
p6905
sS'IS_SLUG'
p6906
S"<class 'gluon.validators.IS_SLUG'>"
p6907
sS'BEAUTIFY'
p6908
S"<class 'gluon.html.BEAUTIFY'>"
p6909
sS'META'
p6910
S"<class 'gluon.html.META'>"
p6911
sS'IS_DATE'
p6912
S"<class 'gluon.validators.IS_DATE'>"
p6913
sS'IS_EMAIL'
p6914
S"<class 'gluon.validators.IS_EMAIL'>"
p6915
sS'IS_NOT_EMPTY'
p6916
S"<class 'gluon.validators.IS_NOT_EMPTY'>"
p6917
sS'IS_FLOAT_IN_RANGE'
p6918
S"<class 'gluon.validators.IS_FLOAT_IN_RANGE'>"
p6919
sS'TBODY'
p6920
S"<class 'gluon.html.TBODY'>"
p6921
sS'CAT'
p6922
S"<class 'gluon.html.CAT'>"
p6923
sS'Field'
p6924
S"<class 'gluon.dal.Field'>"
p6925
sS'middle_columns'
p6926
S"'span12'"
p6927
sS'DIV'
p6928
S"<class 'gluon.html.DIV'>"
p6929
sS'LEGEND'
p6930
S"<class 'gluon.html.LEGEND'>"
p6931
sS'form'
p6932
S'<gluon.sqlhtml.SQLFORM object>'
p6933
sS'COLGROUP'
p6934
S"<class 'gluon.html.COLGROUP'>"
p6935
sS'DAL'
p6936
S"<class 'gluon.dal.DAL'>"
p6937
sS'TT'
p6938
S"<class 'gluon.html.TT'>"
p6939
sS'TR'
p6940
S"<class 'gluon.html.TR'>"
p6941
sS'LI'
p6942
S"<class 'gluon.html.LI'>"
p6943
sS'right_sidebar_enabled'
p6944
g100
sS'TH'
p6945
S"<class 'gluon.html.TH'>"
p6946
sS'TD'
p6947
S"<class 'gluon.html.TD'>"
p6948
sS'IS_URL'
p6949
S"<class 'gluon.validators.IS_URL'>"
p6950
sS'A'
S"<class 'gluon.html.A'>"
p6951
sS'HEAD'
p6952
S"<class 'gluon.html.HEAD'>"
p6953
sS'IS_DATETIME_IN_RANGE'
p6954
S"<class 'gluon.validators.IS_DATETIME_IN_RANGE'>"
p6955
sS'FORM'
p6956
S"<class 'gluon.html.FORM'>"
p6957
sS'I'
S"<class 'gluon.html.I'>"
p6958
sS'IS_NOT_IN_DB'
p6959
S"<class 'gluon.validators.IS_NOT_IN_DB'>"
p6960
sg4950
S"<Storage {'body': <cStringIO.StringO object at 0...7fe514578c08>, 'view': 'initial/show_form.html'}>"
p6961
sS'THEAD'
p6962
S"<class 'gluon.html.THEAD'>"
p6963
sS'IS_NULL_OR'
p6964
S"<class 'gluon.validators.IS_EMPTY_OR'>"
p6965
sS'__name__'
p6966
S"'__restricted__'"
p6967
sg56
S"<Storage {'function': 'edit_host', 'body': <cStr...plications/projeto/', 'post_vars': <Storage {}>}>"
p6968
sS'IS_EXPR'
p6969
S"<class 'gluon.validators.IS_EXPR'>"
p6970
sS'T'
S'<gluon.languages.translator object>'
p6971
sS'IS_IN_SET'
p6972
S"<class 'gluon.validators.IS_IN_SET'>"
p6973
sS'IS_UPLOAD_FILENAME'
p6974
S"<class 'gluon.validators.IS_UPLOAD_FILENAME'>"
p6975
sS'IS_DECIMAL_IN_RANGE'
p6976
S"<class 'gluon.validators.IS_DECIMAL_IN_RANGE'>"
p6977
sssS'traceback'
p6978
S'Traceback (most recent call last):\n  File "/var/www/hosts3/gluon/restricted.py", line 212, in restricted\n    exec ccode in environment\n  File "/var/www/hosts3/applications/projeto/views/initial/show_form.html", line 78, in <module>\nIndexError: list index out of range\n'
p6979
s.