(dp1
S'output'
p2
S"<type 'exceptions.SyntaxError'> setting key 'registration' does not exist"
p3
sS'layer'
p4
S'/var/www/hosts3/applications/projeto/models/config.py'
p5
sS'code'
p6
S'from gluon.storage import Storage\n\nconfig = Storage(\n        db=Storage(),\n        auth=Storage(),\n        mail=Storage()\n        )\n\nconfig.db.uri = "sqlite://projeto.sqlite"\nconfig.db.pool_size = 10\nconfig.db.check_reserved = [\'all\']\n\n\ndb = DAL(**config.db)\n\n# logging\nimport logging\nlogger = logging.getLogger("web2py.app.blog")\nlogger.setLevel(logging.DEBUG)\n\n#auth Rbac\nfrom gluon.tools import Auth\n\nauth = Auth(db, controller="initial", function="user")\n\n#settings\nauth.settings.remember_me_form = False\nauth.settings.formstyle = "divs"\nauth.settings.login_next = URL(\'initial\', \'show_usuario\')\nauth.settings.registration=False\n#auth.settings.registration_requires_verification = False\n#auth.settings.registration_requires_approval = False\n#auth.settings.actions_disabled = [\'register\']\n\n#mail\nmail = auth.settings.mailer\nmail.settings.server = "mail.ad2.com.br"\nmail.settings.sender = "fernando@ad2.com.br"\nmail.settings.login = "fernando@ad2.com.br:123456"\n\n#signals\ndef notifica(form):\n\tlogger.info("notifica")\n\tmail.send(\n\t\tto="fndiaz02@gmail.com",\n\t\tsubject="Usuario %(first_name)s pendente" % form.vars,\n\t\tmessage="<html>Voce tem um novo usuario para aprovacao %(first_name)s %(last_name)s </html>" % form.vars\n\t)\n\n#auth.settings.register_onaccept = notifica\n#auth.settings.register_onaccept = funcao\n\n#messages\nauth.messages.login_button = "Entrar"\n\n#fields\nauth.settings.extra_fields[\'auth_user\'] = [\n\tField("bio", "text"),\n\tField("photo", "upload"),\n\tField("gender", requires=IS_IN_SET(["masculino","feminino"]))\n]\n\n#janrain\n#from gluon.contrib.login_methods.rpx_account import use_janrain\n#use_janrain(auth, filename="private/janrain.key")\n\nauth.define_tables(username=False)\n\n#genericas views\nif request.is_local:\n\tresponse.generic_patterns = [\'*\']\n\n#response\nresponse.title= "titulo response"\nresponse.meta.keywords= "chave, outra, e outra"'
p7
sS'snapshot'
p8
(dp9
S'exception'
p10
(dp11
S'__getslice__'
p12
S"<method-wrapper '__getslice__' of exceptions.SyntaxError object>"
p13
sS'text'
p14
S'None'
p15
sS'__str__'
p16
S"<method-wrapper '__str__' of exceptions.SyntaxError object>"
p17
sS'__reduce__'
p18
S'<built-in method __reduce__ of exceptions.SyntaxError object>'
p19
sS'__dict__'
p20
S'{}'
p21
sS'__sizeof__'
p22
S'<built-in method __sizeof__ of exceptions.SyntaxError object>'
p23
sS'__init__'
p24
S"<method-wrapper '__init__' of exceptions.SyntaxError object>"
p25
sS'__setattr__'
p26
S"<method-wrapper '__setattr__' of exceptions.SyntaxError object>"
p27
sS'__reduce_ex__'
p28
S'<built-in method __reduce_ex__ of exceptions.SyntaxError object>'
p29
sS'__new__'
p30
S'<built-in method __new__ of type object>'
p31
sS'__format__'
p32
S'<built-in method __format__ of exceptions.SyntaxError object>'
p33
sS'__class__'
p34
S"<type 'exceptions.SyntaxError'>"
p35
sS'filename'
p36
S'None'
p37
sS'lineno'
p38
S'None'
p39
sS'msg'
p40
S'"setting key \'registration\' does not exist"'
p41
sS'__doc__'
p42
S"'Invalid syntax.'"
p43
sS'__getitem__'
p44
S"<method-wrapper '__getitem__' of exceptions.SyntaxError object>"
p45
sS'__setstate__'
p46
S'<built-in method __setstate__ of exceptions.SyntaxError object>'
p47
sS'__getattribute__'
p48
S"<method-wrapper '__getattribute__' of exceptions.SyntaxError object>"
p49
sS'print_file_and_line'
p50
S'None'
p51
sS'args'
p52
S'("setting key \'registration\' does not exist",)'
p53
sS'__subclasshook__'
p54
S'<built-in method __subclasshook__ of type object>'
p55
sS'offset'
p56
S'None'
p57
sS'__unicode__'
p58
S'<built-in method __unicode__ of exceptions.SyntaxError object>'
p59
sS'__delattr__'
p60
S"<method-wrapper '__delattr__' of exceptions.SyntaxError object>"
p61
sS'__repr__'
p62
S"<method-wrapper '__repr__' of exceptions.SyntaxError object>"
p63
sS'__hash__'
p64
S"<method-wrapper '__hash__' of exceptions.SyntaxError object>"
p65
ssS'evalue'
p66
S"setting key 'registration' does not exist"
p67
sS'request'
p68
ccopy_reg
_reconstructor
p69
(cgluon.html
BEAUTIFY
p70
c__builtin__
object
p71
NtRp72
(dp73
S'attributes'
p74
(dp75
sS'components'
p76
(lp77
g69
(cgluon.html
TABLE
p78
g71
NtRp79
(dp80
g74
(dp81
S'level'
p82
I5
ssS'parent'
p83
Nsg76
(lp84
g69
(cgluon.html
TR
p85
g71
NtRp86
(dp87
g74
(dp88
sg83
g79
sg76
(lp89
g69
(cgluon.html
TD
p90
g71
NtRp91
(dp92
g74
(dp93
S'_style'
p94
S'font-weight:bold;vertical-align:top'
p95
ssg83
g86
sg76
(lp96
S'ajax'
p97
asbag69
(g90
g71
NtRp98
(dp99
g74
(dp100
S'_valign'
p101
S'top'
p102
ssg83
g86
sg76
(lp103
S':'
asbag69
(g90
g71
NtRp104
(dp105
g74
(dp106
sg83
g86
sg76
(lp107
g69
(g70
g71
NtRp108
(dp109
g74
(dp110
g82
I5
ssg83
g104
sg76
(lp111
S'False'
p112
asbasbasbag69
(g85
g71
NtRp113
(dp114
g74
(dp115
sg83
g79
sg76
(lp116
g69
(g90
g71
NtRp117
(dp118
g74
(dp119
g94
g95
ssg83
g113
sg76
(lp120
S'application'
p121
asbag69
(g90
g71
NtRp122
(dp123
g74
(dp124
g101
g102
ssg83
g113
sg76
(lp125
S':'
asbag69
(g90
g71
NtRp126
(dp127
g74
(dp128
sg83
g113
sg76
(lp129
g69
(g70
g71
NtRp130
(dp131
g74
(dp132
g82
I5
ssg83
g126
sg76
(lp133
S'projeto'
p134
asbasbasbag69
(g85
g71
NtRp135
(dp136
g74
(dp137
sg83
g79
sg76
(lp138
g69
(g90
g71
NtRp139
(dp140
g74
(dp141
g94
g95
ssg83
g135
sg76
(lp142
g52
asbag69
(g90
g71
NtRp143
(dp144
g74
(dp145
g101
g102
ssg83
g135
sg76
(lp146
S':'
asbag69
(g90
g71
NtRp147
(dp148
g74
(dp149
sg83
g135
sg76
(lp150
g69
(g70
g71
NtRp151
(dp152
g74
(dp153
g82
I5
ssg83
g147
sg76
(lp154
g69
(g78
g71
NtRp155
(dp156
g74
(dp157
g82
I4
ssg83
Nsg76
(lp158
sbasbasbasbag69
(g85
g71
NtRp159
(dp160
g74
(dp161
sg83
g79
sg76
(lp162
g69
(g90
g71
NtRp163
(dp164
g74
(dp165
g94
g95
ssg83
g159
sg76
(lp166
S'body'
p167
asbag69
(g90
g71
NtRp168
(dp169
g74
(dp170
g101
g102
ssg83
g159
sg76
(lp171
S':'
asbag69
(g90
g71
NtRp172
(dp173
g74
(dp174
sg83
g159
sg76
(lp175
g69
(g70
g71
NtRp176
(dp177
g74
(dp178
g82
I5
ssg83
g172
sg76
(lp179
S'<cStringIO.StringO object at 0x7fd9381c36f8>'
p180
asbasbasbag69
(g85
g71
NtRp181
(dp182
g74
(dp183
sg83
g79
sg76
(lp184
g69
(g90
g71
NtRp185
(dp186
g74
(dp187
g94
g95
ssg83
g181
sg76
(lp188
S'cid'
p189
asbag69
(g90
g71
NtRp190
(dp191
g74
(dp192
g101
g102
ssg83
g181
sg76
(lp193
S':'
asbag69
(g90
g71
NtRp194
(dp195
g74
(dp196
sg83
g181
sg76
(lp197
g69
(g70
g71
NtRp198
(dp199
g74
(dp200
g82
I5
ssg83
g194
sg76
(lp201
S'None'
p202
asbasbasbag69
(g85
g71
NtRp203
(dp204
g74
(dp205
sg83
g79
sg76
(lp206
g69
(g90
g71
NtRp207
(dp208
g74
(dp209
g94
g95
ssg83
g203
sg76
(lp210
S'client'
p211
asbag69
(g90
g71
NtRp212
(dp213
g74
(dp214
g101
g102
ssg83
g203
sg76
(lp215
S':'
asbag69
(g90
g71
NtRp216
(dp217
g74
(dp218
sg83
g203
sg76
(lp219
g69
(g70
g71
NtRp220
(dp221
g74
(dp222
g82
I5
ssg83
g216
sg76
(lp223
S'127.0.0.1'
p224
asbasbasbag69
(g85
g71
NtRp225
(dp226
g74
(dp227
sg83
g79
sg76
(lp228
g69
(g90
g71
NtRp229
(dp230
g74
(dp231
g94
g95
ssg83
g225
sg76
(lp232
S'controller'
p233
asbag69
(g90
g71
NtRp234
(dp235
g74
(dp236
g101
g102
ssg83
g225
sg76
(lp237
S':'
asbag69
(g90
g71
NtRp238
(dp239
g74
(dp240
sg83
g225
sg76
(lp241
g69
(g70
g71
NtRp242
(dp243
g74
(dp244
g82
I5
ssg83
g238
sg76
(lp245
S'initial'
p246
asbasbasbag69
(g85
g71
NtRp247
(dp248
g74
(dp249
sg83
g79
sg76
(lp250
g69
(g90
g71
NtRp251
(dp252
g74
(dp253
g94
g95
ssg83
g247
sg76
(lp254
S'cookies'
p255
asbag69
(g90
g71
NtRp256
(dp257
g74
(dp258
g101
g102
ssg83
g247
sg76
(lp259
S':'
asbag69
(g90
g71
NtRp260
(dp261
g74
(dp262
sg83
g247
sg76
(lp263
g69
(g70
g71
NtRp264
(dp265
g74
(dp266
g82
I5
ssg83
g260
sg76
(lp267
g69
(g78
g71
NtRp268
(dp269
g74
(dp270
g82
I4
ssg83
Nsg76
(lp271
g69
(g85
g71
NtRp272
(dp273
g74
(dp274
sg83
g268
sg76
(lp275
g69
(g90
g71
NtRp276
(dp277
g74
(dp278
g94
g95
ssg83
g272
sg76
(lp279
S'admin'
p280
asbag69
(g90
g71
NtRp281
(dp282
g74
(dp283
g101
g102
ssg83
g272
sg76
(lp284
S':'
asbag69
(g90
g71
NtRp285
(dp286
g74
(dp287
sg83
g272
sg76
(lp288
g69
(g70
g71
NtRp289
(dp290
g74
(dp291
g82
I4
ssg83
g285
sg76
(lp292
S'admin'
p293
ag69
(g78
g71
NtRp294
(dp295
g74
(dp296
g82
I3
ssg83
Nsg76
(lp297
g69
(g85
g71
NtRp298
(dp299
g74
(dp300
sg83
g294
sg76
(lp301
g69
(g90
g71
NtRp302
(dp303
g74
(dp304
g94
g95
ssg83
g298
sg76
(lp305
S'comment'
p306
asbag69
(g90
g71
NtRp307
(dp308
g74
(dp309
g101
g102
ssg83
g298
sg76
(lp310
S':'
asbag69
(g90
g71
NtRp311
(dp312
g74
(dp313
sg83
g298
sg76
(lp314
g69
(g70
g71
NtRp315
(dp316
g74
(dp317
g82
I3
ssg83
g311
sg76
(lp318
S''
asbasbasbag69
(g85
g71
NtRp319
(dp320
g74
(dp321
sg83
g294
sg76
(lp322
g69
(g90
g71
NtRp323
(dp324
g74
(dp325
g94
g95
ssg83
g319
sg76
(lp326
S'domain'
p327
asbag69
(g90
g71
NtRp328
(dp329
g74
(dp330
g101
g102
ssg83
g319
sg76
(lp331
S':'
asbag69
(g90
g71
NtRp332
(dp333
g74
(dp334
sg83
g319
sg76
(lp335
g69
(g70
g71
NtRp336
(dp337
g74
(dp338
g82
I3
ssg83
g332
sg76
(lp339
S''
asbasbasbag69
(g85
g71
NtRp340
(dp341
g74
(dp342
sg83
g294
sg76
(lp343
g69
(g90
g71
NtRp344
(dp345
g74
(dp346
g94
g95
ssg83
g340
sg76
(lp347
S'expires'
p348
asbag69
(g90
g71
NtRp349
(dp350
g74
(dp351
g101
g102
ssg83
g340
sg76
(lp352
S':'
asbag69
(g90
g71
NtRp353
(dp354
g74
(dp355
sg83
g340
sg76
(lp356
g69
(g70
g71
NtRp357
(dp358
g74
(dp359
g82
I3
ssg83
g353
sg76
(lp360
S''
asbasbasbag69
(g85
g71
NtRp361
(dp362
g74
(dp363
sg83
g294
sg76
(lp364
g69
(g90
g71
NtRp365
(dp366
g74
(dp367
g94
g95
ssg83
g361
sg76
(lp368
S'httponly'
p369
asbag69
(g90
g71
NtRp370
(dp371
g74
(dp372
g101
g102
ssg83
g361
sg76
(lp373
S':'
asbag69
(g90
g71
NtRp374
(dp375
g74
(dp376
sg83
g361
sg76
(lp377
g69
(g70
g71
NtRp378
(dp379
g74
(dp380
g82
I3
ssg83
g374
sg76
(lp381
S''
asbasbasbag69
(g85
g71
NtRp382
(dp383
g74
(dp384
sg83
g294
sg76
(lp385
g69
(g90
g71
NtRp386
(dp387
g74
(dp388
g94
g95
ssg83
g382
sg76
(lp389
S'max-age'
p390
asbag69
(g90
g71
NtRp391
(dp392
g74
(dp393
g101
g102
ssg83
g382
sg76
(lp394
S':'
asbag69
(g90
g71
NtRp395
(dp396
g74
(dp397
sg83
g382
sg76
(lp398
g69
(g70
g71
NtRp399
(dp400
g74
(dp401
g82
I3
ssg83
g395
sg76
(lp402
S''
asbasbasbag69
(g85
g71
NtRp403
(dp404
g74
(dp405
sg83
g294
sg76
(lp406
g69
(g90
g71
NtRp407
(dp408
g74
(dp409
g94
g95
ssg83
g403
sg76
(lp410
S'path'
p411
asbag69
(g90
g71
NtRp412
(dp413
g74
(dp414
g101
g102
ssg83
g403
sg76
(lp415
S':'
asbag69
(g90
g71
NtRp416
(dp417
g74
(dp418
sg83
g403
sg76
(lp419
g69
(g70
g71
NtRp420
(dp421
g74
(dp422
g82
I3
ssg83
g416
sg76
(lp423
S''
asbasbasbag69
(g85
g71
NtRp424
(dp425
g74
(dp426
sg83
g294
sg76
(lp427
g69
(g90
g71
NtRp428
(dp429
g74
(dp430
g94
g95
ssg83
g424
sg76
(lp431
S'secure'
p432
asbag69
(g90
g71
NtRp433
(dp434
g74
(dp435
g101
g102
ssg83
g424
sg76
(lp436
S':'
asbag69
(g90
g71
NtRp437
(dp438
g74
(dp439
sg83
g424
sg76
(lp440
g69
(g70
g71
NtRp441
(dp442
g74
(dp443
g82
I3
ssg83
g437
sg76
(lp444
S''
asbasbasbag69
(g85
g71
NtRp445
(dp446
g74
(dp447
sg83
g294
sg76
(lp448
g69
(g90
g71
NtRp449
(dp450
g74
(dp451
g94
g95
ssg83
g445
sg76
(lp452
S'version'
p453
asbag69
(g90
g71
NtRp454
(dp455
g74
(dp456
g101
g102
ssg83
g445
sg76
(lp457
S':'
asbag69
(g90
g71
NtRp458
(dp459
g74
(dp460
sg83
g445
sg76
(lp461
g69
(g70
g71
NtRp462
(dp463
g74
(dp464
g82
I3
ssg83
g458
sg76
(lp465
S''
asbasbasbasbasbasbasbag69
(g85
g71
NtRp466
(dp467
g74
(dp468
sg83
g268
sg76
(lp469
g69
(g90
g71
NtRp470
(dp471
g74
(dp472
g94
g95
ssg83
g466
sg76
(lp473
S'cookie'
p474
asbag69
(g90
g71
NtRp475
(dp476
g74
(dp477
g101
g102
ssg83
g466
sg76
(lp478
S':'
asbag69
(g90
g71
NtRp479
(dp480
g74
(dp481
sg83
g466
sg76
(lp482
g69
(g70
g71
NtRp483
(dp484
g74
(dp485
g82
I4
ssg83
g479
sg76
(lp486
S'1649423593'
p487
ag69
(g78
g71
NtRp488
(dp489
g74
(dp490
g82
I3
ssg83
Nsg76
(lp491
g69
(g85
g71
NtRp492
(dp493
g74
(dp494
sg83
g488
sg76
(lp495
g69
(g90
g71
NtRp496
(dp497
g74
(dp498
g94
g95
ssg83
g492
sg76
(lp499
g306
asbag69
(g90
g71
NtRp500
(dp501
g74
(dp502
g101
g102
ssg83
g492
sg76
(lp503
S':'
asbag69
(g90
g71
NtRp504
(dp505
g74
(dp506
sg83
g492
sg76
(lp507
g69
(g70
g71
NtRp508
(dp509
g74
(dp510
g82
I3
ssg83
g504
sg76
(lp511
S''
asbasbasbag69
(g85
g71
NtRp512
(dp513
g74
(dp514
sg83
g488
sg76
(lp515
g69
(g90
g71
NtRp516
(dp517
g74
(dp518
g94
g95
ssg83
g512
sg76
(lp519
g327
asbag69
(g90
g71
NtRp520
(dp521
g74
(dp522
g101
g102
ssg83
g512
sg76
(lp523
S':'
asbag69
(g90
g71
NtRp524
(dp525
g74
(dp526
sg83
g512
sg76
(lp527
g69
(g70
g71
NtRp528
(dp529
g74
(dp530
g82
I3
ssg83
g524
sg76
(lp531
S''
asbasbasbag69
(g85
g71
NtRp532
(dp533
g74
(dp534
sg83
g488
sg76
(lp535
g69
(g90
g71
NtRp536
(dp537
g74
(dp538
g94
g95
ssg83
g532
sg76
(lp539
g348
asbag69
(g90
g71
NtRp540
(dp541
g74
(dp542
g101
g102
ssg83
g532
sg76
(lp543
S':'
asbag69
(g90
g71
NtRp544
(dp545
g74
(dp546
sg83
g532
sg76
(lp547
g69
(g70
g71
NtRp548
(dp549
g74
(dp550
g82
I3
ssg83
g544
sg76
(lp551
S''
asbasbasbag69
(g85
g71
NtRp552
(dp553
g74
(dp554
sg83
g488
sg76
(lp555
g69
(g90
g71
NtRp556
(dp557
g74
(dp558
g94
g95
ssg83
g552
sg76
(lp559
g369
asbag69
(g90
g71
NtRp560
(dp561
g74
(dp562
g101
g102
ssg83
g552
sg76
(lp563
S':'
asbag69
(g90
g71
NtRp564
(dp565
g74
(dp566
sg83
g552
sg76
(lp567
g69
(g70
g71
NtRp568
(dp569
g74
(dp570
g82
I3
ssg83
g564
sg76
(lp571
S''
asbasbasbag69
(g85
g71
NtRp572
(dp573
g74
(dp574
sg83
g488
sg76
(lp575
g69
(g90
g71
NtRp576
(dp577
g74
(dp578
g94
g95
ssg83
g572
sg76
(lp579
g390
asbag69
(g90
g71
NtRp580
(dp581
g74
(dp582
g101
g102
ssg83
g572
sg76
(lp583
S':'
asbag69
(g90
g71
NtRp584
(dp585
g74
(dp586
sg83
g572
sg76
(lp587
g69
(g70
g71
NtRp588
(dp589
g74
(dp590
g82
I3
ssg83
g584
sg76
(lp591
S''
asbasbasbag69
(g85
g71
NtRp592
(dp593
g74
(dp594
sg83
g488
sg76
(lp595
g69
(g90
g71
NtRp596
(dp597
g74
(dp598
g94
g95
ssg83
g592
sg76
(lp599
g411
asbag69
(g90
g71
NtRp600
(dp601
g74
(dp602
g101
g102
ssg83
g592
sg76
(lp603
S':'
asbag69
(g90
g71
NtRp604
(dp605
g74
(dp606
sg83
g592
sg76
(lp607
g69
(g70
g71
NtRp608
(dp609
g74
(dp610
g82
I3
ssg83
g604
sg76
(lp611
S''
asbasbasbag69
(g85
g71
NtRp612
(dp613
g74
(dp614
sg83
g488
sg76
(lp615
g69
(g90
g71
NtRp616
(dp617
g74
(dp618
g94
g95
ssg83
g612
sg76
(lp619
g432
asbag69
(g90
g71
NtRp620
(dp621
g74
(dp622
g101
g102
ssg83
g612
sg76
(lp623
S':'
asbag69
(g90
g71
NtRp624
(dp625
g74
(dp626
sg83
g612
sg76
(lp627
g69
(g70
g71
NtRp628
(dp629
g74
(dp630
g82
I3
ssg83
g624
sg76
(lp631
S''
asbasbasbag69
(g85
g71
NtRp632
(dp633
g74
(dp634
sg83
g488
sg76
(lp635
g69
(g90
g71
NtRp636
(dp637
g74
(dp638
g94
g95
ssg83
g632
sg76
(lp639
g453
asbag69
(g90
g71
NtRp640
(dp641
g74
(dp642
g101
g102
ssg83
g632
sg76
(lp643
S':'
asbag69
(g90
g71
NtRp644
(dp645
g74
(dp646
sg83
g632
sg76
(lp647
g69
(g70
g71
NtRp648
(dp649
g74
(dp650
g82
I3
ssg83
g644
sg76
(lp651
S''
asbasbasbasbasbasbasbag69
(g85
g71
NtRp652
(dp653
g74
(dp654
sg83
g268
sg76
(lp655
g69
(g90
g71
NtRp656
(dp657
g74
(dp658
g94
g95
ssg83
g652
sg76
(lp659
S'hw_type'
p660
asbag69
(g90
g71
NtRp661
(dp662
g74
(dp663
g101
g102
ssg83
g652
sg76
(lp664
S':'
asbag69
(g90
g71
NtRp665
(dp666
g74
(dp667
sg83
g652
sg76
(lp668
g69
(g70
g71
NtRp669
(dp670
g74
(dp671
g82
I4
ssg83
g665
sg76
(lp672
S'MX60'
p673
ag69
(g78
g71
NtRp674
(dp675
g74
(dp676
g82
I3
ssg83
Nsg76
(lp677
g69
(g85
g71
NtRp678
(dp679
g74
(dp680
sg83
g674
sg76
(lp681
g69
(g90
g71
NtRp682
(dp683
g74
(dp684
g94
g95
ssg83
g678
sg76
(lp685
g306
asbag69
(g90
g71
NtRp686
(dp687
g74
(dp688
g101
g102
ssg83
g678
sg76
(lp689
S':'
asbag69
(g90
g71
NtRp690
(dp691
g74
(dp692
sg83
g678
sg76
(lp693
g69
(g70
g71
NtRp694
(dp695
g74
(dp696
g82
I3
ssg83
g690
sg76
(lp697
S''
asbasbasbag69
(g85
g71
NtRp698
(dp699
g74
(dp700
sg83
g674
sg76
(lp701
g69
(g90
g71
NtRp702
(dp703
g74
(dp704
g94
g95
ssg83
g698
sg76
(lp705
g327
asbag69
(g90
g71
NtRp706
(dp707
g74
(dp708
g101
g102
ssg83
g698
sg76
(lp709
S':'
asbag69
(g90
g71
NtRp710
(dp711
g74
(dp712
sg83
g698
sg76
(lp713
g69
(g70
g71
NtRp714
(dp715
g74
(dp716
g82
I3
ssg83
g710
sg76
(lp717
S''
asbasbasbag69
(g85
g71
NtRp718
(dp719
g74
(dp720
sg83
g674
sg76
(lp721
g69
(g90
g71
NtRp722
(dp723
g74
(dp724
g94
g95
ssg83
g718
sg76
(lp725
g348
asbag69
(g90
g71
NtRp726
(dp727
g74
(dp728
g101
g102
ssg83
g718
sg76
(lp729
S':'
asbag69
(g90
g71
NtRp730
(dp731
g74
(dp732
sg83
g718
sg76
(lp733
g69
(g70
g71
NtRp734
(dp735
g74
(dp736
g82
I3
ssg83
g730
sg76
(lp737
S''
asbasbasbag69
(g85
g71
NtRp738
(dp739
g74
(dp740
sg83
g674
sg76
(lp741
g69
(g90
g71
NtRp742
(dp743
g74
(dp744
g94
g95
ssg83
g738
sg76
(lp745
g369
asbag69
(g90
g71
NtRp746
(dp747
g74
(dp748
g101
g102
ssg83
g738
sg76
(lp749
S':'
asbag69
(g90
g71
NtRp750
(dp751
g74
(dp752
sg83
g738
sg76
(lp753
g69
(g70
g71
NtRp754
(dp755
g74
(dp756
g82
I3
ssg83
g750
sg76
(lp757
S''
asbasbasbag69
(g85
g71
NtRp758
(dp759
g74
(dp760
sg83
g674
sg76
(lp761
g69
(g90
g71
NtRp762
(dp763
g74
(dp764
g94
g95
ssg83
g758
sg76
(lp765
g390
asbag69
(g90
g71
NtRp766
(dp767
g74
(dp768
g101
g102
ssg83
g758
sg76
(lp769
S':'
asbag69
(g90
g71
NtRp770
(dp771
g74
(dp772
sg83
g758
sg76
(lp773
g69
(g70
g71
NtRp774
(dp775
g74
(dp776
g82
I3
ssg83
g770
sg76
(lp777
S''
asbasbasbag69
(g85
g71
NtRp778
(dp779
g74
(dp780
sg83
g674
sg76
(lp781
g69
(g90
g71
NtRp782
(dp783
g74
(dp784
g94
g95
ssg83
g778
sg76
(lp785
g411
asbag69
(g90
g71
NtRp786
(dp787
g74
(dp788
g101
g102
ssg83
g778
sg76
(lp789
S':'
asbag69
(g90
g71
NtRp790
(dp791
g74
(dp792
sg83
g778
sg76
(lp793
g69
(g70
g71
NtRp794
(dp795
g74
(dp796
g82
I3
ssg83
g790
sg76
(lp797
S''
asbasbasbag69
(g85
g71
NtRp798
(dp799
g74
(dp800
sg83
g674
sg76
(lp801
g69
(g90
g71
NtRp802
(dp803
g74
(dp804
g94
g95
ssg83
g798
sg76
(lp805
g432
asbag69
(g90
g71
NtRp806
(dp807
g74
(dp808
g101
g102
ssg83
g798
sg76
(lp809
S':'
asbag69
(g90
g71
NtRp810
(dp811
g74
(dp812
sg83
g798
sg76
(lp813
g69
(g70
g71
NtRp814
(dp815
g74
(dp816
g82
I3
ssg83
g810
sg76
(lp817
S''
asbasbasbag69
(g85
g71
NtRp818
(dp819
g74
(dp820
sg83
g674
sg76
(lp821
g69
(g90
g71
NtRp822
(dp823
g74
(dp824
g94
g95
ssg83
g818
sg76
(lp825
g453
asbag69
(g90
g71
NtRp826
(dp827
g74
(dp828
g101
g102
ssg83
g818
sg76
(lp829
S':'
asbag69
(g90
g71
NtRp830
(dp831
g74
(dp832
sg83
g818
sg76
(lp833
g69
(g70
g71
NtRp834
(dp835
g74
(dp836
g82
I3
ssg83
g830
sg76
(lp837
S''
asbasbasbasbasbasbasbag69
(g85
g71
NtRp838
(dp839
g74
(dp840
sg83
g268
sg76
(lp841
g69
(g90
g71
NtRp842
(dp843
g74
(dp844
g94
g95
ssg83
g838
sg76
(lp845
S'hw_version'
p846
asbag69
(g90
g71
NtRp847
(dp848
g74
(dp849
g101
g102
ssg83
g838
sg76
(lp850
S':'
asbag69
(g90
g71
NtRp851
(dp852
g74
(dp853
sg83
g838
sg76
(lp854
g69
(g70
g71
NtRp855
(dp856
g74
(dp857
g82
I4
ssg83
g851
sg76
(lp858
S'Rev%201.9.82.316'
p859
ag69
(g78
g71
NtRp860
(dp861
g74
(dp862
g82
I3
ssg83
Nsg76
(lp863
g69
(g85
g71
NtRp864
(dp865
g74
(dp866
sg83
g860
sg76
(lp867
g69
(g90
g71
NtRp868
(dp869
g74
(dp870
g94
g95
ssg83
g864
sg76
(lp871
g306
asbag69
(g90
g71
NtRp872
(dp873
g74
(dp874
g101
g102
ssg83
g864
sg76
(lp875
S':'
asbag69
(g90
g71
NtRp876
(dp877
g74
(dp878
sg83
g864
sg76
(lp879
g69
(g70
g71
NtRp880
(dp881
g74
(dp882
g82
I3
ssg83
g876
sg76
(lp883
S''
asbasbasbag69
(g85
g71
NtRp884
(dp885
g74
(dp886
sg83
g860
sg76
(lp887
g69
(g90
g71
NtRp888
(dp889
g74
(dp890
g94
g95
ssg83
g884
sg76
(lp891
g327
asbag69
(g90
g71
NtRp892
(dp893
g74
(dp894
g101
g102
ssg83
g884
sg76
(lp895
S':'
asbag69
(g90
g71
NtRp896
(dp897
g74
(dp898
sg83
g884
sg76
(lp899
g69
(g70
g71
NtRp900
(dp901
g74
(dp902
g82
I3
ssg83
g896
sg76
(lp903
S''
asbasbasbag69
(g85
g71
NtRp904
(dp905
g74
(dp906
sg83
g860
sg76
(lp907
g69
(g90
g71
NtRp908
(dp909
g74
(dp910
g94
g95
ssg83
g904
sg76
(lp911
g348
asbag69
(g90
g71
NtRp912
(dp913
g74
(dp914
g101
g102
ssg83
g904
sg76
(lp915
S':'
asbag69
(g90
g71
NtRp916
(dp917
g74
(dp918
sg83
g904
sg76
(lp919
g69
(g70
g71
NtRp920
(dp921
g74
(dp922
g82
I3
ssg83
g916
sg76
(lp923
S''
asbasbasbag69
(g85
g71
NtRp924
(dp925
g74
(dp926
sg83
g860
sg76
(lp927
g69
(g90
g71
NtRp928
(dp929
g74
(dp930
g94
g95
ssg83
g924
sg76
(lp931
g369
asbag69
(g90
g71
NtRp932
(dp933
g74
(dp934
g101
g102
ssg83
g924
sg76
(lp935
S':'
asbag69
(g90
g71
NtRp936
(dp937
g74
(dp938
sg83
g924
sg76
(lp939
g69
(g70
g71
NtRp940
(dp941
g74
(dp942
g82
I3
ssg83
g936
sg76
(lp943
S''
asbasbasbag69
(g85
g71
NtRp944
(dp945
g74
(dp946
sg83
g860
sg76
(lp947
g69
(g90
g71
NtRp948
(dp949
g74
(dp950
g94
g95
ssg83
g944
sg76
(lp951
g390
asbag69
(g90
g71
NtRp952
(dp953
g74
(dp954
g101
g102
ssg83
g944
sg76
(lp955
S':'
asbag69
(g90
g71
NtRp956
(dp957
g74
(dp958
sg83
g944
sg76
(lp959
g69
(g70
g71
NtRp960
(dp961
g74
(dp962
g82
I3
ssg83
g956
sg76
(lp963
S''
asbasbasbag69
(g85
g71
NtRp964
(dp965
g74
(dp966
sg83
g860
sg76
(lp967
g69
(g90
g71
NtRp968
(dp969
g74
(dp970
g94
g95
ssg83
g964
sg76
(lp971
g411
asbag69
(g90
g71
NtRp972
(dp973
g74
(dp974
g101
g102
ssg83
g964
sg76
(lp975
S':'
asbag69
(g90
g71
NtRp976
(dp977
g74
(dp978
sg83
g964
sg76
(lp979
g69
(g70
g71
NtRp980
(dp981
g74
(dp982
g82
I3
ssg83
g976
sg76
(lp983
S''
asbasbasbag69
(g85
g71
NtRp984
(dp985
g74
(dp986
sg83
g860
sg76
(lp987
g69
(g90
g71
NtRp988
(dp989
g74
(dp990
g94
g95
ssg83
g984
sg76
(lp991
g432
asbag69
(g90
g71
NtRp992
(dp993
g74
(dp994
g101
g102
ssg83
g984
sg76
(lp995
S':'
asbag69
(g90
g71
NtRp996
(dp997
g74
(dp998
sg83
g984
sg76
(lp999
g69
(g70
g71
NtRp1000
(dp1001
g74
(dp1002
g82
I3
ssg83
g996
sg76
(lp1003
S''
asbasbasbag69
(g85
g71
NtRp1004
(dp1005
g74
(dp1006
sg83
g860
sg76
(lp1007
g69
(g90
g71
NtRp1008
(dp1009
g74
(dp1010
g94
g95
ssg83
g1004
sg76
(lp1011
g453
asbag69
(g90
g71
NtRp1012
(dp1013
g74
(dp1014
g101
g102
ssg83
g1004
sg76
(lp1015
S':'
asbag69
(g90
g71
NtRp1016
(dp1017
g74
(dp1018
sg83
g1004
sg76
(lp1019
g69
(g70
g71
NtRp1020
(dp1021
g74
(dp1022
g82
I3
ssg83
g1016
sg76
(lp1023
S''
asbasbasbasbasbasbasbag69
(g85
g71
NtRp1024
(dp1025
g74
(dp1026
sg83
g268
sg76
(lp1027
g69
(g90
g71
NtRp1028
(dp1029
g74
(dp1030
g94
g95
ssg83
g1024
sg76
(lp1031
S'language'
p1032
asbag69
(g90
g71
NtRp1033
(dp1034
g74
(dp1035
g101
g102
ssg83
g1024
sg76
(lp1036
S':'
asbag69
(g90
g71
NtRp1037
(dp1038
g74
(dp1039
sg83
g1024
sg76
(lp1040
g69
(g70
g71
NtRp1041
(dp1042
g74
(dp1043
g82
I4
ssg83
g1037
sg76
(lp1044
S'1'
ag69
(g78
g71
NtRp1045
(dp1046
g74
(dp1047
g82
I3
ssg83
Nsg76
(lp1048
g69
(g85
g71
NtRp1049
(dp1050
g74
(dp1051
sg83
g1045
sg76
(lp1052
g69
(g90
g71
NtRp1053
(dp1054
g74
(dp1055
g94
g95
ssg83
g1049
sg76
(lp1056
g306
asbag69
(g90
g71
NtRp1057
(dp1058
g74
(dp1059
g101
g102
ssg83
g1049
sg76
(lp1060
S':'
asbag69
(g90
g71
NtRp1061
(dp1062
g74
(dp1063
sg83
g1049
sg76
(lp1064
g69
(g70
g71
NtRp1065
(dp1066
g74
(dp1067
g82
I3
ssg83
g1061
sg76
(lp1068
S''
asbasbasbag69
(g85
g71
NtRp1069
(dp1070
g74
(dp1071
sg83
g1045
sg76
(lp1072
g69
(g90
g71
NtRp1073
(dp1074
g74
(dp1075
g94
g95
ssg83
g1069
sg76
(lp1076
g327
asbag69
(g90
g71
NtRp1077
(dp1078
g74
(dp1079
g101
g102
ssg83
g1069
sg76
(lp1080
S':'
asbag69
(g90
g71
NtRp1081
(dp1082
g74
(dp1083
sg83
g1069
sg76
(lp1084
g69
(g70
g71
NtRp1085
(dp1086
g74
(dp1087
g82
I3
ssg83
g1081
sg76
(lp1088
S''
asbasbasbag69
(g85
g71
NtRp1089
(dp1090
g74
(dp1091
sg83
g1045
sg76
(lp1092
g69
(g90
g71
NtRp1093
(dp1094
g74
(dp1095
g94
g95
ssg83
g1089
sg76
(lp1096
g348
asbag69
(g90
g71
NtRp1097
(dp1098
g74
(dp1099
g101
g102
ssg83
g1089
sg76
(lp1100
S':'
asbag69
(g90
g71
NtRp1101
(dp1102
g74
(dp1103
sg83
g1089
sg76
(lp1104
g69
(g70
g71
NtRp1105
(dp1106
g74
(dp1107
g82
I3
ssg83
g1101
sg76
(lp1108
S''
asbasbasbag69
(g85
g71
NtRp1109
(dp1110
g74
(dp1111
sg83
g1045
sg76
(lp1112
g69
(g90
g71
NtRp1113
(dp1114
g74
(dp1115
g94
g95
ssg83
g1109
sg76
(lp1116
g369
asbag69
(g90
g71
NtRp1117
(dp1118
g74
(dp1119
g101
g102
ssg83
g1109
sg76
(lp1120
S':'
asbag69
(g90
g71
NtRp1121
(dp1122
g74
(dp1123
sg83
g1109
sg76
(lp1124
g69
(g70
g71
NtRp1125
(dp1126
g74
(dp1127
g82
I3
ssg83
g1121
sg76
(lp1128
S''
asbasbasbag69
(g85
g71
NtRp1129
(dp1130
g74
(dp1131
sg83
g1045
sg76
(lp1132
g69
(g90
g71
NtRp1133
(dp1134
g74
(dp1135
g94
g95
ssg83
g1129
sg76
(lp1136
g390
asbag69
(g90
g71
NtRp1137
(dp1138
g74
(dp1139
g101
g102
ssg83
g1129
sg76
(lp1140
S':'
asbag69
(g90
g71
NtRp1141
(dp1142
g74
(dp1143
sg83
g1129
sg76
(lp1144
g69
(g70
g71
NtRp1145
(dp1146
g74
(dp1147
g82
I3
ssg83
g1141
sg76
(lp1148
S''
asbasbasbag69
(g85
g71
NtRp1149
(dp1150
g74
(dp1151
sg83
g1045
sg76
(lp1152
g69
(g90
g71
NtRp1153
(dp1154
g74
(dp1155
g94
g95
ssg83
g1149
sg76
(lp1156
g411
asbag69
(g90
g71
NtRp1157
(dp1158
g74
(dp1159
g101
g102
ssg83
g1149
sg76
(lp1160
S':'
asbag69
(g90
g71
NtRp1161
(dp1162
g74
(dp1163
sg83
g1149
sg76
(lp1164
g69
(g70
g71
NtRp1165
(dp1166
g74
(dp1167
g82
I3
ssg83
g1161
sg76
(lp1168
S''
asbasbasbag69
(g85
g71
NtRp1169
(dp1170
g74
(dp1171
sg83
g1045
sg76
(lp1172
g69
(g90
g71
NtRp1173
(dp1174
g74
(dp1175
g94
g95
ssg83
g1169
sg76
(lp1176
g432
asbag69
(g90
g71
NtRp1177
(dp1178
g74
(dp1179
g101
g102
ssg83
g1169
sg76
(lp1180
S':'
asbag69
(g90
g71
NtRp1181
(dp1182
g74
(dp1183
sg83
g1169
sg76
(lp1184
g69
(g70
g71
NtRp1185
(dp1186
g74
(dp1187
g82
I3
ssg83
g1181
sg76
(lp1188
S''
asbasbasbag69
(g85
g71
NtRp1189
(dp1190
g74
(dp1191
sg83
g1045
sg76
(lp1192
g69
(g90
g71
NtRp1193
(dp1194
g74
(dp1195
g94
g95
ssg83
g1189
sg76
(lp1196
g453
asbag69
(g90
g71
NtRp1197
(dp1198
g74
(dp1199
g101
g102
ssg83
g1189
sg76
(lp1200
S':'
asbag69
(g90
g71
NtRp1201
(dp1202
g74
(dp1203
sg83
g1189
sg76
(lp1204
g69
(g70
g71
NtRp1205
(dp1206
g74
(dp1207
g82
I3
ssg83
g1201
sg76
(lp1208
S''
asbasbasbasbasbasbasbag69
(g85
g71
NtRp1209
(dp1210
g74
(dp1211
sg83
g268
sg76
(lp1212
g69
(g90
g71
NtRp1213
(dp1214
g74
(dp1215
g94
g95
ssg83
g1209
sg76
(lp1216
S'model'
p1217
asbag69
(g90
g71
NtRp1218
(dp1219
g74
(dp1220
g101
g102
ssg83
g1209
sg76
(lp1221
S':'
asbag69
(g90
g71
NtRp1222
(dp1223
g74
(dp1224
sg83
g1209
sg76
(lp1225
g69
(g70
g71
NtRp1226
(dp1227
g74
(dp1228
g82
I4
ssg83
g1222
sg76
(lp1229
S'MX'
p1230
ag69
(g78
g71
NtRp1231
(dp1232
g74
(dp1233
g82
I3
ssg83
Nsg76
(lp1234
g69
(g85
g71
NtRp1235
(dp1236
g74
(dp1237
sg83
g1231
sg76
(lp1238
g69
(g90
g71
NtRp1239
(dp1240
g74
(dp1241
g94
g95
ssg83
g1235
sg76
(lp1242
g306
asbag69
(g90
g71
NtRp1243
(dp1244
g74
(dp1245
g101
g102
ssg83
g1235
sg76
(lp1246
S':'
asbag69
(g90
g71
NtRp1247
(dp1248
g74
(dp1249
sg83
g1235
sg76
(lp1250
g69
(g70
g71
NtRp1251
(dp1252
g74
(dp1253
g82
I3
ssg83
g1247
sg76
(lp1254
S''
asbasbasbag69
(g85
g71
NtRp1255
(dp1256
g74
(dp1257
sg83
g1231
sg76
(lp1258
g69
(g90
g71
NtRp1259
(dp1260
g74
(dp1261
g94
g95
ssg83
g1255
sg76
(lp1262
g327
asbag69
(g90
g71
NtRp1263
(dp1264
g74
(dp1265
g101
g102
ssg83
g1255
sg76
(lp1266
S':'
asbag69
(g90
g71
NtRp1267
(dp1268
g74
(dp1269
sg83
g1255
sg76
(lp1270
g69
(g70
g71
NtRp1271
(dp1272
g74
(dp1273
g82
I3
ssg83
g1267
sg76
(lp1274
S''
asbasbasbag69
(g85
g71
NtRp1275
(dp1276
g74
(dp1277
sg83
g1231
sg76
(lp1278
g69
(g90
g71
NtRp1279
(dp1280
g74
(dp1281
g94
g95
ssg83
g1275
sg76
(lp1282
g348
asbag69
(g90
g71
NtRp1283
(dp1284
g74
(dp1285
g101
g102
ssg83
g1275
sg76
(lp1286
S':'
asbag69
(g90
g71
NtRp1287
(dp1288
g74
(dp1289
sg83
g1275
sg76
(lp1290
g69
(g70
g71
NtRp1291
(dp1292
g74
(dp1293
g82
I3
ssg83
g1287
sg76
(lp1294
S''
asbasbasbag69
(g85
g71
NtRp1295
(dp1296
g74
(dp1297
sg83
g1231
sg76
(lp1298
g69
(g90
g71
NtRp1299
(dp1300
g74
(dp1301
g94
g95
ssg83
g1295
sg76
(lp1302
g369
asbag69
(g90
g71
NtRp1303
(dp1304
g74
(dp1305
g101
g102
ssg83
g1295
sg76
(lp1306
S':'
asbag69
(g90
g71
NtRp1307
(dp1308
g74
(dp1309
sg83
g1295
sg76
(lp1310
g69
(g70
g71
NtRp1311
(dp1312
g74
(dp1313
g82
I3
ssg83
g1307
sg76
(lp1314
S''
asbasbasbag69
(g85
g71
NtRp1315
(dp1316
g74
(dp1317
sg83
g1231
sg76
(lp1318
g69
(g90
g71
NtRp1319
(dp1320
g74
(dp1321
g94
g95
ssg83
g1315
sg76
(lp1322
g390
asbag69
(g90
g71
NtRp1323
(dp1324
g74
(dp1325
g101
g102
ssg83
g1315
sg76
(lp1326
S':'
asbag69
(g90
g71
NtRp1327
(dp1328
g74
(dp1329
sg83
g1315
sg76
(lp1330
g69
(g70
g71
NtRp1331
(dp1332
g74
(dp1333
g82
I3
ssg83
g1327
sg76
(lp1334
S''
asbasbasbag69
(g85
g71
NtRp1335
(dp1336
g74
(dp1337
sg83
g1231
sg76
(lp1338
g69
(g90
g71
NtRp1339
(dp1340
g74
(dp1341
g94
g95
ssg83
g1335
sg76
(lp1342
g411
asbag69
(g90
g71
NtRp1343
(dp1344
g74
(dp1345
g101
g102
ssg83
g1335
sg76
(lp1346
S':'
asbag69
(g90
g71
NtRp1347
(dp1348
g74
(dp1349
sg83
g1335
sg76
(lp1350
g69
(g70
g71
NtRp1351
(dp1352
g74
(dp1353
g82
I3
ssg83
g1347
sg76
(lp1354
S''
asbasbasbag69
(g85
g71
NtRp1355
(dp1356
g74
(dp1357
sg83
g1231
sg76
(lp1358
g69
(g90
g71
NtRp1359
(dp1360
g74
(dp1361
g94
g95
ssg83
g1355
sg76
(lp1362
g432
asbag69
(g90
g71
NtRp1363
(dp1364
g74
(dp1365
g101
g102
ssg83
g1355
sg76
(lp1366
S':'
asbag69
(g90
g71
NtRp1367
(dp1368
g74
(dp1369
sg83
g1355
sg76
(lp1370
g69
(g70
g71
NtRp1371
(dp1372
g74
(dp1373
g82
I3
ssg83
g1367
sg76
(lp1374
S''
asbasbasbag69
(g85
g71
NtRp1375
(dp1376
g74
(dp1377
sg83
g1231
sg76
(lp1378
g69
(g90
g71
NtRp1379
(dp1380
g74
(dp1381
g94
g95
ssg83
g1375
sg76
(lp1382
g453
asbag69
(g90
g71
NtRp1383
(dp1384
g74
(dp1385
g101
g102
ssg83
g1375
sg76
(lp1386
S':'
asbag69
(g90
g71
NtRp1387
(dp1388
g74
(dp1389
sg83
g1375
sg76
(lp1390
g69
(g70
g71
NtRp1391
(dp1392
g74
(dp1393
g82
I3
ssg83
g1387
sg76
(lp1394
S''
asbasbasbasbasbasbasbag69
(g85
g71
NtRp1395
(dp1396
g74
(dp1397
sg83
g268
sg76
(lp1398
g69
(g90
g71
NtRp1399
(dp1400
g74
(dp1401
g94
g95
ssg83
g1395
sg76
(lp1402
S'nr'
p1403
asbag69
(g90
g71
NtRp1404
(dp1405
g74
(dp1406
g101
g102
ssg83
g1395
sg76
(lp1407
S':'
asbag69
(g90
g71
NtRp1408
(dp1409
g74
(dp1410
sg83
g1395
sg76
(lp1411
g69
(g70
g71
NtRp1412
(dp1413
g74
(dp1414
g82
I4
ssg83
g1408
sg76
(lp1415
S'1'
ag69
(g78
g71
NtRp1416
(dp1417
g74
(dp1418
g82
I3
ssg83
Nsg76
(lp1419
g69
(g85
g71
NtRp1420
(dp1421
g74
(dp1422
sg83
g1416
sg76
(lp1423
g69
(g90
g71
NtRp1424
(dp1425
g74
(dp1426
g94
g95
ssg83
g1420
sg76
(lp1427
g306
asbag69
(g90
g71
NtRp1428
(dp1429
g74
(dp1430
g101
g102
ssg83
g1420
sg76
(lp1431
S':'
asbag69
(g90
g71
NtRp1432
(dp1433
g74
(dp1434
sg83
g1420
sg76
(lp1435
g69
(g70
g71
NtRp1436
(dp1437
g74
(dp1438
g82
I3
ssg83
g1432
sg76
(lp1439
S''
asbasbasbag69
(g85
g71
NtRp1440
(dp1441
g74
(dp1442
sg83
g1416
sg76
(lp1443
g69
(g90
g71
NtRp1444
(dp1445
g74
(dp1446
g94
g95
ssg83
g1440
sg76
(lp1447
g327
asbag69
(g90
g71
NtRp1448
(dp1449
g74
(dp1450
g101
g102
ssg83
g1440
sg76
(lp1451
S':'
asbag69
(g90
g71
NtRp1452
(dp1453
g74
(dp1454
sg83
g1440
sg76
(lp1455
g69
(g70
g71
NtRp1456
(dp1457
g74
(dp1458
g82
I3
ssg83
g1452
sg76
(lp1459
S''
asbasbasbag69
(g85
g71
NtRp1460
(dp1461
g74
(dp1462
sg83
g1416
sg76
(lp1463
g69
(g90
g71
NtRp1464
(dp1465
g74
(dp1466
g94
g95
ssg83
g1460
sg76
(lp1467
g348
asbag69
(g90
g71
NtRp1468
(dp1469
g74
(dp1470
g101
g102
ssg83
g1460
sg76
(lp1471
S':'
asbag69
(g90
g71
NtRp1472
(dp1473
g74
(dp1474
sg83
g1460
sg76
(lp1475
g69
(g70
g71
NtRp1476
(dp1477
g74
(dp1478
g82
I3
ssg83
g1472
sg76
(lp1479
S''
asbasbasbag69
(g85
g71
NtRp1480
(dp1481
g74
(dp1482
sg83
g1416
sg76
(lp1483
g69
(g90
g71
NtRp1484
(dp1485
g74
(dp1486
g94
g95
ssg83
g1480
sg76
(lp1487
g369
asbag69
(g90
g71
NtRp1488
(dp1489
g74
(dp1490
g101
g102
ssg83
g1480
sg76
(lp1491
S':'
asbag69
(g90
g71
NtRp1492
(dp1493
g74
(dp1494
sg83
g1480
sg76
(lp1495
g69
(g70
g71
NtRp1496
(dp1497
g74
(dp1498
g82
I3
ssg83
g1492
sg76
(lp1499
S''
asbasbasbag69
(g85
g71
NtRp1500
(dp1501
g74
(dp1502
sg83
g1416
sg76
(lp1503
g69
(g90
g71
NtRp1504
(dp1505
g74
(dp1506
g94
g95
ssg83
g1500
sg76
(lp1507
g390
asbag69
(g90
g71
NtRp1508
(dp1509
g74
(dp1510
g101
g102
ssg83
g1500
sg76
(lp1511
S':'
asbag69
(g90
g71
NtRp1512
(dp1513
g74
(dp1514
sg83
g1500
sg76
(lp1515
g69
(g70
g71
NtRp1516
(dp1517
g74
(dp1518
g82
I3
ssg83
g1512
sg76
(lp1519
S''
asbasbasbag69
(g85
g71
NtRp1520
(dp1521
g74
(dp1522
sg83
g1416
sg76
(lp1523
g69
(g90
g71
NtRp1524
(dp1525
g74
(dp1526
g94
g95
ssg83
g1520
sg76
(lp1527
g411
asbag69
(g90
g71
NtRp1528
(dp1529
g74
(dp1530
g101
g102
ssg83
g1520
sg76
(lp1531
S':'
asbag69
(g90
g71
NtRp1532
(dp1533
g74
(dp1534
sg83
g1520
sg76
(lp1535
g69
(g70
g71
NtRp1536
(dp1537
g74
(dp1538
g82
I3
ssg83
g1532
sg76
(lp1539
S''
asbasbasbag69
(g85
g71
NtRp1540
(dp1541
g74
(dp1542
sg83
g1416
sg76
(lp1543
g69
(g90
g71
NtRp1544
(dp1545
g74
(dp1546
g94
g95
ssg83
g1540
sg76
(lp1547
g432
asbag69
(g90
g71
NtRp1548
(dp1549
g74
(dp1550
g101
g102
ssg83
g1540
sg76
(lp1551
S':'
asbag69
(g90
g71
NtRp1552
(dp1553
g74
(dp1554
sg83
g1540
sg76
(lp1555
g69
(g70
g71
NtRp1556
(dp1557
g74
(dp1558
g82
I3
ssg83
g1552
sg76
(lp1559
S''
asbasbasbag69
(g85
g71
NtRp1560
(dp1561
g74
(dp1562
sg83
g1416
sg76
(lp1563
g69
(g90
g71
NtRp1564
(dp1565
g74
(dp1566
g94
g95
ssg83
g1560
sg76
(lp1567
g453
asbag69
(g90
g71
NtRp1568
(dp1569
g74
(dp1570
g101
g102
ssg83
g1560
sg76
(lp1571
S':'
asbag69
(g90
g71
NtRp1572
(dp1573
g74
(dp1574
sg83
g1560
sg76
(lp1575
g69
(g70
g71
NtRp1576
(dp1577
g74
(dp1578
g82
I3
ssg83
g1572
sg76
(lp1579
S''
asbasbasbasbasbasbasbag69
(g85
g71
NtRp1580
(dp1581
g74
(dp1582
sg83
g268
sg76
(lp1583
g69
(g90
g71
NtRp1584
(dp1585
g74
(dp1586
g94
g95
ssg83
g1580
sg76
(lp1587
S'session_id_admin'
p1588
asbag69
(g90
g71
NtRp1589
(dp1590
g74
(dp1591
g101
g102
ssg83
g1580
sg76
(lp1592
S':'
asbag69
(g90
g71
NtRp1593
(dp1594
g74
(dp1595
sg83
g1580
sg76
(lp1596
g69
(g70
g71
NtRp1597
(dp1598
g74
(dp1599
g82
I4
ssg83
g1593
sg76
(lp1600
S'127.0.0.1-17a7c22b-f7af-4e89-8c73-d3678ac2ce9d'
p1601
ag69
(g78
g71
NtRp1602
(dp1603
g74
(dp1604
g82
I3
ssg83
Nsg76
(lp1605
g69
(g85
g71
NtRp1606
(dp1607
g74
(dp1608
sg83
g1602
sg76
(lp1609
g69
(g90
g71
NtRp1610
(dp1611
g74
(dp1612
g94
g95
ssg83
g1606
sg76
(lp1613
g306
asbag69
(g90
g71
NtRp1614
(dp1615
g74
(dp1616
g101
g102
ssg83
g1606
sg76
(lp1617
S':'
asbag69
(g90
g71
NtRp1618
(dp1619
g74
(dp1620
sg83
g1606
sg76
(lp1621
g69
(g70
g71
NtRp1622
(dp1623
g74
(dp1624
g82
I3
ssg83
g1618
sg76
(lp1625
S''
asbasbasbag69
(g85
g71
NtRp1626
(dp1627
g74
(dp1628
sg83
g1602
sg76
(lp1629
g69
(g90
g71
NtRp1630
(dp1631
g74
(dp1632
g94
g95
ssg83
g1626
sg76
(lp1633
g327
asbag69
(g90
g71
NtRp1634
(dp1635
g74
(dp1636
g101
g102
ssg83
g1626
sg76
(lp1637
S':'
asbag69
(g90
g71
NtRp1638
(dp1639
g74
(dp1640
sg83
g1626
sg76
(lp1641
g69
(g70
g71
NtRp1642
(dp1643
g74
(dp1644
g82
I3
ssg83
g1638
sg76
(lp1645
S''
asbasbasbag69
(g85
g71
NtRp1646
(dp1647
g74
(dp1648
sg83
g1602
sg76
(lp1649
g69
(g90
g71
NtRp1650
(dp1651
g74
(dp1652
g94
g95
ssg83
g1646
sg76
(lp1653
g348
asbag69
(g90
g71
NtRp1654
(dp1655
g74
(dp1656
g101
g102
ssg83
g1646
sg76
(lp1657
S':'
asbag69
(g90
g71
NtRp1658
(dp1659
g74
(dp1660
sg83
g1646
sg76
(lp1661
g69
(g70
g71
NtRp1662
(dp1663
g74
(dp1664
g82
I3
ssg83
g1658
sg76
(lp1665
S''
asbasbasbag69
(g85
g71
NtRp1666
(dp1667
g74
(dp1668
sg83
g1602
sg76
(lp1669
g69
(g90
g71
NtRp1670
(dp1671
g74
(dp1672
g94
g95
ssg83
g1666
sg76
(lp1673
g369
asbag69
(g90
g71
NtRp1674
(dp1675
g74
(dp1676
g101
g102
ssg83
g1666
sg76
(lp1677
S':'
asbag69
(g90
g71
NtRp1678
(dp1679
g74
(dp1680
sg83
g1666
sg76
(lp1681
g69
(g70
g71
NtRp1682
(dp1683
g74
(dp1684
g82
I3
ssg83
g1678
sg76
(lp1685
S''
asbasbasbag69
(g85
g71
NtRp1686
(dp1687
g74
(dp1688
sg83
g1602
sg76
(lp1689
g69
(g90
g71
NtRp1690
(dp1691
g74
(dp1692
g94
g95
ssg83
g1686
sg76
(lp1693
g390
asbag69
(g90
g71
NtRp1694
(dp1695
g74
(dp1696
g101
g102
ssg83
g1686
sg76
(lp1697
S':'
asbag69
(g90
g71
NtRp1698
(dp1699
g74
(dp1700
sg83
g1686
sg76
(lp1701
g69
(g70
g71
NtRp1702
(dp1703
g74
(dp1704
g82
I3
ssg83
g1698
sg76
(lp1705
S''
asbasbasbag69
(g85
g71
NtRp1706
(dp1707
g74
(dp1708
sg83
g1602
sg76
(lp1709
g69
(g90
g71
NtRp1710
(dp1711
g74
(dp1712
g94
g95
ssg83
g1706
sg76
(lp1713
g411
asbag69
(g90
g71
NtRp1714
(dp1715
g74
(dp1716
g101
g102
ssg83
g1706
sg76
(lp1717
S':'
asbag69
(g90
g71
NtRp1718
(dp1719
g74
(dp1720
sg83
g1706
sg76
(lp1721
g69
(g70
g71
NtRp1722
(dp1723
g74
(dp1724
g82
I3
ssg83
g1718
sg76
(lp1725
S''
asbasbasbag69
(g85
g71
NtRp1726
(dp1727
g74
(dp1728
sg83
g1602
sg76
(lp1729
g69
(g90
g71
NtRp1730
(dp1731
g74
(dp1732
g94
g95
ssg83
g1726
sg76
(lp1733
g432
asbag69
(g90
g71
NtRp1734
(dp1735
g74
(dp1736
g101
g102
ssg83
g1726
sg76
(lp1737
S':'
asbag69
(g90
g71
NtRp1738
(dp1739
g74
(dp1740
sg83
g1726
sg76
(lp1741
g69
(g70
g71
NtRp1742
(dp1743
g74
(dp1744
g82
I3
ssg83
g1738
sg76
(lp1745
S''
asbasbasbag69
(g85
g71
NtRp1746
(dp1747
g74
(dp1748
sg83
g1602
sg76
(lp1749
g69
(g90
g71
NtRp1750
(dp1751
g74
(dp1752
g94
g95
ssg83
g1746
sg76
(lp1753
g453
asbag69
(g90
g71
NtRp1754
(dp1755
g74
(dp1756
g101
g102
ssg83
g1746
sg76
(lp1757
S':'
asbag69
(g90
g71
NtRp1758
(dp1759
g74
(dp1760
sg83
g1746
sg76
(lp1761
g69
(g70
g71
NtRp1762
(dp1763
g74
(dp1764
g82
I3
ssg83
g1758
sg76
(lp1765
S''
asbasbasbasbasbasbasbag69
(g85
g71
NtRp1766
(dp1767
g74
(dp1768
sg83
g268
sg76
(lp1769
g69
(g90
g71
NtRp1770
(dp1771
g74
(dp1772
g94
g95
ssg83
g1766
sg76
(lp1773
S'session_id_projeto'
p1774
asbag69
(g90
g71
NtRp1775
(dp1776
g74
(dp1777
g101
g102
ssg83
g1766
sg76
(lp1778
S':'
asbag69
(g90
g71
NtRp1779
(dp1780
g74
(dp1781
sg83
g1766
sg76
(lp1782
g69
(g70
g71
NtRp1783
(dp1784
g74
(dp1785
g82
I4
ssg83
g1779
sg76
(lp1786
S'127.0.0.1-1d71d23a-4548-46ae-83a7-a16ca5ebf53a'
p1787
ag69
(g78
g71
NtRp1788
(dp1789
g74
(dp1790
g82
I3
ssg83
Nsg76
(lp1791
g69
(g85
g71
NtRp1792
(dp1793
g74
(dp1794
sg83
g1788
sg76
(lp1795
g69
(g90
g71
NtRp1796
(dp1797
g74
(dp1798
g94
g95
ssg83
g1792
sg76
(lp1799
g306
asbag69
(g90
g71
NtRp1800
(dp1801
g74
(dp1802
g101
g102
ssg83
g1792
sg76
(lp1803
S':'
asbag69
(g90
g71
NtRp1804
(dp1805
g74
(dp1806
sg83
g1792
sg76
(lp1807
g69
(g70
g71
NtRp1808
(dp1809
g74
(dp1810
g82
I3
ssg83
g1804
sg76
(lp1811
S''
asbasbasbag69
(g85
g71
NtRp1812
(dp1813
g74
(dp1814
sg83
g1788
sg76
(lp1815
g69
(g90
g71
NtRp1816
(dp1817
g74
(dp1818
g94
g95
ssg83
g1812
sg76
(lp1819
g327
asbag69
(g90
g71
NtRp1820
(dp1821
g74
(dp1822
g101
g102
ssg83
g1812
sg76
(lp1823
S':'
asbag69
(g90
g71
NtRp1824
(dp1825
g74
(dp1826
sg83
g1812
sg76
(lp1827
g69
(g70
g71
NtRp1828
(dp1829
g74
(dp1830
g82
I3
ssg83
g1824
sg76
(lp1831
S''
asbasbasbag69
(g85
g71
NtRp1832
(dp1833
g74
(dp1834
sg83
g1788
sg76
(lp1835
g69
(g90
g71
NtRp1836
(dp1837
g74
(dp1838
g94
g95
ssg83
g1832
sg76
(lp1839
g348
asbag69
(g90
g71
NtRp1840
(dp1841
g74
(dp1842
g101
g102
ssg83
g1832
sg76
(lp1843
S':'
asbag69
(g90
g71
NtRp1844
(dp1845
g74
(dp1846
sg83
g1832
sg76
(lp1847
g69
(g70
g71
NtRp1848
(dp1849
g74
(dp1850
g82
I3
ssg83
g1844
sg76
(lp1851
S''
asbasbasbag69
(g85
g71
NtRp1852
(dp1853
g74
(dp1854
sg83
g1788
sg76
(lp1855
g69
(g90
g71
NtRp1856
(dp1857
g74
(dp1858
g94
g95
ssg83
g1852
sg76
(lp1859
g369
asbag69
(g90
g71
NtRp1860
(dp1861
g74
(dp1862
g101
g102
ssg83
g1852
sg76
(lp1863
S':'
asbag69
(g90
g71
NtRp1864
(dp1865
g74
(dp1866
sg83
g1852
sg76
(lp1867
g69
(g70
g71
NtRp1868
(dp1869
g74
(dp1870
g82
I3
ssg83
g1864
sg76
(lp1871
S''
asbasbasbag69
(g85
g71
NtRp1872
(dp1873
g74
(dp1874
sg83
g1788
sg76
(lp1875
g69
(g90
g71
NtRp1876
(dp1877
g74
(dp1878
g94
g95
ssg83
g1872
sg76
(lp1879
g390
asbag69
(g90
g71
NtRp1880
(dp1881
g74
(dp1882
g101
g102
ssg83
g1872
sg76
(lp1883
S':'
asbag69
(g90
g71
NtRp1884
(dp1885
g74
(dp1886
sg83
g1872
sg76
(lp1887
g69
(g70
g71
NtRp1888
(dp1889
g74
(dp1890
g82
I3
ssg83
g1884
sg76
(lp1891
S''
asbasbasbag69
(g85
g71
NtRp1892
(dp1893
g74
(dp1894
sg83
g1788
sg76
(lp1895
g69
(g90
g71
NtRp1896
(dp1897
g74
(dp1898
g94
g95
ssg83
g1892
sg76
(lp1899
g411
asbag69
(g90
g71
NtRp1900
(dp1901
g74
(dp1902
g101
g102
ssg83
g1892
sg76
(lp1903
S':'
asbag69
(g90
g71
NtRp1904
(dp1905
g74
(dp1906
sg83
g1892
sg76
(lp1907
g69
(g70
g71
NtRp1908
(dp1909
g74
(dp1910
g82
I3
ssg83
g1904
sg76
(lp1911
S''
asbasbasbag69
(g85
g71
NtRp1912
(dp1913
g74
(dp1914
sg83
g1788
sg76
(lp1915
g69
(g90
g71
NtRp1916
(dp1917
g74
(dp1918
g94
g95
ssg83
g1912
sg76
(lp1919
g432
asbag69
(g90
g71
NtRp1920
(dp1921
g74
(dp1922
g101
g102
ssg83
g1912
sg76
(lp1923
S':'
asbag69
(g90
g71
NtRp1924
(dp1925
g74
(dp1926
sg83
g1912
sg76
(lp1927
g69
(g70
g71
NtRp1928
(dp1929
g74
(dp1930
g82
I3
ssg83
g1924
sg76
(lp1931
S''
asbasbasbag69
(g85
g71
NtRp1932
(dp1933
g74
(dp1934
sg83
g1788
sg76
(lp1935
g69
(g90
g71
NtRp1936
(dp1937
g74
(dp1938
g94
g95
ssg83
g1932
sg76
(lp1939
g453
asbag69
(g90
g71
NtRp1940
(dp1941
g74
(dp1942
g101
g102
ssg83
g1932
sg76
(lp1943
S':'
asbag69
(g90
g71
NtRp1944
(dp1945
g74
(dp1946
sg83
g1932
sg76
(lp1947
g69
(g70
g71
NtRp1948
(dp1949
g74
(dp1950
g82
I3
ssg83
g1944
sg76
(lp1951
S''
asbasbasbasbasbasbasbag69
(g85
g71
NtRp1952
(dp1953
g74
(dp1954
sg83
g268
sg76
(lp1955
g69
(g90
g71
NtRp1956
(dp1957
g74
(dp1958
g94
g95
ssg83
g1952
sg76
(lp1959
S'session_id_teste'
p1960
asbag69
(g90
g71
NtRp1961
(dp1962
g74
(dp1963
g101
g102
ssg83
g1952
sg76
(lp1964
S':'
asbag69
(g90
g71
NtRp1965
(dp1966
g74
(dp1967
sg83
g1952
sg76
(lp1968
g69
(g70
g71
NtRp1969
(dp1970
g74
(dp1971
g82
I4
ssg83
g1965
sg76
(lp1972
S'127.0.0.1-a65cc090-7b59-424e-a21f-1e698601b4d8'
p1973
ag69
(g78
g71
NtRp1974
(dp1975
g74
(dp1976
g82
I3
ssg83
Nsg76
(lp1977
g69
(g85
g71
NtRp1978
(dp1979
g74
(dp1980
sg83
g1974
sg76
(lp1981
g69
(g90
g71
NtRp1982
(dp1983
g74
(dp1984
g94
g95
ssg83
g1978
sg76
(lp1985
g306
asbag69
(g90
g71
NtRp1986
(dp1987
g74
(dp1988
g101
g102
ssg83
g1978
sg76
(lp1989
S':'
asbag69
(g90
g71
NtRp1990
(dp1991
g74
(dp1992
sg83
g1978
sg76
(lp1993
g69
(g70
g71
NtRp1994
(dp1995
g74
(dp1996
g82
I3
ssg83
g1990
sg76
(lp1997
S''
asbasbasbag69
(g85
g71
NtRp1998
(dp1999
g74
(dp2000
sg83
g1974
sg76
(lp2001
g69
(g90
g71
NtRp2002
(dp2003
g74
(dp2004
g94
g95
ssg83
g1998
sg76
(lp2005
g327
asbag69
(g90
g71
NtRp2006
(dp2007
g74
(dp2008
g101
g102
ssg83
g1998
sg76
(lp2009
S':'
asbag69
(g90
g71
NtRp2010
(dp2011
g74
(dp2012
sg83
g1998
sg76
(lp2013
g69
(g70
g71
NtRp2014
(dp2015
g74
(dp2016
g82
I3
ssg83
g2010
sg76
(lp2017
S''
asbasbasbag69
(g85
g71
NtRp2018
(dp2019
g74
(dp2020
sg83
g1974
sg76
(lp2021
g69
(g90
g71
NtRp2022
(dp2023
g74
(dp2024
g94
g95
ssg83
g2018
sg76
(lp2025
g348
asbag69
(g90
g71
NtRp2026
(dp2027
g74
(dp2028
g101
g102
ssg83
g2018
sg76
(lp2029
S':'
asbag69
(g90
g71
NtRp2030
(dp2031
g74
(dp2032
sg83
g2018
sg76
(lp2033
g69
(g70
g71
NtRp2034
(dp2035
g74
(dp2036
g82
I3
ssg83
g2030
sg76
(lp2037
S''
asbasbasbag69
(g85
g71
NtRp2038
(dp2039
g74
(dp2040
sg83
g1974
sg76
(lp2041
g69
(g90
g71
NtRp2042
(dp2043
g74
(dp2044
g94
g95
ssg83
g2038
sg76
(lp2045
g369
asbag69
(g90
g71
NtRp2046
(dp2047
g74
(dp2048
g101
g102
ssg83
g2038
sg76
(lp2049
S':'
asbag69
(g90
g71
NtRp2050
(dp2051
g74
(dp2052
sg83
g2038
sg76
(lp2053
g69
(g70
g71
NtRp2054
(dp2055
g74
(dp2056
g82
I3
ssg83
g2050
sg76
(lp2057
S''
asbasbasbag69
(g85
g71
NtRp2058
(dp2059
g74
(dp2060
sg83
g1974
sg76
(lp2061
g69
(g90
g71
NtRp2062
(dp2063
g74
(dp2064
g94
g95
ssg83
g2058
sg76
(lp2065
g390
asbag69
(g90
g71
NtRp2066
(dp2067
g74
(dp2068
g101
g102
ssg83
g2058
sg76
(lp2069
S':'
asbag69
(g90
g71
NtRp2070
(dp2071
g74
(dp2072
sg83
g2058
sg76
(lp2073
g69
(g70
g71
NtRp2074
(dp2075
g74
(dp2076
g82
I3
ssg83
g2070
sg76
(lp2077
S''
asbasbasbag69
(g85
g71
NtRp2078
(dp2079
g74
(dp2080
sg83
g1974
sg76
(lp2081
g69
(g90
g71
NtRp2082
(dp2083
g74
(dp2084
g94
g95
ssg83
g2078
sg76
(lp2085
g411
asbag69
(g90
g71
NtRp2086
(dp2087
g74
(dp2088
g101
g102
ssg83
g2078
sg76
(lp2089
S':'
asbag69
(g90
g71
NtRp2090
(dp2091
g74
(dp2092
sg83
g2078
sg76
(lp2093
g69
(g70
g71
NtRp2094
(dp2095
g74
(dp2096
g82
I3
ssg83
g2090
sg76
(lp2097
S''
asbasbasbag69
(g85
g71
NtRp2098
(dp2099
g74
(dp2100
sg83
g1974
sg76
(lp2101
g69
(g90
g71
NtRp2102
(dp2103
g74
(dp2104
g94
g95
ssg83
g2098
sg76
(lp2105
g432
asbag69
(g90
g71
NtRp2106
(dp2107
g74
(dp2108
g101
g102
ssg83
g2098
sg76
(lp2109
S':'
asbag69
(g90
g71
NtRp2110
(dp2111
g74
(dp2112
sg83
g2098
sg76
(lp2113
g69
(g70
g71
NtRp2114
(dp2115
g74
(dp2116
g82
I3
ssg83
g2110
sg76
(lp2117
S''
asbasbasbag69
(g85
g71
NtRp2118
(dp2119
g74
(dp2120
sg83
g1974
sg76
(lp2121
g69
(g90
g71
NtRp2122
(dp2123
g74
(dp2124
g94
g95
ssg83
g2118
sg76
(lp2125
g453
asbag69
(g90
g71
NtRp2126
(dp2127
g74
(dp2128
g101
g102
ssg83
g2118
sg76
(lp2129
S':'
asbag69
(g90
g71
NtRp2130
(dp2131
g74
(dp2132
sg83
g2118
sg76
(lp2133
g69
(g70
g71
NtRp2134
(dp2135
g74
(dp2136
g82
I3
ssg83
g2130
sg76
(lp2137
S''
asbasbasbasbasbasbasbag69
(g85
g71
NtRp2138
(dp2139
g74
(dp2140
sg83
g268
sg76
(lp2141
g69
(g90
g71
NtRp2142
(dp2143
g74
(dp2144
g94
g95
ssg83
g2138
sg76
(lp2145
S'session_id_welcome'
p2146
asbag69
(g90
g71
NtRp2147
(dp2148
g74
(dp2149
g101
g102
ssg83
g2138
sg76
(lp2150
S':'
asbag69
(g90
g71
NtRp2151
(dp2152
g74
(dp2153
sg83
g2138
sg76
(lp2154
g69
(g70
g71
NtRp2155
(dp2156
g74
(dp2157
g82
I4
ssg83
g2151
sg76
(lp2158
S'127.0.0.1-4a298770-a734-4051-bfc7-5110d24aa0e2'
p2159
ag69
(g78
g71
NtRp2160
(dp2161
g74
(dp2162
g82
I3
ssg83
Nsg76
(lp2163
g69
(g85
g71
NtRp2164
(dp2165
g74
(dp2166
sg83
g2160
sg76
(lp2167
g69
(g90
g71
NtRp2168
(dp2169
g74
(dp2170
g94
g95
ssg83
g2164
sg76
(lp2171
g306
asbag69
(g90
g71
NtRp2172
(dp2173
g74
(dp2174
g101
g102
ssg83
g2164
sg76
(lp2175
S':'
asbag69
(g90
g71
NtRp2176
(dp2177
g74
(dp2178
sg83
g2164
sg76
(lp2179
g69
(g70
g71
NtRp2180
(dp2181
g74
(dp2182
g82
I3
ssg83
g2176
sg76
(lp2183
S''
asbasbasbag69
(g85
g71
NtRp2184
(dp2185
g74
(dp2186
sg83
g2160
sg76
(lp2187
g69
(g90
g71
NtRp2188
(dp2189
g74
(dp2190
g94
g95
ssg83
g2184
sg76
(lp2191
g327
asbag69
(g90
g71
NtRp2192
(dp2193
g74
(dp2194
g101
g102
ssg83
g2184
sg76
(lp2195
S':'
asbag69
(g90
g71
NtRp2196
(dp2197
g74
(dp2198
sg83
g2184
sg76
(lp2199
g69
(g70
g71
NtRp2200
(dp2201
g74
(dp2202
g82
I3
ssg83
g2196
sg76
(lp2203
S''
asbasbasbag69
(g85
g71
NtRp2204
(dp2205
g74
(dp2206
sg83
g2160
sg76
(lp2207
g69
(g90
g71
NtRp2208
(dp2209
g74
(dp2210
g94
g95
ssg83
g2204
sg76
(lp2211
g348
asbag69
(g90
g71
NtRp2212
(dp2213
g74
(dp2214
g101
g102
ssg83
g2204
sg76
(lp2215
S':'
asbag69
(g90
g71
NtRp2216
(dp2217
g74
(dp2218
sg83
g2204
sg76
(lp2219
g69
(g70
g71
NtRp2220
(dp2221
g74
(dp2222
g82
I3
ssg83
g2216
sg76
(lp2223
S''
asbasbasbag69
(g85
g71
NtRp2224
(dp2225
g74
(dp2226
sg83
g2160
sg76
(lp2227
g69
(g90
g71
NtRp2228
(dp2229
g74
(dp2230
g94
g95
ssg83
g2224
sg76
(lp2231
g369
asbag69
(g90
g71
NtRp2232
(dp2233
g74
(dp2234
g101
g102
ssg83
g2224
sg76
(lp2235
S':'
asbag69
(g90
g71
NtRp2236
(dp2237
g74
(dp2238
sg83
g2224
sg76
(lp2239
g69
(g70
g71
NtRp2240
(dp2241
g74
(dp2242
g82
I3
ssg83
g2236
sg76
(lp2243
S''
asbasbasbag69
(g85
g71
NtRp2244
(dp2245
g74
(dp2246
sg83
g2160
sg76
(lp2247
g69
(g90
g71
NtRp2248
(dp2249
g74
(dp2250
g94
g95
ssg83
g2244
sg76
(lp2251
g390
asbag69
(g90
g71
NtRp2252
(dp2253
g74
(dp2254
g101
g102
ssg83
g2244
sg76
(lp2255
S':'
asbag69
(g90
g71
NtRp2256
(dp2257
g74
(dp2258
sg83
g2244
sg76
(lp2259
g69
(g70
g71
NtRp2260
(dp2261
g74
(dp2262
g82
I3
ssg83
g2256
sg76
(lp2263
S''
asbasbasbag69
(g85
g71
NtRp2264
(dp2265
g74
(dp2266
sg83
g2160
sg76
(lp2267
g69
(g90
g71
NtRp2268
(dp2269
g74
(dp2270
g94
g95
ssg83
g2264
sg76
(lp2271
g411
asbag69
(g90
g71
NtRp2272
(dp2273
g74
(dp2274
g101
g102
ssg83
g2264
sg76
(lp2275
S':'
asbag69
(g90
g71
NtRp2276
(dp2277
g74
(dp2278
sg83
g2264
sg76
(lp2279
g69
(g70
g71
NtRp2280
(dp2281
g74
(dp2282
g82
I3
ssg83
g2276
sg76
(lp2283
S''
asbasbasbag69
(g85
g71
NtRp2284
(dp2285
g74
(dp2286
sg83
g2160
sg76
(lp2287
g69
(g90
g71
NtRp2288
(dp2289
g74
(dp2290
g94
g95
ssg83
g2284
sg76
(lp2291
g432
asbag69
(g90
g71
NtRp2292
(dp2293
g74
(dp2294
g101
g102
ssg83
g2284
sg76
(lp2295
S':'
asbag69
(g90
g71
NtRp2296
(dp2297
g74
(dp2298
sg83
g2284
sg76
(lp2299
g69
(g70
g71
NtRp2300
(dp2301
g74
(dp2302
g82
I3
ssg83
g2296
sg76
(lp2303
S''
asbasbasbag69
(g85
g71
NtRp2304
(dp2305
g74
(dp2306
sg83
g2160
sg76
(lp2307
g69
(g90
g71
NtRp2308
(dp2309
g74
(dp2310
g94
g95
ssg83
g2304
sg76
(lp2311
g453
asbag69
(g90
g71
NtRp2312
(dp2313
g74
(dp2314
g101
g102
ssg83
g2304
sg76
(lp2315
S':'
asbag69
(g90
g71
NtRp2316
(dp2317
g74
(dp2318
sg83
g2304
sg76
(lp2319
g69
(g70
g71
NtRp2320
(dp2321
g74
(dp2322
g82
I3
ssg83
g2316
sg76
(lp2323
S''
asbasbasbasbasbasbasbag69
(g85
g71
NtRp2324
(dp2325
g74
(dp2326
sg83
g268
sg76
(lp2327
g69
(g90
g71
NtRp2328
(dp2329
g74
(dp2330
g94
g95
ssg83
g2324
sg76
(lp2331
S'types'
p2332
asbag69
(g90
g71
NtRp2333
(dp2334
g74
(dp2335
g101
g102
ssg83
g2324
sg76
(lp2336
S':'
asbag69
(g90
g71
NtRp2337
(dp2338
g74
(dp2339
sg83
g2324
sg76
(lp2340
g69
(g70
g71
NtRp2341
(dp2342
g74
(dp2343
g82
I4
ssg83
g2337
sg76
(lp2344
S'Rev%201.0.1%20MX60-32S%20%20Kernel%201.0.11%20%28F%29'
p2345
ag69
(g78
g71
NtRp2346
(dp2347
g74
(dp2348
g82
I3
ssg83
Nsg76
(lp2349
g69
(g85
g71
NtRp2350
(dp2351
g74
(dp2352
sg83
g2346
sg76
(lp2353
g69
(g90
g71
NtRp2354
(dp2355
g74
(dp2356
g94
g95
ssg83
g2350
sg76
(lp2357
g306
asbag69
(g90
g71
NtRp2358
(dp2359
g74
(dp2360
g101
g102
ssg83
g2350
sg76
(lp2361
S':'
asbag69
(g90
g71
NtRp2362
(dp2363
g74
(dp2364
sg83
g2350
sg76
(lp2365
g69
(g70
g71
NtRp2366
(dp2367
g74
(dp2368
g82
I3
ssg83
g2362
sg76
(lp2369
S''
asbasbasbag69
(g85
g71
NtRp2370
(dp2371
g74
(dp2372
sg83
g2346
sg76
(lp2373
g69
(g90
g71
NtRp2374
(dp2375
g74
(dp2376
g94
g95
ssg83
g2370
sg76
(lp2377
g327
asbag69
(g90
g71
NtRp2378
(dp2379
g74
(dp2380
g101
g102
ssg83
g2370
sg76
(lp2381
S':'
asbag69
(g90
g71
NtRp2382
(dp2383
g74
(dp2384
sg83
g2370
sg76
(lp2385
g69
(g70
g71
NtRp2386
(dp2387
g74
(dp2388
g82
I3
ssg83
g2382
sg76
(lp2389
S''
asbasbasbag69
(g85
g71
NtRp2390
(dp2391
g74
(dp2392
sg83
g2346
sg76
(lp2393
g69
(g90
g71
NtRp2394
(dp2395
g74
(dp2396
g94
g95
ssg83
g2390
sg76
(lp2397
g348
asbag69
(g90
g71
NtRp2398
(dp2399
g74
(dp2400
g101
g102
ssg83
g2390
sg76
(lp2401
S':'
asbag69
(g90
g71
NtRp2402
(dp2403
g74
(dp2404
sg83
g2390
sg76
(lp2405
g69
(g70
g71
NtRp2406
(dp2407
g74
(dp2408
g82
I3
ssg83
g2402
sg76
(lp2409
S''
asbasbasbag69
(g85
g71
NtRp2410
(dp2411
g74
(dp2412
sg83
g2346
sg76
(lp2413
g69
(g90
g71
NtRp2414
(dp2415
g74
(dp2416
g94
g95
ssg83
g2410
sg76
(lp2417
g369
asbag69
(g90
g71
NtRp2418
(dp2419
g74
(dp2420
g101
g102
ssg83
g2410
sg76
(lp2421
S':'
asbag69
(g90
g71
NtRp2422
(dp2423
g74
(dp2424
sg83
g2410
sg76
(lp2425
g69
(g70
g71
NtRp2426
(dp2427
g74
(dp2428
g82
I3
ssg83
g2422
sg76
(lp2429
S''
asbasbasbag69
(g85
g71
NtRp2430
(dp2431
g74
(dp2432
sg83
g2346
sg76
(lp2433
g69
(g90
g71
NtRp2434
(dp2435
g74
(dp2436
g94
g95
ssg83
g2430
sg76
(lp2437
g390
asbag69
(g90
g71
NtRp2438
(dp2439
g74
(dp2440
g101
g102
ssg83
g2430
sg76
(lp2441
S':'
asbag69
(g90
g71
NtRp2442
(dp2443
g74
(dp2444
sg83
g2430
sg76
(lp2445
g69
(g70
g71
NtRp2446
(dp2447
g74
(dp2448
g82
I3
ssg83
g2442
sg76
(lp2449
S''
asbasbasbag69
(g85
g71
NtRp2450
(dp2451
g74
(dp2452
sg83
g2346
sg76
(lp2453
g69
(g90
g71
NtRp2454
(dp2455
g74
(dp2456
g94
g95
ssg83
g2450
sg76
(lp2457
g411
asbag69
(g90
g71
NtRp2458
(dp2459
g74
(dp2460
g101
g102
ssg83
g2450
sg76
(lp2461
S':'
asbag69
(g90
g71
NtRp2462
(dp2463
g74
(dp2464
sg83
g2450
sg76
(lp2465
g69
(g70
g71
NtRp2466
(dp2467
g74
(dp2468
g82
I3
ssg83
g2462
sg76
(lp2469
S''
asbasbasbag69
(g85
g71
NtRp2470
(dp2471
g74
(dp2472
sg83
g2346
sg76
(lp2473
g69
(g90
g71
NtRp2474
(dp2475
g74
(dp2476
g94
g95
ssg83
g2470
sg76
(lp2477
g432
asbag69
(g90
g71
NtRp2478
(dp2479
g74
(dp2480
g101
g102
ssg83
g2470
sg76
(lp2481
S':'
asbag69
(g90
g71
NtRp2482
(dp2483
g74
(dp2484
sg83
g2470
sg76
(lp2485
g69
(g70
g71
NtRp2486
(dp2487
g74
(dp2488
g82
I3
ssg83
g2482
sg76
(lp2489
S''
asbasbasbag69
(g85
g71
NtRp2490
(dp2491
g74
(dp2492
sg83
g2346
sg76
(lp2493
g69
(g90
g71
NtRp2494
(dp2495
g74
(dp2496
g94
g95
ssg83
g2490
sg76
(lp2497
g453
asbag69
(g90
g71
NtRp2498
(dp2499
g74
(dp2500
g101
g102
ssg83
g2490
sg76
(lp2501
S':'
asbag69
(g90
g71
NtRp2502
(dp2503
g74
(dp2504
sg83
g2490
sg76
(lp2505
g69
(g70
g71
NtRp2506
(dp2507
g74
(dp2508
g82
I3
ssg83
g2502
sg76
(lp2509
S''
asbasbasbasbasbasbasbasbasbasbasbag69
(g85
g71
NtRp2510
(dp2511
g74
(dp2512
sg83
g79
sg76
(lp2513
g69
(g90
g71
NtRp2514
(dp2515
g74
(dp2516
g94
g95
ssg83
g2510
sg76
(lp2517
S'env'
p2518
asbag69
(g90
g71
NtRp2519
(dp2520
g74
(dp2521
g101
g102
ssg83
g2510
sg76
(lp2522
S':'
asbag69
(g90
g71
NtRp2523
(dp2524
g74
(dp2525
sg83
g2510
sg76
(lp2526
g69
(g70
g71
NtRp2527
(dp2528
g74
(dp2529
g82
I5
ssg83
g2523
sg76
(lp2530
g69
(g78
g71
NtRp2531
(dp2532
g74
(dp2533
g82
I4
ssg83
Nsg76
(lp2534
g69
(g85
g71
NtRp2535
(dp2536
g74
(dp2537
sg83
g2531
sg76
(lp2538
g69
(g90
g71
NtRp2539
(dp2540
g74
(dp2541
g94
g95
ssg83
g2535
sg76
(lp2542
S'app_folders'
p2543
asbag69
(g90
g71
NtRp2544
(dp2545
g74
(dp2546
g101
g102
ssg83
g2535
sg76
(lp2547
S':'
asbag69
(g90
g71
NtRp2548
(dp2549
g74
(dp2550
sg83
g2535
sg76
(lp2551
g69
(g70
g71
NtRp2552
(dp2553
g74
(dp2554
g82
I4
ssg83
g2548
sg76
(lp2555
S"set(['/var/www/hosts3/applications/projeto/'])"
p2556
asbasbasbag69
(g85
g71
NtRp2557
(dp2558
g74
(dp2559
sg83
g2531
sg76
(lp2560
g69
(g90
g71
NtRp2561
(dp2562
g74
(dp2563
g94
g95
ssg83
g2557
sg76
(lp2564
S'applications_parent'
p2565
asbag69
(g90
g71
NtRp2566
(dp2567
g74
(dp2568
g101
g102
ssg83
g2557
sg76
(lp2569
S':'
asbag69
(g90
g71
NtRp2570
(dp2571
g74
(dp2572
sg83
g2557
sg76
(lp2573
g69
(g70
g71
NtRp2574
(dp2575
g74
(dp2576
g82
I4
ssg83
g2570
sg76
(lp2577
S'/var/www/hosts3'
p2578
asbasbasbag69
(g85
g71
NtRp2579
(dp2580
g74
(dp2581
sg83
g2531
sg76
(lp2582
g69
(g90
g71
NtRp2583
(dp2584
g74
(dp2585
g94
g95
ssg83
g2579
sg76
(lp2586
S'cmd_args'
p2587
asbag69
(g90
g71
NtRp2588
(dp2589
g74
(dp2590
g101
g102
ssg83
g2579
sg76
(lp2591
S':'
asbag69
(g90
g71
NtRp2592
(dp2593
g74
(dp2594
sg83
g2579
sg76
(lp2595
g69
(g70
g71
NtRp2596
(dp2597
g74
(dp2598
g82
I4
ssg83
g2592
sg76
(lp2599
g69
(g78
g71
NtRp2600
(dp2601
g74
(dp2602
g82
I3
ssg83
Nsg76
(lp2603
sbasbasbasbag69
(g85
g71
NtRp2604
(dp2605
g74
(dp2606
sg83
g2531
sg76
(lp2607
g69
(g90
g71
NtRp2608
(dp2609
g74
(dp2610
g94
g95
ssg83
g2604
sg76
(lp2611
S'cmd_options'
p2612
asbag69
(g90
g71
NtRp2613
(dp2614
g74
(dp2615
g101
g102
ssg83
g2604
sg76
(lp2616
S':'
asbag69
(g90
g71
NtRp2617
(dp2618
g74
(dp2619
sg83
g2604
sg76
(lp2620
g69
(g70
g71
NtRp2621
(dp2622
g74
(dp2623
g82
I4
ssg83
g2617
sg76
(lp2624
S"<Values at 0x23ed050: {'verbose': False, 'ip': '127.0.0.1', 'with_scheduler': False, 'ips': [], 'shutdown_timeout': 5, 'taskbar': False, 'port': 8000, 'maxthreads': None, 'softcron': False, 'server_name': 'fernado-desktop', 'bpython': False, 'nogui': False, 'pid_filename': 'httpserver.pid', 'extcron': False, 'runcron': False, 'run_system_tests': False, 'test': None, 'folder': '/var/www/hosts3', 'config': '', 'minthreads': None, 'winservice': '', 'shell': None, 'run': '', 'log_filename': 'httpserver.log', 'debuglevel': 30, 'args': [''], 'socket_timeout': 5, 'ssl_ca_certificate': None, 'scheduler': None, 'profiler_filename': None, 'ssl_private_key': '', 'scheduler_groups': None, 'password': '123456', 'request_queue_size': 5, 'ssl_certificate': '', 'cronjob': False, 'numthreads': None, 'quiet': False, 'interfaces': None, 'import_models': False, 'timeout': 10, 'plain': False, 'nobanner': False}>"
p2625
asbasbasbag69
(g85
g71
NtRp2626
(dp2627
g74
(dp2628
sg83
g2531
sg76
(lp2629
g69
(g90
g71
NtRp2630
(dp2631
g74
(dp2632
g94
g95
ssg83
g2626
sg76
(lp2633
S'db_sessions'
p2634
asbag69
(g90
g71
NtRp2635
(dp2636
g74
(dp2637
g101
g102
ssg83
g2626
sg76
(lp2638
S':'
asbag69
(g90
g71
NtRp2639
(dp2640
g74
(dp2641
sg83
g2626
sg76
(lp2642
g69
(g70
g71
NtRp2643
(dp2644
g74
(dp2645
g82
I4
ssg83
g2639
sg76
(lp2646
S'set([])'
p2647
asbasbasbag69
(g85
g71
NtRp2648
(dp2649
g74
(dp2650
sg83
g2531
sg76
(lp2651
g69
(g90
g71
NtRp2652
(dp2653
g74
(dp2654
g94
g95
ssg83
g2648
sg76
(lp2655
S'debugging'
p2656
asbag69
(g90
g71
NtRp2657
(dp2658
g74
(dp2659
g101
g102
ssg83
g2648
sg76
(lp2660
S':'
asbag69
(g90
g71
NtRp2661
(dp2662
g74
(dp2663
sg83
g2648
sg76
(lp2664
g69
(g70
g71
NtRp2665
(dp2666
g74
(dp2667
g82
I4
ssg83
g2661
sg76
(lp2668
g112
asbasbasbag69
(g85
g71
NtRp2669
(dp2670
g74
(dp2671
sg83
g2531
sg76
(lp2672
g69
(g90
g71
NtRp2673
(dp2674
g74
(dp2675
g94
g95
ssg83
g2669
sg76
(lp2676
S'gluon_parent'
p2677
asbag69
(g90
g71
NtRp2678
(dp2679
g74
(dp2680
g101
g102
ssg83
g2669
sg76
(lp2681
S':'
asbag69
(g90
g71
NtRp2682
(dp2683
g74
(dp2684
sg83
g2669
sg76
(lp2685
g69
(g70
g71
NtRp2686
(dp2687
g74
(dp2688
g82
I4
ssg83
g2682
sg76
(lp2689
S'/var/www/hosts3'
p2690
asbasbasbag69
(g85
g71
NtRp2691
(dp2692
g74
(dp2693
sg83
g2531
sg76
(lp2694
g69
(g90
g71
NtRp2695
(dp2696
g74
(dp2697
g94
g95
ssg83
g2691
sg76
(lp2698
S'http_accept'
p2699
asbag69
(g90
g71
NtRp2700
(dp2701
g74
(dp2702
g101
g102
ssg83
g2691
sg76
(lp2703
S':'
asbag69
(g90
g71
NtRp2704
(dp2705
g74
(dp2706
sg83
g2691
sg76
(lp2707
g69
(g70
g71
NtRp2708
(dp2709
g74
(dp2710
g82
I4
ssg83
g2704
sg76
(lp2711
S'text/html,application/xhtml+xml,application/xml;q=0.9,*/*;q=0.8'
p2712
asbasbasbag69
(g85
g71
NtRp2713
(dp2714
g74
(dp2715
sg83
g2531
sg76
(lp2716
g69
(g90
g71
NtRp2717
(dp2718
g74
(dp2719
g94
g95
ssg83
g2713
sg76
(lp2720
S'http_accept_charset'
p2721
asbag69
(g90
g71
NtRp2722
(dp2723
g74
(dp2724
g101
g102
ssg83
g2713
sg76
(lp2725
S':'
asbag69
(g90
g71
NtRp2726
(dp2727
g74
(dp2728
sg83
g2713
sg76
(lp2729
g69
(g70
g71
NtRp2730
(dp2731
g74
(dp2732
g82
I4
ssg83
g2726
sg76
(lp2733
S'ISO-8859-1,utf-8;q=0.7,*;q=0.3'
p2734
asbasbasbag69
(g85
g71
NtRp2735
(dp2736
g74
(dp2737
sg83
g2531
sg76
(lp2738
g69
(g90
g71
NtRp2739
(dp2740
g74
(dp2741
g94
g95
ssg83
g2735
sg76
(lp2742
S'http_accept_encoding'
p2743
asbag69
(g90
g71
NtRp2744
(dp2745
g74
(dp2746
g101
g102
ssg83
g2735
sg76
(lp2747
S':'
asbag69
(g90
g71
NtRp2748
(dp2749
g74
(dp2750
sg83
g2735
sg76
(lp2751
g69
(g70
g71
NtRp2752
(dp2753
g74
(dp2754
g82
I4
ssg83
g2748
sg76
(lp2755
S'gzip,deflate,sdch'
p2756
asbasbasbag69
(g85
g71
NtRp2757
(dp2758
g74
(dp2759
sg83
g2531
sg76
(lp2760
g69
(g90
g71
NtRp2761
(dp2762
g74
(dp2763
g94
g95
ssg83
g2757
sg76
(lp2764
S'http_accept_language'
p2765
asbag69
(g90
g71
NtRp2766
(dp2767
g74
(dp2768
g101
g102
ssg83
g2757
sg76
(lp2769
S':'
asbag69
(g90
g71
NtRp2770
(dp2771
g74
(dp2772
sg83
g2757
sg76
(lp2773
g69
(g70
g71
NtRp2774
(dp2775
g74
(dp2776
g82
I4
ssg83
g2770
sg76
(lp2777
S'pt-BR,pt;q=0.8,en-US;q=0.6,en;q=0.4'
p2778
asbasbasbag69
(g85
g71
NtRp2779
(dp2780
g74
(dp2781
sg83
g2531
sg76
(lp2782
g69
(g90
g71
NtRp2783
(dp2784
g74
(dp2785
g94
g95
ssg83
g2779
sg76
(lp2786
S'http_connection'
p2787
asbag69
(g90
g71
NtRp2788
(dp2789
g74
(dp2790
g101
g102
ssg83
g2779
sg76
(lp2791
S':'
asbag69
(g90
g71
NtRp2792
(dp2793
g74
(dp2794
sg83
g2779
sg76
(lp2795
g69
(g70
g71
NtRp2796
(dp2797
g74
(dp2798
g82
I4
ssg83
g2792
sg76
(lp2799
S'keep-alive'
p2800
asbasbasbag69
(g85
g71
NtRp2801
(dp2802
g74
(dp2803
sg83
g2531
sg76
(lp2804
g69
(g90
g71
NtRp2805
(dp2806
g74
(dp2807
g94
g95
ssg83
g2801
sg76
(lp2808
S'http_cookie'
p2809
asbag69
(g90
g71
NtRp2810
(dp2811
g74
(dp2812
g101
g102
ssg83
g2801
sg76
(lp2813
S':'
asbag69
(g90
g71
NtRp2814
(dp2815
g74
(dp2816
sg83
g2801
sg76
(lp2817
g69
(g70
g71
NtRp2818
(dp2819
g74
(dp2820
g82
I4
ssg83
g2814
sg76
(lp2821
S'hw_type=MX60; hw_version=Rev%201.9.82.316; types=Rev%201.0.1%20MX60-32S%20%20Kernel%201.0.11%20%28F%29; admin=admin; cookie=1649423593; model=MX; nr=1; language=1; session_id_welcome=127.0.0.1-4a298770-a734-4051-bfc7-5110d24aa0e2; session_id_admin=127.0.0.1-17a7c22b-f7af-4e89-8c73-d3678ac2ce9d; session_id_teste=127.0.0.1-a65cc090-7b59-424e-a21f-1e698601b4d8; session_id_projeto=127.0.0.1-1d71d23a-4548-46ae-83a7-a16ca5ebf53a'
p2822
asbasbasbag69
(g85
g71
NtRp2823
(dp2824
g74
(dp2825
sg83
g2531
sg76
(lp2826
g69
(g90
g71
NtRp2827
(dp2828
g74
(dp2829
g94
g95
ssg83
g2823
sg76
(lp2830
S'http_host'
p2831
asbag69
(g90
g71
NtRp2832
(dp2833
g74
(dp2834
g101
g102
ssg83
g2823
sg76
(lp2835
S':'
asbag69
(g90
g71
NtRp2836
(dp2837
g74
(dp2838
sg83
g2823
sg76
(lp2839
g69
(g70
g71
NtRp2840
(dp2841
g74
(dp2842
g82
I4
ssg83
g2836
sg76
(lp2843
S'127.0.0.1:8000'
p2844
asbasbasbag69
(g85
g71
NtRp2845
(dp2846
g74
(dp2847
sg83
g2531
sg76
(lp2848
g69
(g90
g71
NtRp2849
(dp2850
g74
(dp2851
g94
g95
ssg83
g2845
sg76
(lp2852
S'http_user_agent'
p2853
asbag69
(g90
g71
NtRp2854
(dp2855
g74
(dp2856
g101
g102
ssg83
g2845
sg76
(lp2857
S':'
asbag69
(g90
g71
NtRp2858
(dp2859
g74
(dp2860
sg83
g2845
sg76
(lp2861
g69
(g70
g71
NtRp2862
(dp2863
g74
(dp2864
g82
I4
ssg83
g2858
sg76
(lp2865
S'Mozilla/5.0 (X11; Linux x86_64) AppleWebKit/537.4 (KHTML, like Gecko) Ubuntu/12.10 Chromium/22.0.1229.94 Chrome/22.0.1229.94 Safari/537.4'
p2866
asbasbasbag69
(g85
g71
NtRp2867
(dp2868
g74
(dp2869
sg83
g2531
sg76
(lp2870
g69
(g90
g71
NtRp2871
(dp2872
g74
(dp2873
g94
g95
ssg83
g2867
sg76
(lp2874
S'is_jython'
p2875
asbag69
(g90
g71
NtRp2876
(dp2877
g74
(dp2878
g101
g102
ssg83
g2867
sg76
(lp2879
S':'
asbag69
(g90
g71
NtRp2880
(dp2881
g74
(dp2882
sg83
g2867
sg76
(lp2883
g69
(g70
g71
NtRp2884
(dp2885
g74
(dp2886
g82
I4
ssg83
g2880
sg76
(lp2887
g112
asbasbasbag69
(g85
g71
NtRp2888
(dp2889
g74
(dp2890
sg83
g2531
sg76
(lp2891
g69
(g90
g71
NtRp2892
(dp2893
g74
(dp2894
g94
g95
ssg83
g2888
sg76
(lp2895
S'is_pypy'
p2896
asbag69
(g90
g71
NtRp2897
(dp2898
g74
(dp2899
g101
g102
ssg83
g2888
sg76
(lp2900
S':'
asbag69
(g90
g71
NtRp2901
(dp2902
g74
(dp2903
sg83
g2888
sg76
(lp2904
g69
(g70
g71
NtRp2905
(dp2906
g74
(dp2907
g82
I4
ssg83
g2901
sg76
(lp2908
g112
asbasbasbag69
(g85
g71
NtRp2909
(dp2910
g74
(dp2911
sg83
g2531
sg76
(lp2912
g69
(g90
g71
NtRp2913
(dp2914
g74
(dp2915
g94
g95
ssg83
g2909
sg76
(lp2916
S'local_hosts'
p2917
asbag69
(g90
g71
NtRp2918
(dp2919
g74
(dp2920
g101
g102
ssg83
g2909
sg76
(lp2921
S':'
asbag69
(g90
g71
NtRp2922
(dp2923
g74
(dp2924
sg83
g2909
sg76
(lp2925
g69
(g70
g71
NtRp2926
(dp2927
g74
(dp2928
g82
I4
ssg83
g2922
sg76
(lp2929
g69
(g78
g71
NtRp2930
(dp2931
g74
(dp2932
g82
I3
ssg83
Nsg76
(lp2933
g69
(g85
g71
NtRp2934
(dp2935
g74
(dp2936
sg83
g2930
sg76
(lp2937
g69
(g90
g71
NtRp2938
(dp2939
g74
(dp2940
sg83
g2934
sg76
(lp2941
g69
(g70
g71
NtRp2942
(dp2943
g74
(dp2944
g82
I3
ssg83
g2938
sg76
(lp2945
S'127.0.1.1'
p2946
asbasbasbag69
(g85
g71
NtRp2947
(dp2948
g74
(dp2949
sg83
g2930
sg76
(lp2950
g69
(g90
g71
NtRp2951
(dp2952
g74
(dp2953
sg83
g2947
sg76
(lp2954
g69
(g70
g71
NtRp2955
(dp2956
g74
(dp2957
g82
I3
ssg83
g2951
sg76
(lp2958
S'::1'
p2959
asbasbasbag69
(g85
g71
NtRp2960
(dp2961
g74
(dp2962
sg83
g2930
sg76
(lp2963
g69
(g90
g71
NtRp2964
(dp2965
g74
(dp2966
sg83
g2960
sg76
(lp2967
g69
(g70
g71
NtRp2968
(dp2969
g74
(dp2970
g82
I3
ssg83
g2964
sg76
(lp2971
S'fernado-desktop'
p2972
asbasbasbag69
(g85
g71
NtRp2973
(dp2974
g74
(dp2975
sg83
g2930
sg76
(lp2976
g69
(g90
g71
NtRp2977
(dp2978
g74
(dp2979
sg83
g2973
sg76
(lp2980
g69
(g70
g71
NtRp2981
(dp2982
g74
(dp2983
g82
I3
ssg83
g2977
sg76
(lp2984
S'::ffff:127.0.0.1'
p2985
asbasbasbag69
(g85
g71
NtRp2986
(dp2987
g74
(dp2988
sg83
g2930
sg76
(lp2989
g69
(g90
g71
NtRp2990
(dp2991
g74
(dp2992
sg83
g2986
sg76
(lp2993
g69
(g70
g71
NtRp2994
(dp2995
g74
(dp2996
g82
I3
ssg83
g2990
sg76
(lp2997
S'127.0.0.1'
p2998
asbasbasbasbasbasbasbag69
(g85
g71
NtRp2999
(dp3000
g74
(dp3001
sg83
g2531
sg76
(lp3002
g69
(g90
g71
NtRp3003
(dp3004
g74
(dp3005
g94
g95
ssg83
g2999
sg76
(lp3006
S'path_info'
p3007
asbag69
(g90
g71
NtRp3008
(dp3009
g74
(dp3010
g101
g102
ssg83
g2999
sg76
(lp3011
S':'
asbag69
(g90
g71
NtRp3012
(dp3013
g74
(dp3014
sg83
g2999
sg76
(lp3015
g69
(g70
g71
NtRp3016
(dp3017
g74
(dp3018
g82
I4
ssg83
g3012
sg76
(lp3019
S'/'
asbasbasbag69
(g85
g71
NtRp3020
(dp3021
g74
(dp3022
sg83
g2531
sg76
(lp3023
g69
(g90
g71
NtRp3024
(dp3025
g74
(dp3026
g94
g95
ssg83
g3020
sg76
(lp3027
S'query_string'
p3028
asbag69
(g90
g71
NtRp3029
(dp3030
g74
(dp3031
g101
g102
ssg83
g3020
sg76
(lp3032
S':'
asbag69
(g90
g71
NtRp3033
(dp3034
g74
(dp3035
sg83
g3020
sg76
(lp3036
g69
(g70
g71
NtRp3037
(dp3038
g74
(dp3039
g82
I4
ssg83
g3033
sg76
(lp3040
S''
asbasbasbag69
(g85
g71
NtRp3041
(dp3042
g74
(dp3043
sg83
g2531
sg76
(lp3044
g69
(g90
g71
NtRp3045
(dp3046
g74
(dp3047
g94
g95
ssg83
g3041
sg76
(lp3048
S'remote_addr'
p3049
asbag69
(g90
g71
NtRp3050
(dp3051
g74
(dp3052
g101
g102
ssg83
g3041
sg76
(lp3053
S':'
asbag69
(g90
g71
NtRp3054
(dp3055
g74
(dp3056
sg83
g3041
sg76
(lp3057
g69
(g70
g71
NtRp3058
(dp3059
g74
(dp3060
g82
I4
ssg83
g3054
sg76
(lp3061
g224
asbasbasbag69
(g85
g71
NtRp3062
(dp3063
g74
(dp3064
sg83
g2531
sg76
(lp3065
g69
(g90
g71
NtRp3066
(dp3067
g74
(dp3068
g94
g95
ssg83
g3062
sg76
(lp3069
S'remote_port'
p3070
asbag69
(g90
g71
NtRp3071
(dp3072
g74
(dp3073
g101
g102
ssg83
g3062
sg76
(lp3074
S':'
asbag69
(g90
g71
NtRp3075
(dp3076
g74
(dp3077
sg83
g3062
sg76
(lp3078
g69
(g70
g71
NtRp3079
(dp3080
g74
(dp3081
g82
I4
ssg83
g3075
sg76
(lp3082
S'42078'
p3083
asbasbasbag69
(g85
g71
NtRp3084
(dp3085
g74
(dp3086
sg83
g2531
sg76
(lp3087
g69
(g90
g71
NtRp3088
(dp3089
g74
(dp3090
g94
g95
ssg83
g3084
sg76
(lp3091
S'request_method'
p3092
asbag69
(g90
g71
NtRp3093
(dp3094
g74
(dp3095
g101
g102
ssg83
g3084
sg76
(lp3096
S':'
asbag69
(g90
g71
NtRp3097
(dp3098
g74
(dp3099
sg83
g3084
sg76
(lp3100
g69
(g70
g71
NtRp3101
(dp3102
g74
(dp3103
g82
I4
ssg83
g3097
sg76
(lp3104
S'GET'
p3105
asbasbasbag69
(g85
g71
NtRp3106
(dp3107
g74
(dp3108
sg83
g2531
sg76
(lp3109
g69
(g90
g71
NtRp3110
(dp3111
g74
(dp3112
g94
g95
ssg83
g3106
sg76
(lp3113
S'request_uri'
p3114
asbag69
(g90
g71
NtRp3115
(dp3116
g74
(dp3117
g101
g102
ssg83
g3106
sg76
(lp3118
S':'
asbag69
(g90
g71
NtRp3119
(dp3120
g74
(dp3121
sg83
g3106
sg76
(lp3122
g69
(g70
g71
NtRp3123
(dp3124
g74
(dp3125
g82
I4
ssg83
g3119
sg76
(lp3126
S'/projeto/initial/user'
p3127
asbasbasbag69
(g85
g71
NtRp3128
(dp3129
g74
(dp3130
sg83
g2531
sg76
(lp3131
g69
(g90
g71
NtRp3132
(dp3133
g74
(dp3134
g94
g95
ssg83
g3128
sg76
(lp3135
S'script_name'
p3136
asbag69
(g90
g71
NtRp3137
(dp3138
g74
(dp3139
g101
g102
ssg83
g3128
sg76
(lp3140
S':'
asbag69
(g90
g71
NtRp3141
(dp3142
g74
(dp3143
sg83
g3128
sg76
(lp3144
g69
(g70
g71
NtRp3145
(dp3146
g74
(dp3147
g82
I4
ssg83
g3141
sg76
(lp3148
S''
asbasbasbag69
(g85
g71
NtRp3149
(dp3150
g74
(dp3151
sg83
g2531
sg76
(lp3152
g69
(g90
g71
NtRp3153
(dp3154
g74
(dp3155
g94
g95
ssg83
g3149
sg76
(lp3156
S'server_name'
p3157
asbag69
(g90
g71
NtRp3158
(dp3159
g74
(dp3160
g101
g102
ssg83
g3149
sg76
(lp3161
S':'
asbag69
(g90
g71
NtRp3162
(dp3163
g74
(dp3164
sg83
g3149
sg76
(lp3165
g69
(g70
g71
NtRp3166
(dp3167
g74
(dp3168
g82
I4
ssg83
g3162
sg76
(lp3169
S'fernado-desktop'
p3170
asbasbasbag69
(g85
g71
NtRp3171
(dp3172
g74
(dp3173
sg83
g2531
sg76
(lp3174
g69
(g90
g71
NtRp3175
(dp3176
g74
(dp3177
g94
g95
ssg83
g3171
sg76
(lp3178
S'server_port'
p3179
asbag69
(g90
g71
NtRp3180
(dp3181
g74
(dp3182
g101
g102
ssg83
g3171
sg76
(lp3183
S':'
asbag69
(g90
g71
NtRp3184
(dp3185
g74
(dp3186
sg83
g3171
sg76
(lp3187
g69
(g70
g71
NtRp3188
(dp3189
g74
(dp3190
g82
I4
ssg83
g3184
sg76
(lp3191
S'8000'
p3192
asbasbasbag69
(g85
g71
NtRp3193
(dp3194
g74
(dp3195
sg83
g2531
sg76
(lp3196
g69
(g90
g71
NtRp3197
(dp3198
g74
(dp3199
g94
g95
ssg83
g3193
sg76
(lp3200
S'server_protocol'
p3201
asbag69
(g90
g71
NtRp3202
(dp3203
g74
(dp3204
g101
g102
ssg83
g3193
sg76
(lp3205
S':'
asbag69
(g90
g71
NtRp3206
(dp3207
g74
(dp3208
sg83
g3193
sg76
(lp3209
g69
(g70
g71
NtRp3210
(dp3211
g74
(dp3212
g82
I4
ssg83
g3206
sg76
(lp3213
S'HTTP/1.1'
p3214
asbasbasbag69
(g85
g71
NtRp3215
(dp3216
g74
(dp3217
sg83
g2531
sg76
(lp3218
g69
(g90
g71
NtRp3219
(dp3220
g74
(dp3221
g94
g95
ssg83
g3215
sg76
(lp3222
S'server_software'
p3223
asbag69
(g90
g71
NtRp3224
(dp3225
g74
(dp3226
g101
g102
ssg83
g3215
sg76
(lp3227
S':'
asbag69
(g90
g71
NtRp3228
(dp3229
g74
(dp3230
sg83
g3215
sg76
(lp3231
g69
(g70
g71
NtRp3232
(dp3233
g74
(dp3234
g82
I4
ssg83
g3228
sg76
(lp3235
S'Rocket 1.2.6'
p3236
asbasbasbag69
(g85
g71
NtRp3237
(dp3238
g74
(dp3239
sg83
g2531
sg76
(lp3240
g69
(g90
g71
NtRp3241
(dp3242
g74
(dp3243
g94
g95
ssg83
g3237
sg76
(lp3244
S'web2py_original_uri'
p3245
asbag69
(g90
g71
NtRp3246
(dp3247
g74
(dp3248
g101
g102
ssg83
g3237
sg76
(lp3249
S':'
asbag69
(g90
g71
NtRp3250
(dp3251
g74
(dp3252
sg83
g3237
sg76
(lp3253
g69
(g70
g71
NtRp3254
(dp3255
g74
(dp3256
g82
I4
ssg83
g3250
sg76
(lp3257
S'/'
asbasbasbag69
(g85
g71
NtRp3258
(dp3259
g74
(dp3260
sg83
g2531
sg76
(lp3261
g69
(g90
g71
NtRp3262
(dp3263
g74
(dp3264
g94
g95
ssg83
g3258
sg76
(lp3265
S'web2py_path'
p3266
asbag69
(g90
g71
NtRp3267
(dp3268
g74
(dp3269
g101
g102
ssg83
g3258
sg76
(lp3270
S':'
asbag69
(g90
g71
NtRp3271
(dp3272
g74
(dp3273
sg83
g3258
sg76
(lp3274
g69
(g70
g71
NtRp3275
(dp3276
g74
(dp3277
g82
I4
ssg83
g3271
sg76
(lp3278
g2578
asbasbasbag69
(g85
g71
NtRp3279
(dp3280
g74
(dp3281
sg83
g2531
sg76
(lp3282
g69
(g90
g71
NtRp3283
(dp3284
g74
(dp3285
g94
g95
ssg83
g3279
sg76
(lp3286
S'web2py_version'
p3287
asbag69
(g90
g71
NtRp3288
(dp3289
g74
(dp3290
g101
g102
ssg83
g3279
sg76
(lp3291
S':'
asbag69
(g90
g71
NtRp3292
(dp3293
g74
(dp3294
sg83
g3279
sg76
(lp3295
g69
(g70
g71
NtRp3296
(dp3297
g74
(dp3298
g82
I4
ssg83
g3292
sg76
(lp3299
g69
(g78
g71
NtRp3300
(dp3301
g74
(dp3302
g82
I3
ssg83
Nsg76
(lp3303
g69
(g85
g71
NtRp3304
(dp3305
g74
(dp3306
sg83
g3300
sg76
(lp3307
g69
(g90
g71
NtRp3308
(dp3309
g74
(dp3310
sg83
g3304
sg76
(lp3311
g69
(g70
g71
NtRp3312
(dp3313
g74
(dp3314
g82
I3
ssg83
g3308
sg76
(lp3315
S'2'
asbasbasbag69
(g85
g71
NtRp3316
(dp3317
g74
(dp3318
sg83
g3300
sg76
(lp3319
g69
(g90
g71
NtRp3320
(dp3321
g74
(dp3322
sg83
g3316
sg76
(lp3323
g69
(g70
g71
NtRp3324
(dp3325
g74
(dp3326
g82
I3
ssg83
g3320
sg76
(lp3327
S'3'
asbasbasbag69
(g85
g71
NtRp3328
(dp3329
g74
(dp3330
sg83
g3300
sg76
(lp3331
g69
(g90
g71
NtRp3332
(dp3333
g74
(dp3334
sg83
g3328
sg76
(lp3335
g69
(g70
g71
NtRp3336
(dp3337
g74
(dp3338
g82
I3
ssg83
g3332
sg76
(lp3339
S'2'
asbasbasbag69
(g85
g71
NtRp3340
(dp3341
g74
(dp3342
sg83
g3300
sg76
(lp3343
g69
(g90
g71
NtRp3344
(dp3345
g74
(dp3346
sg83
g3340
sg76
(lp3347
g69
(g70
g71
NtRp3348
(dp3349
g74
(dp3350
g82
I3
ssg83
g3344
sg76
(lp3351
S'datetime.datetime(2012, 12, 17, 15, 3, 30)'
p3352
asbasbasbag69
(g85
g71
NtRp3353
(dp3354
g74
(dp3355
sg83
g3300
sg76
(lp3356
g69
(g90
g71
NtRp3357
(dp3358
g74
(dp3359
sg83
g3353
sg76
(lp3360
g69
(g70
g71
NtRp3361
(dp3362
g74
(dp3363
g82
I3
ssg83
g3357
sg76
(lp3364
S'stable'
p3365
asbasbasbasbasbasbasbag69
(g85
g71
NtRp3366
(dp3367
g74
(dp3368
sg83
g2531
sg76
(lp3369
g69
(g90
g71
NtRp3370
(dp3371
g74
(dp3372
g94
g95
ssg83
g3366
sg76
(lp3373
S'wsgi_errors'
p3374
asbag69
(g90
g71
NtRp3375
(dp3376
g74
(dp3377
g101
g102
ssg83
g3366
sg76
(lp3378
S':'
asbag69
(g90
g71
NtRp3379
(dp3380
g74
(dp3381
sg83
g3366
sg76
(lp3382
g69
(g70
g71
NtRp3383
(dp3384
g74
(dp3385
g82
I4
ssg83
g3379
sg76
(lp3386
S"<open file '<stderr>', mode 'w' at 0x7fd94efdf270>"
p3387
asbasbasbag69
(g85
g71
NtRp3388
(dp3389
g74
(dp3390
sg83
g2531
sg76
(lp3391
g69
(g90
g71
NtRp3392
(dp3393
g74
(dp3394
g94
g95
ssg83
g3388
sg76
(lp3395
S'wsgi_file_wrapper'
p3396
asbag69
(g90
g71
NtRp3397
(dp3398
g74
(dp3399
g101
g102
ssg83
g3388
sg76
(lp3400
S':'
asbag69
(g90
g71
NtRp3401
(dp3402
g74
(dp3403
sg83
g3388
sg76
(lp3404
g69
(g70
g71
NtRp3405
(dp3406
g74
(dp3407
g82
I4
ssg83
g3401
sg76
(lp3408
S'<class wsgiref.util.FileWrapper at 0x23438d8>'
p3409
asbasbasbag69
(g85
g71
NtRp3410
(dp3411
g74
(dp3412
sg83
g2531
sg76
(lp3413
g69
(g90
g71
NtRp3414
(dp3415
g74
(dp3416
g94
g95
ssg83
g3410
sg76
(lp3417
S'wsgi_input'
p3418
asbag69
(g90
g71
NtRp3419
(dp3420
g74
(dp3421
g101
g102
ssg83
g3410
sg76
(lp3422
S':'
asbag69
(g90
g71
NtRp3423
(dp3424
g74
(dp3425
sg83
g3410
sg76
(lp3426
g69
(g70
g71
NtRp3427
(dp3428
g74
(dp3429
g82
I4
ssg83
g3423
sg76
(lp3430
S'<socket._fileobject object at 0x7fd91c23bd50>'
p3431
asbasbasbag69
(g85
g71
NtRp3432
(dp3433
g74
(dp3434
sg83
g2531
sg76
(lp3435
g69
(g90
g71
NtRp3436
(dp3437
g74
(dp3438
g94
g95
ssg83
g3432
sg76
(lp3439
S'wsgi_multiprocess'
p3440
asbag69
(g90
g71
NtRp3441
(dp3442
g74
(dp3443
g101
g102
ssg83
g3432
sg76
(lp3444
S':'
asbag69
(g90
g71
NtRp3445
(dp3446
g74
(dp3447
sg83
g3432
sg76
(lp3448
g69
(g70
g71
NtRp3449
(dp3450
g74
(dp3451
g82
I4
ssg83
g3445
sg76
(lp3452
g112
asbasbasbag69
(g85
g71
NtRp3453
(dp3454
g74
(dp3455
sg83
g2531
sg76
(lp3456
g69
(g90
g71
NtRp3457
(dp3458
g74
(dp3459
g94
g95
ssg83
g3453
sg76
(lp3460
S'wsgi_multithread'
p3461
asbag69
(g90
g71
NtRp3462
(dp3463
g74
(dp3464
g101
g102
ssg83
g3453
sg76
(lp3465
S':'
asbag69
(g90
g71
NtRp3466
(dp3467
g74
(dp3468
sg83
g3453
sg76
(lp3469
g69
(g70
g71
NtRp3470
(dp3471
g74
(dp3472
g82
I4
ssg83
g3466
sg76
(lp3473
S'True'
p3474
asbasbasbag69
(g85
g71
NtRp3475
(dp3476
g74
(dp3477
sg83
g2531
sg76
(lp3478
g69
(g90
g71
NtRp3479
(dp3480
g74
(dp3481
g94
g95
ssg83
g3475
sg76
(lp3482
S'wsgi_run_once'
p3483
asbag69
(g90
g71
NtRp3484
(dp3485
g74
(dp3486
g101
g102
ssg83
g3475
sg76
(lp3487
S':'
asbag69
(g90
g71
NtRp3488
(dp3489
g74
(dp3490
sg83
g3475
sg76
(lp3491
g69
(g70
g71
NtRp3492
(dp3493
g74
(dp3494
g82
I4
ssg83
g3488
sg76
(lp3495
g112
asbasbasbag69
(g85
g71
NtRp3496
(dp3497
g74
(dp3498
sg83
g2531
sg76
(lp3499
g69
(g90
g71
NtRp3500
(dp3501
g74
(dp3502
g94
g95
ssg83
g3496
sg76
(lp3503
S'wsgi_url_scheme'
p3504
asbag69
(g90
g71
NtRp3505
(dp3506
g74
(dp3507
g101
g102
ssg83
g3496
sg76
(lp3508
S':'
asbag69
(g90
g71
NtRp3509
(dp3510
g74
(dp3511
sg83
g3496
sg76
(lp3512
g69
(g70
g71
NtRp3513
(dp3514
g74
(dp3515
g82
I4
ssg83
g3509
sg76
(lp3516
S'http'
p3517
asbasbasbag69
(g85
g71
NtRp3518
(dp3519
g74
(dp3520
sg83
g2531
sg76
(lp3521
g69
(g90
g71
NtRp3522
(dp3523
g74
(dp3524
g94
g95
ssg83
g3518
sg76
(lp3525
S'wsgi_version'
p3526
asbag69
(g90
g71
NtRp3527
(dp3528
g74
(dp3529
g101
g102
ssg83
g3518
sg76
(lp3530
S':'
asbag69
(g90
g71
NtRp3531
(dp3532
g74
(dp3533
sg83
g3518
sg76
(lp3534
g69
(g70
g71
NtRp3535
(dp3536
g74
(dp3537
g82
I4
ssg83
g3531
sg76
(lp3538
g69
(g78
g71
NtRp3539
(dp3540
g74
(dp3541
g82
I3
ssg83
Nsg76
(lp3542
g69
(g85
g71
NtRp3543
(dp3544
g74
(dp3545
sg83
g3539
sg76
(lp3546
g69
(g90
g71
NtRp3547
(dp3548
g74
(dp3549
sg83
g3543
sg76
(lp3550
g69
(g70
g71
NtRp3551
(dp3552
g74
(dp3553
g82
I3
ssg83
g3547
sg76
(lp3554
S'1'
asbasbasbag69
(g85
g71
NtRp3555
(dp3556
g74
(dp3557
sg83
g3539
sg76
(lp3558
g69
(g90
g71
NtRp3559
(dp3560
g74
(dp3561
sg83
g3555
sg76
(lp3562
g69
(g70
g71
NtRp3563
(dp3564
g74
(dp3565
g82
I3
ssg83
g3559
sg76
(lp3566
S'0'
asbasbasbasbasbasbasbasbasbasbasbag69
(g85
g71
NtRp3567
(dp3568
g74
(dp3569
sg83
g79
sg76
(lp3570
g69
(g90
g71
NtRp3571
(dp3572
g74
(dp3573
g94
g95
ssg83
g3567
sg76
(lp3574
S'extension'
p3575
asbag69
(g90
g71
NtRp3576
(dp3577
g74
(dp3578
g101
g102
ssg83
g3567
sg76
(lp3579
S':'
asbag69
(g90
g71
NtRp3580
(dp3581
g74
(dp3582
sg83
g3567
sg76
(lp3583
g69
(g70
g71
NtRp3584
(dp3585
g74
(dp3586
g82
I5
ssg83
g3580
sg76
(lp3587
S'html'
p3588
asbasbasbag69
(g85
g71
NtRp3589
(dp3590
g74
(dp3591
sg83
g79
sg76
(lp3592
g69
(g90
g71
NtRp3593
(dp3594
g74
(dp3595
g94
g95
ssg83
g3589
sg76
(lp3596
S'folder'
p3597
asbag69
(g90
g71
NtRp3598
(dp3599
g74
(dp3600
g101
g102
ssg83
g3589
sg76
(lp3601
S':'
asbag69
(g90
g71
NtRp3602
(dp3603
g74
(dp3604
sg83
g3589
sg76
(lp3605
g69
(g70
g71
NtRp3606
(dp3607
g74
(dp3608
g82
I5
ssg83
g3602
sg76
(lp3609
S'/var/www/hosts3/applications/projeto/'
p3610
asbasbasbag69
(g85
g71
NtRp3611
(dp3612
g74
(dp3613
sg83
g79
sg76
(lp3614
g69
(g90
g71
NtRp3615
(dp3616
g74
(dp3617
g94
g95
ssg83
g3611
sg76
(lp3618
S'function'
p3619
asbag69
(g90
g71
NtRp3620
(dp3621
g74
(dp3622
g101
g102
ssg83
g3611
sg76
(lp3623
S':'
asbag69
(g90
g71
NtRp3624
(dp3625
g74
(dp3626
sg83
g3611
sg76
(lp3627
g69
(g70
g71
NtRp3628
(dp3629
g74
(dp3630
g82
I5
ssg83
g3624
sg76
(lp3631
S'user'
p3632
asbasbasbag69
(g85
g71
NtRp3633
(dp3634
g74
(dp3635
sg83
g79
sg76
(lp3636
g69
(g90
g71
NtRp3637
(dp3638
g74
(dp3639
g94
g95
ssg83
g3633
sg76
(lp3640
S'get_vars'
p3641
asbag69
(g90
g71
NtRp3642
(dp3643
g74
(dp3644
g101
g102
ssg83
g3633
sg76
(lp3645
S':'
asbag69
(g90
g71
NtRp3646
(dp3647
g74
(dp3648
sg83
g3633
sg76
(lp3649
g69
(g70
g71
NtRp3650
(dp3651
g74
(dp3652
g82
I5
ssg83
g3646
sg76
(lp3653
g69
(g78
g71
NtRp3654
(dp3655
g74
(dp3656
g82
I4
ssg83
Nsg76
(lp3657
sbasbasbasbag69
(g85
g71
NtRp3658
(dp3659
g74
(dp3660
sg83
g79
sg76
(lp3661
g69
(g90
g71
NtRp3662
(dp3663
g74
(dp3664
g94
g95
ssg83
g3658
sg76
(lp3665
S'global_settings'
p3666
asbag69
(g90
g71
NtRp3667
(dp3668
g74
(dp3669
g101
g102
ssg83
g3658
sg76
(lp3670
S':'
asbag69
(g90
g71
NtRp3671
(dp3672
g74
(dp3673
sg83
g3658
sg76
(lp3674
g69
(g70
g71
NtRp3675
(dp3676
g74
(dp3677
g82
I5
ssg83
g3671
sg76
(lp3678
g69
(g78
g71
NtRp3679
(dp3680
g74
(dp3681
g82
I4
ssg83
Nsg76
(lp3682
g69
(g85
g71
NtRp3683
(dp3684
g74
(dp3685
sg83
g3679
sg76
(lp3686
g69
(g90
g71
NtRp3687
(dp3688
g74
(dp3689
g94
g95
ssg83
g3683
sg76
(lp3690
g2543
asbag69
(g90
g71
NtRp3691
(dp3692
g74
(dp3693
g101
g102
ssg83
g3683
sg76
(lp3694
S':'
asbag69
(g90
g71
NtRp3695
(dp3696
g74
(dp3697
sg83
g3683
sg76
(lp3698
g69
(g70
g71
NtRp3699
(dp3700
g74
(dp3701
g82
I4
ssg83
g3695
sg76
(lp3702
S"set(['/var/www/hosts3/applications/projeto/'])"
p3703
asbasbasbag69
(g85
g71
NtRp3704
(dp3705
g74
(dp3706
sg83
g3679
sg76
(lp3707
g69
(g90
g71
NtRp3708
(dp3709
g74
(dp3710
g94
g95
ssg83
g3704
sg76
(lp3711
g2565
asbag69
(g90
g71
NtRp3712
(dp3713
g74
(dp3714
g101
g102
ssg83
g3704
sg76
(lp3715
S':'
asbag69
(g90
g71
NtRp3716
(dp3717
g74
(dp3718
sg83
g3704
sg76
(lp3719
g69
(g70
g71
NtRp3720
(dp3721
g74
(dp3722
g82
I4
ssg83
g3716
sg76
(lp3723
g2578
asbasbasbag69
(g85
g71
NtRp3724
(dp3725
g74
(dp3726
sg83
g3679
sg76
(lp3727
g69
(g90
g71
NtRp3728
(dp3729
g74
(dp3730
g94
g95
ssg83
g3724
sg76
(lp3731
g2587
asbag69
(g90
g71
NtRp3732
(dp3733
g74
(dp3734
g101
g102
ssg83
g3724
sg76
(lp3735
S':'
asbag69
(g90
g71
NtRp3736
(dp3737
g74
(dp3738
sg83
g3724
sg76
(lp3739
g69
(g70
g71
NtRp3740
(dp3741
g74
(dp3742
g82
I4
ssg83
g3736
sg76
(lp3743
g69
(g78
g71
NtRp3744
(dp3745
g74
(dp3746
g82
I3
ssg83
Nsg76
(lp3747
sbasbasbasbag69
(g85
g71
NtRp3748
(dp3749
g74
(dp3750
sg83
g3679
sg76
(lp3751
g69
(g90
g71
NtRp3752
(dp3753
g74
(dp3754
g94
g95
ssg83
g3748
sg76
(lp3755
g2612
asbag69
(g90
g71
NtRp3756
(dp3757
g74
(dp3758
g101
g102
ssg83
g3748
sg76
(lp3759
S':'
asbag69
(g90
g71
NtRp3760
(dp3761
g74
(dp3762
sg83
g3748
sg76
(lp3763
g69
(g70
g71
NtRp3764
(dp3765
g74
(dp3766
g82
I4
ssg83
g3760
sg76
(lp3767
S"<Values at 0x23ed050: {'verbose': False, 'ip': '127.0.0.1', 'with_scheduler': False, 'ips': [], 'shutdown_timeout': 5, 'taskbar': False, 'port': 8000, 'maxthreads': None, 'softcron': False, 'server_name': 'fernado-desktop', 'bpython': False, 'nogui': False, 'pid_filename': 'httpserver.pid', 'extcron': False, 'runcron': False, 'run_system_tests': False, 'test': None, 'folder': '/var/www/hosts3', 'config': '', 'minthreads': None, 'winservice': '', 'shell': None, 'run': '', 'log_filename': 'httpserver.log', 'debuglevel': 30, 'args': [''], 'socket_timeout': 5, 'ssl_ca_certificate': None, 'scheduler': None, 'profiler_filename': None, 'ssl_private_key': '', 'scheduler_groups': None, 'password': '123456', 'request_queue_size': 5, 'ssl_certificate': '', 'cronjob': False, 'numthreads': None, 'quiet': False, 'interfaces': None, 'import_models': False, 'timeout': 10, 'plain': False, 'nobanner': False}>"
p3768
asbasbasbag69
(g85
g71
NtRp3769
(dp3770
g74
(dp3771
sg83
g3679
sg76
(lp3772
g69
(g90
g71
NtRp3773
(dp3774
g74
(dp3775
g94
g95
ssg83
g3769
sg76
(lp3776
g2634
asbag69
(g90
g71
NtRp3777
(dp3778
g74
(dp3779
g101
g102
ssg83
g3769
sg76
(lp3780
S':'
asbag69
(g90
g71
NtRp3781
(dp3782
g74
(dp3783
sg83
g3769
sg76
(lp3784
g69
(g70
g71
NtRp3785
(dp3786
g74
(dp3787
g82
I4
ssg83
g3781
sg76
(lp3788
S'set([])'
p3789
asbasbasbag69
(g85
g71
NtRp3790
(dp3791
g74
(dp3792
sg83
g3679
sg76
(lp3793
g69
(g90
g71
NtRp3794
(dp3795
g74
(dp3796
g94
g95
ssg83
g3790
sg76
(lp3797
g2656
asbag69
(g90
g71
NtRp3798
(dp3799
g74
(dp3800
g101
g102
ssg83
g3790
sg76
(lp3801
S':'
asbag69
(g90
g71
NtRp3802
(dp3803
g74
(dp3804
sg83
g3790
sg76
(lp3805
g69
(g70
g71
NtRp3806
(dp3807
g74
(dp3808
g82
I4
ssg83
g3802
sg76
(lp3809
g112
asbasbasbag69
(g85
g71
NtRp3810
(dp3811
g74
(dp3812
sg83
g3679
sg76
(lp3813
g69
(g90
g71
NtRp3814
(dp3815
g74
(dp3816
g94
g95
ssg83
g3810
sg76
(lp3817
g2677
asbag69
(g90
g71
NtRp3818
(dp3819
g74
(dp3820
g101
g102
ssg83
g3810
sg76
(lp3821
S':'
asbag69
(g90
g71
NtRp3822
(dp3823
g74
(dp3824
sg83
g3810
sg76
(lp3825
g69
(g70
g71
NtRp3826
(dp3827
g74
(dp3828
g82
I4
ssg83
g3822
sg76
(lp3829
g2690
asbasbasbag69
(g85
g71
NtRp3830
(dp3831
g74
(dp3832
sg83
g3679
sg76
(lp3833
g69
(g90
g71
NtRp3834
(dp3835
g74
(dp3836
g94
g95
ssg83
g3830
sg76
(lp3837
g2875
asbag69
(g90
g71
NtRp3838
(dp3839
g74
(dp3840
g101
g102
ssg83
g3830
sg76
(lp3841
S':'
asbag69
(g90
g71
NtRp3842
(dp3843
g74
(dp3844
sg83
g3830
sg76
(lp3845
g69
(g70
g71
NtRp3846
(dp3847
g74
(dp3848
g82
I4
ssg83
g3842
sg76
(lp3849
g112
asbasbasbag69
(g85
g71
NtRp3850
(dp3851
g74
(dp3852
sg83
g3679
sg76
(lp3853
g69
(g90
g71
NtRp3854
(dp3855
g74
(dp3856
g94
g95
ssg83
g3850
sg76
(lp3857
g2896
asbag69
(g90
g71
NtRp3858
(dp3859
g74
(dp3860
g101
g102
ssg83
g3850
sg76
(lp3861
S':'
asbag69
(g90
g71
NtRp3862
(dp3863
g74
(dp3864
sg83
g3850
sg76
(lp3865
g69
(g70
g71
NtRp3866
(dp3867
g74
(dp3868
g82
I4
ssg83
g3862
sg76
(lp3869
g112
asbasbasbag69
(g85
g71
NtRp3870
(dp3871
g74
(dp3872
sg83
g3679
sg76
(lp3873
g69
(g90
g71
NtRp3874
(dp3875
g74
(dp3876
g94
g95
ssg83
g3870
sg76
(lp3877
g2917
asbag69
(g90
g71
NtRp3878
(dp3879
g74
(dp3880
g101
g102
ssg83
g3870
sg76
(lp3881
S':'
asbag69
(g90
g71
NtRp3882
(dp3883
g74
(dp3884
sg83
g3870
sg76
(lp3885
g69
(g70
g71
NtRp3886
(dp3887
g74
(dp3888
g82
I4
ssg83
g3882
sg76
(lp3889
g69
(g78
g71
NtRp3890
(dp3891
g74
(dp3892
g82
I3
ssg83
Nsg76
(lp3893
g69
(g85
g71
NtRp3894
(dp3895
g74
(dp3896
sg83
g3890
sg76
(lp3897
g69
(g90
g71
NtRp3898
(dp3899
g74
(dp3900
sg83
g3894
sg76
(lp3901
g69
(g70
g71
NtRp3902
(dp3903
g74
(dp3904
g82
I3
ssg83
g3898
sg76
(lp3905
g2946
asbasbasbag69
(g85
g71
NtRp3906
(dp3907
g74
(dp3908
sg83
g3890
sg76
(lp3909
g69
(g90
g71
NtRp3910
(dp3911
g74
(dp3912
sg83
g3906
sg76
(lp3913
g69
(g70
g71
NtRp3914
(dp3915
g74
(dp3916
g82
I3
ssg83
g3910
sg76
(lp3917
g2959
asbasbasbag69
(g85
g71
NtRp3918
(dp3919
g74
(dp3920
sg83
g3890
sg76
(lp3921
g69
(g90
g71
NtRp3922
(dp3923
g74
(dp3924
sg83
g3918
sg76
(lp3925
g69
(g70
g71
NtRp3926
(dp3927
g74
(dp3928
g82
I3
ssg83
g3922
sg76
(lp3929
g2972
asbasbasbag69
(g85
g71
NtRp3930
(dp3931
g74
(dp3932
sg83
g3890
sg76
(lp3933
g69
(g90
g71
NtRp3934
(dp3935
g74
(dp3936
sg83
g3930
sg76
(lp3937
g69
(g70
g71
NtRp3938
(dp3939
g74
(dp3940
g82
I3
ssg83
g3934
sg76
(lp3941
g2985
asbasbasbag69
(g85
g71
NtRp3942
(dp3943
g74
(dp3944
sg83
g3890
sg76
(lp3945
g69
(g90
g71
NtRp3946
(dp3947
g74
(dp3948
sg83
g3942
sg76
(lp3949
g69
(g70
g71
NtRp3950
(dp3951
g74
(dp3952
g82
I3
ssg83
g3946
sg76
(lp3953
g2998
asbasbasbasbasbasbasbag69
(g85
g71
NtRp3954
(dp3955
g74
(dp3956
sg83
g3679
sg76
(lp3957
g69
(g90
g71
NtRp3958
(dp3959
g74
(dp3960
g94
g95
ssg83
g3954
sg76
(lp3961
g3287
asbag69
(g90
g71
NtRp3962
(dp3963
g74
(dp3964
g101
g102
ssg83
g3954
sg76
(lp3965
S':'
asbag69
(g90
g71
NtRp3966
(dp3967
g74
(dp3968
sg83
g3954
sg76
(lp3969
g69
(g70
g71
NtRp3970
(dp3971
g74
(dp3972
g82
I4
ssg83
g3966
sg76
(lp3973
g69
(g78
g71
NtRp3974
(dp3975
g74
(dp3976
g82
I3
ssg83
Nsg76
(lp3977
g69
(g85
g71
NtRp3978
(dp3979
g74
(dp3980
sg83
g3974
sg76
(lp3981
g69
(g90
g71
NtRp3982
(dp3983
g74
(dp3984
sg83
g3978
sg76
(lp3985
g69
(g70
g71
NtRp3986
(dp3987
g74
(dp3988
g82
I3
ssg83
g3982
sg76
(lp3989
S'2'
asbasbasbag69
(g85
g71
NtRp3990
(dp3991
g74
(dp3992
sg83
g3974
sg76
(lp3993
g69
(g90
g71
NtRp3994
(dp3995
g74
(dp3996
sg83
g3990
sg76
(lp3997
g69
(g70
g71
NtRp3998
(dp3999
g74
(dp4000
g82
I3
ssg83
g3994
sg76
(lp4001
S'3'
asbasbasbag69
(g85
g71
NtRp4002
(dp4003
g74
(dp4004
sg83
g3974
sg76
(lp4005
g69
(g90
g71
NtRp4006
(dp4007
g74
(dp4008
sg83
g4002
sg76
(lp4009
g69
(g70
g71
NtRp4010
(dp4011
g74
(dp4012
g82
I3
ssg83
g4006
sg76
(lp4013
S'2'
asbasbasbag69
(g85
g71
NtRp4014
(dp4015
g74
(dp4016
sg83
g3974
sg76
(lp4017
g69
(g90
g71
NtRp4018
(dp4019
g74
(dp4020
sg83
g4014
sg76
(lp4021
g69
(g70
g71
NtRp4022
(dp4023
g74
(dp4024
g82
I3
ssg83
g4018
sg76
(lp4025
S'datetime.datetime(2012, 12, 17, 15, 3, 30)'
p4026
asbasbasbag69
(g85
g71
NtRp4027
(dp4028
g74
(dp4029
sg83
g3974
sg76
(lp4030
g69
(g90
g71
NtRp4031
(dp4032
g74
(dp4033
sg83
g4027
sg76
(lp4034
g69
(g70
g71
NtRp4035
(dp4036
g74
(dp4037
g82
I3
ssg83
g4031
sg76
(lp4038
g3365
asbasbasbasbasbasbasbasbasbasbasbag69
(g85
g71
NtRp4039
(dp4040
g74
(dp4041
sg83
g79
sg76
(lp4042
g69
(g90
g71
NtRp4043
(dp4044
g74
(dp4045
g94
g95
ssg83
g4039
sg76
(lp4046
S'is_https'
p4047
asbag69
(g90
g71
NtRp4048
(dp4049
g74
(dp4050
g101
g102
ssg83
g4039
sg76
(lp4051
S':'
asbag69
(g90
g71
NtRp4052
(dp4053
g74
(dp4054
sg83
g4039
sg76
(lp4055
g69
(g70
g71
NtRp4056
(dp4057
g74
(dp4058
g82
I5
ssg83
g4052
sg76
(lp4059
g112
asbasbasbag69
(g85
g71
NtRp4060
(dp4061
g74
(dp4062
sg83
g79
sg76
(lp4063
g69
(g90
g71
NtRp4064
(dp4065
g74
(dp4066
g94
g95
ssg83
g4060
sg76
(lp4067
S'is_local'
p4068
asbag69
(g90
g71
NtRp4069
(dp4070
g74
(dp4071
g101
g102
ssg83
g4060
sg76
(lp4072
S':'
asbag69
(g90
g71
NtRp4073
(dp4074
g74
(dp4075
sg83
g4060
sg76
(lp4076
g69
(g70
g71
NtRp4077
(dp4078
g74
(dp4079
g82
I5
ssg83
g4073
sg76
(lp4080
g3474
asbasbasbag69
(g85
g71
NtRp4081
(dp4082
g74
(dp4083
sg83
g79
sg76
(lp4084
g69
(g90
g71
NtRp4085
(dp4086
g74
(dp4087
g94
g95
ssg83
g4081
sg76
(lp4088
S'is_restful'
p4089
asbag69
(g90
g71
NtRp4090
(dp4091
g74
(dp4092
g101
g102
ssg83
g4081
sg76
(lp4093
S':'
asbag69
(g90
g71
NtRp4094
(dp4095
g74
(dp4096
sg83
g4081
sg76
(lp4097
g69
(g70
g71
NtRp4098
(dp4099
g74
(dp4100
g82
I5
ssg83
g4094
sg76
(lp4101
g112
asbasbasbag69
(g85
g71
NtRp4102
(dp4103
g74
(dp4104
sg83
g79
sg76
(lp4105
g69
(g90
g71
NtRp4106
(dp4107
g74
(dp4108
g94
g95
ssg83
g4102
sg76
(lp4109
S'now'
p4110
asbag69
(g90
g71
NtRp4111
(dp4112
g74
(dp4113
g101
g102
ssg83
g4102
sg76
(lp4114
S':'
asbag69
(g90
g71
NtRp4115
(dp4116
g74
(dp4117
sg83
g4102
sg76
(lp4118
g69
(g70
g71
NtRp4119
(dp4120
g74
(dp4121
g82
I5
ssg83
g4115
sg76
(lp4122
S'datetime.datetime(2013, 2, 6, 17, 12, 44, 575041)'
p4123
asbasbasbag69
(g85
g71
NtRp4124
(dp4125
g74
(dp4126
sg83
g79
sg76
(lp4127
g69
(g90
g71
NtRp4128
(dp4129
g74
(dp4130
g94
g95
ssg83
g4124
sg76
(lp4131
S'post_vars'
p4132
asbag69
(g90
g71
NtRp4133
(dp4134
g74
(dp4135
g101
g102
ssg83
g4124
sg76
(lp4136
S':'
asbag69
(g90
g71
NtRp4137
(dp4138
g74
(dp4139
sg83
g4124
sg76
(lp4140
g69
(g70
g71
NtRp4141
(dp4142
g74
(dp4143
g82
I5
ssg83
g4137
sg76
(lp4144
g69
(g78
g71
NtRp4145
(dp4146
g74
(dp4147
g82
I4
ssg83
Nsg76
(lp4148
sbasbasbasbag69
(g85
g71
NtRp4149
(dp4150
g74
(dp4151
sg83
g79
sg76
(lp4152
g69
(g90
g71
NtRp4153
(dp4154
g74
(dp4155
g94
g95
ssg83
g4149
sg76
(lp4156
S'url'
p4157
asbag69
(g90
g71
NtRp4158
(dp4159
g74
(dp4160
g101
g102
ssg83
g4149
sg76
(lp4161
S':'
asbag69
(g90
g71
NtRp4162
(dp4163
g74
(dp4164
sg83
g4149
sg76
(lp4165
g69
(g70
g71
NtRp4166
(dp4167
g74
(dp4168
g82
I5
ssg83
g4162
sg76
(lp4169
S'/'
asbasbasbag69
(g85
g71
NtRp4170
(dp4171
g74
(dp4172
sg83
g79
sg76
(lp4173
g69
(g90
g71
NtRp4174
(dp4175
g74
(dp4176
g94
g95
ssg83
g4170
sg76
(lp4177
S'utcnow'
p4178
asbag69
(g90
g71
NtRp4179
(dp4180
g74
(dp4181
g101
g102
ssg83
g4170
sg76
(lp4182
S':'
asbag69
(g90
g71
NtRp4183
(dp4184
g74
(dp4185
sg83
g4170
sg76
(lp4186
g69
(g70
g71
NtRp4187
(dp4188
g74
(dp4189
g82
I5
ssg83
g4183
sg76
(lp4190
S'datetime.datetime(2013, 2, 6, 19, 12, 44, 575100)'
p4191
asbasbasbag69
(g85
g71
NtRp4192
(dp4193
g74
(dp4194
sg83
g79
sg76
(lp4195
g69
(g90
g71
NtRp4196
(dp4197
g74
(dp4198
g94
g95
ssg83
g4192
sg76
(lp4199
S'uuid'
p4200
asbag69
(g90
g71
NtRp4201
(dp4202
g74
(dp4203
g101
g102
ssg83
g4192
sg76
(lp4204
S':'
asbag69
(g90
g71
NtRp4205
(dp4206
g74
(dp4207
sg83
g4192
sg76
(lp4208
g69
(g70
g71
NtRp4209
(dp4210
g74
(dp4211
g82
I5
ssg83
g4205
sg76
(lp4212
S'projeto/127.0.0.1.2013-02-06.17-12-44.1d4c54de-010f-4c8e-af5b-7242194a364f'
p4213
asbasbasbag69
(g85
g71
NtRp4214
(dp4215
g74
(dp4216
sg83
g79
sg76
(lp4217
g69
(g90
g71
NtRp4218
(dp4219
g74
(dp4220
g94
g95
ssg83
g4214
sg76
(lp4221
S'vars'
p4222
asbag69
(g90
g71
NtRp4223
(dp4224
g74
(dp4225
g101
g102
ssg83
g4214
sg76
(lp4226
S':'
asbag69
(g90
g71
NtRp4227
(dp4228
g74
(dp4229
sg83
g4214
sg76
(lp4230
g69
(g70
g71
NtRp4231
(dp4232
g74
(dp4233
g82
I5
ssg83
g4227
sg76
(lp4234
g69
(g78
g71
NtRp4235
(dp4236
g74
(dp4237
g82
I4
ssg83
Nsg76
(lp4238
sbasbasbasbag69
(g85
g71
NtRp4239
(dp4240
g74
(dp4241
sg83
g79
sg76
(lp4242
g69
(g90
g71
NtRp4243
(dp4244
g74
(dp4245
g94
g95
ssg83
g4239
sg76
(lp4246
S'wsgi'
p4247
asbag69
(g90
g71
NtRp4248
(dp4249
g74
(dp4250
g101
g102
ssg83
g4239
sg76
(lp4251
S':'
asbag69
(g90
g71
NtRp4252
(dp4253
g74
(dp4254
sg83
g4239
sg76
(lp4255
g69
(g70
g71
NtRp4256
(dp4257
g74
(dp4258
g82
I5
ssg83
g4252
sg76
(lp4259
g69
(g78
g71
NtRp4260
(dp4261
g74
(dp4262
g82
I4
ssg83
Nsg76
(lp4263
g69
(g85
g71
NtRp4264
(dp4265
g74
(dp4266
sg83
g4260
sg76
(lp4267
g69
(g90
g71
NtRp4268
(dp4269
g74
(dp4270
g94
g95
ssg83
g4264
sg76
(lp4271
S'environ'
p4272
asbag69
(g90
g71
NtRp4273
(dp4274
g74
(dp4275
g101
g102
ssg83
g4264
sg76
(lp4276
S':'
asbag69
(g90
g71
NtRp4277
(dp4278
g74
(dp4279
sg83
g4264
sg76
(lp4280
g69
(g70
g71
NtRp4281
(dp4282
g74
(dp4283
g82
I4
ssg83
g4277
sg76
(lp4284
g69
(g78
g71
NtRp4285
(dp4286
g74
(dp4287
g82
I3
ssg83
Nsg76
(lp4288
g69
(g85
g71
NtRp4289
(dp4290
g74
(dp4291
sg83
g4285
sg76
(lp4292
g69
(g90
g71
NtRp4293
(dp4294
g74
(dp4295
g94
g95
ssg83
g4289
sg76
(lp4296
S'HTTP_ACCEPT'
p4297
asbag69
(g90
g71
NtRp4298
(dp4299
g74
(dp4300
g101
g102
ssg83
g4289
sg76
(lp4301
S':'
asbag69
(g90
g71
NtRp4302
(dp4303
g74
(dp4304
sg83
g4289
sg76
(lp4305
g69
(g70
g71
NtRp4306
(dp4307
g74
(dp4308
g82
I3
ssg83
g4302
sg76
(lp4309
g2712
asbasbasbag69
(g85
g71
NtRp4310
(dp4311
g74
(dp4312
sg83
g4285
sg76
(lp4313
g69
(g90
g71
NtRp4314
(dp4315
g74
(dp4316
g94
g95
ssg83
g4310
sg76
(lp4317
S'HTTP_ACCEPT_CHARSET'
p4318
asbag69
(g90
g71
NtRp4319
(dp4320
g74
(dp4321
g101
g102
ssg83
g4310
sg76
(lp4322
S':'
asbag69
(g90
g71
NtRp4323
(dp4324
g74
(dp4325
sg83
g4310
sg76
(lp4326
g69
(g70
g71
NtRp4327
(dp4328
g74
(dp4329
g82
I3
ssg83
g4323
sg76
(lp4330
g2734
asbasbasbag69
(g85
g71
NtRp4331
(dp4332
g74
(dp4333
sg83
g4285
sg76
(lp4334
g69
(g90
g71
NtRp4335
(dp4336
g74
(dp4337
g94
g95
ssg83
g4331
sg76
(lp4338
S'HTTP_ACCEPT_ENCODING'
p4339
asbag69
(g90
g71
NtRp4340
(dp4341
g74
(dp4342
g101
g102
ssg83
g4331
sg76
(lp4343
S':'
asbag69
(g90
g71
NtRp4344
(dp4345
g74
(dp4346
sg83
g4331
sg76
(lp4347
g69
(g70
g71
NtRp4348
(dp4349
g74
(dp4350
g82
I3
ssg83
g4344
sg76
(lp4351
g2756
asbasbasbag69
(g85
g71
NtRp4352
(dp4353
g74
(dp4354
sg83
g4285
sg76
(lp4355
g69
(g90
g71
NtRp4356
(dp4357
g74
(dp4358
g94
g95
ssg83
g4352
sg76
(lp4359
S'HTTP_ACCEPT_LANGUAGE'
p4360
asbag69
(g90
g71
NtRp4361
(dp4362
g74
(dp4363
g101
g102
ssg83
g4352
sg76
(lp4364
S':'
asbag69
(g90
g71
NtRp4365
(dp4366
g74
(dp4367
sg83
g4352
sg76
(lp4368
g69
(g70
g71
NtRp4369
(dp4370
g74
(dp4371
g82
I3
ssg83
g4365
sg76
(lp4372
g2778
asbasbasbag69
(g85
g71
NtRp4373
(dp4374
g74
(dp4375
sg83
g4285
sg76
(lp4376
g69
(g90
g71
NtRp4377
(dp4378
g74
(dp4379
g94
g95
ssg83
g4373
sg76
(lp4380
S'HTTP_CONNECTION'
p4381
asbag69
(g90
g71
NtRp4382
(dp4383
g74
(dp4384
g101
g102
ssg83
g4373
sg76
(lp4385
S':'
asbag69
(g90
g71
NtRp4386
(dp4387
g74
(dp4388
sg83
g4373
sg76
(lp4389
g69
(g70
g71
NtRp4390
(dp4391
g74
(dp4392
g82
I3
ssg83
g4386
sg76
(lp4393
g2800
asbasbasbag69
(g85
g71
NtRp4394
(dp4395
g74
(dp4396
sg83
g4285
sg76
(lp4397
g69
(g90
g71
NtRp4398
(dp4399
g74
(dp4400
g94
g95
ssg83
g4394
sg76
(lp4401
S'HTTP_COOKIE'
p4402
asbag69
(g90
g71
NtRp4403
(dp4404
g74
(dp4405
g101
g102
ssg83
g4394
sg76
(lp4406
S':'
asbag69
(g90
g71
NtRp4407
(dp4408
g74
(dp4409
sg83
g4394
sg76
(lp4410
g69
(g70
g71
NtRp4411
(dp4412
g74
(dp4413
g82
I3
ssg83
g4407
sg76
(lp4414
g2822
asbasbasbag69
(g85
g71
NtRp4415
(dp4416
g74
(dp4417
sg83
g4285
sg76
(lp4418
g69
(g90
g71
NtRp4419
(dp4420
g74
(dp4421
g94
g95
ssg83
g4415
sg76
(lp4422
S'HTTP_HOST'
p4423
asbag69
(g90
g71
NtRp4424
(dp4425
g74
(dp4426
g101
g102
ssg83
g4415
sg76
(lp4427
S':'
asbag69
(g90
g71
NtRp4428
(dp4429
g74
(dp4430
sg83
g4415
sg76
(lp4431
g69
(g70
g71
NtRp4432
(dp4433
g74
(dp4434
g82
I3
ssg83
g4428
sg76
(lp4435
g2844
asbasbasbag69
(g85
g71
NtRp4436
(dp4437
g74
(dp4438
sg83
g4285
sg76
(lp4439
g69
(g90
g71
NtRp4440
(dp4441
g74
(dp4442
g94
g95
ssg83
g4436
sg76
(lp4443
S'HTTP_USER_AGENT'
p4444
asbag69
(g90
g71
NtRp4445
(dp4446
g74
(dp4447
g101
g102
ssg83
g4436
sg76
(lp4448
S':'
asbag69
(g90
g71
NtRp4449
(dp4450
g74
(dp4451
sg83
g4436
sg76
(lp4452
g69
(g70
g71
NtRp4453
(dp4454
g74
(dp4455
g82
I3
ssg83
g4449
sg76
(lp4456
g2866
asbasbasbag69
(g85
g71
NtRp4457
(dp4458
g74
(dp4459
sg83
g4285
sg76
(lp4460
g69
(g90
g71
NtRp4461
(dp4462
g74
(dp4463
g94
g95
ssg83
g4457
sg76
(lp4464
S'PATH_INFO'
p4465
asbag69
(g90
g71
NtRp4466
(dp4467
g74
(dp4468
g101
g102
ssg83
g4457
sg76
(lp4469
S':'
asbag69
(g90
g71
NtRp4470
(dp4471
g74
(dp4472
sg83
g4457
sg76
(lp4473
g69
(g70
g71
NtRp4474
(dp4475
g74
(dp4476
g82
I3
ssg83
g4470
sg76
(lp4477
S'/'
asbasbasbag69
(g85
g71
NtRp4478
(dp4479
g74
(dp4480
sg83
g4285
sg76
(lp4481
g69
(g90
g71
NtRp4482
(dp4483
g74
(dp4484
g94
g95
ssg83
g4478
sg76
(lp4485
S'QUERY_STRING'
p4486
asbag69
(g90
g71
NtRp4487
(dp4488
g74
(dp4489
g101
g102
ssg83
g4478
sg76
(lp4490
S':'
asbag69
(g90
g71
NtRp4491
(dp4492
g74
(dp4493
sg83
g4478
sg76
(lp4494
g69
(g70
g71
NtRp4495
(dp4496
g74
(dp4497
g82
I3
ssg83
g4491
sg76
(lp4498
S''
asbasbasbag69
(g85
g71
NtRp4499
(dp4500
g74
(dp4501
sg83
g4285
sg76
(lp4502
g69
(g90
g71
NtRp4503
(dp4504
g74
(dp4505
g94
g95
ssg83
g4499
sg76
(lp4506
S'REMOTE_ADDR'
p4507
asbag69
(g90
g71
NtRp4508
(dp4509
g74
(dp4510
g101
g102
ssg83
g4499
sg76
(lp4511
S':'
asbag69
(g90
g71
NtRp4512
(dp4513
g74
(dp4514
sg83
g4499
sg76
(lp4515
g69
(g70
g71
NtRp4516
(dp4517
g74
(dp4518
g82
I3
ssg83
g4512
sg76
(lp4519
g224
asbasbasbag69
(g85
g71
NtRp4520
(dp4521
g74
(dp4522
sg83
g4285
sg76
(lp4523
g69
(g90
g71
NtRp4524
(dp4525
g74
(dp4526
g94
g95
ssg83
g4520
sg76
(lp4527
S'REMOTE_PORT'
p4528
asbag69
(g90
g71
NtRp4529
(dp4530
g74
(dp4531
g101
g102
ssg83
g4520
sg76
(lp4532
S':'
asbag69
(g90
g71
NtRp4533
(dp4534
g74
(dp4535
sg83
g4520
sg76
(lp4536
g69
(g70
g71
NtRp4537
(dp4538
g74
(dp4539
g82
I3
ssg83
g4533
sg76
(lp4540
g3083
asbasbasbag69
(g85
g71
NtRp4541
(dp4542
g74
(dp4543
sg83
g4285
sg76
(lp4544
g69
(g90
g71
NtRp4545
(dp4546
g74
(dp4547
g94
g95
ssg83
g4541
sg76
(lp4548
S'REQUEST_METHOD'
p4549
asbag69
(g90
g71
NtRp4550
(dp4551
g74
(dp4552
g101
g102
ssg83
g4541
sg76
(lp4553
S':'
asbag69
(g90
g71
NtRp4554
(dp4555
g74
(dp4556
sg83
g4541
sg76
(lp4557
g69
(g70
g71
NtRp4558
(dp4559
g74
(dp4560
g82
I3
ssg83
g4554
sg76
(lp4561
g3105
asbasbasbag69
(g85
g71
NtRp4562
(dp4563
g74
(dp4564
sg83
g4285
sg76
(lp4565
g69
(g90
g71
NtRp4566
(dp4567
g74
(dp4568
g94
g95
ssg83
g4562
sg76
(lp4569
S'REQUEST_URI'
p4570
asbag69
(g90
g71
NtRp4571
(dp4572
g74
(dp4573
g101
g102
ssg83
g4562
sg76
(lp4574
S':'
asbag69
(g90
g71
NtRp4575
(dp4576
g74
(dp4577
sg83
g4562
sg76
(lp4578
g69
(g70
g71
NtRp4579
(dp4580
g74
(dp4581
g82
I3
ssg83
g4575
sg76
(lp4582
g3127
asbasbasbag69
(g85
g71
NtRp4583
(dp4584
g74
(dp4585
sg83
g4285
sg76
(lp4586
g69
(g90
g71
NtRp4587
(dp4588
g74
(dp4589
g94
g95
ssg83
g4583
sg76
(lp4590
S'SCRIPT_NAME'
p4591
asbag69
(g90
g71
NtRp4592
(dp4593
g74
(dp4594
g101
g102
ssg83
g4583
sg76
(lp4595
S':'
asbag69
(g90
g71
NtRp4596
(dp4597
g74
(dp4598
sg83
g4583
sg76
(lp4599
g69
(g70
g71
NtRp4600
(dp4601
g74
(dp4602
g82
I3
ssg83
g4596
sg76
(lp4603
S''
asbasbasbag69
(g85
g71
NtRp4604
(dp4605
g74
(dp4606
sg83
g4285
sg76
(lp4607
g69
(g90
g71
NtRp4608
(dp4609
g74
(dp4610
g94
g95
ssg83
g4604
sg76
(lp4611
S'SERVER_NAME'
p4612
asbag69
(g90
g71
NtRp4613
(dp4614
g74
(dp4615
g101
g102
ssg83
g4604
sg76
(lp4616
S':'
asbag69
(g90
g71
NtRp4617
(dp4618
g74
(dp4619
sg83
g4604
sg76
(lp4620
g69
(g70
g71
NtRp4621
(dp4622
g74
(dp4623
g82
I3
ssg83
g4617
sg76
(lp4624
g3170
asbasbasbag69
(g85
g71
NtRp4625
(dp4626
g74
(dp4627
sg83
g4285
sg76
(lp4628
g69
(g90
g71
NtRp4629
(dp4630
g74
(dp4631
g94
g95
ssg83
g4625
sg76
(lp4632
S'SERVER_PORT'
p4633
asbag69
(g90
g71
NtRp4634
(dp4635
g74
(dp4636
g101
g102
ssg83
g4625
sg76
(lp4637
S':'
asbag69
(g90
g71
NtRp4638
(dp4639
g74
(dp4640
sg83
g4625
sg76
(lp4641
g69
(g70
g71
NtRp4642
(dp4643
g74
(dp4644
g82
I3
ssg83
g4638
sg76
(lp4645
g3192
asbasbasbag69
(g85
g71
NtRp4646
(dp4647
g74
(dp4648
sg83
g4285
sg76
(lp4649
g69
(g90
g71
NtRp4650
(dp4651
g74
(dp4652
g94
g95
ssg83
g4646
sg76
(lp4653
S'SERVER_PROTOCOL'
p4654
asbag69
(g90
g71
NtRp4655
(dp4656
g74
(dp4657
g101
g102
ssg83
g4646
sg76
(lp4658
S':'
asbag69
(g90
g71
NtRp4659
(dp4660
g74
(dp4661
sg83
g4646
sg76
(lp4662
g69
(g70
g71
NtRp4663
(dp4664
g74
(dp4665
g82
I3
ssg83
g4659
sg76
(lp4666
g3214
asbasbasbag69
(g85
g71
NtRp4667
(dp4668
g74
(dp4669
sg83
g4285
sg76
(lp4670
g69
(g90
g71
NtRp4671
(dp4672
g74
(dp4673
g94
g95
ssg83
g4667
sg76
(lp4674
S'SERVER_SOFTWARE'
p4675
asbag69
(g90
g71
NtRp4676
(dp4677
g74
(dp4678
g101
g102
ssg83
g4667
sg76
(lp4679
S':'
asbag69
(g90
g71
NtRp4680
(dp4681
g74
(dp4682
sg83
g4667
sg76
(lp4683
g69
(g70
g71
NtRp4684
(dp4685
g74
(dp4686
g82
I3
ssg83
g4680
sg76
(lp4687
g3236
asbasbasbag69
(g85
g71
NtRp4688
(dp4689
g74
(dp4690
sg83
g4285
sg76
(lp4691
g69
(g90
g71
NtRp4692
(dp4693
g74
(dp4694
g94
g95
ssg83
g4688
sg76
(lp4695
S'WEB2PY_ORIGINAL_URI'
p4696
asbag69
(g90
g71
NtRp4697
(dp4698
g74
(dp4699
g101
g102
ssg83
g4688
sg76
(lp4700
S':'
asbag69
(g90
g71
NtRp4701
(dp4702
g74
(dp4703
sg83
g4688
sg76
(lp4704
g69
(g70
g71
NtRp4705
(dp4706
g74
(dp4707
g82
I3
ssg83
g4701
sg76
(lp4708
S'/'
asbasbasbag69
(g85
g71
NtRp4709
(dp4710
g74
(dp4711
sg83
g4285
sg76
(lp4712
g69
(g90
g71
NtRp4713
(dp4714
g74
(dp4715
g94
g95
ssg83
g4709
sg76
(lp4716
S'wsgi.errors'
p4717
asbag69
(g90
g71
NtRp4718
(dp4719
g74
(dp4720
g101
g102
ssg83
g4709
sg76
(lp4721
S':'
asbag69
(g90
g71
NtRp4722
(dp4723
g74
(dp4724
sg83
g4709
sg76
(lp4725
g69
(g70
g71
NtRp4726
(dp4727
g74
(dp4728
g82
I3
ssg83
g4722
sg76
(lp4729
S"<open file '<stderr>', mode 'w' at 0x7fd94efdf270>"
p4730
asbasbasbag69
(g85
g71
NtRp4731
(dp4732
g74
(dp4733
sg83
g4285
sg76
(lp4734
g69
(g90
g71
NtRp4735
(dp4736
g74
(dp4737
g94
g95
ssg83
g4731
sg76
(lp4738
S'wsgi.file_wrapper'
p4739
asbag69
(g90
g71
NtRp4740
(dp4741
g74
(dp4742
g101
g102
ssg83
g4731
sg76
(lp4743
S':'
asbag69
(g90
g71
NtRp4744
(dp4745
g74
(dp4746
sg83
g4731
sg76
(lp4747
g69
(g70
g71
NtRp4748
(dp4749
g74
(dp4750
g82
I3
ssg83
g4744
sg76
(lp4751
S'<class wsgiref.util.FileWrapper at 0x23438d8>'
p4752
asbasbasbag69
(g85
g71
NtRp4753
(dp4754
g74
(dp4755
sg83
g4285
sg76
(lp4756
g69
(g90
g71
NtRp4757
(dp4758
g74
(dp4759
g94
g95
ssg83
g4753
sg76
(lp4760
S'wsgi.input'
p4761
asbag69
(g90
g71
NtRp4762
(dp4763
g74
(dp4764
g101
g102
ssg83
g4753
sg76
(lp4765
S':'
asbag69
(g90
g71
NtRp4766
(dp4767
g74
(dp4768
sg83
g4753
sg76
(lp4769
g69
(g70
g71
NtRp4770
(dp4771
g74
(dp4772
g82
I3
ssg83
g4766
sg76
(lp4773
S'<cStringIO.StringO object at 0x7fd9381c36f8>'
p4774
asbasbasbag69
(g85
g71
NtRp4775
(dp4776
g74
(dp4777
sg83
g4285
sg76
(lp4778
g69
(g90
g71
NtRp4779
(dp4780
g74
(dp4781
g94
g95
ssg83
g4775
sg76
(lp4782
S'wsgi.multiprocess'
p4783
asbag69
(g90
g71
NtRp4784
(dp4785
g74
(dp4786
g101
g102
ssg83
g4775
sg76
(lp4787
S':'
asbag69
(g90
g71
NtRp4788
(dp4789
g74
(dp4790
sg83
g4775
sg76
(lp4791
g69
(g70
g71
NtRp4792
(dp4793
g74
(dp4794
g82
I3
ssg83
g4788
sg76
(lp4795
g112
asbasbasbag69
(g85
g71
NtRp4796
(dp4797
g74
(dp4798
sg83
g4285
sg76
(lp4799
g69
(g90
g71
NtRp4800
(dp4801
g74
(dp4802
g94
g95
ssg83
g4796
sg76
(lp4803
S'wsgi.multithread'
p4804
asbag69
(g90
g71
NtRp4805
(dp4806
g74
(dp4807
g101
g102
ssg83
g4796
sg76
(lp4808
S':'
asbag69
(g90
g71
NtRp4809
(dp4810
g74
(dp4811
sg83
g4796
sg76
(lp4812
g69
(g70
g71
NtRp4813
(dp4814
g74
(dp4815
g82
I3
ssg83
g4809
sg76
(lp4816
g3474
asbasbasbag69
(g85
g71
NtRp4817
(dp4818
g74
(dp4819
sg83
g4285
sg76
(lp4820
g69
(g90
g71
NtRp4821
(dp4822
g74
(dp4823
g94
g95
ssg83
g4817
sg76
(lp4824
S'wsgi.run_once'
p4825
asbag69
(g90
g71
NtRp4826
(dp4827
g74
(dp4828
g101
g102
ssg83
g4817
sg76
(lp4829
S':'
asbag69
(g90
g71
NtRp4830
(dp4831
g74
(dp4832
sg83
g4817
sg76
(lp4833
g69
(g70
g71
NtRp4834
(dp4835
g74
(dp4836
g82
I3
ssg83
g4830
sg76
(lp4837
g112
asbasbasbag69
(g85
g71
NtRp4838
(dp4839
g74
(dp4840
sg83
g4285
sg76
(lp4841
g69
(g90
g71
NtRp4842
(dp4843
g74
(dp4844
g94
g95
ssg83
g4838
sg76
(lp4845
S'wsgi.url_scheme'
p4846
asbag69
(g90
g71
NtRp4847
(dp4848
g74
(dp4849
g101
g102
ssg83
g4838
sg76
(lp4850
S':'
asbag69
(g90
g71
NtRp4851
(dp4852
g74
(dp4853
sg83
g4838
sg76
(lp4854
g69
(g70
g71
NtRp4855
(dp4856
g74
(dp4857
g82
I3
ssg83
g4851
sg76
(lp4858
g3517
asbasbasbag69
(g85
g71
NtRp4859
(dp4860
g74
(dp4861
sg83
g4285
sg76
(lp4862
g69
(g90
g71
NtRp4863
(dp4864
g74
(dp4865
g94
g95
ssg83
g4859
sg76
(lp4866
S'wsgi.version'
p4867
asbag69
(g90
g71
NtRp4868
(dp4869
g74
(dp4870
g101
g102
ssg83
g4859
sg76
(lp4871
S':'
asbag69
(g90
g71
NtRp4872
(dp4873
g74
(dp4874
sg83
g4859
sg76
(lp4875
g69
(g70
g71
NtRp4876
(dp4877
g74
(dp4878
g82
I3
ssg83
g4872
sg76
(lp4879
S'1'
asbasbasbasbasbasbasbasbasbasbasbasbasbsS'frames'
p4880
(lp4881
(dp4882
S'file'
p4883
S'/var/www/hosts3/gluon/restricted.py'
p4884
sS'dump'
p4885
(dp4886
S'environment'
p4887
S"{'A': <class 'gluon.html.A'>, 'Auth': <class 'gluon.tools.Auth'>, 'B': <class 'gluon.html.B'>, 'BEAUTIFY': <class 'gluon.html.BEAUTIFY'>, 'BODY': <class 'gluon.html.BODY'>, 'BR': <class 'gluon.html.BR'>, 'BUTTON': <class 'gluon.html.BUTTON'>, 'CAT': <class 'gluon.html.CAT'>, 'CENTER': <class 'gluon.html.CENTER'>, 'CLEANUP': <class 'gluon.validators.CLEANUP'>, ...}"
p4888
sS'ccode'
p4889
S'<code object <module> at 0x7fd91c23beb0, file "/...3/applications/projeto/models/config.py", line 1>'
p4890
ssS'lnum'
p4891
I212
sS'lines'
p4892
(dp4893
I207
S'    try:'
p4894
sI208
S'        if isinstance(code, types.CodeType):'
p4895
sI209
S'            ccode = code'
p4896
sI210
S'        else:'
p4897
sI211
S'            ccode = compile2(code, layer)'
p4898
sI212
S'        exec ccode in environment'
p4899
sI213
S'    except HTTP:'
p4900
sI214
S'        raise'
p4901
sI215
S'    except RestrictedError:'
p4902
sI216
S'        # do not encapsulate (obfuscate) the original RestrictedError'
p4903
ssS'call'
p4904
S'(code=\'from gluon.storage import Storage\\n\\nconfig = Stor..."\\nresponse.meta.keywords= "chave, outra, e outra"\', environment={\'A\': <class \'gluon.html.A\'>, \'Auth\': <class \'gluon.tools.Auth\'>, \'B\': <class \'gluon.html.B\'>, \'BEAUTIFY\': <class \'gluon.html.BEAUTIFY\'>, \'BODY\': <class \'gluon.html.BODY\'>, \'BR\': <class \'gluon.html.BR\'>, \'BUTTON\': <class \'gluon.html.BUTTON\'>, \'CAT\': <class \'gluon.html.CAT\'>, \'CENTER\': <class \'gluon.html.CENTER\'>, \'CLEANUP\': <class \'gluon.validators.CLEANUP\'>, ...}, layer=\'/var/www/hosts3/applications/projeto/models/config.py\')'
p4905
sS'func'
p4906
S'restricted'
p4907
sa(dp4908
g4883
S'/var/www/hosts3/applications/projeto/models/config.py'
p4909
sg4885
(dp4910
S'auth.settings'
p4911
S"<Storage {'verify_email_onaccept': [], 'register...membership', 'retrieve_username_next': '/index'}>"
p4912
sS'builtinFalse'
p4913
g112
sS'auth.settings.registration'
p4914
S'None'
p4915
sS'auth'
p4916
S'<gluon.tools.Auth object>'
p4917
ssg4891
I30
sg4892
(dp4918
I32
S'#auth.settings.registration_requires_approval = False'
p4919
sI33
S"#auth.settings.actions_disabled = ['register']"
p4920
sI34
S''
sI25
S''
sI26
S'#settings'
p4921
sI27
S'auth.settings.remember_me_form = False'
p4922
sI28
S'auth.settings.formstyle = "divs"'
p4923
sI29
S"auth.settings.login_next = URL('initial', 'show_usuario')"
p4924
sI30
S'auth.settings.registration=False'
p4925
sI31
S'#auth.settings.registration_requires_verification = False'
p4926
ssg4904
S'()'
p4927
sg4906
S'<module>'
p4928
sa(dp4929
g4883
S'/var/www/hosts3/gluon/storage.py'
p4930
sg4885
(dp4931
S'builtinSyntaxError'
p4932
S"<type 'exceptions.SyntaxError'>"
p4933
sS'key'
p4934
S"'registration'"
p4935
ssg4891
I164
sg4892
(dp4936
I160
S''
sI161
S'class Settings(Storage):'
p4937
sI162
S'    def __setattr__(self, key, value):'
p4938
sI163
S"        if key != 'lock_keys' and self['lock_keys'] and key not in self:"
p4939
sI164
S"            raise SyntaxError('setting key \\'%s\\' does not exist' % key)"
p4940
sI165
S"        if key != 'lock_values' and self['lock_values']:"
p4941
sI166
S"            raise SyntaxError('setting value cannot be changed: %s' % key)"
p4942
sI167
S'        self[key] = value'
p4943
sI168
S''
sI159
S''
ssg4904
S"(self=<Storage {'verify_email_onaccept': [], 'register...membership', 'retrieve_username_next': '/index'}>, key='registration', value=False)"
p4944
sg4906
g26
sasS'pyver'
p4945
S'Python 2.7.3: /usr/bin/python'
p4946
sS'session'
p4947
g69
(g70
g71
NtRp4948
(dp4949
g74
(dp4950
sg76
(lp4951
g69
(g78
g71
NtRp4952
(dp4953
g74
(dp4954
g82
I5
ssg83
Nsg76
(lp4955
g69
(g85
g71
NtRp4956
(dp4957
g74
(dp4958
sg83
g4952
sg76
(lp4959
g69
(g90
g71
NtRp4960
(dp4961
g74
(dp4962
g94
g95
ssg83
g4956
sg76
(lp4963
S'auth'
p4964
asbag69
(g90
g71
NtRp4965
(dp4966
g74
(dp4967
g101
g102
ssg83
g4956
sg76
(lp4968
S':'
asbag69
(g90
g71
NtRp4969
(dp4970
g74
(dp4971
sg83
g4956
sg76
(lp4972
g69
(g70
g71
NtRp4973
(dp4974
g74
(dp4975
g82
I5
ssg83
g4969
sg76
(lp4976
S'None'
p4977
asbasbasbag69
(g85
g71
NtRp4978
(dp4979
g74
(dp4980
sg83
g4952
sg76
(lp4981
g69
(g90
g71
NtRp4982
(dp4983
g74
(dp4984
g94
g95
ssg83
g4978
sg76
(lp4985
S'flash'
p4986
asbag69
(g90
g71
NtRp4987
(dp4988
g74
(dp4989
g101
g102
ssg83
g4978
sg76
(lp4990
S':'
asbag69
(g90
g71
NtRp4991
(dp4992
g74
(dp4993
sg83
g4978
sg76
(lp4994
g69
(g70
g71
NtRp4995
(dp4996
g74
(dp4997
g82
I5
ssg83
g4991
sg76
(lp4998
S''
asbasbasbasbasbsS'etype'
p4999
S"<type 'exceptions.SyntaxError'>"
p5000
sS'date'
p5001
S'Wed Feb  6 17:12:44 2013'
p5002
sS'response'
p5003
g69
(g70
g71
NtRp5004
(dp5005
g74
(dp5006
sg76
(lp5007
g69
(g78
g71
NtRp5008
(dp5009
g74
(dp5010
g82
I5
ssg83
Nsg76
(lp5011
g69
(g85
g71
NtRp5012
(dp5013
g74
(dp5014
sg83
g5008
sg76
(lp5015
g69
(g90
g71
NtRp5016
(dp5017
g74
(dp5018
g94
g95
ssg83
g5012
sg76
(lp5019
g167
asbag69
(g90
g71
NtRp5020
(dp5021
g74
(dp5022
g101
g102
ssg83
g5012
sg76
(lp5023
S':'
asbag69
(g90
g71
NtRp5024
(dp5025
g74
(dp5026
sg83
g5012
sg76
(lp5027
g69
(g70
g71
NtRp5028
(dp5029
g74
(dp5030
g82
I5
ssg83
g5024
sg76
(lp5031
S'<cStringIO.StringO object at 0x7fd9381c3490>'
p5032
asbasbasbag69
(g85
g71
NtRp5033
(dp5034
g74
(dp5035
sg83
g5008
sg76
(lp5036
g69
(g90
g71
NtRp5037
(dp5038
g74
(dp5039
g94
g95
ssg83
g5033
sg76
(lp5040
g255
asbag69
(g90
g71
NtRp5041
(dp5042
g74
(dp5043
g101
g102
ssg83
g5033
sg76
(lp5044
S':'
asbag69
(g90
g71
NtRp5045
(dp5046
g74
(dp5047
sg83
g5033
sg76
(lp5048
g69
(g70
g71
NtRp5049
(dp5050
g74
(dp5051
g82
I5
ssg83
g5045
sg76
(lp5052
g69
(g78
g71
NtRp5053
(dp5054
g74
(dp5055
g82
I4
ssg83
Nsg76
(lp5056
g69
(g85
g71
NtRp5057
(dp5058
g74
(dp5059
sg83
g5053
sg76
(lp5060
g69
(g90
g71
NtRp5061
(dp5062
g74
(dp5063
g94
g95
ssg83
g5057
sg76
(lp5064
S'session_id_projeto'
p5065
asbag69
(g90
g71
NtRp5066
(dp5067
g74
(dp5068
g101
g102
ssg83
g5057
sg76
(lp5069
S':'
asbag69
(g90
g71
NtRp5070
(dp5071
g74
(dp5072
sg83
g5057
sg76
(lp5073
g69
(g70
g71
NtRp5074
(dp5075
g74
(dp5076
g82
I4
ssg83
g5070
sg76
(lp5077
g1787
ag69
(g78
g71
NtRp5078
(dp5079
g74
(dp5080
g82
I3
ssg83
Nsg76
(lp5081
g69
(g85
g71
NtRp5082
(dp5083
g74
(dp5084
sg83
g5078
sg76
(lp5085
g69
(g90
g71
NtRp5086
(dp5087
g74
(dp5088
g94
g95
ssg83
g5082
sg76
(lp5089
g306
asbag69
(g90
g71
NtRp5090
(dp5091
g74
(dp5092
g101
g102
ssg83
g5082
sg76
(lp5093
S':'
asbag69
(g90
g71
NtRp5094
(dp5095
g74
(dp5096
sg83
g5082
sg76
(lp5097
g69
(g70
g71
NtRp5098
(dp5099
g74
(dp5100
g82
I3
ssg83
g5094
sg76
(lp5101
S''
asbasbasbag69
(g85
g71
NtRp5102
(dp5103
g74
(dp5104
sg83
g5078
sg76
(lp5105
g69
(g90
g71
NtRp5106
(dp5107
g74
(dp5108
g94
g95
ssg83
g5102
sg76
(lp5109
g327
asbag69
(g90
g71
NtRp5110
(dp5111
g74
(dp5112
g101
g102
ssg83
g5102
sg76
(lp5113
S':'
asbag69
(g90
g71
NtRp5114
(dp5115
g74
(dp5116
sg83
g5102
sg76
(lp5117
g69
(g70
g71
NtRp5118
(dp5119
g74
(dp5120
g82
I3
ssg83
g5114
sg76
(lp5121
S''
asbasbasbag69
(g85
g71
NtRp5122
(dp5123
g74
(dp5124
sg83
g5078
sg76
(lp5125
g69
(g90
g71
NtRp5126
(dp5127
g74
(dp5128
g94
g95
ssg83
g5122
sg76
(lp5129
g348
asbag69
(g90
g71
NtRp5130
(dp5131
g74
(dp5132
g101
g102
ssg83
g5122
sg76
(lp5133
S':'
asbag69
(g90
g71
NtRp5134
(dp5135
g74
(dp5136
sg83
g5122
sg76
(lp5137
g69
(g70
g71
NtRp5138
(dp5139
g74
(dp5140
g82
I3
ssg83
g5134
sg76
(lp5141
S''
asbasbasbag69
(g85
g71
NtRp5142
(dp5143
g74
(dp5144
sg83
g5078
sg76
(lp5145
g69
(g90
g71
NtRp5146
(dp5147
g74
(dp5148
g94
g95
ssg83
g5142
sg76
(lp5149
g369
asbag69
(g90
g71
NtRp5150
(dp5151
g74
(dp5152
g101
g102
ssg83
g5142
sg76
(lp5153
S':'
asbag69
(g90
g71
NtRp5154
(dp5155
g74
(dp5156
sg83
g5142
sg76
(lp5157
g69
(g70
g71
NtRp5158
(dp5159
g74
(dp5160
g82
I3
ssg83
g5154
sg76
(lp5161
S''
asbasbasbag69
(g85
g71
NtRp5162
(dp5163
g74
(dp5164
sg83
g5078
sg76
(lp5165
g69
(g90
g71
NtRp5166
(dp5167
g74
(dp5168
g94
g95
ssg83
g5162
sg76
(lp5169
g390
asbag69
(g90
g71
NtRp5170
(dp5171
g74
(dp5172
g101
g102
ssg83
g5162
sg76
(lp5173
S':'
asbag69
(g90
g71
NtRp5174
(dp5175
g74
(dp5176
sg83
g5162
sg76
(lp5177
g69
(g70
g71
NtRp5178
(dp5179
g74
(dp5180
g82
I3
ssg83
g5174
sg76
(lp5181
S''
asbasbasbag69
(g85
g71
NtRp5182
(dp5183
g74
(dp5184
sg83
g5078
sg76
(lp5185
g69
(g90
g71
NtRp5186
(dp5187
g74
(dp5188
g94
g95
ssg83
g5182
sg76
(lp5189
g411
asbag69
(g90
g71
NtRp5190
(dp5191
g74
(dp5192
g101
g102
ssg83
g5182
sg76
(lp5193
S':'
asbag69
(g90
g71
NtRp5194
(dp5195
g74
(dp5196
sg83
g5182
sg76
(lp5197
g69
(g70
g71
NtRp5198
(dp5199
g74
(dp5200
g82
I3
ssg83
g5194
sg76
(lp5201
S'/'
asbasbasbag69
(g85
g71
NtRp5202
(dp5203
g74
(dp5204
sg83
g5078
sg76
(lp5205
g69
(g90
g71
NtRp5206
(dp5207
g74
(dp5208
g94
g95
ssg83
g5202
sg76
(lp5209
g432
asbag69
(g90
g71
NtRp5210
(dp5211
g74
(dp5212
g101
g102
ssg83
g5202
sg76
(lp5213
S':'
asbag69
(g90
g71
NtRp5214
(dp5215
g74
(dp5216
sg83
g5202
sg76
(lp5217
g69
(g70
g71
NtRp5218
(dp5219
g74
(dp5220
g82
I3
ssg83
g5214
sg76
(lp5221
S''
asbasbasbag69
(g85
g71
NtRp5222
(dp5223
g74
(dp5224
sg83
g5078
sg76
(lp5225
g69
(g90
g71
NtRp5226
(dp5227
g74
(dp5228
g94
g95
ssg83
g5222
sg76
(lp5229
g453
asbag69
(g90
g71
NtRp5230
(dp5231
g74
(dp5232
g101
g102
ssg83
g5222
sg76
(lp5233
S':'
asbag69
(g90
g71
NtRp5234
(dp5235
g74
(dp5236
sg83
g5222
sg76
(lp5237
g69
(g70
g71
NtRp5238
(dp5239
g74
(dp5240
g82
I3
ssg83
g5234
sg76
(lp5241
S''
asbasbasbasbasbasbasbasbasbasbasbag69
(g85
g71
NtRp5242
(dp5243
g74
(dp5244
sg83
g5008
sg76
(lp5245
g69
(g90
g71
NtRp5246
(dp5247
g74
(dp5248
g94
g95
ssg83
g5242
sg76
(lp5249
S'delimiters'
p5250
asbag69
(g90
g71
NtRp5251
(dp5252
g74
(dp5253
g101
g102
ssg83
g5242
sg76
(lp5254
S':'
asbag69
(g90
g71
NtRp5255
(dp5256
g74
(dp5257
sg83
g5242
sg76
(lp5258
g69
(g70
g71
NtRp5259
(dp5260
g74
(dp5261
g82
I5
ssg83
g5255
sg76
(lp5262
g69
(g78
g71
NtRp5263
(dp5264
g74
(dp5265
g82
I4
ssg83
Nsg76
(lp5266
g69
(g85
g71
NtRp5267
(dp5268
g74
(dp5269
sg83
g5263
sg76
(lp5270
g69
(g90
g71
NtRp5271
(dp5272
g74
(dp5273
sg83
g5267
sg76
(lp5274
g69
(g70
g71
NtRp5275
(dp5276
g74
(dp5277
g82
I4
ssg83
g5271
sg76
(lp5278
S'{{'
p5279
asbasbasbag69
(g85
g71
NtRp5280
(dp5281
g74
(dp5282
sg83
g5263
sg76
(lp5283
g69
(g90
g71
NtRp5284
(dp5285
g74
(dp5286
sg83
g5280
sg76
(lp5287
g69
(g70
g71
NtRp5288
(dp5289
g74
(dp5290
g82
I4
ssg83
g5284
sg76
(lp5291
S'}}'
p5292
asbasbasbasbasbasbasbag69
(g85
g71
NtRp5293
(dp5294
g74
(dp5295
sg83
g5008
sg76
(lp5296
g69
(g90
g71
NtRp5297
(dp5298
g74
(dp5299
g94
g95
ssg83
g5293
sg76
(lp5300
S'files'
p5301
asbag69
(g90
g71
NtRp5302
(dp5303
g74
(dp5304
g101
g102
ssg83
g5293
sg76
(lp5305
S':'
asbag69
(g90
g71
NtRp5306
(dp5307
g74
(dp5308
sg83
g5293
sg76
(lp5309
g69
(g70
g71
NtRp5310
(dp5311
g74
(dp5312
g82
I5
ssg83
g5306
sg76
(lp5313
g69
(g78
g71
NtRp5314
(dp5315
g74
(dp5316
g82
I4
ssg83
Nsg76
(lp5317
sbasbasbasbag69
(g85
g71
NtRp5318
(dp5319
g74
(dp5320
sg83
g5008
sg76
(lp5321
g69
(g90
g71
NtRp5322
(dp5323
g74
(dp5324
g94
g95
ssg83
g5318
sg76
(lp5325
S'flash'
p5326
asbag69
(g90
g71
NtRp5327
(dp5328
g74
(dp5329
g101
g102
ssg83
g5318
sg76
(lp5330
S':'
asbag69
(g90
g71
NtRp5331
(dp5332
g74
(dp5333
sg83
g5318
sg76
(lp5334
g69
(g70
g71
NtRp5335
(dp5336
g74
(dp5337
g82
I5
ssg83
g5331
sg76
(lp5338
S''
asbasbasbag69
(g85
g71
NtRp5339
(dp5340
g74
(dp5341
sg83
g5008
sg76
(lp5342
g69
(g90
g71
NtRp5343
(dp5344
g74
(dp5345
g94
g95
ssg83
g5339
sg76
(lp5346
S'generic_patterns'
p5347
asbag69
(g90
g71
NtRp5348
(dp5349
g74
(dp5350
g101
g102
ssg83
g5339
sg76
(lp5351
S':'
asbag69
(g90
g71
NtRp5352
(dp5353
g74
(dp5354
sg83
g5339
sg76
(lp5355
g69
(g70
g71
NtRp5356
(dp5357
g74
(dp5358
g82
I5
ssg83
g5352
sg76
(lp5359
g69
(g78
g71
NtRp5360
(dp5361
g74
(dp5362
g82
I4
ssg83
Nsg76
(lp5363
sbasbasbasbag69
(g85
g71
NtRp5364
(dp5365
g74
(dp5366
sg83
g5008
sg76
(lp5367
g69
(g90
g71
NtRp5368
(dp5369
g74
(dp5370
g94
g95
ssg83
g5364
sg76
(lp5371
S'headers'
p5372
asbag69
(g90
g71
NtRp5373
(dp5374
g74
(dp5375
g101
g102
ssg83
g5364
sg76
(lp5376
S':'
asbag69
(g90
g71
NtRp5377
(dp5378
g74
(dp5379
sg83
g5364
sg76
(lp5380
g69
(g70
g71
NtRp5381
(dp5382
g74
(dp5383
g82
I5
ssg83
g5377
sg76
(lp5384
g69
(g78
g71
NtRp5385
(dp5386
g74
(dp5387
g82
I4
ssg83
Nsg76
(lp5388
g69
(g85
g71
NtRp5389
(dp5390
g74
(dp5391
sg83
g5385
sg76
(lp5392
g69
(g90
g71
NtRp5393
(dp5394
g74
(dp5395
g94
g95
ssg83
g5389
sg76
(lp5396
S'X-Powered-By'
p5397
asbag69
(g90
g71
NtRp5398
(dp5399
g74
(dp5400
g101
g102
ssg83
g5389
sg76
(lp5401
S':'
asbag69
(g90
g71
NtRp5402
(dp5403
g74
(dp5404
sg83
g5389
sg76
(lp5405
g69
(g70
g71
NtRp5406
(dp5407
g74
(dp5408
g82
I4
ssg83
g5402
sg76
(lp5409
S'web2py'
p5410
asbasbasbasbasbasbasbag69
(g85
g71
NtRp5411
(dp5412
g74
(dp5413
sg83
g5008
sg76
(lp5414
g69
(g90
g71
NtRp5415
(dp5416
g74
(dp5417
g94
g95
ssg83
g5411
sg76
(lp5418
S'menu'
p5419
asbag69
(g90
g71
NtRp5420
(dp5421
g74
(dp5422
g101
g102
ssg83
g5411
sg76
(lp5423
S':'
asbag69
(g90
g71
NtRp5424
(dp5425
g74
(dp5426
sg83
g5411
sg76
(lp5427
g69
(g70
g71
NtRp5428
(dp5429
g74
(dp5430
g82
I5
ssg83
g5424
sg76
(lp5431
g69
(g78
g71
NtRp5432
(dp5433
g74
(dp5434
g82
I4
ssg83
Nsg76
(lp5435
sbasbasbasbag69
(g85
g71
NtRp5436
(dp5437
g74
(dp5438
sg83
g5008
sg76
(lp5439
g69
(g90
g71
NtRp5440
(dp5441
g74
(dp5442
g94
g95
ssg83
g5436
sg76
(lp5443
S'meta'
p5444
asbag69
(g90
g71
NtRp5445
(dp5446
g74
(dp5447
g101
g102
ssg83
g5436
sg76
(lp5448
S':'
asbag69
(g90
g71
NtRp5449
(dp5450
g74
(dp5451
sg83
g5436
sg76
(lp5452
g69
(g70
g71
NtRp5453
(dp5454
g74
(dp5455
g82
I5
ssg83
g5449
sg76
(lp5456
g69
(g78
g71
NtRp5457
(dp5458
g74
(dp5459
g82
I4
ssg83
Nsg76
(lp5460
sbasbasbasbag69
(g85
g71
NtRp5461
(dp5462
g74
(dp5463
sg83
g5008
sg76
(lp5464
g69
(g90
g71
NtRp5465
(dp5466
g74
(dp5467
g94
g95
ssg83
g5461
sg76
(lp5468
S'models_to_run'
p5469
asbag69
(g90
g71
NtRp5470
(dp5471
g74
(dp5472
g101
g102
ssg83
g5461
sg76
(lp5473
S':'
asbag69
(g90
g71
NtRp5474
(dp5475
g74
(dp5476
sg83
g5461
sg76
(lp5477
g69
(g70
g71
NtRp5478
(dp5479
g74
(dp5480
g82
I5
ssg83
g5474
sg76
(lp5481
g69
(g78
g71
NtRp5482
(dp5483
g74
(dp5484
g82
I4
ssg83
Nsg76
(lp5485
g69
(g85
g71
NtRp5486
(dp5487
g74
(dp5488
sg83
g5482
sg76
(lp5489
g69
(g90
g71
NtRp5490
(dp5491
g74
(dp5492
sg83
g5486
sg76
(lp5493
g69
(g70
g71
NtRp5494
(dp5495
g74
(dp5496
g82
I4
ssg83
g5490
sg76
(lp5497
S'^\\w+\\.py$'
p5498
asbasbasbag69
(g85
g71
NtRp5499
(dp5500
g74
(dp5501
sg83
g5482
sg76
(lp5502
g69
(g90
g71
NtRp5503
(dp5504
g74
(dp5505
sg83
g5499
sg76
(lp5506
g69
(g70
g71
NtRp5507
(dp5508
g74
(dp5509
g82
I4
ssg83
g5503
sg76
(lp5510
S'^initial/\\w+\\.py$'
p5511
asbasbasbag69
(g85
g71
NtRp5512
(dp5513
g74
(dp5514
sg83
g5482
sg76
(lp5515
g69
(g90
g71
NtRp5516
(dp5517
g74
(dp5518
sg83
g5512
sg76
(lp5519
g69
(g70
g71
NtRp5520
(dp5521
g74
(dp5522
g82
I4
ssg83
g5516
sg76
(lp5523
S'^initial/user/\\w+\\.py$'
p5524
asbasbasbasbasbasbasbag69
(g85
g71
NtRp5525
(dp5526
g74
(dp5527
sg83
g5008
sg76
(lp5528
g69
(g90
g71
NtRp5529
(dp5530
g74
(dp5531
g94
g95
ssg83
g5525
sg76
(lp5532
S'postprocessing'
p5533
asbag69
(g90
g71
NtRp5534
(dp5535
g74
(dp5536
g101
g102
ssg83
g5525
sg76
(lp5537
S':'
asbag69
(g90
g71
NtRp5538
(dp5539
g74
(dp5540
sg83
g5525
sg76
(lp5541
g69
(g70
g71
NtRp5542
(dp5543
g74
(dp5544
g82
I5
ssg83
g5538
sg76
(lp5545
g69
(g78
g71
NtRp5546
(dp5547
g74
(dp5548
g82
I4
ssg83
Nsg76
(lp5549
sbasbasbasbag69
(g85
g71
NtRp5550
(dp5551
g74
(dp5552
sg83
g5008
sg76
(lp5553
g69
(g90
g71
NtRp5554
(dp5555
g74
(dp5556
g94
g95
ssg83
g5550
sg76
(lp5557
S'session_cookie_expires'
p5558
asbag69
(g90
g71
NtRp5559
(dp5560
g74
(dp5561
g101
g102
ssg83
g5550
sg76
(lp5562
S':'
asbag69
(g90
g71
NtRp5563
(dp5564
g74
(dp5565
sg83
g5550
sg76
(lp5566
g69
(g70
g71
NtRp5567
(dp5568
g74
(dp5569
g82
I5
ssg83
g5563
sg76
(lp5570
S'None'
p5571
asbasbasbag69
(g85
g71
NtRp5572
(dp5573
g74
(dp5574
sg83
g5008
sg76
(lp5575
g69
(g90
g71
NtRp5576
(dp5577
g74
(dp5578
g94
g95
ssg83
g5572
sg76
(lp5579
S'session_data_name'
p5580
asbag69
(g90
g71
NtRp5581
(dp5582
g74
(dp5583
g101
g102
ssg83
g5572
sg76
(lp5584
S':'
asbag69
(g90
g71
NtRp5585
(dp5586
g74
(dp5587
sg83
g5572
sg76
(lp5588
g69
(g70
g71
NtRp5589
(dp5590
g74
(dp5591
g82
I5
ssg83
g5585
sg76
(lp5592
S'session_data_projeto'
p5593
asbasbasbag69
(g85
g71
NtRp5594
(dp5595
g74
(dp5596
sg83
g5008
sg76
(lp5597
g69
(g90
g71
NtRp5598
(dp5599
g74
(dp5600
g94
g95
ssg83
g5594
sg76
(lp5601
S'session_file'
p5602
asbag69
(g90
g71
NtRp5603
(dp5604
g74
(dp5605
g101
g102
ssg83
g5594
sg76
(lp5606
S':'
asbag69
(g90
g71
NtRp5607
(dp5608
g74
(dp5609
sg83
g5594
sg76
(lp5610
g69
(g70
g71
NtRp5611
(dp5612
g74
(dp5613
g82
I5
ssg83
g5607
sg76
(lp5614
S"<open file '/var/www/hosts3/applications/projeto/sessions/127.0.0.1-1d71d23a-4548-46ae-83a7-a16ca5ebf53a', mode 'rb+' at 0x7fd940516930>"
p5615
asbasbasbag69
(g85
g71
NtRp5616
(dp5617
g74
(dp5618
sg83
g5008
sg76
(lp5619
g69
(g90
g71
NtRp5620
(dp5621
g74
(dp5622
g94
g95
ssg83
g5616
sg76
(lp5623
S'session_filename'
p5624
asbag69
(g90
g71
NtRp5625
(dp5626
g74
(dp5627
g101
g102
ssg83
g5616
sg76
(lp5628
S':'
asbag69
(g90
g71
NtRp5629
(dp5630
g74
(dp5631
sg83
g5616
sg76
(lp5632
g69
(g70
g71
NtRp5633
(dp5634
g74
(dp5635
g82
I5
ssg83
g5629
sg76
(lp5636
S'/var/www/hosts3/applications/projeto/sessions/127.0.0.1-1d71d23a-4548-46ae-83a7-a16ca5ebf53a'
p5637
asbasbasbag69
(g85
g71
NtRp5638
(dp5639
g74
(dp5640
sg83
g5008
sg76
(lp5641
g69
(g90
g71
NtRp5642
(dp5643
g74
(dp5644
g94
g95
ssg83
g5638
sg76
(lp5645
S'session_id'
p5646
asbag69
(g90
g71
NtRp5647
(dp5648
g74
(dp5649
g101
g102
ssg83
g5638
sg76
(lp5650
S':'
asbag69
(g90
g71
NtRp5651
(dp5652
g74
(dp5653
sg83
g5638
sg76
(lp5654
g69
(g70
g71
NtRp5655
(dp5656
g74
(dp5657
g82
I5
ssg83
g5651
sg76
(lp5658
g1787
asbasbasbag69
(g85
g71
NtRp5659
(dp5660
g74
(dp5661
sg83
g5008
sg76
(lp5662
g69
(g90
g71
NtRp5663
(dp5664
g74
(dp5665
g94
g95
ssg83
g5659
sg76
(lp5666
S'session_id_name'
p5667
asbag69
(g90
g71
NtRp5668
(dp5669
g74
(dp5670
g101
g102
ssg83
g5659
sg76
(lp5671
S':'
asbag69
(g90
g71
NtRp5672
(dp5673
g74
(dp5674
sg83
g5659
sg76
(lp5675
g69
(g70
g71
NtRp5676
(dp5677
g74
(dp5678
g82
I5
ssg83
g5672
sg76
(lp5679
g5065
asbasbasbag69
(g85
g71
NtRp5680
(dp5681
g74
(dp5682
sg83
g5008
sg76
(lp5683
g69
(g90
g71
NtRp5684
(dp5685
g74
(dp5686
g94
g95
ssg83
g5680
sg76
(lp5687
S'session_locked'
p5688
asbag69
(g90
g71
NtRp5689
(dp5690
g74
(dp5691
g101
g102
ssg83
g5680
sg76
(lp5692
S':'
asbag69
(g90
g71
NtRp5693
(dp5694
g74
(dp5695
sg83
g5680
sg76
(lp5696
g69
(g70
g71
NtRp5697
(dp5698
g74
(dp5699
g82
I5
ssg83
g5693
sg76
(lp5700
g3474
asbasbasbag69
(g85
g71
NtRp5701
(dp5702
g74
(dp5703
sg83
g5008
sg76
(lp5704
g69
(g90
g71
NtRp5705
(dp5706
g74
(dp5707
g94
g95
ssg83
g5701
sg76
(lp5708
S'session_new'
p5709
asbag69
(g90
g71
NtRp5710
(dp5711
g74
(dp5712
g101
g102
ssg83
g5701
sg76
(lp5713
S':'
asbag69
(g90
g71
NtRp5714
(dp5715
g74
(dp5716
sg83
g5701
sg76
(lp5717
g69
(g70
g71
NtRp5718
(dp5719
g74
(dp5720
g82
I5
ssg83
g5714
sg76
(lp5721
g112
asbasbasbag69
(g85
g71
NtRp5722
(dp5723
g74
(dp5724
sg83
g5008
sg76
(lp5725
g69
(g90
g71
NtRp5726
(dp5727
g74
(dp5728
g94
g95
ssg83
g5722
sg76
(lp5729
S'session_storage_type'
p5730
asbag69
(g90
g71
NtRp5731
(dp5732
g74
(dp5733
g101
g102
ssg83
g5722
sg76
(lp5734
S':'
asbag69
(g90
g71
NtRp5735
(dp5736
g74
(dp5737
sg83
g5722
sg76
(lp5738
g69
(g70
g71
NtRp5739
(dp5740
g74
(dp5741
g82
I5
ssg83
g5735
sg76
(lp5742
g4883
asbasbasbag69
(g85
g71
NtRp5743
(dp5744
g74
(dp5745
sg83
g5008
sg76
(lp5746
g69
(g90
g71
NtRp5747
(dp5748
g74
(dp5749
g94
g95
ssg83
g5743
sg76
(lp5750
S'status'
p5751
asbag69
(g90
g71
NtRp5752
(dp5753
g74
(dp5754
g101
g102
ssg83
g5743
sg76
(lp5755
S':'
asbag69
(g90
g71
NtRp5756
(dp5757
g74
(dp5758
sg83
g5743
sg76
(lp5759
g69
(g70
g71
NtRp5760
(dp5761
g74
(dp5762
g82
I5
ssg83
g5756
sg76
(lp5763
S'200'
p5764
asbasbasbag69
(g85
g71
NtRp5765
(dp5766
g74
(dp5767
sg83
g5008
sg76
(lp5768
g69
(g90
g71
NtRp5769
(dp5770
g74
(dp5771
g94
g95
ssg83
g5765
sg76
(lp5772
S'view'
p5773
asbag69
(g90
g71
NtRp5774
(dp5775
g74
(dp5776
g101
g102
ssg83
g5765
sg76
(lp5777
S':'
asbag69
(g90
g71
NtRp5778
(dp5779
g74
(dp5780
sg83
g5765
sg76
(lp5781
g69
(g70
g71
NtRp5782
(dp5783
g74
(dp5784
g82
I5
ssg83
g5778
sg76
(lp5785
S'initial/user.html'
p5786
asbasbasbasbasbsS'locals'
p5787
(dp5788
S'self'
p5789
S"<Storage {'verify_email_onaccept': [], 'register...membership', 'retrieve_username_next': '/index'}>"
p5790
sS'value'
p5791
g112
sS'key'
p5792
S"'registration'"
p5793
sssS'traceback'
p5794
S'Traceback (most recent call last):\n  File "/var/www/hosts3/gluon/restricted.py", line 212, in restricted\n    exec ccode in environment\n  File "/var/www/hosts3/applications/projeto/models/config.py", line 30, in <module>\n    auth.settings.registration=False\n  File "/var/www/hosts3/gluon/storage.py", line 164, in __setattr__\n    raise SyntaxError(\'setting key \\\'%s\\\' does not exist\' % key)\nSyntaxError: setting key \'registration\' does not exist\n'
p5795
s.