(dp1
S'output'
p2
S"<type 'exceptions.SyntaxError'> invalid syntax (show_form.html, line 80)"
p3
sS'layer'
p4
S'/var/www/hosts3/applications/projeto/views/initial/show_form.html'
p5
sS'code'
p6
S'response.write(\'<!DOCTYPE html>\\n<!-- paulirish.com/2008/conditional-stylesheets-vs-css-hacks-answer-neither/ -->\\n<!--[if lt IE 7]><html class="ie ie6 ie-lte9 ie-lte8 ie-lte7 no-js" lang="\', escape=False)\nresponse.write(T.accepted_language or \'en\')\nresponse.write(\'"> <![endif]-->\\n<!--[if IE 7]><html class="ie ie7 ie-lte9 ie-lte8 ie-lte7 no-js" lang="\', escape=False)\nresponse.write(T.accepted_language or \'en\')\nresponse.write(\'"> <![endif]-->\\n<!--[if IE 8]><html class="ie ie8 ie-lte9 ie-lte8 no-js" lang="\', escape=False)\nresponse.write(T.accepted_language or \'en\')\nresponse.write(\'"> <![endif]-->\\n<!--[if IE 9]><html class="ie9 ie-lte9 no-js" lang="\', escape=False)\nresponse.write(T.accepted_language or \'en\')\nresponse.write(\'"> <![endif]-->\\n<!--[if (gt IE 9)|!(IE)]><!--> <html class="no-js" lang="\', escape=False)\nresponse.write(T.accepted_language or \'en\')\nresponse.write(\'"> <!--<![endif]-->\\n<head>\\n  <meta charset="utf-8" />\\n  <!-- www.phpied.com/conditional-comments-block-downloads/ -->\\n  <!-- Always force latest IE rendering engine\\n       (even in intranet) & Chrome Frame\\n       Remove this if you use the .htaccess -->\\n  <!--[if IE]>\\n      <meta http-equiv="X-UA-Compatible" content="IE=edge\', escape=False)\nresponse.write(not request.is_local and \',chrome=1\' or \'\')\nresponse.write(\'">\\n      <![endif]-->\\n\\n  <title>\', escape=False)\nresponse.write(response.title or request.application)\nresponse.write(\'</title>\\n\\n  <!-- http://dev.w3.org/html5/markup/meta.name.html -->\\n  <meta name="application-name" content="\', escape=False)\nresponse.write(request.application)\nresponse.write(\'" />\\n\\n  <!-- Speaking of Google, don\\\'t forget to set your site up:\\n       http://google.com/webmasters -->\\n  <meta name="google-site-verification" content="" />\\n\\n  <!--  Mobile Viewport Fix\\n        j.mp/mobileviewport & davidbcalhoun.com/2010/viewport-metatag\\n        device-width: Occupy full width of the screen in its current orientation\\n        initial-scale = 1.0 retains dimensions instead of zooming out if page height > device height\\n        user-scalable = yes allows the user to zoom in -->\\n  <meta name="viewport" content="width=device-width, initial-scale=1.0" />\\n\\n  <link rel="shortcut icon" href="\', escape=False)\nresponse.write(URL(\'static\',\'images/favicon.ico\'))\nresponse.write(\'" type="image/x-icon">\\n  <link rel="apple-touch-icon" href="\', escape=False)\nresponse.write(URL(\'static\',\'images/favicon.png\'))\nresponse.write(\'">\\n\\n  <!-- All JavaScript at the bottom, except for Modernizr which enables\\n       HTML5 elements & feature detects -->\\n  <script src="\', escape=False)\nresponse.write(URL(\'static\',\'js/modernizr.custom.js\'))\nresponse.write(\'"></script>\\n\\n  <!-- include stylesheets -->\\n  \', escape=False)\nresponse.files.append(URL(\'static\',\'css/web2py.css\'))\nresponse.files.append(URL(\'static\',\'css/bootstrap.min.css\'))\nresponse.files.append(URL(\'static\',\'css/bootstrap-responsive.min.css\'))\nresponse.files.append(URL(\'static\',\'css/web2py_bootstrap.css\'))\nresponse.write(\'\\n\\n  \', escape=False)\nresponse.write(\'<script type="text/javascript"><!--\\n    // These variables are used by the web2py_ajax_init function in web2py_ajax.js (which is loaded below).\\n    var w2p_ajax_confirm_message = "\', escape=False)\nresponse.write(T(\'Are you sure you want to delete this object?\'))\nresponse.write(\'";\\n    var w2p_ajax_date_format = "\', escape=False)\nresponse.write(T(\'%Y-%m-%d\'))\nresponse.write(\'";\\n    var w2p_ajax_datetime_format = "\', escape=False)\nresponse.write(T(\'%Y-%m-%d %H:%M:%S\'))\nresponse.write(\'";\\n    //--></script>\\n\', escape=False)\nresponse.files.insert(0,URL(\'static\',\'js/jquery.js\'))\nresponse.files.insert(1,URL(\'static\',\'css/calendar.css\'))\nresponse.files.insert(2,URL(\'static\',\'js/calendar.js\'))\nresponse.files.insert(3,URL(\'static\',\'js/web2py.js\'))\nresponse.include_meta()\nresponse.include_files()\nresponse.write(\'\\n\', escape=False)\nresponse.write(\'\\n\\n  \', escape=False)\n# using sidebars need to know what sidebar you want to use\nleft_sidebar_enabled = globals().get(\'left_sidebar_enabled\',False)\nright_sidebar_enabled = globals().get(\'right_sidebar_enabled\',False)\nmiddle_columns = {0:\'span12\',1:\'span9\',2:\'span6\'}[\n(left_sidebar_enabled and 1 or 0)+(right_sidebar_enabled and 1 or 0)]\nresponse.write(\'\\n\\n  <!-- uncomment here to load jquery-ui\\n       <link rel="stylesheet" href="http://ajax.googleapis.com/ajax/libs/jqueryui/1.8.16/themes/base/jquery-ui.css" type="text/css" media="all" />\\n       <script src="http://ajax.googleapis.com/ajax/libs/jqueryui/1.8.16/jquery-ui.min.js" type="text/javascript"></script>\\n       uncomment to load jquery-ui //-->\\n  <noscript><link href="\', escape=False)\nresponse.write(URL(\'static\', \'css/web2py_bootstrap_nojs.css\'))\nresponse.write(\'" rel="stylesheet" type="text/css" /></noscript>\\n  \', escape=False)\nresponse.write(\'\\n</head>\\n\\n<body>\\n  <!-- Navbar ================================================== -->\\n  <div class="navbar navbar-inverse navbar-fixed-top">\\n    <div class="flash">\', escape=False)\nresponse.write(response.flash or \'\')\nresponse.write(\'</div>\\n    <div class="navbar-inner">\\n      <div class="container">\\n        <!-- the next tag is necessary for bootstrap menus, do not remove -->\\n        <button type="button" class="btn btn-navbar" data-toggle="collapse" data-target=".nav-collapse">\\n          <span class="icon-bar"></span>\\n          <span class="icon-bar"></span>\\n          <span class="icon-bar"></span>\\n        </button>\\n\\t\', escape=False)\nresponse.write(response.logo or \'\')\nresponse.write(\'\\n       <ul id="navbar" class="nav pull-right">\', escape=False)\nresponse.write(MENU(response.menu2, _class=\'mobile-menu nav\', li_class=\'dropdown\',ul_class=\'dropdown-menu\'))\nresponse.write(\'</ul>\\n        <div class="nav-collapse"><ul class="nav">\\n          \', escape=False)\nis_mobile=request.user_agent().is_mobile\nresponse.write(\'\\n          \', escape=False)\nif response.menu:\n    response.write(\'\\n          \', escape=False)\n    response.write(MENU(response.menu, _class=\'mobile-menu nav\' if is_mobile else \'nav\',mobile=is_mobile,li_class=\'dropdown\',ul_class=\'dropdown-menu\'))\n    response.write(\'\\n          \', escape=False)\n    pass\nresponse.write(\'\\n        </div><!--/.nav-collapse --></ul>\\n      </div>\\n    </div>\\n  </div><!--/top navbar -->\\n\\n  <div class="container">\\n    <!-- Masthead ================================================== -->\\n    <header class="mastheader row" id="header">\\n        <div class="span12">\\n            <div class="page-header">\\n                <h1>\\n                    hosts\\n                    <small>\', escape=False)\nresponse.write(response.title or \'\')\nresponse.write(\'</small>\\n                </h1>\\n            </div>\\n        </div>\\n    </header>\\n\\n    <section id="main" class="main row">\\n        \', escape=False)\nif left_sidebar_enabled:\n    response.write(\'\\n        <div class="span3 left-sidebar">\\n            \', escape=False)\n    response.write(\'\\n            <h3>Left Sidebar</h3>\\n            <p></p>\\n            \', escape=False)\n    response.write(\'\\n        </div>\\n        \', escape=False)\n    pass\nresponse.write(\'\\n        \\n        <div class="\', escape=False)\nresponse.write(middle_columns)\nresponse.write(\'">\\n            \', escape=False)\nresponse.write(\'\\n<ul class="breadcrumb">\\n        <li><a href="\', escape=False)\nresponse.write(URL(\'initial\', \'/show_cliente\'))\nresponse.write(\'">Clientes</a> <span class="divider">/</span></li>\\n        <li><a href="\', escape=False)\nresponse.write(URL(\'initial\', \'/cliente_host\', vars=(f=1)))\nresponse.write(\'">Library</a> <span class="divider">/</span></li>\\n        <li class="active">Data</li>\\n      </ul>\\n\', escape=False)\nresponse.write(form)\nresponse.write(\'\\n\', escape=False)\nresponse.write(\'\\n        </div>\\n\\n        \', escape=False)\nif right_sidebar_enabled:\n    response.write(\'\\n        <div class="span3">\\n            \', escape=False)\n    response.write(\'\\n            <h3>Right Sidebar</h3>\\n            <p></p>\\n            \', escape=False)\n    response.write(\'\\n        </div>\\n        \', escape=False)\n    pass\nresponse.write(\'\\n    </section><!--/main-->\\n\\n    <!-- Footer ================================================== -->\\n    <div class="row">\\n        <footer class="footer span12" id="footer">\\n            <div class="footer-content">\\n                \', escape=False)\nresponse.write(\' <!-- this is default footer -->\\n                <div class="copyright pull-left">\', escape=False)\nresponse.write(T(\'Copyright\'))\nresponse.write(\' &#169; \', escape=False)\nresponse.write(request.now.year)\nresponse.write(\'</div>\\n                <div id="poweredBy" class="pull-right">\\n                    \', escape=False)\nresponse.write(T(\'Powered by\'))\nresponse.write(\'\\n                    <a href="www.google.com">Aldeia Digital</a>\\n                </div>\\n                \', escape=False)\nresponse.write(\'\\n            </div>\\n        </footer>\\n    </div>\\n\\n  </div> <!-- /container -->\\n\\n  <!-- The javascript =============================================\\n       (Placed at the end of the document so the pages load faster) -->\\n  <script src="\', escape=False)\nresponse.write(URL(\'static\',\'js/bootstrap.min.js\'))\nresponse.write(\'"></script>\\n  <script src="\', escape=False)\nresponse.write(URL(\'static\',\'js/web2py_bootstrap.js\'))\nresponse.write(\'"></script>\\n  <!--[if lt IE 7 ]>\\n      <script src="\', escape=False)\nresponse.write(URL(\'static\',\'js/dd_belatedpng.js\'))\nresponse.write(\'"></script>\\n      <script> DD_belatedPNG.fix(\\\'img, .png_bg\\\'); //fix any <img> or .png_bg background-images </script>\\n      <![endif]-->\\n  \\n  \', escape=False)\nif response.google_analytics_id:\n    response.write(\'\\n  <script src="\', escape=False)\n    response.write(URL(\'static\',\'js/analytics.js\'))\n    response.write(\'"></script>\\n  <script type="text/javascript">\\n  analytics.initialize({\\n    \\\'Google Analytics\\\':{trackingId:\\\'\', escape=False)\n    response.write(response.google_analytics_id)\n    response.write("\'} \\n  });</script>\\n  ", escape=False)\n    pass\nresponse.write(\'\\n  <script src="\', escape=False)\nresponse.write(URL(\'static\',\'js/share.js\',vars=dict(static=URL(\'static\',\'images\'))))\nresponse.write(\'"></script>\\n</body>\\n</html>\\n\', escape=False)'
p7
sS'snapshot'
p8
(dp9
S'exception'
p10
(dp11
S'__getslice__'
p12
S"<method-wrapper '__getslice__' of exceptions.SyntaxError object>"
p13
sS'text'
p14
S'"response.write(URL(\'initial\', \'/cliente_host\', vars=(f=1)))\\n"'
p15
sS'__str__'
p16
S"<method-wrapper '__str__' of exceptions.SyntaxError object>"
p17
sS'__reduce__'
p18
S'<built-in method __reduce__ of exceptions.SyntaxError object>'
p19
sS'__dict__'
p20
S'{}'
p21
sS'__sizeof__'
p22
S'<built-in method __sizeof__ of exceptions.SyntaxError object>'
p23
sS'__init__'
p24
S"<method-wrapper '__init__' of exceptions.SyntaxError object>"
p25
sS'__setattr__'
p26
S"<method-wrapper '__setattr__' of exceptions.SyntaxError object>"
p27
sS'__reduce_ex__'
p28
S'<built-in method __reduce_ex__ of exceptions.SyntaxError object>'
p29
sS'__new__'
p30
S'<built-in method __new__ of type object>'
p31
sS'__format__'
p32
S'<built-in method __format__ of exceptions.SyntaxError object>'
p33
sS'__class__'
p34
S"<type 'exceptions.SyntaxError'>"
p35
sS'filename'
p36
S"'/var/www/hosts3/applications/projeto/views/initial/show_form.html'"
p37
sS'lineno'
p38
S'80'
p39
sS'msg'
p40
S"'invalid syntax'"
p41
sS'__doc__'
p42
S"'Invalid syntax.'"
p43
sS'__getitem__'
p44
S"<method-wrapper '__getitem__' of exceptions.SyntaxError object>"
p45
sS'__setstate__'
p46
S'<built-in method __setstate__ of exceptions.SyntaxError object>'
p47
sS'__getattribute__'
p48
S"<method-wrapper '__getattribute__' of exceptions.SyntaxError object>"
p49
sS'print_file_and_line'
p50
S'None'
p51
sS'args'
p52
S'(\'invalid syntax\', (\'/var/www/hosts3/applications/projeto/views/initial/show_form.html\', 80, 55, "response.write(URL(\'initial\', \'/cliente_host\', vars=(f=1)))\\n"))'
p53
sS'__subclasshook__'
p54
S'<built-in method __subclasshook__ of type object>'
p55
sS'offset'
p56
S'55'
p57
sS'__unicode__'
p58
S'<built-in method __unicode__ of exceptions.SyntaxError object>'
p59
sS'__delattr__'
p60
S"<method-wrapper '__delattr__' of exceptions.SyntaxError object>"
p61
sS'__repr__'
p62
S"<method-wrapper '__repr__' of exceptions.SyntaxError object>"
p63
sS'__hash__'
p64
S"<method-wrapper '__hash__' of exceptions.SyntaxError object>"
p65
ssS'evalue'
p66
S'invalid syntax (show_form.html, line 80)'
p67
sS'request'
p68
ccopy_reg
_reconstructor
p69
(cgluon.html
BEAUTIFY
p70
c__builtin__
object
p71
NtRp72
(dp73
S'attributes'
p74
(dp75
sS'components'
p76
(lp77
g69
(cgluon.html
TABLE
p78
g71
NtRp79
(dp80
g74
(dp81
S'level'
p82
I5
ssS'parent'
p83
Nsg76
(lp84
g69
(cgluon.html
TR
p85
g71
NtRp86
(dp87
g74
(dp88
sg83
g79
sg76
(lp89
g69
(cgluon.html
TD
p90
g71
NtRp91
(dp92
g74
(dp93
S'_style'
p94
S'font-weight:bold;vertical-align:top'
p95
ssg83
g86
sg76
(lp96
S'ajax'
p97
asbag69
(g90
g71
NtRp98
(dp99
g74
(dp100
S'_valign'
p101
S'top'
p102
ssg83
g86
sg76
(lp103
S':'
asbag69
(g90
g71
NtRp104
(dp105
g74
(dp106
sg83
g86
sg76
(lp107
g69
(g70
g71
NtRp108
(dp109
g74
(dp110
g82
I5
ssg83
g104
sg76
(lp111
S'False'
p112
asbasbasbag69
(g85
g71
NtRp113
(dp114
g74
(dp115
sg83
g79
sg76
(lp116
g69
(g90
g71
NtRp117
(dp118
g74
(dp119
g94
g95
ssg83
g113
sg76
(lp120
S'application'
p121
asbag69
(g90
g71
NtRp122
(dp123
g74
(dp124
g101
g102
ssg83
g113
sg76
(lp125
S':'
asbag69
(g90
g71
NtRp126
(dp127
g74
(dp128
sg83
g113
sg76
(lp129
g69
(g70
g71
NtRp130
(dp131
g74
(dp132
g82
I5
ssg83
g126
sg76
(lp133
S'projeto'
p134
asbasbasbag69
(g85
g71
NtRp135
(dp136
g74
(dp137
sg83
g79
sg76
(lp138
g69
(g90
g71
NtRp139
(dp140
g74
(dp141
g94
g95
ssg83
g135
sg76
(lp142
g52
asbag69
(g90
g71
NtRp143
(dp144
g74
(dp145
g101
g102
ssg83
g135
sg76
(lp146
S':'
asbag69
(g90
g71
NtRp147
(dp148
g74
(dp149
sg83
g135
sg76
(lp150
g69
(g70
g71
NtRp151
(dp152
g74
(dp153
g82
I5
ssg83
g147
sg76
(lp154
g69
(g78
g71
NtRp155
(dp156
g74
(dp157
g82
I4
ssg83
Nsg76
(lp158
g69
(g85
g71
NtRp159
(dp160
g74
(dp161
sg83
g155
sg76
(lp162
g69
(g90
g71
NtRp163
(dp164
g74
(dp165
sg83
g159
sg76
(lp166
g69
(g70
g71
NtRp167
(dp168
g74
(dp169
g82
I4
ssg83
g163
sg76
(lp170
S'1'
asbasbasbasbasbasbasbag69
(g85
g71
NtRp171
(dp172
g74
(dp173
sg83
g79
sg76
(lp174
g69
(g90
g71
NtRp175
(dp176
g74
(dp177
g94
g95
ssg83
g171
sg76
(lp178
S'body'
p179
asbag69
(g90
g71
NtRp180
(dp181
g74
(dp182
g101
g102
ssg83
g171
sg76
(lp183
S':'
asbag69
(g90
g71
NtRp184
(dp185
g74
(dp186
sg83
g171
sg76
(lp187
g69
(g70
g71
NtRp188
(dp189
g74
(dp190
g82
I5
ssg83
g184
sg76
(lp191
S'<cStringIO.StringO object at 0x7f7af4125618>'
p192
asbasbasbag69
(g85
g71
NtRp193
(dp194
g74
(dp195
sg83
g79
sg76
(lp196
g69
(g90
g71
NtRp197
(dp198
g74
(dp199
g94
g95
ssg83
g193
sg76
(lp200
S'cid'
p201
asbag69
(g90
g71
NtRp202
(dp203
g74
(dp204
g101
g102
ssg83
g193
sg76
(lp205
S':'
asbag69
(g90
g71
NtRp206
(dp207
g74
(dp208
sg83
g193
sg76
(lp209
g69
(g70
g71
NtRp210
(dp211
g74
(dp212
g82
I5
ssg83
g206
sg76
(lp213
S'None'
p214
asbasbasbag69
(g85
g71
NtRp215
(dp216
g74
(dp217
sg83
g79
sg76
(lp218
g69
(g90
g71
NtRp219
(dp220
g74
(dp221
g94
g95
ssg83
g215
sg76
(lp222
S'client'
p223
asbag69
(g90
g71
NtRp224
(dp225
g74
(dp226
g101
g102
ssg83
g215
sg76
(lp227
S':'
asbag69
(g90
g71
NtRp228
(dp229
g74
(dp230
sg83
g215
sg76
(lp231
g69
(g70
g71
NtRp232
(dp233
g74
(dp234
g82
I5
ssg83
g228
sg76
(lp235
S'127.0.0.1'
p236
asbasbasbag69
(g85
g71
NtRp237
(dp238
g74
(dp239
sg83
g79
sg76
(lp240
g69
(g90
g71
NtRp241
(dp242
g74
(dp243
g94
g95
ssg83
g237
sg76
(lp244
S'controller'
p245
asbag69
(g90
g71
NtRp246
(dp247
g74
(dp248
g101
g102
ssg83
g237
sg76
(lp249
S':'
asbag69
(g90
g71
NtRp250
(dp251
g74
(dp252
sg83
g237
sg76
(lp253
g69
(g70
g71
NtRp254
(dp255
g74
(dp256
g82
I5
ssg83
g250
sg76
(lp257
S'initial'
p258
asbasbasbag69
(g85
g71
NtRp259
(dp260
g74
(dp261
sg83
g79
sg76
(lp262
g69
(g90
g71
NtRp263
(dp264
g74
(dp265
g94
g95
ssg83
g259
sg76
(lp266
S'cookies'
p267
asbag69
(g90
g71
NtRp268
(dp269
g74
(dp270
g101
g102
ssg83
g259
sg76
(lp271
S':'
asbag69
(g90
g71
NtRp272
(dp273
g74
(dp274
sg83
g259
sg76
(lp275
g69
(g70
g71
NtRp276
(dp277
g74
(dp278
g82
I5
ssg83
g272
sg76
(lp279
g69
(g78
g71
NtRp280
(dp281
g74
(dp282
g82
I4
ssg83
Nsg76
(lp283
g69
(g85
g71
NtRp284
(dp285
g74
(dp286
sg83
g280
sg76
(lp287
g69
(g90
g71
NtRp288
(dp289
g74
(dp290
g94
g95
ssg83
g284
sg76
(lp291
S'admin'
p292
asbag69
(g90
g71
NtRp293
(dp294
g74
(dp295
g101
g102
ssg83
g284
sg76
(lp296
S':'
asbag69
(g90
g71
NtRp297
(dp298
g74
(dp299
sg83
g284
sg76
(lp300
g69
(g70
g71
NtRp301
(dp302
g74
(dp303
g82
I4
ssg83
g297
sg76
(lp304
S'admin'
p305
ag69
(g78
g71
NtRp306
(dp307
g74
(dp308
g82
I3
ssg83
Nsg76
(lp309
g69
(g85
g71
NtRp310
(dp311
g74
(dp312
sg83
g306
sg76
(lp313
g69
(g90
g71
NtRp314
(dp315
g74
(dp316
g94
g95
ssg83
g310
sg76
(lp317
S'comment'
p318
asbag69
(g90
g71
NtRp319
(dp320
g74
(dp321
g101
g102
ssg83
g310
sg76
(lp322
S':'
asbag69
(g90
g71
NtRp323
(dp324
g74
(dp325
sg83
g310
sg76
(lp326
g69
(g70
g71
NtRp327
(dp328
g74
(dp329
g82
I3
ssg83
g323
sg76
(lp330
S''
asbasbasbag69
(g85
g71
NtRp331
(dp332
g74
(dp333
sg83
g306
sg76
(lp334
g69
(g90
g71
NtRp335
(dp336
g74
(dp337
g94
g95
ssg83
g331
sg76
(lp338
S'domain'
p339
asbag69
(g90
g71
NtRp340
(dp341
g74
(dp342
g101
g102
ssg83
g331
sg76
(lp343
S':'
asbag69
(g90
g71
NtRp344
(dp345
g74
(dp346
sg83
g331
sg76
(lp347
g69
(g70
g71
NtRp348
(dp349
g74
(dp350
g82
I3
ssg83
g344
sg76
(lp351
S''
asbasbasbag69
(g85
g71
NtRp352
(dp353
g74
(dp354
sg83
g306
sg76
(lp355
g69
(g90
g71
NtRp356
(dp357
g74
(dp358
g94
g95
ssg83
g352
sg76
(lp359
S'expires'
p360
asbag69
(g90
g71
NtRp361
(dp362
g74
(dp363
g101
g102
ssg83
g352
sg76
(lp364
S':'
asbag69
(g90
g71
NtRp365
(dp366
g74
(dp367
sg83
g352
sg76
(lp368
g69
(g70
g71
NtRp369
(dp370
g74
(dp371
g82
I3
ssg83
g365
sg76
(lp372
S''
asbasbasbag69
(g85
g71
NtRp373
(dp374
g74
(dp375
sg83
g306
sg76
(lp376
g69
(g90
g71
NtRp377
(dp378
g74
(dp379
g94
g95
ssg83
g373
sg76
(lp380
S'httponly'
p381
asbag69
(g90
g71
NtRp382
(dp383
g74
(dp384
g101
g102
ssg83
g373
sg76
(lp385
S':'
asbag69
(g90
g71
NtRp386
(dp387
g74
(dp388
sg83
g373
sg76
(lp389
g69
(g70
g71
NtRp390
(dp391
g74
(dp392
g82
I3
ssg83
g386
sg76
(lp393
S''
asbasbasbag69
(g85
g71
NtRp394
(dp395
g74
(dp396
sg83
g306
sg76
(lp397
g69
(g90
g71
NtRp398
(dp399
g74
(dp400
g94
g95
ssg83
g394
sg76
(lp401
S'max-age'
p402
asbag69
(g90
g71
NtRp403
(dp404
g74
(dp405
g101
g102
ssg83
g394
sg76
(lp406
S':'
asbag69
(g90
g71
NtRp407
(dp408
g74
(dp409
sg83
g394
sg76
(lp410
g69
(g70
g71
NtRp411
(dp412
g74
(dp413
g82
I3
ssg83
g407
sg76
(lp414
S''
asbasbasbag69
(g85
g71
NtRp415
(dp416
g74
(dp417
sg83
g306
sg76
(lp418
g69
(g90
g71
NtRp419
(dp420
g74
(dp421
g94
g95
ssg83
g415
sg76
(lp422
S'path'
p423
asbag69
(g90
g71
NtRp424
(dp425
g74
(dp426
g101
g102
ssg83
g415
sg76
(lp427
S':'
asbag69
(g90
g71
NtRp428
(dp429
g74
(dp430
sg83
g415
sg76
(lp431
g69
(g70
g71
NtRp432
(dp433
g74
(dp434
g82
I3
ssg83
g428
sg76
(lp435
S''
asbasbasbag69
(g85
g71
NtRp436
(dp437
g74
(dp438
sg83
g306
sg76
(lp439
g69
(g90
g71
NtRp440
(dp441
g74
(dp442
g94
g95
ssg83
g436
sg76
(lp443
S'secure'
p444
asbag69
(g90
g71
NtRp445
(dp446
g74
(dp447
g101
g102
ssg83
g436
sg76
(lp448
S':'
asbag69
(g90
g71
NtRp449
(dp450
g74
(dp451
sg83
g436
sg76
(lp452
g69
(g70
g71
NtRp453
(dp454
g74
(dp455
g82
I3
ssg83
g449
sg76
(lp456
S''
asbasbasbag69
(g85
g71
NtRp457
(dp458
g74
(dp459
sg83
g306
sg76
(lp460
g69
(g90
g71
NtRp461
(dp462
g74
(dp463
g94
g95
ssg83
g457
sg76
(lp464
S'version'
p465
asbag69
(g90
g71
NtRp466
(dp467
g74
(dp468
g101
g102
ssg83
g457
sg76
(lp469
S':'
asbag69
(g90
g71
NtRp470
(dp471
g74
(dp472
sg83
g457
sg76
(lp473
g69
(g70
g71
NtRp474
(dp475
g74
(dp476
g82
I3
ssg83
g470
sg76
(lp477
S''
asbasbasbasbasbasbasbag69
(g85
g71
NtRp478
(dp479
g74
(dp480
sg83
g280
sg76
(lp481
g69
(g90
g71
NtRp482
(dp483
g74
(dp484
g94
g95
ssg83
g478
sg76
(lp485
S'cookie'
p486
asbag69
(g90
g71
NtRp487
(dp488
g74
(dp489
g101
g102
ssg83
g478
sg76
(lp490
S':'
asbag69
(g90
g71
NtRp491
(dp492
g74
(dp493
sg83
g478
sg76
(lp494
g69
(g70
g71
NtRp495
(dp496
g74
(dp497
g82
I4
ssg83
g491
sg76
(lp498
S'1649423593'
p499
ag69
(g78
g71
NtRp500
(dp501
g74
(dp502
g82
I3
ssg83
Nsg76
(lp503
g69
(g85
g71
NtRp504
(dp505
g74
(dp506
sg83
g500
sg76
(lp507
g69
(g90
g71
NtRp508
(dp509
g74
(dp510
g94
g95
ssg83
g504
sg76
(lp511
g318
asbag69
(g90
g71
NtRp512
(dp513
g74
(dp514
g101
g102
ssg83
g504
sg76
(lp515
S':'
asbag69
(g90
g71
NtRp516
(dp517
g74
(dp518
sg83
g504
sg76
(lp519
g69
(g70
g71
NtRp520
(dp521
g74
(dp522
g82
I3
ssg83
g516
sg76
(lp523
S''
asbasbasbag69
(g85
g71
NtRp524
(dp525
g74
(dp526
sg83
g500
sg76
(lp527
g69
(g90
g71
NtRp528
(dp529
g74
(dp530
g94
g95
ssg83
g524
sg76
(lp531
g339
asbag69
(g90
g71
NtRp532
(dp533
g74
(dp534
g101
g102
ssg83
g524
sg76
(lp535
S':'
asbag69
(g90
g71
NtRp536
(dp537
g74
(dp538
sg83
g524
sg76
(lp539
g69
(g70
g71
NtRp540
(dp541
g74
(dp542
g82
I3
ssg83
g536
sg76
(lp543
S''
asbasbasbag69
(g85
g71
NtRp544
(dp545
g74
(dp546
sg83
g500
sg76
(lp547
g69
(g90
g71
NtRp548
(dp549
g74
(dp550
g94
g95
ssg83
g544
sg76
(lp551
g360
asbag69
(g90
g71
NtRp552
(dp553
g74
(dp554
g101
g102
ssg83
g544
sg76
(lp555
S':'
asbag69
(g90
g71
NtRp556
(dp557
g74
(dp558
sg83
g544
sg76
(lp559
g69
(g70
g71
NtRp560
(dp561
g74
(dp562
g82
I3
ssg83
g556
sg76
(lp563
S''
asbasbasbag69
(g85
g71
NtRp564
(dp565
g74
(dp566
sg83
g500
sg76
(lp567
g69
(g90
g71
NtRp568
(dp569
g74
(dp570
g94
g95
ssg83
g564
sg76
(lp571
g381
asbag69
(g90
g71
NtRp572
(dp573
g74
(dp574
g101
g102
ssg83
g564
sg76
(lp575
S':'
asbag69
(g90
g71
NtRp576
(dp577
g74
(dp578
sg83
g564
sg76
(lp579
g69
(g70
g71
NtRp580
(dp581
g74
(dp582
g82
I3
ssg83
g576
sg76
(lp583
S''
asbasbasbag69
(g85
g71
NtRp584
(dp585
g74
(dp586
sg83
g500
sg76
(lp587
g69
(g90
g71
NtRp588
(dp589
g74
(dp590
g94
g95
ssg83
g584
sg76
(lp591
g402
asbag69
(g90
g71
NtRp592
(dp593
g74
(dp594
g101
g102
ssg83
g584
sg76
(lp595
S':'
asbag69
(g90
g71
NtRp596
(dp597
g74
(dp598
sg83
g584
sg76
(lp599
g69
(g70
g71
NtRp600
(dp601
g74
(dp602
g82
I3
ssg83
g596
sg76
(lp603
S''
asbasbasbag69
(g85
g71
NtRp604
(dp605
g74
(dp606
sg83
g500
sg76
(lp607
g69
(g90
g71
NtRp608
(dp609
g74
(dp610
g94
g95
ssg83
g604
sg76
(lp611
g423
asbag69
(g90
g71
NtRp612
(dp613
g74
(dp614
g101
g102
ssg83
g604
sg76
(lp615
S':'
asbag69
(g90
g71
NtRp616
(dp617
g74
(dp618
sg83
g604
sg76
(lp619
g69
(g70
g71
NtRp620
(dp621
g74
(dp622
g82
I3
ssg83
g616
sg76
(lp623
S''
asbasbasbag69
(g85
g71
NtRp624
(dp625
g74
(dp626
sg83
g500
sg76
(lp627
g69
(g90
g71
NtRp628
(dp629
g74
(dp630
g94
g95
ssg83
g624
sg76
(lp631
g444
asbag69
(g90
g71
NtRp632
(dp633
g74
(dp634
g101
g102
ssg83
g624
sg76
(lp635
S':'
asbag69
(g90
g71
NtRp636
(dp637
g74
(dp638
sg83
g624
sg76
(lp639
g69
(g70
g71
NtRp640
(dp641
g74
(dp642
g82
I3
ssg83
g636
sg76
(lp643
S''
asbasbasbag69
(g85
g71
NtRp644
(dp645
g74
(dp646
sg83
g500
sg76
(lp647
g69
(g90
g71
NtRp648
(dp649
g74
(dp650
g94
g95
ssg83
g644
sg76
(lp651
g465
asbag69
(g90
g71
NtRp652
(dp653
g74
(dp654
g101
g102
ssg83
g644
sg76
(lp655
S':'
asbag69
(g90
g71
NtRp656
(dp657
g74
(dp658
sg83
g644
sg76
(lp659
g69
(g70
g71
NtRp660
(dp661
g74
(dp662
g82
I3
ssg83
g656
sg76
(lp663
S''
asbasbasbasbasbasbasbag69
(g85
g71
NtRp664
(dp665
g74
(dp666
sg83
g280
sg76
(lp667
g69
(g90
g71
NtRp668
(dp669
g74
(dp670
g94
g95
ssg83
g664
sg76
(lp671
S'hw_type'
p672
asbag69
(g90
g71
NtRp673
(dp674
g74
(dp675
g101
g102
ssg83
g664
sg76
(lp676
S':'
asbag69
(g90
g71
NtRp677
(dp678
g74
(dp679
sg83
g664
sg76
(lp680
g69
(g70
g71
NtRp681
(dp682
g74
(dp683
g82
I4
ssg83
g677
sg76
(lp684
S'MX60'
p685
ag69
(g78
g71
NtRp686
(dp687
g74
(dp688
g82
I3
ssg83
Nsg76
(lp689
g69
(g85
g71
NtRp690
(dp691
g74
(dp692
sg83
g686
sg76
(lp693
g69
(g90
g71
NtRp694
(dp695
g74
(dp696
g94
g95
ssg83
g690
sg76
(lp697
g318
asbag69
(g90
g71
NtRp698
(dp699
g74
(dp700
g101
g102
ssg83
g690
sg76
(lp701
S':'
asbag69
(g90
g71
NtRp702
(dp703
g74
(dp704
sg83
g690
sg76
(lp705
g69
(g70
g71
NtRp706
(dp707
g74
(dp708
g82
I3
ssg83
g702
sg76
(lp709
S''
asbasbasbag69
(g85
g71
NtRp710
(dp711
g74
(dp712
sg83
g686
sg76
(lp713
g69
(g90
g71
NtRp714
(dp715
g74
(dp716
g94
g95
ssg83
g710
sg76
(lp717
g339
asbag69
(g90
g71
NtRp718
(dp719
g74
(dp720
g101
g102
ssg83
g710
sg76
(lp721
S':'
asbag69
(g90
g71
NtRp722
(dp723
g74
(dp724
sg83
g710
sg76
(lp725
g69
(g70
g71
NtRp726
(dp727
g74
(dp728
g82
I3
ssg83
g722
sg76
(lp729
S''
asbasbasbag69
(g85
g71
NtRp730
(dp731
g74
(dp732
sg83
g686
sg76
(lp733
g69
(g90
g71
NtRp734
(dp735
g74
(dp736
g94
g95
ssg83
g730
sg76
(lp737
g360
asbag69
(g90
g71
NtRp738
(dp739
g74
(dp740
g101
g102
ssg83
g730
sg76
(lp741
S':'
asbag69
(g90
g71
NtRp742
(dp743
g74
(dp744
sg83
g730
sg76
(lp745
g69
(g70
g71
NtRp746
(dp747
g74
(dp748
g82
I3
ssg83
g742
sg76
(lp749
S''
asbasbasbag69
(g85
g71
NtRp750
(dp751
g74
(dp752
sg83
g686
sg76
(lp753
g69
(g90
g71
NtRp754
(dp755
g74
(dp756
g94
g95
ssg83
g750
sg76
(lp757
g381
asbag69
(g90
g71
NtRp758
(dp759
g74
(dp760
g101
g102
ssg83
g750
sg76
(lp761
S':'
asbag69
(g90
g71
NtRp762
(dp763
g74
(dp764
sg83
g750
sg76
(lp765
g69
(g70
g71
NtRp766
(dp767
g74
(dp768
g82
I3
ssg83
g762
sg76
(lp769
S''
asbasbasbag69
(g85
g71
NtRp770
(dp771
g74
(dp772
sg83
g686
sg76
(lp773
g69
(g90
g71
NtRp774
(dp775
g74
(dp776
g94
g95
ssg83
g770
sg76
(lp777
g402
asbag69
(g90
g71
NtRp778
(dp779
g74
(dp780
g101
g102
ssg83
g770
sg76
(lp781
S':'
asbag69
(g90
g71
NtRp782
(dp783
g74
(dp784
sg83
g770
sg76
(lp785
g69
(g70
g71
NtRp786
(dp787
g74
(dp788
g82
I3
ssg83
g782
sg76
(lp789
S''
asbasbasbag69
(g85
g71
NtRp790
(dp791
g74
(dp792
sg83
g686
sg76
(lp793
g69
(g90
g71
NtRp794
(dp795
g74
(dp796
g94
g95
ssg83
g790
sg76
(lp797
g423
asbag69
(g90
g71
NtRp798
(dp799
g74
(dp800
g101
g102
ssg83
g790
sg76
(lp801
S':'
asbag69
(g90
g71
NtRp802
(dp803
g74
(dp804
sg83
g790
sg76
(lp805
g69
(g70
g71
NtRp806
(dp807
g74
(dp808
g82
I3
ssg83
g802
sg76
(lp809
S''
asbasbasbag69
(g85
g71
NtRp810
(dp811
g74
(dp812
sg83
g686
sg76
(lp813
g69
(g90
g71
NtRp814
(dp815
g74
(dp816
g94
g95
ssg83
g810
sg76
(lp817
g444
asbag69
(g90
g71
NtRp818
(dp819
g74
(dp820
g101
g102
ssg83
g810
sg76
(lp821
S':'
asbag69
(g90
g71
NtRp822
(dp823
g74
(dp824
sg83
g810
sg76
(lp825
g69
(g70
g71
NtRp826
(dp827
g74
(dp828
g82
I3
ssg83
g822
sg76
(lp829
S''
asbasbasbag69
(g85
g71
NtRp830
(dp831
g74
(dp832
sg83
g686
sg76
(lp833
g69
(g90
g71
NtRp834
(dp835
g74
(dp836
g94
g95
ssg83
g830
sg76
(lp837
g465
asbag69
(g90
g71
NtRp838
(dp839
g74
(dp840
g101
g102
ssg83
g830
sg76
(lp841
S':'
asbag69
(g90
g71
NtRp842
(dp843
g74
(dp844
sg83
g830
sg76
(lp845
g69
(g70
g71
NtRp846
(dp847
g74
(dp848
g82
I3
ssg83
g842
sg76
(lp849
S''
asbasbasbasbasbasbasbag69
(g85
g71
NtRp850
(dp851
g74
(dp852
sg83
g280
sg76
(lp853
g69
(g90
g71
NtRp854
(dp855
g74
(dp856
g94
g95
ssg83
g850
sg76
(lp857
S'hw_version'
p858
asbag69
(g90
g71
NtRp859
(dp860
g74
(dp861
g101
g102
ssg83
g850
sg76
(lp862
S':'
asbag69
(g90
g71
NtRp863
(dp864
g74
(dp865
sg83
g850
sg76
(lp866
g69
(g70
g71
NtRp867
(dp868
g74
(dp869
g82
I4
ssg83
g863
sg76
(lp870
S'Rev%201.9.82.316'
p871
ag69
(g78
g71
NtRp872
(dp873
g74
(dp874
g82
I3
ssg83
Nsg76
(lp875
g69
(g85
g71
NtRp876
(dp877
g74
(dp878
sg83
g872
sg76
(lp879
g69
(g90
g71
NtRp880
(dp881
g74
(dp882
g94
g95
ssg83
g876
sg76
(lp883
g318
asbag69
(g90
g71
NtRp884
(dp885
g74
(dp886
g101
g102
ssg83
g876
sg76
(lp887
S':'
asbag69
(g90
g71
NtRp888
(dp889
g74
(dp890
sg83
g876
sg76
(lp891
g69
(g70
g71
NtRp892
(dp893
g74
(dp894
g82
I3
ssg83
g888
sg76
(lp895
S''
asbasbasbag69
(g85
g71
NtRp896
(dp897
g74
(dp898
sg83
g872
sg76
(lp899
g69
(g90
g71
NtRp900
(dp901
g74
(dp902
g94
g95
ssg83
g896
sg76
(lp903
g339
asbag69
(g90
g71
NtRp904
(dp905
g74
(dp906
g101
g102
ssg83
g896
sg76
(lp907
S':'
asbag69
(g90
g71
NtRp908
(dp909
g74
(dp910
sg83
g896
sg76
(lp911
g69
(g70
g71
NtRp912
(dp913
g74
(dp914
g82
I3
ssg83
g908
sg76
(lp915
S''
asbasbasbag69
(g85
g71
NtRp916
(dp917
g74
(dp918
sg83
g872
sg76
(lp919
g69
(g90
g71
NtRp920
(dp921
g74
(dp922
g94
g95
ssg83
g916
sg76
(lp923
g360
asbag69
(g90
g71
NtRp924
(dp925
g74
(dp926
g101
g102
ssg83
g916
sg76
(lp927
S':'
asbag69
(g90
g71
NtRp928
(dp929
g74
(dp930
sg83
g916
sg76
(lp931
g69
(g70
g71
NtRp932
(dp933
g74
(dp934
g82
I3
ssg83
g928
sg76
(lp935
S''
asbasbasbag69
(g85
g71
NtRp936
(dp937
g74
(dp938
sg83
g872
sg76
(lp939
g69
(g90
g71
NtRp940
(dp941
g74
(dp942
g94
g95
ssg83
g936
sg76
(lp943
g381
asbag69
(g90
g71
NtRp944
(dp945
g74
(dp946
g101
g102
ssg83
g936
sg76
(lp947
S':'
asbag69
(g90
g71
NtRp948
(dp949
g74
(dp950
sg83
g936
sg76
(lp951
g69
(g70
g71
NtRp952
(dp953
g74
(dp954
g82
I3
ssg83
g948
sg76
(lp955
S''
asbasbasbag69
(g85
g71
NtRp956
(dp957
g74
(dp958
sg83
g872
sg76
(lp959
g69
(g90
g71
NtRp960
(dp961
g74
(dp962
g94
g95
ssg83
g956
sg76
(lp963
g402
asbag69
(g90
g71
NtRp964
(dp965
g74
(dp966
g101
g102
ssg83
g956
sg76
(lp967
S':'
asbag69
(g90
g71
NtRp968
(dp969
g74
(dp970
sg83
g956
sg76
(lp971
g69
(g70
g71
NtRp972
(dp973
g74
(dp974
g82
I3
ssg83
g968
sg76
(lp975
S''
asbasbasbag69
(g85
g71
NtRp976
(dp977
g74
(dp978
sg83
g872
sg76
(lp979
g69
(g90
g71
NtRp980
(dp981
g74
(dp982
g94
g95
ssg83
g976
sg76
(lp983
g423
asbag69
(g90
g71
NtRp984
(dp985
g74
(dp986
g101
g102
ssg83
g976
sg76
(lp987
S':'
asbag69
(g90
g71
NtRp988
(dp989
g74
(dp990
sg83
g976
sg76
(lp991
g69
(g70
g71
NtRp992
(dp993
g74
(dp994
g82
I3
ssg83
g988
sg76
(lp995
S''
asbasbasbag69
(g85
g71
NtRp996
(dp997
g74
(dp998
sg83
g872
sg76
(lp999
g69
(g90
g71
NtRp1000
(dp1001
g74
(dp1002
g94
g95
ssg83
g996
sg76
(lp1003
g444
asbag69
(g90
g71
NtRp1004
(dp1005
g74
(dp1006
g101
g102
ssg83
g996
sg76
(lp1007
S':'
asbag69
(g90
g71
NtRp1008
(dp1009
g74
(dp1010
sg83
g996
sg76
(lp1011
g69
(g70
g71
NtRp1012
(dp1013
g74
(dp1014
g82
I3
ssg83
g1008
sg76
(lp1015
S''
asbasbasbag69
(g85
g71
NtRp1016
(dp1017
g74
(dp1018
sg83
g872
sg76
(lp1019
g69
(g90
g71
NtRp1020
(dp1021
g74
(dp1022
g94
g95
ssg83
g1016
sg76
(lp1023
g465
asbag69
(g90
g71
NtRp1024
(dp1025
g74
(dp1026
g101
g102
ssg83
g1016
sg76
(lp1027
S':'
asbag69
(g90
g71
NtRp1028
(dp1029
g74
(dp1030
sg83
g1016
sg76
(lp1031
g69
(g70
g71
NtRp1032
(dp1033
g74
(dp1034
g82
I3
ssg83
g1028
sg76
(lp1035
S''
asbasbasbasbasbasbasbag69
(g85
g71
NtRp1036
(dp1037
g74
(dp1038
sg83
g280
sg76
(lp1039
g69
(g90
g71
NtRp1040
(dp1041
g74
(dp1042
g94
g95
ssg83
g1036
sg76
(lp1043
S'language'
p1044
asbag69
(g90
g71
NtRp1045
(dp1046
g74
(dp1047
g101
g102
ssg83
g1036
sg76
(lp1048
S':'
asbag69
(g90
g71
NtRp1049
(dp1050
g74
(dp1051
sg83
g1036
sg76
(lp1052
g69
(g70
g71
NtRp1053
(dp1054
g74
(dp1055
g82
I4
ssg83
g1049
sg76
(lp1056
S'1'
ag69
(g78
g71
NtRp1057
(dp1058
g74
(dp1059
g82
I3
ssg83
Nsg76
(lp1060
g69
(g85
g71
NtRp1061
(dp1062
g74
(dp1063
sg83
g1057
sg76
(lp1064
g69
(g90
g71
NtRp1065
(dp1066
g74
(dp1067
g94
g95
ssg83
g1061
sg76
(lp1068
g318
asbag69
(g90
g71
NtRp1069
(dp1070
g74
(dp1071
g101
g102
ssg83
g1061
sg76
(lp1072
S':'
asbag69
(g90
g71
NtRp1073
(dp1074
g74
(dp1075
sg83
g1061
sg76
(lp1076
g69
(g70
g71
NtRp1077
(dp1078
g74
(dp1079
g82
I3
ssg83
g1073
sg76
(lp1080
S''
asbasbasbag69
(g85
g71
NtRp1081
(dp1082
g74
(dp1083
sg83
g1057
sg76
(lp1084
g69
(g90
g71
NtRp1085
(dp1086
g74
(dp1087
g94
g95
ssg83
g1081
sg76
(lp1088
g339
asbag69
(g90
g71
NtRp1089
(dp1090
g74
(dp1091
g101
g102
ssg83
g1081
sg76
(lp1092
S':'
asbag69
(g90
g71
NtRp1093
(dp1094
g74
(dp1095
sg83
g1081
sg76
(lp1096
g69
(g70
g71
NtRp1097
(dp1098
g74
(dp1099
g82
I3
ssg83
g1093
sg76
(lp1100
S''
asbasbasbag69
(g85
g71
NtRp1101
(dp1102
g74
(dp1103
sg83
g1057
sg76
(lp1104
g69
(g90
g71
NtRp1105
(dp1106
g74
(dp1107
g94
g95
ssg83
g1101
sg76
(lp1108
g360
asbag69
(g90
g71
NtRp1109
(dp1110
g74
(dp1111
g101
g102
ssg83
g1101
sg76
(lp1112
S':'
asbag69
(g90
g71
NtRp1113
(dp1114
g74
(dp1115
sg83
g1101
sg76
(lp1116
g69
(g70
g71
NtRp1117
(dp1118
g74
(dp1119
g82
I3
ssg83
g1113
sg76
(lp1120
S''
asbasbasbag69
(g85
g71
NtRp1121
(dp1122
g74
(dp1123
sg83
g1057
sg76
(lp1124
g69
(g90
g71
NtRp1125
(dp1126
g74
(dp1127
g94
g95
ssg83
g1121
sg76
(lp1128
g381
asbag69
(g90
g71
NtRp1129
(dp1130
g74
(dp1131
g101
g102
ssg83
g1121
sg76
(lp1132
S':'
asbag69
(g90
g71
NtRp1133
(dp1134
g74
(dp1135
sg83
g1121
sg76
(lp1136
g69
(g70
g71
NtRp1137
(dp1138
g74
(dp1139
g82
I3
ssg83
g1133
sg76
(lp1140
S''
asbasbasbag69
(g85
g71
NtRp1141
(dp1142
g74
(dp1143
sg83
g1057
sg76
(lp1144
g69
(g90
g71
NtRp1145
(dp1146
g74
(dp1147
g94
g95
ssg83
g1141
sg76
(lp1148
g402
asbag69
(g90
g71
NtRp1149
(dp1150
g74
(dp1151
g101
g102
ssg83
g1141
sg76
(lp1152
S':'
asbag69
(g90
g71
NtRp1153
(dp1154
g74
(dp1155
sg83
g1141
sg76
(lp1156
g69
(g70
g71
NtRp1157
(dp1158
g74
(dp1159
g82
I3
ssg83
g1153
sg76
(lp1160
S''
asbasbasbag69
(g85
g71
NtRp1161
(dp1162
g74
(dp1163
sg83
g1057
sg76
(lp1164
g69
(g90
g71
NtRp1165
(dp1166
g74
(dp1167
g94
g95
ssg83
g1161
sg76
(lp1168
g423
asbag69
(g90
g71
NtRp1169
(dp1170
g74
(dp1171
g101
g102
ssg83
g1161
sg76
(lp1172
S':'
asbag69
(g90
g71
NtRp1173
(dp1174
g74
(dp1175
sg83
g1161
sg76
(lp1176
g69
(g70
g71
NtRp1177
(dp1178
g74
(dp1179
g82
I3
ssg83
g1173
sg76
(lp1180
S''
asbasbasbag69
(g85
g71
NtRp1181
(dp1182
g74
(dp1183
sg83
g1057
sg76
(lp1184
g69
(g90
g71
NtRp1185
(dp1186
g74
(dp1187
g94
g95
ssg83
g1181
sg76
(lp1188
g444
asbag69
(g90
g71
NtRp1189
(dp1190
g74
(dp1191
g101
g102
ssg83
g1181
sg76
(lp1192
S':'
asbag69
(g90
g71
NtRp1193
(dp1194
g74
(dp1195
sg83
g1181
sg76
(lp1196
g69
(g70
g71
NtRp1197
(dp1198
g74
(dp1199
g82
I3
ssg83
g1193
sg76
(lp1200
S''
asbasbasbag69
(g85
g71
NtRp1201
(dp1202
g74
(dp1203
sg83
g1057
sg76
(lp1204
g69
(g90
g71
NtRp1205
(dp1206
g74
(dp1207
g94
g95
ssg83
g1201
sg76
(lp1208
g465
asbag69
(g90
g71
NtRp1209
(dp1210
g74
(dp1211
g101
g102
ssg83
g1201
sg76
(lp1212
S':'
asbag69
(g90
g71
NtRp1213
(dp1214
g74
(dp1215
sg83
g1201
sg76
(lp1216
g69
(g70
g71
NtRp1217
(dp1218
g74
(dp1219
g82
I3
ssg83
g1213
sg76
(lp1220
S''
asbasbasbasbasbasbasbag69
(g85
g71
NtRp1221
(dp1222
g74
(dp1223
sg83
g280
sg76
(lp1224
g69
(g90
g71
NtRp1225
(dp1226
g74
(dp1227
g94
g95
ssg83
g1221
sg76
(lp1228
S'model'
p1229
asbag69
(g90
g71
NtRp1230
(dp1231
g74
(dp1232
g101
g102
ssg83
g1221
sg76
(lp1233
S':'
asbag69
(g90
g71
NtRp1234
(dp1235
g74
(dp1236
sg83
g1221
sg76
(lp1237
g69
(g70
g71
NtRp1238
(dp1239
g74
(dp1240
g82
I4
ssg83
g1234
sg76
(lp1241
S'MX'
p1242
ag69
(g78
g71
NtRp1243
(dp1244
g74
(dp1245
g82
I3
ssg83
Nsg76
(lp1246
g69
(g85
g71
NtRp1247
(dp1248
g74
(dp1249
sg83
g1243
sg76
(lp1250
g69
(g90
g71
NtRp1251
(dp1252
g74
(dp1253
g94
g95
ssg83
g1247
sg76
(lp1254
g318
asbag69
(g90
g71
NtRp1255
(dp1256
g74
(dp1257
g101
g102
ssg83
g1247
sg76
(lp1258
S':'
asbag69
(g90
g71
NtRp1259
(dp1260
g74
(dp1261
sg83
g1247
sg76
(lp1262
g69
(g70
g71
NtRp1263
(dp1264
g74
(dp1265
g82
I3
ssg83
g1259
sg76
(lp1266
S''
asbasbasbag69
(g85
g71
NtRp1267
(dp1268
g74
(dp1269
sg83
g1243
sg76
(lp1270
g69
(g90
g71
NtRp1271
(dp1272
g74
(dp1273
g94
g95
ssg83
g1267
sg76
(lp1274
g339
asbag69
(g90
g71
NtRp1275
(dp1276
g74
(dp1277
g101
g102
ssg83
g1267
sg76
(lp1278
S':'
asbag69
(g90
g71
NtRp1279
(dp1280
g74
(dp1281
sg83
g1267
sg76
(lp1282
g69
(g70
g71
NtRp1283
(dp1284
g74
(dp1285
g82
I3
ssg83
g1279
sg76
(lp1286
S''
asbasbasbag69
(g85
g71
NtRp1287
(dp1288
g74
(dp1289
sg83
g1243
sg76
(lp1290
g69
(g90
g71
NtRp1291
(dp1292
g74
(dp1293
g94
g95
ssg83
g1287
sg76
(lp1294
g360
asbag69
(g90
g71
NtRp1295
(dp1296
g74
(dp1297
g101
g102
ssg83
g1287
sg76
(lp1298
S':'
asbag69
(g90
g71
NtRp1299
(dp1300
g74
(dp1301
sg83
g1287
sg76
(lp1302
g69
(g70
g71
NtRp1303
(dp1304
g74
(dp1305
g82
I3
ssg83
g1299
sg76
(lp1306
S''
asbasbasbag69
(g85
g71
NtRp1307
(dp1308
g74
(dp1309
sg83
g1243
sg76
(lp1310
g69
(g90
g71
NtRp1311
(dp1312
g74
(dp1313
g94
g95
ssg83
g1307
sg76
(lp1314
g381
asbag69
(g90
g71
NtRp1315
(dp1316
g74
(dp1317
g101
g102
ssg83
g1307
sg76
(lp1318
S':'
asbag69
(g90
g71
NtRp1319
(dp1320
g74
(dp1321
sg83
g1307
sg76
(lp1322
g69
(g70
g71
NtRp1323
(dp1324
g74
(dp1325
g82
I3
ssg83
g1319
sg76
(lp1326
S''
asbasbasbag69
(g85
g71
NtRp1327
(dp1328
g74
(dp1329
sg83
g1243
sg76
(lp1330
g69
(g90
g71
NtRp1331
(dp1332
g74
(dp1333
g94
g95
ssg83
g1327
sg76
(lp1334
g402
asbag69
(g90
g71
NtRp1335
(dp1336
g74
(dp1337
g101
g102
ssg83
g1327
sg76
(lp1338
S':'
asbag69
(g90
g71
NtRp1339
(dp1340
g74
(dp1341
sg83
g1327
sg76
(lp1342
g69
(g70
g71
NtRp1343
(dp1344
g74
(dp1345
g82
I3
ssg83
g1339
sg76
(lp1346
S''
asbasbasbag69
(g85
g71
NtRp1347
(dp1348
g74
(dp1349
sg83
g1243
sg76
(lp1350
g69
(g90
g71
NtRp1351
(dp1352
g74
(dp1353
g94
g95
ssg83
g1347
sg76
(lp1354
g423
asbag69
(g90
g71
NtRp1355
(dp1356
g74
(dp1357
g101
g102
ssg83
g1347
sg76
(lp1358
S':'
asbag69
(g90
g71
NtRp1359
(dp1360
g74
(dp1361
sg83
g1347
sg76
(lp1362
g69
(g70
g71
NtRp1363
(dp1364
g74
(dp1365
g82
I3
ssg83
g1359
sg76
(lp1366
S''
asbasbasbag69
(g85
g71
NtRp1367
(dp1368
g74
(dp1369
sg83
g1243
sg76
(lp1370
g69
(g90
g71
NtRp1371
(dp1372
g74
(dp1373
g94
g95
ssg83
g1367
sg76
(lp1374
g444
asbag69
(g90
g71
NtRp1375
(dp1376
g74
(dp1377
g101
g102
ssg83
g1367
sg76
(lp1378
S':'
asbag69
(g90
g71
NtRp1379
(dp1380
g74
(dp1381
sg83
g1367
sg76
(lp1382
g69
(g70
g71
NtRp1383
(dp1384
g74
(dp1385
g82
I3
ssg83
g1379
sg76
(lp1386
S''
asbasbasbag69
(g85
g71
NtRp1387
(dp1388
g74
(dp1389
sg83
g1243
sg76
(lp1390
g69
(g90
g71
NtRp1391
(dp1392
g74
(dp1393
g94
g95
ssg83
g1387
sg76
(lp1394
g465
asbag69
(g90
g71
NtRp1395
(dp1396
g74
(dp1397
g101
g102
ssg83
g1387
sg76
(lp1398
S':'
asbag69
(g90
g71
NtRp1399
(dp1400
g74
(dp1401
sg83
g1387
sg76
(lp1402
g69
(g70
g71
NtRp1403
(dp1404
g74
(dp1405
g82
I3
ssg83
g1399
sg76
(lp1406
S''
asbasbasbasbasbasbasbag69
(g85
g71
NtRp1407
(dp1408
g74
(dp1409
sg83
g280
sg76
(lp1410
g69
(g90
g71
NtRp1411
(dp1412
g74
(dp1413
g94
g95
ssg83
g1407
sg76
(lp1414
S'nr'
p1415
asbag69
(g90
g71
NtRp1416
(dp1417
g74
(dp1418
g101
g102
ssg83
g1407
sg76
(lp1419
S':'
asbag69
(g90
g71
NtRp1420
(dp1421
g74
(dp1422
sg83
g1407
sg76
(lp1423
g69
(g70
g71
NtRp1424
(dp1425
g74
(dp1426
g82
I4
ssg83
g1420
sg76
(lp1427
S'1'
ag69
(g78
g71
NtRp1428
(dp1429
g74
(dp1430
g82
I3
ssg83
Nsg76
(lp1431
g69
(g85
g71
NtRp1432
(dp1433
g74
(dp1434
sg83
g1428
sg76
(lp1435
g69
(g90
g71
NtRp1436
(dp1437
g74
(dp1438
g94
g95
ssg83
g1432
sg76
(lp1439
g318
asbag69
(g90
g71
NtRp1440
(dp1441
g74
(dp1442
g101
g102
ssg83
g1432
sg76
(lp1443
S':'
asbag69
(g90
g71
NtRp1444
(dp1445
g74
(dp1446
sg83
g1432
sg76
(lp1447
g69
(g70
g71
NtRp1448
(dp1449
g74
(dp1450
g82
I3
ssg83
g1444
sg76
(lp1451
S''
asbasbasbag69
(g85
g71
NtRp1452
(dp1453
g74
(dp1454
sg83
g1428
sg76
(lp1455
g69
(g90
g71
NtRp1456
(dp1457
g74
(dp1458
g94
g95
ssg83
g1452
sg76
(lp1459
g339
asbag69
(g90
g71
NtRp1460
(dp1461
g74
(dp1462
g101
g102
ssg83
g1452
sg76
(lp1463
S':'
asbag69
(g90
g71
NtRp1464
(dp1465
g74
(dp1466
sg83
g1452
sg76
(lp1467
g69
(g70
g71
NtRp1468
(dp1469
g74
(dp1470
g82
I3
ssg83
g1464
sg76
(lp1471
S''
asbasbasbag69
(g85
g71
NtRp1472
(dp1473
g74
(dp1474
sg83
g1428
sg76
(lp1475
g69
(g90
g71
NtRp1476
(dp1477
g74
(dp1478
g94
g95
ssg83
g1472
sg76
(lp1479
g360
asbag69
(g90
g71
NtRp1480
(dp1481
g74
(dp1482
g101
g102
ssg83
g1472
sg76
(lp1483
S':'
asbag69
(g90
g71
NtRp1484
(dp1485
g74
(dp1486
sg83
g1472
sg76
(lp1487
g69
(g70
g71
NtRp1488
(dp1489
g74
(dp1490
g82
I3
ssg83
g1484
sg76
(lp1491
S''
asbasbasbag69
(g85
g71
NtRp1492
(dp1493
g74
(dp1494
sg83
g1428
sg76
(lp1495
g69
(g90
g71
NtRp1496
(dp1497
g74
(dp1498
g94
g95
ssg83
g1492
sg76
(lp1499
g381
asbag69
(g90
g71
NtRp1500
(dp1501
g74
(dp1502
g101
g102
ssg83
g1492
sg76
(lp1503
S':'
asbag69
(g90
g71
NtRp1504
(dp1505
g74
(dp1506
sg83
g1492
sg76
(lp1507
g69
(g70
g71
NtRp1508
(dp1509
g74
(dp1510
g82
I3
ssg83
g1504
sg76
(lp1511
S''
asbasbasbag69
(g85
g71
NtRp1512
(dp1513
g74
(dp1514
sg83
g1428
sg76
(lp1515
g69
(g90
g71
NtRp1516
(dp1517
g74
(dp1518
g94
g95
ssg83
g1512
sg76
(lp1519
g402
asbag69
(g90
g71
NtRp1520
(dp1521
g74
(dp1522
g101
g102
ssg83
g1512
sg76
(lp1523
S':'
asbag69
(g90
g71
NtRp1524
(dp1525
g74
(dp1526
sg83
g1512
sg76
(lp1527
g69
(g70
g71
NtRp1528
(dp1529
g74
(dp1530
g82
I3
ssg83
g1524
sg76
(lp1531
S''
asbasbasbag69
(g85
g71
NtRp1532
(dp1533
g74
(dp1534
sg83
g1428
sg76
(lp1535
g69
(g90
g71
NtRp1536
(dp1537
g74
(dp1538
g94
g95
ssg83
g1532
sg76
(lp1539
g423
asbag69
(g90
g71
NtRp1540
(dp1541
g74
(dp1542
g101
g102
ssg83
g1532
sg76
(lp1543
S':'
asbag69
(g90
g71
NtRp1544
(dp1545
g74
(dp1546
sg83
g1532
sg76
(lp1547
g69
(g70
g71
NtRp1548
(dp1549
g74
(dp1550
g82
I3
ssg83
g1544
sg76
(lp1551
S''
asbasbasbag69
(g85
g71
NtRp1552
(dp1553
g74
(dp1554
sg83
g1428
sg76
(lp1555
g69
(g90
g71
NtRp1556
(dp1557
g74
(dp1558
g94
g95
ssg83
g1552
sg76
(lp1559
g444
asbag69
(g90
g71
NtRp1560
(dp1561
g74
(dp1562
g101
g102
ssg83
g1552
sg76
(lp1563
S':'
asbag69
(g90
g71
NtRp1564
(dp1565
g74
(dp1566
sg83
g1552
sg76
(lp1567
g69
(g70
g71
NtRp1568
(dp1569
g74
(dp1570
g82
I3
ssg83
g1564
sg76
(lp1571
S''
asbasbasbag69
(g85
g71
NtRp1572
(dp1573
g74
(dp1574
sg83
g1428
sg76
(lp1575
g69
(g90
g71
NtRp1576
(dp1577
g74
(dp1578
g94
g95
ssg83
g1572
sg76
(lp1579
g465
asbag69
(g90
g71
NtRp1580
(dp1581
g74
(dp1582
g101
g102
ssg83
g1572
sg76
(lp1583
S':'
asbag69
(g90
g71
NtRp1584
(dp1585
g74
(dp1586
sg83
g1572
sg76
(lp1587
g69
(g70
g71
NtRp1588
(dp1589
g74
(dp1590
g82
I3
ssg83
g1584
sg76
(lp1591
S''
asbasbasbasbasbasbasbag69
(g85
g71
NtRp1592
(dp1593
g74
(dp1594
sg83
g280
sg76
(lp1595
g69
(g90
g71
NtRp1596
(dp1597
g74
(dp1598
g94
g95
ssg83
g1592
sg76
(lp1599
S'session_id_admin'
p1600
asbag69
(g90
g71
NtRp1601
(dp1602
g74
(dp1603
g101
g102
ssg83
g1592
sg76
(lp1604
S':'
asbag69
(g90
g71
NtRp1605
(dp1606
g74
(dp1607
sg83
g1592
sg76
(lp1608
g69
(g70
g71
NtRp1609
(dp1610
g74
(dp1611
g82
I4
ssg83
g1605
sg76
(lp1612
S'127.0.0.1-2e0a4329-b827-43dc-a6b0-1e8b0329ff4c'
p1613
ag69
(g78
g71
NtRp1614
(dp1615
g74
(dp1616
g82
I3
ssg83
Nsg76
(lp1617
g69
(g85
g71
NtRp1618
(dp1619
g74
(dp1620
sg83
g1614
sg76
(lp1621
g69
(g90
g71
NtRp1622
(dp1623
g74
(dp1624
g94
g95
ssg83
g1618
sg76
(lp1625
g318
asbag69
(g90
g71
NtRp1626
(dp1627
g74
(dp1628
g101
g102
ssg83
g1618
sg76
(lp1629
S':'
asbag69
(g90
g71
NtRp1630
(dp1631
g74
(dp1632
sg83
g1618
sg76
(lp1633
g69
(g70
g71
NtRp1634
(dp1635
g74
(dp1636
g82
I3
ssg83
g1630
sg76
(lp1637
S''
asbasbasbag69
(g85
g71
NtRp1638
(dp1639
g74
(dp1640
sg83
g1614
sg76
(lp1641
g69
(g90
g71
NtRp1642
(dp1643
g74
(dp1644
g94
g95
ssg83
g1638
sg76
(lp1645
g339
asbag69
(g90
g71
NtRp1646
(dp1647
g74
(dp1648
g101
g102
ssg83
g1638
sg76
(lp1649
S':'
asbag69
(g90
g71
NtRp1650
(dp1651
g74
(dp1652
sg83
g1638
sg76
(lp1653
g69
(g70
g71
NtRp1654
(dp1655
g74
(dp1656
g82
I3
ssg83
g1650
sg76
(lp1657
S''
asbasbasbag69
(g85
g71
NtRp1658
(dp1659
g74
(dp1660
sg83
g1614
sg76
(lp1661
g69
(g90
g71
NtRp1662
(dp1663
g74
(dp1664
g94
g95
ssg83
g1658
sg76
(lp1665
g360
asbag69
(g90
g71
NtRp1666
(dp1667
g74
(dp1668
g101
g102
ssg83
g1658
sg76
(lp1669
S':'
asbag69
(g90
g71
NtRp1670
(dp1671
g74
(dp1672
sg83
g1658
sg76
(lp1673
g69
(g70
g71
NtRp1674
(dp1675
g74
(dp1676
g82
I3
ssg83
g1670
sg76
(lp1677
S''
asbasbasbag69
(g85
g71
NtRp1678
(dp1679
g74
(dp1680
sg83
g1614
sg76
(lp1681
g69
(g90
g71
NtRp1682
(dp1683
g74
(dp1684
g94
g95
ssg83
g1678
sg76
(lp1685
g381
asbag69
(g90
g71
NtRp1686
(dp1687
g74
(dp1688
g101
g102
ssg83
g1678
sg76
(lp1689
S':'
asbag69
(g90
g71
NtRp1690
(dp1691
g74
(dp1692
sg83
g1678
sg76
(lp1693
g69
(g70
g71
NtRp1694
(dp1695
g74
(dp1696
g82
I3
ssg83
g1690
sg76
(lp1697
S''
asbasbasbag69
(g85
g71
NtRp1698
(dp1699
g74
(dp1700
sg83
g1614
sg76
(lp1701
g69
(g90
g71
NtRp1702
(dp1703
g74
(dp1704
g94
g95
ssg83
g1698
sg76
(lp1705
g402
asbag69
(g90
g71
NtRp1706
(dp1707
g74
(dp1708
g101
g102
ssg83
g1698
sg76
(lp1709
S':'
asbag69
(g90
g71
NtRp1710
(dp1711
g74
(dp1712
sg83
g1698
sg76
(lp1713
g69
(g70
g71
NtRp1714
(dp1715
g74
(dp1716
g82
I3
ssg83
g1710
sg76
(lp1717
S''
asbasbasbag69
(g85
g71
NtRp1718
(dp1719
g74
(dp1720
sg83
g1614
sg76
(lp1721
g69
(g90
g71
NtRp1722
(dp1723
g74
(dp1724
g94
g95
ssg83
g1718
sg76
(lp1725
g423
asbag69
(g90
g71
NtRp1726
(dp1727
g74
(dp1728
g101
g102
ssg83
g1718
sg76
(lp1729
S':'
asbag69
(g90
g71
NtRp1730
(dp1731
g74
(dp1732
sg83
g1718
sg76
(lp1733
g69
(g70
g71
NtRp1734
(dp1735
g74
(dp1736
g82
I3
ssg83
g1730
sg76
(lp1737
S''
asbasbasbag69
(g85
g71
NtRp1738
(dp1739
g74
(dp1740
sg83
g1614
sg76
(lp1741
g69
(g90
g71
NtRp1742
(dp1743
g74
(dp1744
g94
g95
ssg83
g1738
sg76
(lp1745
g444
asbag69
(g90
g71
NtRp1746
(dp1747
g74
(dp1748
g101
g102
ssg83
g1738
sg76
(lp1749
S':'
asbag69
(g90
g71
NtRp1750
(dp1751
g74
(dp1752
sg83
g1738
sg76
(lp1753
g69
(g70
g71
NtRp1754
(dp1755
g74
(dp1756
g82
I3
ssg83
g1750
sg76
(lp1757
S''
asbasbasbag69
(g85
g71
NtRp1758
(dp1759
g74
(dp1760
sg83
g1614
sg76
(lp1761
g69
(g90
g71
NtRp1762
(dp1763
g74
(dp1764
g94
g95
ssg83
g1758
sg76
(lp1765
g465
asbag69
(g90
g71
NtRp1766
(dp1767
g74
(dp1768
g101
g102
ssg83
g1758
sg76
(lp1769
S':'
asbag69
(g90
g71
NtRp1770
(dp1771
g74
(dp1772
sg83
g1758
sg76
(lp1773
g69
(g70
g71
NtRp1774
(dp1775
g74
(dp1776
g82
I3
ssg83
g1770
sg76
(lp1777
S''
asbasbasbasbasbasbasbag69
(g85
g71
NtRp1778
(dp1779
g74
(dp1780
sg83
g280
sg76
(lp1781
g69
(g90
g71
NtRp1782
(dp1783
g74
(dp1784
g94
g95
ssg83
g1778
sg76
(lp1785
S'session_id_projeto'
p1786
asbag69
(g90
g71
NtRp1787
(dp1788
g74
(dp1789
g101
g102
ssg83
g1778
sg76
(lp1790
S':'
asbag69
(g90
g71
NtRp1791
(dp1792
g74
(dp1793
sg83
g1778
sg76
(lp1794
g69
(g70
g71
NtRp1795
(dp1796
g74
(dp1797
g82
I4
ssg83
g1791
sg76
(lp1798
S'127.0.0.1-0acfffbc-b4bb-461e-bcf3-4358d244c69e'
p1799
ag69
(g78
g71
NtRp1800
(dp1801
g74
(dp1802
g82
I3
ssg83
Nsg76
(lp1803
g69
(g85
g71
NtRp1804
(dp1805
g74
(dp1806
sg83
g1800
sg76
(lp1807
g69
(g90
g71
NtRp1808
(dp1809
g74
(dp1810
g94
g95
ssg83
g1804
sg76
(lp1811
g318
asbag69
(g90
g71
NtRp1812
(dp1813
g74
(dp1814
g101
g102
ssg83
g1804
sg76
(lp1815
S':'
asbag69
(g90
g71
NtRp1816
(dp1817
g74
(dp1818
sg83
g1804
sg76
(lp1819
g69
(g70
g71
NtRp1820
(dp1821
g74
(dp1822
g82
I3
ssg83
g1816
sg76
(lp1823
S''
asbasbasbag69
(g85
g71
NtRp1824
(dp1825
g74
(dp1826
sg83
g1800
sg76
(lp1827
g69
(g90
g71
NtRp1828
(dp1829
g74
(dp1830
g94
g95
ssg83
g1824
sg76
(lp1831
g339
asbag69
(g90
g71
NtRp1832
(dp1833
g74
(dp1834
g101
g102
ssg83
g1824
sg76
(lp1835
S':'
asbag69
(g90
g71
NtRp1836
(dp1837
g74
(dp1838
sg83
g1824
sg76
(lp1839
g69
(g70
g71
NtRp1840
(dp1841
g74
(dp1842
g82
I3
ssg83
g1836
sg76
(lp1843
S''
asbasbasbag69
(g85
g71
NtRp1844
(dp1845
g74
(dp1846
sg83
g1800
sg76
(lp1847
g69
(g90
g71
NtRp1848
(dp1849
g74
(dp1850
g94
g95
ssg83
g1844
sg76
(lp1851
g360
asbag69
(g90
g71
NtRp1852
(dp1853
g74
(dp1854
g101
g102
ssg83
g1844
sg76
(lp1855
S':'
asbag69
(g90
g71
NtRp1856
(dp1857
g74
(dp1858
sg83
g1844
sg76
(lp1859
g69
(g70
g71
NtRp1860
(dp1861
g74
(dp1862
g82
I3
ssg83
g1856
sg76
(lp1863
S''
asbasbasbag69
(g85
g71
NtRp1864
(dp1865
g74
(dp1866
sg83
g1800
sg76
(lp1867
g69
(g90
g71
NtRp1868
(dp1869
g74
(dp1870
g94
g95
ssg83
g1864
sg76
(lp1871
g381
asbag69
(g90
g71
NtRp1872
(dp1873
g74
(dp1874
g101
g102
ssg83
g1864
sg76
(lp1875
S':'
asbag69
(g90
g71
NtRp1876
(dp1877
g74
(dp1878
sg83
g1864
sg76
(lp1879
g69
(g70
g71
NtRp1880
(dp1881
g74
(dp1882
g82
I3
ssg83
g1876
sg76
(lp1883
S''
asbasbasbag69
(g85
g71
NtRp1884
(dp1885
g74
(dp1886
sg83
g1800
sg76
(lp1887
g69
(g90
g71
NtRp1888
(dp1889
g74
(dp1890
g94
g95
ssg83
g1884
sg76
(lp1891
g402
asbag69
(g90
g71
NtRp1892
(dp1893
g74
(dp1894
g101
g102
ssg83
g1884
sg76
(lp1895
S':'
asbag69
(g90
g71
NtRp1896
(dp1897
g74
(dp1898
sg83
g1884
sg76
(lp1899
g69
(g70
g71
NtRp1900
(dp1901
g74
(dp1902
g82
I3
ssg83
g1896
sg76
(lp1903
S''
asbasbasbag69
(g85
g71
NtRp1904
(dp1905
g74
(dp1906
sg83
g1800
sg76
(lp1907
g69
(g90
g71
NtRp1908
(dp1909
g74
(dp1910
g94
g95
ssg83
g1904
sg76
(lp1911
g423
asbag69
(g90
g71
NtRp1912
(dp1913
g74
(dp1914
g101
g102
ssg83
g1904
sg76
(lp1915
S':'
asbag69
(g90
g71
NtRp1916
(dp1917
g74
(dp1918
sg83
g1904
sg76
(lp1919
g69
(g70
g71
NtRp1920
(dp1921
g74
(dp1922
g82
I3
ssg83
g1916
sg76
(lp1923
S''
asbasbasbag69
(g85
g71
NtRp1924
(dp1925
g74
(dp1926
sg83
g1800
sg76
(lp1927
g69
(g90
g71
NtRp1928
(dp1929
g74
(dp1930
g94
g95
ssg83
g1924
sg76
(lp1931
g444
asbag69
(g90
g71
NtRp1932
(dp1933
g74
(dp1934
g101
g102
ssg83
g1924
sg76
(lp1935
S':'
asbag69
(g90
g71
NtRp1936
(dp1937
g74
(dp1938
sg83
g1924
sg76
(lp1939
g69
(g70
g71
NtRp1940
(dp1941
g74
(dp1942
g82
I3
ssg83
g1936
sg76
(lp1943
S''
asbasbasbag69
(g85
g71
NtRp1944
(dp1945
g74
(dp1946
sg83
g1800
sg76
(lp1947
g69
(g90
g71
NtRp1948
(dp1949
g74
(dp1950
g94
g95
ssg83
g1944
sg76
(lp1951
g465
asbag69
(g90
g71
NtRp1952
(dp1953
g74
(dp1954
g101
g102
ssg83
g1944
sg76
(lp1955
S':'
asbag69
(g90
g71
NtRp1956
(dp1957
g74
(dp1958
sg83
g1944
sg76
(lp1959
g69
(g70
g71
NtRp1960
(dp1961
g74
(dp1962
g82
I3
ssg83
g1956
sg76
(lp1963
S''
asbasbasbasbasbasbasbag69
(g85
g71
NtRp1964
(dp1965
g74
(dp1966
sg83
g280
sg76
(lp1967
g69
(g90
g71
NtRp1968
(dp1969
g74
(dp1970
g94
g95
ssg83
g1964
sg76
(lp1971
S'types'
p1972
asbag69
(g90
g71
NtRp1973
(dp1974
g74
(dp1975
g101
g102
ssg83
g1964
sg76
(lp1976
S':'
asbag69
(g90
g71
NtRp1977
(dp1978
g74
(dp1979
sg83
g1964
sg76
(lp1980
g69
(g70
g71
NtRp1981
(dp1982
g74
(dp1983
g82
I4
ssg83
g1977
sg76
(lp1984
S'Rev%201.0.1%20MX60-32S%20%20Kernel%201.0.11%20%28F%29'
p1985
ag69
(g78
g71
NtRp1986
(dp1987
g74
(dp1988
g82
I3
ssg83
Nsg76
(lp1989
g69
(g85
g71
NtRp1990
(dp1991
g74
(dp1992
sg83
g1986
sg76
(lp1993
g69
(g90
g71
NtRp1994
(dp1995
g74
(dp1996
g94
g95
ssg83
g1990
sg76
(lp1997
g318
asbag69
(g90
g71
NtRp1998
(dp1999
g74
(dp2000
g101
g102
ssg83
g1990
sg76
(lp2001
S':'
asbag69
(g90
g71
NtRp2002
(dp2003
g74
(dp2004
sg83
g1990
sg76
(lp2005
g69
(g70
g71
NtRp2006
(dp2007
g74
(dp2008
g82
I3
ssg83
g2002
sg76
(lp2009
S''
asbasbasbag69
(g85
g71
NtRp2010
(dp2011
g74
(dp2012
sg83
g1986
sg76
(lp2013
g69
(g90
g71
NtRp2014
(dp2015
g74
(dp2016
g94
g95
ssg83
g2010
sg76
(lp2017
g339
asbag69
(g90
g71
NtRp2018
(dp2019
g74
(dp2020
g101
g102
ssg83
g2010
sg76
(lp2021
S':'
asbag69
(g90
g71
NtRp2022
(dp2023
g74
(dp2024
sg83
g2010
sg76
(lp2025
g69
(g70
g71
NtRp2026
(dp2027
g74
(dp2028
g82
I3
ssg83
g2022
sg76
(lp2029
S''
asbasbasbag69
(g85
g71
NtRp2030
(dp2031
g74
(dp2032
sg83
g1986
sg76
(lp2033
g69
(g90
g71
NtRp2034
(dp2035
g74
(dp2036
g94
g95
ssg83
g2030
sg76
(lp2037
g360
asbag69
(g90
g71
NtRp2038
(dp2039
g74
(dp2040
g101
g102
ssg83
g2030
sg76
(lp2041
S':'
asbag69
(g90
g71
NtRp2042
(dp2043
g74
(dp2044
sg83
g2030
sg76
(lp2045
g69
(g70
g71
NtRp2046
(dp2047
g74
(dp2048
g82
I3
ssg83
g2042
sg76
(lp2049
S''
asbasbasbag69
(g85
g71
NtRp2050
(dp2051
g74
(dp2052
sg83
g1986
sg76
(lp2053
g69
(g90
g71
NtRp2054
(dp2055
g74
(dp2056
g94
g95
ssg83
g2050
sg76
(lp2057
g381
asbag69
(g90
g71
NtRp2058
(dp2059
g74
(dp2060
g101
g102
ssg83
g2050
sg76
(lp2061
S':'
asbag69
(g90
g71
NtRp2062
(dp2063
g74
(dp2064
sg83
g2050
sg76
(lp2065
g69
(g70
g71
NtRp2066
(dp2067
g74
(dp2068
g82
I3
ssg83
g2062
sg76
(lp2069
S''
asbasbasbag69
(g85
g71
NtRp2070
(dp2071
g74
(dp2072
sg83
g1986
sg76
(lp2073
g69
(g90
g71
NtRp2074
(dp2075
g74
(dp2076
g94
g95
ssg83
g2070
sg76
(lp2077
g402
asbag69
(g90
g71
NtRp2078
(dp2079
g74
(dp2080
g101
g102
ssg83
g2070
sg76
(lp2081
S':'
asbag69
(g90
g71
NtRp2082
(dp2083
g74
(dp2084
sg83
g2070
sg76
(lp2085
g69
(g70
g71
NtRp2086
(dp2087
g74
(dp2088
g82
I3
ssg83
g2082
sg76
(lp2089
S''
asbasbasbag69
(g85
g71
NtRp2090
(dp2091
g74
(dp2092
sg83
g1986
sg76
(lp2093
g69
(g90
g71
NtRp2094
(dp2095
g74
(dp2096
g94
g95
ssg83
g2090
sg76
(lp2097
g423
asbag69
(g90
g71
NtRp2098
(dp2099
g74
(dp2100
g101
g102
ssg83
g2090
sg76
(lp2101
S':'
asbag69
(g90
g71
NtRp2102
(dp2103
g74
(dp2104
sg83
g2090
sg76
(lp2105
g69
(g70
g71
NtRp2106
(dp2107
g74
(dp2108
g82
I3
ssg83
g2102
sg76
(lp2109
S''
asbasbasbag69
(g85
g71
NtRp2110
(dp2111
g74
(dp2112
sg83
g1986
sg76
(lp2113
g69
(g90
g71
NtRp2114
(dp2115
g74
(dp2116
g94
g95
ssg83
g2110
sg76
(lp2117
g444
asbag69
(g90
g71
NtRp2118
(dp2119
g74
(dp2120
g101
g102
ssg83
g2110
sg76
(lp2121
S':'
asbag69
(g90
g71
NtRp2122
(dp2123
g74
(dp2124
sg83
g2110
sg76
(lp2125
g69
(g70
g71
NtRp2126
(dp2127
g74
(dp2128
g82
I3
ssg83
g2122
sg76
(lp2129
S''
asbasbasbag69
(g85
g71
NtRp2130
(dp2131
g74
(dp2132
sg83
g1986
sg76
(lp2133
g69
(g90
g71
NtRp2134
(dp2135
g74
(dp2136
g94
g95
ssg83
g2130
sg76
(lp2137
g465
asbag69
(g90
g71
NtRp2138
(dp2139
g74
(dp2140
g101
g102
ssg83
g2130
sg76
(lp2141
S':'
asbag69
(g90
g71
NtRp2142
(dp2143
g74
(dp2144
sg83
g2130
sg76
(lp2145
g69
(g70
g71
NtRp2146
(dp2147
g74
(dp2148
g82
I3
ssg83
g2142
sg76
(lp2149
S''
asbasbasbasbasbasbasbasbasbasbasbag69
(g85
g71
NtRp2150
(dp2151
g74
(dp2152
sg83
g79
sg76
(lp2153
g69
(g90
g71
NtRp2154
(dp2155
g74
(dp2156
g94
g95
ssg83
g2150
sg76
(lp2157
S'env'
p2158
asbag69
(g90
g71
NtRp2159
(dp2160
g74
(dp2161
g101
g102
ssg83
g2150
sg76
(lp2162
S':'
asbag69
(g90
g71
NtRp2163
(dp2164
g74
(dp2165
sg83
g2150
sg76
(lp2166
g69
(g70
g71
NtRp2167
(dp2168
g74
(dp2169
g82
I5
ssg83
g2163
sg76
(lp2170
g69
(g78
g71
NtRp2171
(dp2172
g74
(dp2173
g82
I4
ssg83
Nsg76
(lp2174
g69
(g85
g71
NtRp2175
(dp2176
g74
(dp2177
sg83
g2171
sg76
(lp2178
g69
(g90
g71
NtRp2179
(dp2180
g74
(dp2181
g94
g95
ssg83
g2175
sg76
(lp2182
S'app_folders'
p2183
asbag69
(g90
g71
NtRp2184
(dp2185
g74
(dp2186
g101
g102
ssg83
g2175
sg76
(lp2187
S':'
asbag69
(g90
g71
NtRp2188
(dp2189
g74
(dp2190
sg83
g2175
sg76
(lp2191
g69
(g70
g71
NtRp2192
(dp2193
g74
(dp2194
g82
I4
ssg83
g2188
sg76
(lp2195
S"set(['/var/www/hosts3/applications/admin/', '/var/www/hosts3/applications/projeto/'])"
p2196
asbasbasbag69
(g85
g71
NtRp2197
(dp2198
g74
(dp2199
sg83
g2171
sg76
(lp2200
g69
(g90
g71
NtRp2201
(dp2202
g74
(dp2203
g94
g95
ssg83
g2197
sg76
(lp2204
S'applications_parent'
p2205
asbag69
(g90
g71
NtRp2206
(dp2207
g74
(dp2208
g101
g102
ssg83
g2197
sg76
(lp2209
S':'
asbag69
(g90
g71
NtRp2210
(dp2211
g74
(dp2212
sg83
g2197
sg76
(lp2213
g69
(g70
g71
NtRp2214
(dp2215
g74
(dp2216
g82
I4
ssg83
g2210
sg76
(lp2217
S'/var/www/hosts3'
p2218
asbasbasbag69
(g85
g71
NtRp2219
(dp2220
g74
(dp2221
sg83
g2171
sg76
(lp2222
g69
(g90
g71
NtRp2223
(dp2224
g74
(dp2225
g94
g95
ssg83
g2219
sg76
(lp2226
S'cmd_args'
p2227
asbag69
(g90
g71
NtRp2228
(dp2229
g74
(dp2230
g101
g102
ssg83
g2219
sg76
(lp2231
S':'
asbag69
(g90
g71
NtRp2232
(dp2233
g74
(dp2234
sg83
g2219
sg76
(lp2235
g69
(g70
g71
NtRp2236
(dp2237
g74
(dp2238
g82
I4
ssg83
g2232
sg76
(lp2239
g69
(g78
g71
NtRp2240
(dp2241
g74
(dp2242
g82
I3
ssg83
Nsg76
(lp2243
sbasbasbasbag69
(g85
g71
NtRp2244
(dp2245
g74
(dp2246
sg83
g2171
sg76
(lp2247
g69
(g90
g71
NtRp2248
(dp2249
g74
(dp2250
g94
g95
ssg83
g2244
sg76
(lp2251
S'cmd_options'
p2252
asbag69
(g90
g71
NtRp2253
(dp2254
g74
(dp2255
g101
g102
ssg83
g2244
sg76
(lp2256
S':'
asbag69
(g90
g71
NtRp2257
(dp2258
g74
(dp2259
sg83
g2244
sg76
(lp2260
g69
(g70
g71
NtRp2261
(dp2262
g74
(dp2263
g82
I4
ssg83
g2257
sg76
(lp2264
S"<Values at 0x31aa050: {'verbose': False, 'ip': '127.0.0.1', 'with_scheduler': False, 'ips': [], 'shutdown_timeout': 5, 'taskbar': False, 'port': 8000, 'maxthreads': None, 'softcron': False, 'server_name': 'fernado-desktop', 'bpython': False, 'nogui': False, 'pid_filename': 'httpserver.pid', 'extcron': False, 'runcron': False, 'run_system_tests': False, 'test': None, 'folder': '/var/www/hosts3', 'config': '', 'minthreads': None, 'winservice': '', 'shell': None, 'run': '', 'log_filename': 'httpserver.log', 'debuglevel': 30, 'args': [''], 'socket_timeout': 5, 'ssl_ca_certificate': None, 'scheduler': None, 'profiler_filename': None, 'ssl_private_key': '', 'scheduler_groups': None, 'password': '123456', 'request_queue_size': 5, 'ssl_certificate': '', 'cronjob': False, 'numthreads': None, 'quiet': False, 'interfaces': None, 'import_models': False, 'timeout': 10, 'plain': False, 'nobanner': False}>"
p2265
asbasbasbag69
(g85
g71
NtRp2266
(dp2267
g74
(dp2268
sg83
g2171
sg76
(lp2269
g69
(g90
g71
NtRp2270
(dp2271
g74
(dp2272
g94
g95
ssg83
g2266
sg76
(lp2273
S'db_sessions'
p2274
asbag69
(g90
g71
NtRp2275
(dp2276
g74
(dp2277
g101
g102
ssg83
g2266
sg76
(lp2278
S':'
asbag69
(g90
g71
NtRp2279
(dp2280
g74
(dp2281
sg83
g2266
sg76
(lp2282
g69
(g70
g71
NtRp2283
(dp2284
g74
(dp2285
g82
I4
ssg83
g2279
sg76
(lp2286
S'set([])'
p2287
asbasbasbag69
(g85
g71
NtRp2288
(dp2289
g74
(dp2290
sg83
g2171
sg76
(lp2291
g69
(g90
g71
NtRp2292
(dp2293
g74
(dp2294
g94
g95
ssg83
g2288
sg76
(lp2295
S'debugging'
p2296
asbag69
(g90
g71
NtRp2297
(dp2298
g74
(dp2299
g101
g102
ssg83
g2288
sg76
(lp2300
S':'
asbag69
(g90
g71
NtRp2301
(dp2302
g74
(dp2303
sg83
g2288
sg76
(lp2304
g69
(g70
g71
NtRp2305
(dp2306
g74
(dp2307
g82
I4
ssg83
g2301
sg76
(lp2308
g112
asbasbasbag69
(g85
g71
NtRp2309
(dp2310
g74
(dp2311
sg83
g2171
sg76
(lp2312
g69
(g90
g71
NtRp2313
(dp2314
g74
(dp2315
g94
g95
ssg83
g2309
sg76
(lp2316
S'gluon_parent'
p2317
asbag69
(g90
g71
NtRp2318
(dp2319
g74
(dp2320
g101
g102
ssg83
g2309
sg76
(lp2321
S':'
asbag69
(g90
g71
NtRp2322
(dp2323
g74
(dp2324
sg83
g2309
sg76
(lp2325
g69
(g70
g71
NtRp2326
(dp2327
g74
(dp2328
g82
I4
ssg83
g2322
sg76
(lp2329
S'/var/www/hosts3'
p2330
asbasbasbag69
(g85
g71
NtRp2331
(dp2332
g74
(dp2333
sg83
g2171
sg76
(lp2334
g69
(g90
g71
NtRp2335
(dp2336
g74
(dp2337
g94
g95
ssg83
g2331
sg76
(lp2338
S'http_accept'
p2339
asbag69
(g90
g71
NtRp2340
(dp2341
g74
(dp2342
g101
g102
ssg83
g2331
sg76
(lp2343
S':'
asbag69
(g90
g71
NtRp2344
(dp2345
g74
(dp2346
sg83
g2331
sg76
(lp2347
g69
(g70
g71
NtRp2348
(dp2349
g74
(dp2350
g82
I4
ssg83
g2344
sg76
(lp2351
S'text/html,application/xhtml+xml,application/xml;q=0.9,*/*;q=0.8'
p2352
asbasbasbag69
(g85
g71
NtRp2353
(dp2354
g74
(dp2355
sg83
g2171
sg76
(lp2356
g69
(g90
g71
NtRp2357
(dp2358
g74
(dp2359
g94
g95
ssg83
g2353
sg76
(lp2360
S'http_accept_charset'
p2361
asbag69
(g90
g71
NtRp2362
(dp2363
g74
(dp2364
g101
g102
ssg83
g2353
sg76
(lp2365
S':'
asbag69
(g90
g71
NtRp2366
(dp2367
g74
(dp2368
sg83
g2353
sg76
(lp2369
g69
(g70
g71
NtRp2370
(dp2371
g74
(dp2372
g82
I4
ssg83
g2366
sg76
(lp2373
S'ISO-8859-1,utf-8;q=0.7,*;q=0.3'
p2374
asbasbasbag69
(g85
g71
NtRp2375
(dp2376
g74
(dp2377
sg83
g2171
sg76
(lp2378
g69
(g90
g71
NtRp2379
(dp2380
g74
(dp2381
g94
g95
ssg83
g2375
sg76
(lp2382
S'http_accept_encoding'
p2383
asbag69
(g90
g71
NtRp2384
(dp2385
g74
(dp2386
g101
g102
ssg83
g2375
sg76
(lp2387
S':'
asbag69
(g90
g71
NtRp2388
(dp2389
g74
(dp2390
sg83
g2375
sg76
(lp2391
g69
(g70
g71
NtRp2392
(dp2393
g74
(dp2394
g82
I4
ssg83
g2388
sg76
(lp2395
S'gzip,deflate,sdch'
p2396
asbasbasbag69
(g85
g71
NtRp2397
(dp2398
g74
(dp2399
sg83
g2171
sg76
(lp2400
g69
(g90
g71
NtRp2401
(dp2402
g74
(dp2403
g94
g95
ssg83
g2397
sg76
(lp2404
S'http_accept_language'
p2405
asbag69
(g90
g71
NtRp2406
(dp2407
g74
(dp2408
g101
g102
ssg83
g2397
sg76
(lp2409
S':'
asbag69
(g90
g71
NtRp2410
(dp2411
g74
(dp2412
sg83
g2397
sg76
(lp2413
g69
(g70
g71
NtRp2414
(dp2415
g74
(dp2416
g82
I4
ssg83
g2410
sg76
(lp2417
S'pt-BR,pt;q=0.8,en-US;q=0.6,en;q=0.4'
p2418
asbasbasbag69
(g85
g71
NtRp2419
(dp2420
g74
(dp2421
sg83
g2171
sg76
(lp2422
g69
(g90
g71
NtRp2423
(dp2424
g74
(dp2425
g94
g95
ssg83
g2419
sg76
(lp2426
S'http_connection'
p2427
asbag69
(g90
g71
NtRp2428
(dp2429
g74
(dp2430
g101
g102
ssg83
g2419
sg76
(lp2431
S':'
asbag69
(g90
g71
NtRp2432
(dp2433
g74
(dp2434
sg83
g2419
sg76
(lp2435
g69
(g70
g71
NtRp2436
(dp2437
g74
(dp2438
g82
I4
ssg83
g2432
sg76
(lp2439
S'keep-alive'
p2440
asbasbasbag69
(g85
g71
NtRp2441
(dp2442
g74
(dp2443
sg83
g2171
sg76
(lp2444
g69
(g90
g71
NtRp2445
(dp2446
g74
(dp2447
g94
g95
ssg83
g2441
sg76
(lp2448
S'http_cookie'
p2449
asbag69
(g90
g71
NtRp2450
(dp2451
g74
(dp2452
g101
g102
ssg83
g2441
sg76
(lp2453
S':'
asbag69
(g90
g71
NtRp2454
(dp2455
g74
(dp2456
sg83
g2441
sg76
(lp2457
g69
(g70
g71
NtRp2458
(dp2459
g74
(dp2460
g82
I4
ssg83
g2454
sg76
(lp2461
S'hw_type=MX60; hw_version=Rev%201.9.82.316; types=Rev%201.0.1%20MX60-32S%20%20Kernel%201.0.11%20%28F%29; admin=admin; cookie=1649423593; model=MX; nr=1; language=1; session_id_admin=127.0.0.1-2e0a4329-b827-43dc-a6b0-1e8b0329ff4c; session_id_projeto=127.0.0.1-0acfffbc-b4bb-461e-bcf3-4358d244c69e'
p2462
asbasbasbag69
(g85
g71
NtRp2463
(dp2464
g74
(dp2465
sg83
g2171
sg76
(lp2466
g69
(g90
g71
NtRp2467
(dp2468
g74
(dp2469
g94
g95
ssg83
g2463
sg76
(lp2470
S'http_host'
p2471
asbag69
(g90
g71
NtRp2472
(dp2473
g74
(dp2474
g101
g102
ssg83
g2463
sg76
(lp2475
S':'
asbag69
(g90
g71
NtRp2476
(dp2477
g74
(dp2478
sg83
g2463
sg76
(lp2479
g69
(g70
g71
NtRp2480
(dp2481
g74
(dp2482
g82
I4
ssg83
g2476
sg76
(lp2483
S'127.0.0.1:8000'
p2484
asbasbasbag69
(g85
g71
NtRp2485
(dp2486
g74
(dp2487
sg83
g2171
sg76
(lp2488
g69
(g90
g71
NtRp2489
(dp2490
g74
(dp2491
g94
g95
ssg83
g2485
sg76
(lp2492
S'http_referer'
p2493
asbag69
(g90
g71
NtRp2494
(dp2495
g74
(dp2496
g101
g102
ssg83
g2485
sg76
(lp2497
S':'
asbag69
(g90
g71
NtRp2498
(dp2499
g74
(dp2500
sg83
g2485
sg76
(lp2501
g69
(g70
g71
NtRp2502
(dp2503
g74
(dp2504
g82
I4
ssg83
g2498
sg76
(lp2505
S'http://127.0.0.1:8000/cliente_host?f=1'
p2506
asbasbasbag69
(g85
g71
NtRp2507
(dp2508
g74
(dp2509
sg83
g2171
sg76
(lp2510
g69
(g90
g71
NtRp2511
(dp2512
g74
(dp2513
g94
g95
ssg83
g2507
sg76
(lp2514
S'http_user_agent'
p2515
asbag69
(g90
g71
NtRp2516
(dp2517
g74
(dp2518
g101
g102
ssg83
g2507
sg76
(lp2519
S':'
asbag69
(g90
g71
NtRp2520
(dp2521
g74
(dp2522
sg83
g2507
sg76
(lp2523
g69
(g70
g71
NtRp2524
(dp2525
g74
(dp2526
g82
I4
ssg83
g2520
sg76
(lp2527
S'Mozilla/5.0 (X11; Linux x86_64) AppleWebKit/537.4 (KHTML, like Gecko) Ubuntu/12.10 Chromium/22.0.1229.94 Chrome/22.0.1229.94 Safari/537.4'
p2528
asbasbasbag69
(g85
g71
NtRp2529
(dp2530
g74
(dp2531
sg83
g2171
sg76
(lp2532
g69
(g90
g71
NtRp2533
(dp2534
g74
(dp2535
g94
g95
ssg83
g2529
sg76
(lp2536
S'is_jython'
p2537
asbag69
(g90
g71
NtRp2538
(dp2539
g74
(dp2540
g101
g102
ssg83
g2529
sg76
(lp2541
S':'
asbag69
(g90
g71
NtRp2542
(dp2543
g74
(dp2544
sg83
g2529
sg76
(lp2545
g69
(g70
g71
NtRp2546
(dp2547
g74
(dp2548
g82
I4
ssg83
g2542
sg76
(lp2549
g112
asbasbasbag69
(g85
g71
NtRp2550
(dp2551
g74
(dp2552
sg83
g2171
sg76
(lp2553
g69
(g90
g71
NtRp2554
(dp2555
g74
(dp2556
g94
g95
ssg83
g2550
sg76
(lp2557
S'is_pypy'
p2558
asbag69
(g90
g71
NtRp2559
(dp2560
g74
(dp2561
g101
g102
ssg83
g2550
sg76
(lp2562
S':'
asbag69
(g90
g71
NtRp2563
(dp2564
g74
(dp2565
sg83
g2550
sg76
(lp2566
g69
(g70
g71
NtRp2567
(dp2568
g74
(dp2569
g82
I4
ssg83
g2563
sg76
(lp2570
g112
asbasbasbag69
(g85
g71
NtRp2571
(dp2572
g74
(dp2573
sg83
g2171
sg76
(lp2574
g69
(g90
g71
NtRp2575
(dp2576
g74
(dp2577
g94
g95
ssg83
g2571
sg76
(lp2578
S'local_hosts'
p2579
asbag69
(g90
g71
NtRp2580
(dp2581
g74
(dp2582
g101
g102
ssg83
g2571
sg76
(lp2583
S':'
asbag69
(g90
g71
NtRp2584
(dp2585
g74
(dp2586
sg83
g2571
sg76
(lp2587
g69
(g70
g71
NtRp2588
(dp2589
g74
(dp2590
g82
I4
ssg83
g2584
sg76
(lp2591
g69
(g78
g71
NtRp2592
(dp2593
g74
(dp2594
g82
I3
ssg83
Nsg76
(lp2595
g69
(g85
g71
NtRp2596
(dp2597
g74
(dp2598
sg83
g2592
sg76
(lp2599
g69
(g90
g71
NtRp2600
(dp2601
g74
(dp2602
sg83
g2596
sg76
(lp2603
g69
(g70
g71
NtRp2604
(dp2605
g74
(dp2606
g82
I3
ssg83
g2600
sg76
(lp2607
S'127.0.1.1'
p2608
asbasbasbag69
(g85
g71
NtRp2609
(dp2610
g74
(dp2611
sg83
g2592
sg76
(lp2612
g69
(g90
g71
NtRp2613
(dp2614
g74
(dp2615
sg83
g2609
sg76
(lp2616
g69
(g70
g71
NtRp2617
(dp2618
g74
(dp2619
g82
I3
ssg83
g2613
sg76
(lp2620
S'::1'
p2621
asbasbasbag69
(g85
g71
NtRp2622
(dp2623
g74
(dp2624
sg83
g2592
sg76
(lp2625
g69
(g90
g71
NtRp2626
(dp2627
g74
(dp2628
sg83
g2622
sg76
(lp2629
g69
(g70
g71
NtRp2630
(dp2631
g74
(dp2632
g82
I3
ssg83
g2626
sg76
(lp2633
S'fernado-desktop'
p2634
asbasbasbag69
(g85
g71
NtRp2635
(dp2636
g74
(dp2637
sg83
g2592
sg76
(lp2638
g69
(g90
g71
NtRp2639
(dp2640
g74
(dp2641
sg83
g2635
sg76
(lp2642
g69
(g70
g71
NtRp2643
(dp2644
g74
(dp2645
g82
I3
ssg83
g2639
sg76
(lp2646
S'::ffff:127.0.0.1'
p2647
asbasbasbag69
(g85
g71
NtRp2648
(dp2649
g74
(dp2650
sg83
g2592
sg76
(lp2651
g69
(g90
g71
NtRp2652
(dp2653
g74
(dp2654
sg83
g2648
sg76
(lp2655
g69
(g70
g71
NtRp2656
(dp2657
g74
(dp2658
g82
I3
ssg83
g2652
sg76
(lp2659
S'127.0.0.1'
p2660
asbasbasbasbasbasbasbag69
(g85
g71
NtRp2661
(dp2662
g74
(dp2663
sg83
g2171
sg76
(lp2664
g69
(g90
g71
NtRp2665
(dp2666
g74
(dp2667
g94
g95
ssg83
g2661
sg76
(lp2668
S'path_info'
p2669
asbag69
(g90
g71
NtRp2670
(dp2671
g74
(dp2672
g101
g102
ssg83
g2661
sg76
(lp2673
S':'
asbag69
(g90
g71
NtRp2674
(dp2675
g74
(dp2676
sg83
g2661
sg76
(lp2677
g69
(g70
g71
NtRp2678
(dp2679
g74
(dp2680
g82
I4
ssg83
g2674
sg76
(lp2681
S'/edit_host/1'
p2682
asbasbasbag69
(g85
g71
NtRp2683
(dp2684
g74
(dp2685
sg83
g2171
sg76
(lp2686
g69
(g90
g71
NtRp2687
(dp2688
g74
(dp2689
g94
g95
ssg83
g2683
sg76
(lp2690
S'query_string'
p2691
asbag69
(g90
g71
NtRp2692
(dp2693
g74
(dp2694
g101
g102
ssg83
g2683
sg76
(lp2695
S':'
asbag69
(g90
g71
NtRp2696
(dp2697
g74
(dp2698
sg83
g2683
sg76
(lp2699
g69
(g70
g71
NtRp2700
(dp2701
g74
(dp2702
g82
I4
ssg83
g2696
sg76
(lp2703
S''
asbasbasbag69
(g85
g71
NtRp2704
(dp2705
g74
(dp2706
sg83
g2171
sg76
(lp2707
g69
(g90
g71
NtRp2708
(dp2709
g74
(dp2710
g94
g95
ssg83
g2704
sg76
(lp2711
S'remote_addr'
p2712
asbag69
(g90
g71
NtRp2713
(dp2714
g74
(dp2715
g101
g102
ssg83
g2704
sg76
(lp2716
S':'
asbag69
(g90
g71
NtRp2717
(dp2718
g74
(dp2719
sg83
g2704
sg76
(lp2720
g69
(g70
g71
NtRp2721
(dp2722
g74
(dp2723
g82
I4
ssg83
g2717
sg76
(lp2724
g236
asbasbasbag69
(g85
g71
NtRp2725
(dp2726
g74
(dp2727
sg83
g2171
sg76
(lp2728
g69
(g90
g71
NtRp2729
(dp2730
g74
(dp2731
g94
g95
ssg83
g2725
sg76
(lp2732
S'remote_port'
p2733
asbag69
(g90
g71
NtRp2734
(dp2735
g74
(dp2736
g101
g102
ssg83
g2725
sg76
(lp2737
S':'
asbag69
(g90
g71
NtRp2738
(dp2739
g74
(dp2740
sg83
g2725
sg76
(lp2741
g69
(g70
g71
NtRp2742
(dp2743
g74
(dp2744
g82
I4
ssg83
g2738
sg76
(lp2745
S'33838'
p2746
asbasbasbag69
(g85
g71
NtRp2747
(dp2748
g74
(dp2749
sg83
g2171
sg76
(lp2750
g69
(g90
g71
NtRp2751
(dp2752
g74
(dp2753
g94
g95
ssg83
g2747
sg76
(lp2754
S'request_method'
p2755
asbag69
(g90
g71
NtRp2756
(dp2757
g74
(dp2758
g101
g102
ssg83
g2747
sg76
(lp2759
S':'
asbag69
(g90
g71
NtRp2760
(dp2761
g74
(dp2762
sg83
g2747
sg76
(lp2763
g69
(g70
g71
NtRp2764
(dp2765
g74
(dp2766
g82
I4
ssg83
g2760
sg76
(lp2767
S'GET'
p2768
asbasbasbag69
(g85
g71
NtRp2769
(dp2770
g74
(dp2771
sg83
g2171
sg76
(lp2772
g69
(g90
g71
NtRp2773
(dp2774
g74
(dp2775
g94
g95
ssg83
g2769
sg76
(lp2776
S'request_uri'
p2777
asbag69
(g90
g71
NtRp2778
(dp2779
g74
(dp2780
g101
g102
ssg83
g2769
sg76
(lp2781
S':'
asbag69
(g90
g71
NtRp2782
(dp2783
g74
(dp2784
sg83
g2769
sg76
(lp2785
g69
(g70
g71
NtRp2786
(dp2787
g74
(dp2788
g82
I4
ssg83
g2782
sg76
(lp2789
S'/projeto/initial/edit_host/1'
p2790
asbasbasbag69
(g85
g71
NtRp2791
(dp2792
g74
(dp2793
sg83
g2171
sg76
(lp2794
g69
(g90
g71
NtRp2795
(dp2796
g74
(dp2797
g94
g95
ssg83
g2791
sg76
(lp2798
S'script_name'
p2799
asbag69
(g90
g71
NtRp2800
(dp2801
g74
(dp2802
g101
g102
ssg83
g2791
sg76
(lp2803
S':'
asbag69
(g90
g71
NtRp2804
(dp2805
g74
(dp2806
sg83
g2791
sg76
(lp2807
g69
(g70
g71
NtRp2808
(dp2809
g74
(dp2810
g82
I4
ssg83
g2804
sg76
(lp2811
S''
asbasbasbag69
(g85
g71
NtRp2812
(dp2813
g74
(dp2814
sg83
g2171
sg76
(lp2815
g69
(g90
g71
NtRp2816
(dp2817
g74
(dp2818
g94
g95
ssg83
g2812
sg76
(lp2819
S'server_name'
p2820
asbag69
(g90
g71
NtRp2821
(dp2822
g74
(dp2823
g101
g102
ssg83
g2812
sg76
(lp2824
S':'
asbag69
(g90
g71
NtRp2825
(dp2826
g74
(dp2827
sg83
g2812
sg76
(lp2828
g69
(g70
g71
NtRp2829
(dp2830
g74
(dp2831
g82
I4
ssg83
g2825
sg76
(lp2832
S'fernado-desktop'
p2833
asbasbasbag69
(g85
g71
NtRp2834
(dp2835
g74
(dp2836
sg83
g2171
sg76
(lp2837
g69
(g90
g71
NtRp2838
(dp2839
g74
(dp2840
g94
g95
ssg83
g2834
sg76
(lp2841
S'server_port'
p2842
asbag69
(g90
g71
NtRp2843
(dp2844
g74
(dp2845
g101
g102
ssg83
g2834
sg76
(lp2846
S':'
asbag69
(g90
g71
NtRp2847
(dp2848
g74
(dp2849
sg83
g2834
sg76
(lp2850
g69
(g70
g71
NtRp2851
(dp2852
g74
(dp2853
g82
I4
ssg83
g2847
sg76
(lp2854
S'8000'
p2855
asbasbasbag69
(g85
g71
NtRp2856
(dp2857
g74
(dp2858
sg83
g2171
sg76
(lp2859
g69
(g90
g71
NtRp2860
(dp2861
g74
(dp2862
g94
g95
ssg83
g2856
sg76
(lp2863
S'server_protocol'
p2864
asbag69
(g90
g71
NtRp2865
(dp2866
g74
(dp2867
g101
g102
ssg83
g2856
sg76
(lp2868
S':'
asbag69
(g90
g71
NtRp2869
(dp2870
g74
(dp2871
sg83
g2856
sg76
(lp2872
g69
(g70
g71
NtRp2873
(dp2874
g74
(dp2875
g82
I4
ssg83
g2869
sg76
(lp2876
S'HTTP/1.1'
p2877
asbasbasbag69
(g85
g71
NtRp2878
(dp2879
g74
(dp2880
sg83
g2171
sg76
(lp2881
g69
(g90
g71
NtRp2882
(dp2883
g74
(dp2884
g94
g95
ssg83
g2878
sg76
(lp2885
S'server_software'
p2886
asbag69
(g90
g71
NtRp2887
(dp2888
g74
(dp2889
g101
g102
ssg83
g2878
sg76
(lp2890
S':'
asbag69
(g90
g71
NtRp2891
(dp2892
g74
(dp2893
sg83
g2878
sg76
(lp2894
g69
(g70
g71
NtRp2895
(dp2896
g74
(dp2897
g82
I4
ssg83
g2891
sg76
(lp2898
S'Rocket 1.2.6'
p2899
asbasbasbag69
(g85
g71
NtRp2900
(dp2901
g74
(dp2902
sg83
g2171
sg76
(lp2903
g69
(g90
g71
NtRp2904
(dp2905
g74
(dp2906
g94
g95
ssg83
g2900
sg76
(lp2907
S'web2py_original_uri'
p2908
asbag69
(g90
g71
NtRp2909
(dp2910
g74
(dp2911
g101
g102
ssg83
g2900
sg76
(lp2912
S':'
asbag69
(g90
g71
NtRp2913
(dp2914
g74
(dp2915
sg83
g2900
sg76
(lp2916
g69
(g70
g71
NtRp2917
(dp2918
g74
(dp2919
g82
I4
ssg83
g2913
sg76
(lp2920
g2682
asbasbasbag69
(g85
g71
NtRp2921
(dp2922
g74
(dp2923
sg83
g2171
sg76
(lp2924
g69
(g90
g71
NtRp2925
(dp2926
g74
(dp2927
g94
g95
ssg83
g2921
sg76
(lp2928
S'web2py_path'
p2929
asbag69
(g90
g71
NtRp2930
(dp2931
g74
(dp2932
g101
g102
ssg83
g2921
sg76
(lp2933
S':'
asbag69
(g90
g71
NtRp2934
(dp2935
g74
(dp2936
sg83
g2921
sg76
(lp2937
g69
(g70
g71
NtRp2938
(dp2939
g74
(dp2940
g82
I4
ssg83
g2934
sg76
(lp2941
g2218
asbasbasbag69
(g85
g71
NtRp2942
(dp2943
g74
(dp2944
sg83
g2171
sg76
(lp2945
g69
(g90
g71
NtRp2946
(dp2947
g74
(dp2948
g94
g95
ssg83
g2942
sg76
(lp2949
S'web2py_version'
p2950
asbag69
(g90
g71
NtRp2951
(dp2952
g74
(dp2953
g101
g102
ssg83
g2942
sg76
(lp2954
S':'
asbag69
(g90
g71
NtRp2955
(dp2956
g74
(dp2957
sg83
g2942
sg76
(lp2958
g69
(g70
g71
NtRp2959
(dp2960
g74
(dp2961
g82
I4
ssg83
g2955
sg76
(lp2962
g69
(g78
g71
NtRp2963
(dp2964
g74
(dp2965
g82
I3
ssg83
Nsg76
(lp2966
g69
(g85
g71
NtRp2967
(dp2968
g74
(dp2969
sg83
g2963
sg76
(lp2970
g69
(g90
g71
NtRp2971
(dp2972
g74
(dp2973
sg83
g2967
sg76
(lp2974
g69
(g70
g71
NtRp2975
(dp2976
g74
(dp2977
g82
I3
ssg83
g2971
sg76
(lp2978
S'2'
asbasbasbag69
(g85
g71
NtRp2979
(dp2980
g74
(dp2981
sg83
g2963
sg76
(lp2982
g69
(g90
g71
NtRp2983
(dp2984
g74
(dp2985
sg83
g2979
sg76
(lp2986
g69
(g70
g71
NtRp2987
(dp2988
g74
(dp2989
g82
I3
ssg83
g2983
sg76
(lp2990
S'3'
asbasbasbag69
(g85
g71
NtRp2991
(dp2992
g74
(dp2993
sg83
g2963
sg76
(lp2994
g69
(g90
g71
NtRp2995
(dp2996
g74
(dp2997
sg83
g2991
sg76
(lp2998
g69
(g70
g71
NtRp2999
(dp3000
g74
(dp3001
g82
I3
ssg83
g2995
sg76
(lp3002
S'2'
asbasbasbag69
(g85
g71
NtRp3003
(dp3004
g74
(dp3005
sg83
g2963
sg76
(lp3006
g69
(g90
g71
NtRp3007
(dp3008
g74
(dp3009
sg83
g3003
sg76
(lp3010
g69
(g70
g71
NtRp3011
(dp3012
g74
(dp3013
g82
I3
ssg83
g3007
sg76
(lp3014
S'datetime.datetime(2012, 12, 17, 15, 3, 30)'
p3015
asbasbasbag69
(g85
g71
NtRp3016
(dp3017
g74
(dp3018
sg83
g2963
sg76
(lp3019
g69
(g90
g71
NtRp3020
(dp3021
g74
(dp3022
sg83
g3016
sg76
(lp3023
g69
(g70
g71
NtRp3024
(dp3025
g74
(dp3026
g82
I3
ssg83
g3020
sg76
(lp3027
S'stable'
p3028
asbasbasbasbasbasbasbag69
(g85
g71
NtRp3029
(dp3030
g74
(dp3031
sg83
g2171
sg76
(lp3032
g69
(g90
g71
NtRp3033
(dp3034
g74
(dp3035
g94
g95
ssg83
g3029
sg76
(lp3036
S'wsgi_errors'
p3037
asbag69
(g90
g71
NtRp3038
(dp3039
g74
(dp3040
g101
g102
ssg83
g3029
sg76
(lp3041
S':'
asbag69
(g90
g71
NtRp3042
(dp3043
g74
(dp3044
sg83
g3029
sg76
(lp3045
g69
(g70
g71
NtRp3046
(dp3047
g74
(dp3048
g82
I4
ssg83
g3042
sg76
(lp3049
S"<open file '<stderr>', mode 'w' at 0x7f7b05f10270>"
p3050
asbasbasbag69
(g85
g71
NtRp3051
(dp3052
g74
(dp3053
sg83
g2171
sg76
(lp3054
g69
(g90
g71
NtRp3055
(dp3056
g74
(dp3057
g94
g95
ssg83
g3051
sg76
(lp3058
S'wsgi_file_wrapper'
p3059
asbag69
(g90
g71
NtRp3060
(dp3061
g74
(dp3062
g101
g102
ssg83
g3051
sg76
(lp3063
S':'
asbag69
(g90
g71
NtRp3064
(dp3065
g74
(dp3066
sg83
g3051
sg76
(lp3067
g69
(g70
g71
NtRp3068
(dp3069
g74
(dp3070
g82
I4
ssg83
g3064
sg76
(lp3071
S'<class wsgiref.util.FileWrapper at 0x30ff8d8>'
p3072
asbasbasbag69
(g85
g71
NtRp3073
(dp3074
g74
(dp3075
sg83
g2171
sg76
(lp3076
g69
(g90
g71
NtRp3077
(dp3078
g74
(dp3079
g94
g95
ssg83
g3073
sg76
(lp3080
S'wsgi_input'
p3081
asbag69
(g90
g71
NtRp3082
(dp3083
g74
(dp3084
g101
g102
ssg83
g3073
sg76
(lp3085
S':'
asbag69
(g90
g71
NtRp3086
(dp3087
g74
(dp3088
sg83
g3073
sg76
(lp3089
g69
(g70
g71
NtRp3090
(dp3091
g74
(dp3092
g82
I4
ssg83
g3086
sg76
(lp3093
S'<socket._fileobject object at 0x32cf2d0>'
p3094
asbasbasbag69
(g85
g71
NtRp3095
(dp3096
g74
(dp3097
sg83
g2171
sg76
(lp3098
g69
(g90
g71
NtRp3099
(dp3100
g74
(dp3101
g94
g95
ssg83
g3095
sg76
(lp3102
S'wsgi_multiprocess'
p3103
asbag69
(g90
g71
NtRp3104
(dp3105
g74
(dp3106
g101
g102
ssg83
g3095
sg76
(lp3107
S':'
asbag69
(g90
g71
NtRp3108
(dp3109
g74
(dp3110
sg83
g3095
sg76
(lp3111
g69
(g70
g71
NtRp3112
(dp3113
g74
(dp3114
g82
I4
ssg83
g3108
sg76
(lp3115
g112
asbasbasbag69
(g85
g71
NtRp3116
(dp3117
g74
(dp3118
sg83
g2171
sg76
(lp3119
g69
(g90
g71
NtRp3120
(dp3121
g74
(dp3122
g94
g95
ssg83
g3116
sg76
(lp3123
S'wsgi_multithread'
p3124
asbag69
(g90
g71
NtRp3125
(dp3126
g74
(dp3127
g101
g102
ssg83
g3116
sg76
(lp3128
S':'
asbag69
(g90
g71
NtRp3129
(dp3130
g74
(dp3131
sg83
g3116
sg76
(lp3132
g69
(g70
g71
NtRp3133
(dp3134
g74
(dp3135
g82
I4
ssg83
g3129
sg76
(lp3136
S'True'
p3137
asbasbasbag69
(g85
g71
NtRp3138
(dp3139
g74
(dp3140
sg83
g2171
sg76
(lp3141
g69
(g90
g71
NtRp3142
(dp3143
g74
(dp3144
g94
g95
ssg83
g3138
sg76
(lp3145
S'wsgi_run_once'
p3146
asbag69
(g90
g71
NtRp3147
(dp3148
g74
(dp3149
g101
g102
ssg83
g3138
sg76
(lp3150
S':'
asbag69
(g90
g71
NtRp3151
(dp3152
g74
(dp3153
sg83
g3138
sg76
(lp3154
g69
(g70
g71
NtRp3155
(dp3156
g74
(dp3157
g82
I4
ssg83
g3151
sg76
(lp3158
g112
asbasbasbag69
(g85
g71
NtRp3159
(dp3160
g74
(dp3161
sg83
g2171
sg76
(lp3162
g69
(g90
g71
NtRp3163
(dp3164
g74
(dp3165
g94
g95
ssg83
g3159
sg76
(lp3166
S'wsgi_url_scheme'
p3167
asbag69
(g90
g71
NtRp3168
(dp3169
g74
(dp3170
g101
g102
ssg83
g3159
sg76
(lp3171
S':'
asbag69
(g90
g71
NtRp3172
(dp3173
g74
(dp3174
sg83
g3159
sg76
(lp3175
g69
(g70
g71
NtRp3176
(dp3177
g74
(dp3178
g82
I4
ssg83
g3172
sg76
(lp3179
S'http'
p3180
asbasbasbag69
(g85
g71
NtRp3181
(dp3182
g74
(dp3183
sg83
g2171
sg76
(lp3184
g69
(g90
g71
NtRp3185
(dp3186
g74
(dp3187
g94
g95
ssg83
g3181
sg76
(lp3188
S'wsgi_version'
p3189
asbag69
(g90
g71
NtRp3190
(dp3191
g74
(dp3192
g101
g102
ssg83
g3181
sg76
(lp3193
S':'
asbag69
(g90
g71
NtRp3194
(dp3195
g74
(dp3196
sg83
g3181
sg76
(lp3197
g69
(g70
g71
NtRp3198
(dp3199
g74
(dp3200
g82
I4
ssg83
g3194
sg76
(lp3201
g69
(g78
g71
NtRp3202
(dp3203
g74
(dp3204
g82
I3
ssg83
Nsg76
(lp3205
g69
(g85
g71
NtRp3206
(dp3207
g74
(dp3208
sg83
g3202
sg76
(lp3209
g69
(g90
g71
NtRp3210
(dp3211
g74
(dp3212
sg83
g3206
sg76
(lp3213
g69
(g70
g71
NtRp3214
(dp3215
g74
(dp3216
g82
I3
ssg83
g3210
sg76
(lp3217
S'1'
asbasbasbag69
(g85
g71
NtRp3218
(dp3219
g74
(dp3220
sg83
g3202
sg76
(lp3221
g69
(g90
g71
NtRp3222
(dp3223
g74
(dp3224
sg83
g3218
sg76
(lp3225
g69
(g70
g71
NtRp3226
(dp3227
g74
(dp3228
g82
I3
ssg83
g3222
sg76
(lp3229
S'0'
asbasbasbasbasbasbasbasbasbasbasbag69
(g85
g71
NtRp3230
(dp3231
g74
(dp3232
sg83
g79
sg76
(lp3233
g69
(g90
g71
NtRp3234
(dp3235
g74
(dp3236
g94
g95
ssg83
g3230
sg76
(lp3237
S'extension'
p3238
asbag69
(g90
g71
NtRp3239
(dp3240
g74
(dp3241
g101
g102
ssg83
g3230
sg76
(lp3242
S':'
asbag69
(g90
g71
NtRp3243
(dp3244
g74
(dp3245
sg83
g3230
sg76
(lp3246
g69
(g70
g71
NtRp3247
(dp3248
g74
(dp3249
g82
I5
ssg83
g3243
sg76
(lp3250
S'html'
p3251
asbasbasbag69
(g85
g71
NtRp3252
(dp3253
g74
(dp3254
sg83
g79
sg76
(lp3255
g69
(g90
g71
NtRp3256
(dp3257
g74
(dp3258
g94
g95
ssg83
g3252
sg76
(lp3259
S'folder'
p3260
asbag69
(g90
g71
NtRp3261
(dp3262
g74
(dp3263
g101
g102
ssg83
g3252
sg76
(lp3264
S':'
asbag69
(g90
g71
NtRp3265
(dp3266
g74
(dp3267
sg83
g3252
sg76
(lp3268
g69
(g70
g71
NtRp3269
(dp3270
g74
(dp3271
g82
I5
ssg83
g3265
sg76
(lp3272
S'/var/www/hosts3/applications/projeto/'
p3273
asbasbasbag69
(g85
g71
NtRp3274
(dp3275
g74
(dp3276
sg83
g79
sg76
(lp3277
g69
(g90
g71
NtRp3278
(dp3279
g74
(dp3280
g94
g95
ssg83
g3274
sg76
(lp3281
S'function'
p3282
asbag69
(g90
g71
NtRp3283
(dp3284
g74
(dp3285
g101
g102
ssg83
g3274
sg76
(lp3286
S':'
asbag69
(g90
g71
NtRp3287
(dp3288
g74
(dp3289
sg83
g3274
sg76
(lp3290
g69
(g70
g71
NtRp3291
(dp3292
g74
(dp3293
g82
I5
ssg83
g3287
sg76
(lp3294
S'edit_host'
p3295
asbasbasbag69
(g85
g71
NtRp3296
(dp3297
g74
(dp3298
sg83
g79
sg76
(lp3299
g69
(g90
g71
NtRp3300
(dp3301
g74
(dp3302
g94
g95
ssg83
g3296
sg76
(lp3303
S'get_vars'
p3304
asbag69
(g90
g71
NtRp3305
(dp3306
g74
(dp3307
g101
g102
ssg83
g3296
sg76
(lp3308
S':'
asbag69
(g90
g71
NtRp3309
(dp3310
g74
(dp3311
sg83
g3296
sg76
(lp3312
g69
(g70
g71
NtRp3313
(dp3314
g74
(dp3315
g82
I5
ssg83
g3309
sg76
(lp3316
g69
(g78
g71
NtRp3317
(dp3318
g74
(dp3319
g82
I4
ssg83
Nsg76
(lp3320
sbasbasbasbag69
(g85
g71
NtRp3321
(dp3322
g74
(dp3323
sg83
g79
sg76
(lp3324
g69
(g90
g71
NtRp3325
(dp3326
g74
(dp3327
g94
g95
ssg83
g3321
sg76
(lp3328
S'global_settings'
p3329
asbag69
(g90
g71
NtRp3330
(dp3331
g74
(dp3332
g101
g102
ssg83
g3321
sg76
(lp3333
S':'
asbag69
(g90
g71
NtRp3334
(dp3335
g74
(dp3336
sg83
g3321
sg76
(lp3337
g69
(g70
g71
NtRp3338
(dp3339
g74
(dp3340
g82
I5
ssg83
g3334
sg76
(lp3341
g69
(g78
g71
NtRp3342
(dp3343
g74
(dp3344
g82
I4
ssg83
Nsg76
(lp3345
g69
(g85
g71
NtRp3346
(dp3347
g74
(dp3348
sg83
g3342
sg76
(lp3349
g69
(g90
g71
NtRp3350
(dp3351
g74
(dp3352
g94
g95
ssg83
g3346
sg76
(lp3353
g2183
asbag69
(g90
g71
NtRp3354
(dp3355
g74
(dp3356
g101
g102
ssg83
g3346
sg76
(lp3357
S':'
asbag69
(g90
g71
NtRp3358
(dp3359
g74
(dp3360
sg83
g3346
sg76
(lp3361
g69
(g70
g71
NtRp3362
(dp3363
g74
(dp3364
g82
I4
ssg83
g3358
sg76
(lp3365
S"set(['/var/www/hosts3/applications/admin/', '/var/www/hosts3/applications/projeto/'])"
p3366
asbasbasbag69
(g85
g71
NtRp3367
(dp3368
g74
(dp3369
sg83
g3342
sg76
(lp3370
g69
(g90
g71
NtRp3371
(dp3372
g74
(dp3373
g94
g95
ssg83
g3367
sg76
(lp3374
g2205
asbag69
(g90
g71
NtRp3375
(dp3376
g74
(dp3377
g101
g102
ssg83
g3367
sg76
(lp3378
S':'
asbag69
(g90
g71
NtRp3379
(dp3380
g74
(dp3381
sg83
g3367
sg76
(lp3382
g69
(g70
g71
NtRp3383
(dp3384
g74
(dp3385
g82
I4
ssg83
g3379
sg76
(lp3386
g2218
asbasbasbag69
(g85
g71
NtRp3387
(dp3388
g74
(dp3389
sg83
g3342
sg76
(lp3390
g69
(g90
g71
NtRp3391
(dp3392
g74
(dp3393
g94
g95
ssg83
g3387
sg76
(lp3394
g2227
asbag69
(g90
g71
NtRp3395
(dp3396
g74
(dp3397
g101
g102
ssg83
g3387
sg76
(lp3398
S':'
asbag69
(g90
g71
NtRp3399
(dp3400
g74
(dp3401
sg83
g3387
sg76
(lp3402
g69
(g70
g71
NtRp3403
(dp3404
g74
(dp3405
g82
I4
ssg83
g3399
sg76
(lp3406
g69
(g78
g71
NtRp3407
(dp3408
g74
(dp3409
g82
I3
ssg83
Nsg76
(lp3410
sbasbasbasbag69
(g85
g71
NtRp3411
(dp3412
g74
(dp3413
sg83
g3342
sg76
(lp3414
g69
(g90
g71
NtRp3415
(dp3416
g74
(dp3417
g94
g95
ssg83
g3411
sg76
(lp3418
g2252
asbag69
(g90
g71
NtRp3419
(dp3420
g74
(dp3421
g101
g102
ssg83
g3411
sg76
(lp3422
S':'
asbag69
(g90
g71
NtRp3423
(dp3424
g74
(dp3425
sg83
g3411
sg76
(lp3426
g69
(g70
g71
NtRp3427
(dp3428
g74
(dp3429
g82
I4
ssg83
g3423
sg76
(lp3430
S"<Values at 0x31aa050: {'verbose': False, 'ip': '127.0.0.1', 'with_scheduler': False, 'ips': [], 'shutdown_timeout': 5, 'taskbar': False, 'port': 8000, 'maxthreads': None, 'softcron': False, 'server_name': 'fernado-desktop', 'bpython': False, 'nogui': False, 'pid_filename': 'httpserver.pid', 'extcron': False, 'runcron': False, 'run_system_tests': False, 'test': None, 'folder': '/var/www/hosts3', 'config': '', 'minthreads': None, 'winservice': '', 'shell': None, 'run': '', 'log_filename': 'httpserver.log', 'debuglevel': 30, 'args': [''], 'socket_timeout': 5, 'ssl_ca_certificate': None, 'scheduler': None, 'profiler_filename': None, 'ssl_private_key': '', 'scheduler_groups': None, 'password': '123456', 'request_queue_size': 5, 'ssl_certificate': '', 'cronjob': False, 'numthreads': None, 'quiet': False, 'interfaces': None, 'import_models': False, 'timeout': 10, 'plain': False, 'nobanner': False}>"
p3431
asbasbasbag69
(g85
g71
NtRp3432
(dp3433
g74
(dp3434
sg83
g3342
sg76
(lp3435
g69
(g90
g71
NtRp3436
(dp3437
g74
(dp3438
g94
g95
ssg83
g3432
sg76
(lp3439
g2274
asbag69
(g90
g71
NtRp3440
(dp3441
g74
(dp3442
g101
g102
ssg83
g3432
sg76
(lp3443
S':'
asbag69
(g90
g71
NtRp3444
(dp3445
g74
(dp3446
sg83
g3432
sg76
(lp3447
g69
(g70
g71
NtRp3448
(dp3449
g74
(dp3450
g82
I4
ssg83
g3444
sg76
(lp3451
S'set([])'
p3452
asbasbasbag69
(g85
g71
NtRp3453
(dp3454
g74
(dp3455
sg83
g3342
sg76
(lp3456
g69
(g90
g71
NtRp3457
(dp3458
g74
(dp3459
g94
g95
ssg83
g3453
sg76
(lp3460
g2296
asbag69
(g90
g71
NtRp3461
(dp3462
g74
(dp3463
g101
g102
ssg83
g3453
sg76
(lp3464
S':'
asbag69
(g90
g71
NtRp3465
(dp3466
g74
(dp3467
sg83
g3453
sg76
(lp3468
g69
(g70
g71
NtRp3469
(dp3470
g74
(dp3471
g82
I4
ssg83
g3465
sg76
(lp3472
g112
asbasbasbag69
(g85
g71
NtRp3473
(dp3474
g74
(dp3475
sg83
g3342
sg76
(lp3476
g69
(g90
g71
NtRp3477
(dp3478
g74
(dp3479
g94
g95
ssg83
g3473
sg76
(lp3480
g2317
asbag69
(g90
g71
NtRp3481
(dp3482
g74
(dp3483
g101
g102
ssg83
g3473
sg76
(lp3484
S':'
asbag69
(g90
g71
NtRp3485
(dp3486
g74
(dp3487
sg83
g3473
sg76
(lp3488
g69
(g70
g71
NtRp3489
(dp3490
g74
(dp3491
g82
I4
ssg83
g3485
sg76
(lp3492
g2330
asbasbasbag69
(g85
g71
NtRp3493
(dp3494
g74
(dp3495
sg83
g3342
sg76
(lp3496
g69
(g90
g71
NtRp3497
(dp3498
g74
(dp3499
g94
g95
ssg83
g3493
sg76
(lp3500
g2537
asbag69
(g90
g71
NtRp3501
(dp3502
g74
(dp3503
g101
g102
ssg83
g3493
sg76
(lp3504
S':'
asbag69
(g90
g71
NtRp3505
(dp3506
g74
(dp3507
sg83
g3493
sg76
(lp3508
g69
(g70
g71
NtRp3509
(dp3510
g74
(dp3511
g82
I4
ssg83
g3505
sg76
(lp3512
g112
asbasbasbag69
(g85
g71
NtRp3513
(dp3514
g74
(dp3515
sg83
g3342
sg76
(lp3516
g69
(g90
g71
NtRp3517
(dp3518
g74
(dp3519
g94
g95
ssg83
g3513
sg76
(lp3520
g2558
asbag69
(g90
g71
NtRp3521
(dp3522
g74
(dp3523
g101
g102
ssg83
g3513
sg76
(lp3524
S':'
asbag69
(g90
g71
NtRp3525
(dp3526
g74
(dp3527
sg83
g3513
sg76
(lp3528
g69
(g70
g71
NtRp3529
(dp3530
g74
(dp3531
g82
I4
ssg83
g3525
sg76
(lp3532
g112
asbasbasbag69
(g85
g71
NtRp3533
(dp3534
g74
(dp3535
sg83
g3342
sg76
(lp3536
g69
(g90
g71
NtRp3537
(dp3538
g74
(dp3539
g94
g95
ssg83
g3533
sg76
(lp3540
g2579
asbag69
(g90
g71
NtRp3541
(dp3542
g74
(dp3543
g101
g102
ssg83
g3533
sg76
(lp3544
S':'
asbag69
(g90
g71
NtRp3545
(dp3546
g74
(dp3547
sg83
g3533
sg76
(lp3548
g69
(g70
g71
NtRp3549
(dp3550
g74
(dp3551
g82
I4
ssg83
g3545
sg76
(lp3552
g69
(g78
g71
NtRp3553
(dp3554
g74
(dp3555
g82
I3
ssg83
Nsg76
(lp3556
g69
(g85
g71
NtRp3557
(dp3558
g74
(dp3559
sg83
g3553
sg76
(lp3560
g69
(g90
g71
NtRp3561
(dp3562
g74
(dp3563
sg83
g3557
sg76
(lp3564
g69
(g70
g71
NtRp3565
(dp3566
g74
(dp3567
g82
I3
ssg83
g3561
sg76
(lp3568
g2608
asbasbasbag69
(g85
g71
NtRp3569
(dp3570
g74
(dp3571
sg83
g3553
sg76
(lp3572
g69
(g90
g71
NtRp3573
(dp3574
g74
(dp3575
sg83
g3569
sg76
(lp3576
g69
(g70
g71
NtRp3577
(dp3578
g74
(dp3579
g82
I3
ssg83
g3573
sg76
(lp3580
g2621
asbasbasbag69
(g85
g71
NtRp3581
(dp3582
g74
(dp3583
sg83
g3553
sg76
(lp3584
g69
(g90
g71
NtRp3585
(dp3586
g74
(dp3587
sg83
g3581
sg76
(lp3588
g69
(g70
g71
NtRp3589
(dp3590
g74
(dp3591
g82
I3
ssg83
g3585
sg76
(lp3592
g2634
asbasbasbag69
(g85
g71
NtRp3593
(dp3594
g74
(dp3595
sg83
g3553
sg76
(lp3596
g69
(g90
g71
NtRp3597
(dp3598
g74
(dp3599
sg83
g3593
sg76
(lp3600
g69
(g70
g71
NtRp3601
(dp3602
g74
(dp3603
g82
I3
ssg83
g3597
sg76
(lp3604
g2647
asbasbasbag69
(g85
g71
NtRp3605
(dp3606
g74
(dp3607
sg83
g3553
sg76
(lp3608
g69
(g90
g71
NtRp3609
(dp3610
g74
(dp3611
sg83
g3605
sg76
(lp3612
g69
(g70
g71
NtRp3613
(dp3614
g74
(dp3615
g82
I3
ssg83
g3609
sg76
(lp3616
g2660
asbasbasbasbasbasbasbag69
(g85
g71
NtRp3617
(dp3618
g74
(dp3619
sg83
g3342
sg76
(lp3620
g69
(g90
g71
NtRp3621
(dp3622
g74
(dp3623
g94
g95
ssg83
g3617
sg76
(lp3624
g2950
asbag69
(g90
g71
NtRp3625
(dp3626
g74
(dp3627
g101
g102
ssg83
g3617
sg76
(lp3628
S':'
asbag69
(g90
g71
NtRp3629
(dp3630
g74
(dp3631
sg83
g3617
sg76
(lp3632
g69
(g70
g71
NtRp3633
(dp3634
g74
(dp3635
g82
I4
ssg83
g3629
sg76
(lp3636
g69
(g78
g71
NtRp3637
(dp3638
g74
(dp3639
g82
I3
ssg83
Nsg76
(lp3640
g69
(g85
g71
NtRp3641
(dp3642
g74
(dp3643
sg83
g3637
sg76
(lp3644
g69
(g90
g71
NtRp3645
(dp3646
g74
(dp3647
sg83
g3641
sg76
(lp3648
g69
(g70
g71
NtRp3649
(dp3650
g74
(dp3651
g82
I3
ssg83
g3645
sg76
(lp3652
S'2'
asbasbasbag69
(g85
g71
NtRp3653
(dp3654
g74
(dp3655
sg83
g3637
sg76
(lp3656
g69
(g90
g71
NtRp3657
(dp3658
g74
(dp3659
sg83
g3653
sg76
(lp3660
g69
(g70
g71
NtRp3661
(dp3662
g74
(dp3663
g82
I3
ssg83
g3657
sg76
(lp3664
S'3'
asbasbasbag69
(g85
g71
NtRp3665
(dp3666
g74
(dp3667
sg83
g3637
sg76
(lp3668
g69
(g90
g71
NtRp3669
(dp3670
g74
(dp3671
sg83
g3665
sg76
(lp3672
g69
(g70
g71
NtRp3673
(dp3674
g74
(dp3675
g82
I3
ssg83
g3669
sg76
(lp3676
S'2'
asbasbasbag69
(g85
g71
NtRp3677
(dp3678
g74
(dp3679
sg83
g3637
sg76
(lp3680
g69
(g90
g71
NtRp3681
(dp3682
g74
(dp3683
sg83
g3677
sg76
(lp3684
g69
(g70
g71
NtRp3685
(dp3686
g74
(dp3687
g82
I3
ssg83
g3681
sg76
(lp3688
S'datetime.datetime(2012, 12, 17, 15, 3, 30)'
p3689
asbasbasbag69
(g85
g71
NtRp3690
(dp3691
g74
(dp3692
sg83
g3637
sg76
(lp3693
g69
(g90
g71
NtRp3694
(dp3695
g74
(dp3696
sg83
g3690
sg76
(lp3697
g69
(g70
g71
NtRp3698
(dp3699
g74
(dp3700
g82
I3
ssg83
g3694
sg76
(lp3701
g3028
asbasbasbasbasbasbasbasbasbasbasbag69
(g85
g71
NtRp3702
(dp3703
g74
(dp3704
sg83
g79
sg76
(lp3705
g69
(g90
g71
NtRp3706
(dp3707
g74
(dp3708
g94
g95
ssg83
g3702
sg76
(lp3709
S'is_https'
p3710
asbag69
(g90
g71
NtRp3711
(dp3712
g74
(dp3713
g101
g102
ssg83
g3702
sg76
(lp3714
S':'
asbag69
(g90
g71
NtRp3715
(dp3716
g74
(dp3717
sg83
g3702
sg76
(lp3718
g69
(g70
g71
NtRp3719
(dp3720
g74
(dp3721
g82
I5
ssg83
g3715
sg76
(lp3722
g112
asbasbasbag69
(g85
g71
NtRp3723
(dp3724
g74
(dp3725
sg83
g79
sg76
(lp3726
g69
(g90
g71
NtRp3727
(dp3728
g74
(dp3729
g94
g95
ssg83
g3723
sg76
(lp3730
S'is_local'
p3731
asbag69
(g90
g71
NtRp3732
(dp3733
g74
(dp3734
g101
g102
ssg83
g3723
sg76
(lp3735
S':'
asbag69
(g90
g71
NtRp3736
(dp3737
g74
(dp3738
sg83
g3723
sg76
(lp3739
g69
(g70
g71
NtRp3740
(dp3741
g74
(dp3742
g82
I5
ssg83
g3736
sg76
(lp3743
g3137
asbasbasbag69
(g85
g71
NtRp3744
(dp3745
g74
(dp3746
sg83
g79
sg76
(lp3747
g69
(g90
g71
NtRp3748
(dp3749
g74
(dp3750
g94
g95
ssg83
g3744
sg76
(lp3751
S'is_restful'
p3752
asbag69
(g90
g71
NtRp3753
(dp3754
g74
(dp3755
g101
g102
ssg83
g3744
sg76
(lp3756
S':'
asbag69
(g90
g71
NtRp3757
(dp3758
g74
(dp3759
sg83
g3744
sg76
(lp3760
g69
(g70
g71
NtRp3761
(dp3762
g74
(dp3763
g82
I5
ssg83
g3757
sg76
(lp3764
g112
asbasbasbag69
(g85
g71
NtRp3765
(dp3766
g74
(dp3767
sg83
g79
sg76
(lp3768
g69
(g90
g71
NtRp3769
(dp3770
g74
(dp3771
g94
g95
ssg83
g3765
sg76
(lp3772
S'now'
p3773
asbag69
(g90
g71
NtRp3774
(dp3775
g74
(dp3776
g101
g102
ssg83
g3765
sg76
(lp3777
S':'
asbag69
(g90
g71
NtRp3778
(dp3779
g74
(dp3780
sg83
g3765
sg76
(lp3781
g69
(g70
g71
NtRp3782
(dp3783
g74
(dp3784
g82
I5
ssg83
g3778
sg76
(lp3785
S'datetime.datetime(2013, 2, 20, 17, 26, 34, 250690)'
p3786
asbasbasbag69
(g85
g71
NtRp3787
(dp3788
g74
(dp3789
sg83
g79
sg76
(lp3790
g69
(g90
g71
NtRp3791
(dp3792
g74
(dp3793
g94
g95
ssg83
g3787
sg76
(lp3794
S'post_vars'
p3795
asbag69
(g90
g71
NtRp3796
(dp3797
g74
(dp3798
g101
g102
ssg83
g3787
sg76
(lp3799
S':'
asbag69
(g90
g71
NtRp3800
(dp3801
g74
(dp3802
sg83
g3787
sg76
(lp3803
g69
(g70
g71
NtRp3804
(dp3805
g74
(dp3806
g82
I5
ssg83
g3800
sg76
(lp3807
g69
(g78
g71
NtRp3808
(dp3809
g74
(dp3810
g82
I4
ssg83
Nsg76
(lp3811
sbasbasbasbag69
(g85
g71
NtRp3812
(dp3813
g74
(dp3814
sg83
g79
sg76
(lp3815
g69
(g90
g71
NtRp3816
(dp3817
g74
(dp3818
g94
g95
ssg83
g3812
sg76
(lp3819
S'url'
p3820
asbag69
(g90
g71
NtRp3821
(dp3822
g74
(dp3823
g101
g102
ssg83
g3812
sg76
(lp3824
S':'
asbag69
(g90
g71
NtRp3825
(dp3826
g74
(dp3827
sg83
g3812
sg76
(lp3828
g69
(g70
g71
NtRp3829
(dp3830
g74
(dp3831
g82
I5
ssg83
g3825
sg76
(lp3832
g2682
asbasbasbag69
(g85
g71
NtRp3833
(dp3834
g74
(dp3835
sg83
g79
sg76
(lp3836
g69
(g90
g71
NtRp3837
(dp3838
g74
(dp3839
g94
g95
ssg83
g3833
sg76
(lp3840
S'utcnow'
p3841
asbag69
(g90
g71
NtRp3842
(dp3843
g74
(dp3844
g101
g102
ssg83
g3833
sg76
(lp3845
S':'
asbag69
(g90
g71
NtRp3846
(dp3847
g74
(dp3848
sg83
g3833
sg76
(lp3849
g69
(g70
g71
NtRp3850
(dp3851
g74
(dp3852
g82
I5
ssg83
g3846
sg76
(lp3853
S'datetime.datetime(2013, 2, 20, 20, 26, 34, 250753)'
p3854
asbasbasbag69
(g85
g71
NtRp3855
(dp3856
g74
(dp3857
sg83
g79
sg76
(lp3858
g69
(g90
g71
NtRp3859
(dp3860
g74
(dp3861
g94
g95
ssg83
g3855
sg76
(lp3862
S'uuid'
p3863
asbag69
(g90
g71
NtRp3864
(dp3865
g74
(dp3866
g101
g102
ssg83
g3855
sg76
(lp3867
S':'
asbag69
(g90
g71
NtRp3868
(dp3869
g74
(dp3870
sg83
g3855
sg76
(lp3871
g69
(g70
g71
NtRp3872
(dp3873
g74
(dp3874
g82
I5
ssg83
g3868
sg76
(lp3875
S'projeto/127.0.0.1.2013-02-20.17-26-34.e47684f0-eca1-40ea-a3d2-618658cc1162'
p3876
asbasbasbag69
(g85
g71
NtRp3877
(dp3878
g74
(dp3879
sg83
g79
sg76
(lp3880
g69
(g90
g71
NtRp3881
(dp3882
g74
(dp3883
g94
g95
ssg83
g3877
sg76
(lp3884
S'vars'
p3885
asbag69
(g90
g71
NtRp3886
(dp3887
g74
(dp3888
g101
g102
ssg83
g3877
sg76
(lp3889
S':'
asbag69
(g90
g71
NtRp3890
(dp3891
g74
(dp3892
sg83
g3877
sg76
(lp3893
g69
(g70
g71
NtRp3894
(dp3895
g74
(dp3896
g82
I5
ssg83
g3890
sg76
(lp3897
g69
(g78
g71
NtRp3898
(dp3899
g74
(dp3900
g82
I4
ssg83
Nsg76
(lp3901
sbasbasbasbag69
(g85
g71
NtRp3902
(dp3903
g74
(dp3904
sg83
g79
sg76
(lp3905
g69
(g90
g71
NtRp3906
(dp3907
g74
(dp3908
g94
g95
ssg83
g3902
sg76
(lp3909
S'wsgi'
p3910
asbag69
(g90
g71
NtRp3911
(dp3912
g74
(dp3913
g101
g102
ssg83
g3902
sg76
(lp3914
S':'
asbag69
(g90
g71
NtRp3915
(dp3916
g74
(dp3917
sg83
g3902
sg76
(lp3918
g69
(g70
g71
NtRp3919
(dp3920
g74
(dp3921
g82
I5
ssg83
g3915
sg76
(lp3922
g69
(g78
g71
NtRp3923
(dp3924
g74
(dp3925
g82
I4
ssg83
Nsg76
(lp3926
g69
(g85
g71
NtRp3927
(dp3928
g74
(dp3929
sg83
g3923
sg76
(lp3930
g69
(g90
g71
NtRp3931
(dp3932
g74
(dp3933
g94
g95
ssg83
g3927
sg76
(lp3934
S'environ'
p3935
asbag69
(g90
g71
NtRp3936
(dp3937
g74
(dp3938
g101
g102
ssg83
g3927
sg76
(lp3939
S':'
asbag69
(g90
g71
NtRp3940
(dp3941
g74
(dp3942
sg83
g3927
sg76
(lp3943
g69
(g70
g71
NtRp3944
(dp3945
g74
(dp3946
g82
I4
ssg83
g3940
sg76
(lp3947
g69
(g78
g71
NtRp3948
(dp3949
g74
(dp3950
g82
I3
ssg83
Nsg76
(lp3951
g69
(g85
g71
NtRp3952
(dp3953
g74
(dp3954
sg83
g3948
sg76
(lp3955
g69
(g90
g71
NtRp3956
(dp3957
g74
(dp3958
g94
g95
ssg83
g3952
sg76
(lp3959
S'HTTP_ACCEPT'
p3960
asbag69
(g90
g71
NtRp3961
(dp3962
g74
(dp3963
g101
g102
ssg83
g3952
sg76
(lp3964
S':'
asbag69
(g90
g71
NtRp3965
(dp3966
g74
(dp3967
sg83
g3952
sg76
(lp3968
g69
(g70
g71
NtRp3969
(dp3970
g74
(dp3971
g82
I3
ssg83
g3965
sg76
(lp3972
g2352
asbasbasbag69
(g85
g71
NtRp3973
(dp3974
g74
(dp3975
sg83
g3948
sg76
(lp3976
g69
(g90
g71
NtRp3977
(dp3978
g74
(dp3979
g94
g95
ssg83
g3973
sg76
(lp3980
S'HTTP_ACCEPT_CHARSET'
p3981
asbag69
(g90
g71
NtRp3982
(dp3983
g74
(dp3984
g101
g102
ssg83
g3973
sg76
(lp3985
S':'
asbag69
(g90
g71
NtRp3986
(dp3987
g74
(dp3988
sg83
g3973
sg76
(lp3989
g69
(g70
g71
NtRp3990
(dp3991
g74
(dp3992
g82
I3
ssg83
g3986
sg76
(lp3993
g2374
asbasbasbag69
(g85
g71
NtRp3994
(dp3995
g74
(dp3996
sg83
g3948
sg76
(lp3997
g69
(g90
g71
NtRp3998
(dp3999
g74
(dp4000
g94
g95
ssg83
g3994
sg76
(lp4001
S'HTTP_ACCEPT_ENCODING'
p4002
asbag69
(g90
g71
NtRp4003
(dp4004
g74
(dp4005
g101
g102
ssg83
g3994
sg76
(lp4006
S':'
asbag69
(g90
g71
NtRp4007
(dp4008
g74
(dp4009
sg83
g3994
sg76
(lp4010
g69
(g70
g71
NtRp4011
(dp4012
g74
(dp4013
g82
I3
ssg83
g4007
sg76
(lp4014
g2396
asbasbasbag69
(g85
g71
NtRp4015
(dp4016
g74
(dp4017
sg83
g3948
sg76
(lp4018
g69
(g90
g71
NtRp4019
(dp4020
g74
(dp4021
g94
g95
ssg83
g4015
sg76
(lp4022
S'HTTP_ACCEPT_LANGUAGE'
p4023
asbag69
(g90
g71
NtRp4024
(dp4025
g74
(dp4026
g101
g102
ssg83
g4015
sg76
(lp4027
S':'
asbag69
(g90
g71
NtRp4028
(dp4029
g74
(dp4030
sg83
g4015
sg76
(lp4031
g69
(g70
g71
NtRp4032
(dp4033
g74
(dp4034
g82
I3
ssg83
g4028
sg76
(lp4035
g2418
asbasbasbag69
(g85
g71
NtRp4036
(dp4037
g74
(dp4038
sg83
g3948
sg76
(lp4039
g69
(g90
g71
NtRp4040
(dp4041
g74
(dp4042
g94
g95
ssg83
g4036
sg76
(lp4043
S'HTTP_CONNECTION'
p4044
asbag69
(g90
g71
NtRp4045
(dp4046
g74
(dp4047
g101
g102
ssg83
g4036
sg76
(lp4048
S':'
asbag69
(g90
g71
NtRp4049
(dp4050
g74
(dp4051
sg83
g4036
sg76
(lp4052
g69
(g70
g71
NtRp4053
(dp4054
g74
(dp4055
g82
I3
ssg83
g4049
sg76
(lp4056
g2440
asbasbasbag69
(g85
g71
NtRp4057
(dp4058
g74
(dp4059
sg83
g3948
sg76
(lp4060
g69
(g90
g71
NtRp4061
(dp4062
g74
(dp4063
g94
g95
ssg83
g4057
sg76
(lp4064
S'HTTP_COOKIE'
p4065
asbag69
(g90
g71
NtRp4066
(dp4067
g74
(dp4068
g101
g102
ssg83
g4057
sg76
(lp4069
S':'
asbag69
(g90
g71
NtRp4070
(dp4071
g74
(dp4072
sg83
g4057
sg76
(lp4073
g69
(g70
g71
NtRp4074
(dp4075
g74
(dp4076
g82
I3
ssg83
g4070
sg76
(lp4077
g2462
asbasbasbag69
(g85
g71
NtRp4078
(dp4079
g74
(dp4080
sg83
g3948
sg76
(lp4081
g69
(g90
g71
NtRp4082
(dp4083
g74
(dp4084
g94
g95
ssg83
g4078
sg76
(lp4085
S'HTTP_HOST'
p4086
asbag69
(g90
g71
NtRp4087
(dp4088
g74
(dp4089
g101
g102
ssg83
g4078
sg76
(lp4090
S':'
asbag69
(g90
g71
NtRp4091
(dp4092
g74
(dp4093
sg83
g4078
sg76
(lp4094
g69
(g70
g71
NtRp4095
(dp4096
g74
(dp4097
g82
I3
ssg83
g4091
sg76
(lp4098
g2484
asbasbasbag69
(g85
g71
NtRp4099
(dp4100
g74
(dp4101
sg83
g3948
sg76
(lp4102
g69
(g90
g71
NtRp4103
(dp4104
g74
(dp4105
g94
g95
ssg83
g4099
sg76
(lp4106
S'HTTP_REFERER'
p4107
asbag69
(g90
g71
NtRp4108
(dp4109
g74
(dp4110
g101
g102
ssg83
g4099
sg76
(lp4111
S':'
asbag69
(g90
g71
NtRp4112
(dp4113
g74
(dp4114
sg83
g4099
sg76
(lp4115
g69
(g70
g71
NtRp4116
(dp4117
g74
(dp4118
g82
I3
ssg83
g4112
sg76
(lp4119
g2506
asbasbasbag69
(g85
g71
NtRp4120
(dp4121
g74
(dp4122
sg83
g3948
sg76
(lp4123
g69
(g90
g71
NtRp4124
(dp4125
g74
(dp4126
g94
g95
ssg83
g4120
sg76
(lp4127
S'HTTP_USER_AGENT'
p4128
asbag69
(g90
g71
NtRp4129
(dp4130
g74
(dp4131
g101
g102
ssg83
g4120
sg76
(lp4132
S':'
asbag69
(g90
g71
NtRp4133
(dp4134
g74
(dp4135
sg83
g4120
sg76
(lp4136
g69
(g70
g71
NtRp4137
(dp4138
g74
(dp4139
g82
I3
ssg83
g4133
sg76
(lp4140
g2528
asbasbasbag69
(g85
g71
NtRp4141
(dp4142
g74
(dp4143
sg83
g3948
sg76
(lp4144
g69
(g90
g71
NtRp4145
(dp4146
g74
(dp4147
g94
g95
ssg83
g4141
sg76
(lp4148
S'PATH_INFO'
p4149
asbag69
(g90
g71
NtRp4150
(dp4151
g74
(dp4152
g101
g102
ssg83
g4141
sg76
(lp4153
S':'
asbag69
(g90
g71
NtRp4154
(dp4155
g74
(dp4156
sg83
g4141
sg76
(lp4157
g69
(g70
g71
NtRp4158
(dp4159
g74
(dp4160
g82
I3
ssg83
g4154
sg76
(lp4161
g2682
asbasbasbag69
(g85
g71
NtRp4162
(dp4163
g74
(dp4164
sg83
g3948
sg76
(lp4165
g69
(g90
g71
NtRp4166
(dp4167
g74
(dp4168
g94
g95
ssg83
g4162
sg76
(lp4169
S'QUERY_STRING'
p4170
asbag69
(g90
g71
NtRp4171
(dp4172
g74
(dp4173
g101
g102
ssg83
g4162
sg76
(lp4174
S':'
asbag69
(g90
g71
NtRp4175
(dp4176
g74
(dp4177
sg83
g4162
sg76
(lp4178
g69
(g70
g71
NtRp4179
(dp4180
g74
(dp4181
g82
I3
ssg83
g4175
sg76
(lp4182
S''
asbasbasbag69
(g85
g71
NtRp4183
(dp4184
g74
(dp4185
sg83
g3948
sg76
(lp4186
g69
(g90
g71
NtRp4187
(dp4188
g74
(dp4189
g94
g95
ssg83
g4183
sg76
(lp4190
S'REMOTE_ADDR'
p4191
asbag69
(g90
g71
NtRp4192
(dp4193
g74
(dp4194
g101
g102
ssg83
g4183
sg76
(lp4195
S':'
asbag69
(g90
g71
NtRp4196
(dp4197
g74
(dp4198
sg83
g4183
sg76
(lp4199
g69
(g70
g71
NtRp4200
(dp4201
g74
(dp4202
g82
I3
ssg83
g4196
sg76
(lp4203
g236
asbasbasbag69
(g85
g71
NtRp4204
(dp4205
g74
(dp4206
sg83
g3948
sg76
(lp4207
g69
(g90
g71
NtRp4208
(dp4209
g74
(dp4210
g94
g95
ssg83
g4204
sg76
(lp4211
S'REMOTE_PORT'
p4212
asbag69
(g90
g71
NtRp4213
(dp4214
g74
(dp4215
g101
g102
ssg83
g4204
sg76
(lp4216
S':'
asbag69
(g90
g71
NtRp4217
(dp4218
g74
(dp4219
sg83
g4204
sg76
(lp4220
g69
(g70
g71
NtRp4221
(dp4222
g74
(dp4223
g82
I3
ssg83
g4217
sg76
(lp4224
g2746
asbasbasbag69
(g85
g71
NtRp4225
(dp4226
g74
(dp4227
sg83
g3948
sg76
(lp4228
g69
(g90
g71
NtRp4229
(dp4230
g74
(dp4231
g94
g95
ssg83
g4225
sg76
(lp4232
S'REQUEST_METHOD'
p4233
asbag69
(g90
g71
NtRp4234
(dp4235
g74
(dp4236
g101
g102
ssg83
g4225
sg76
(lp4237
S':'
asbag69
(g90
g71
NtRp4238
(dp4239
g74
(dp4240
sg83
g4225
sg76
(lp4241
g69
(g70
g71
NtRp4242
(dp4243
g74
(dp4244
g82
I3
ssg83
g4238
sg76
(lp4245
g2768
asbasbasbag69
(g85
g71
NtRp4246
(dp4247
g74
(dp4248
sg83
g3948
sg76
(lp4249
g69
(g90
g71
NtRp4250
(dp4251
g74
(dp4252
g94
g95
ssg83
g4246
sg76
(lp4253
S'REQUEST_URI'
p4254
asbag69
(g90
g71
NtRp4255
(dp4256
g74
(dp4257
g101
g102
ssg83
g4246
sg76
(lp4258
S':'
asbag69
(g90
g71
NtRp4259
(dp4260
g74
(dp4261
sg83
g4246
sg76
(lp4262
g69
(g70
g71
NtRp4263
(dp4264
g74
(dp4265
g82
I3
ssg83
g4259
sg76
(lp4266
g2790
asbasbasbag69
(g85
g71
NtRp4267
(dp4268
g74
(dp4269
sg83
g3948
sg76
(lp4270
g69
(g90
g71
NtRp4271
(dp4272
g74
(dp4273
g94
g95
ssg83
g4267
sg76
(lp4274
S'SCRIPT_NAME'
p4275
asbag69
(g90
g71
NtRp4276
(dp4277
g74
(dp4278
g101
g102
ssg83
g4267
sg76
(lp4279
S':'
asbag69
(g90
g71
NtRp4280
(dp4281
g74
(dp4282
sg83
g4267
sg76
(lp4283
g69
(g70
g71
NtRp4284
(dp4285
g74
(dp4286
g82
I3
ssg83
g4280
sg76
(lp4287
S''
asbasbasbag69
(g85
g71
NtRp4288
(dp4289
g74
(dp4290
sg83
g3948
sg76
(lp4291
g69
(g90
g71
NtRp4292
(dp4293
g74
(dp4294
g94
g95
ssg83
g4288
sg76
(lp4295
S'SERVER_NAME'
p4296
asbag69
(g90
g71
NtRp4297
(dp4298
g74
(dp4299
g101
g102
ssg83
g4288
sg76
(lp4300
S':'
asbag69
(g90
g71
NtRp4301
(dp4302
g74
(dp4303
sg83
g4288
sg76
(lp4304
g69
(g70
g71
NtRp4305
(dp4306
g74
(dp4307
g82
I3
ssg83
g4301
sg76
(lp4308
g2833
asbasbasbag69
(g85
g71
NtRp4309
(dp4310
g74
(dp4311
sg83
g3948
sg76
(lp4312
g69
(g90
g71
NtRp4313
(dp4314
g74
(dp4315
g94
g95
ssg83
g4309
sg76
(lp4316
S'SERVER_PORT'
p4317
asbag69
(g90
g71
NtRp4318
(dp4319
g74
(dp4320
g101
g102
ssg83
g4309
sg76
(lp4321
S':'
asbag69
(g90
g71
NtRp4322
(dp4323
g74
(dp4324
sg83
g4309
sg76
(lp4325
g69
(g70
g71
NtRp4326
(dp4327
g74
(dp4328
g82
I3
ssg83
g4322
sg76
(lp4329
g2855
asbasbasbag69
(g85
g71
NtRp4330
(dp4331
g74
(dp4332
sg83
g3948
sg76
(lp4333
g69
(g90
g71
NtRp4334
(dp4335
g74
(dp4336
g94
g95
ssg83
g4330
sg76
(lp4337
S'SERVER_PROTOCOL'
p4338
asbag69
(g90
g71
NtRp4339
(dp4340
g74
(dp4341
g101
g102
ssg83
g4330
sg76
(lp4342
S':'
asbag69
(g90
g71
NtRp4343
(dp4344
g74
(dp4345
sg83
g4330
sg76
(lp4346
g69
(g70
g71
NtRp4347
(dp4348
g74
(dp4349
g82
I3
ssg83
g4343
sg76
(lp4350
g2877
asbasbasbag69
(g85
g71
NtRp4351
(dp4352
g74
(dp4353
sg83
g3948
sg76
(lp4354
g69
(g90
g71
NtRp4355
(dp4356
g74
(dp4357
g94
g95
ssg83
g4351
sg76
(lp4358
S'SERVER_SOFTWARE'
p4359
asbag69
(g90
g71
NtRp4360
(dp4361
g74
(dp4362
g101
g102
ssg83
g4351
sg76
(lp4363
S':'
asbag69
(g90
g71
NtRp4364
(dp4365
g74
(dp4366
sg83
g4351
sg76
(lp4367
g69
(g70
g71
NtRp4368
(dp4369
g74
(dp4370
g82
I3
ssg83
g4364
sg76
(lp4371
g2899
asbasbasbag69
(g85
g71
NtRp4372
(dp4373
g74
(dp4374
sg83
g3948
sg76
(lp4375
g69
(g90
g71
NtRp4376
(dp4377
g74
(dp4378
g94
g95
ssg83
g4372
sg76
(lp4379
S'WEB2PY_ORIGINAL_URI'
p4380
asbag69
(g90
g71
NtRp4381
(dp4382
g74
(dp4383
g101
g102
ssg83
g4372
sg76
(lp4384
S':'
asbag69
(g90
g71
NtRp4385
(dp4386
g74
(dp4387
sg83
g4372
sg76
(lp4388
g69
(g70
g71
NtRp4389
(dp4390
g74
(dp4391
g82
I3
ssg83
g4385
sg76
(lp4392
g2682
asbasbasbag69
(g85
g71
NtRp4393
(dp4394
g74
(dp4395
sg83
g3948
sg76
(lp4396
g69
(g90
g71
NtRp4397
(dp4398
g74
(dp4399
g94
g95
ssg83
g4393
sg76
(lp4400
S'wsgi.errors'
p4401
asbag69
(g90
g71
NtRp4402
(dp4403
g74
(dp4404
g101
g102
ssg83
g4393
sg76
(lp4405
S':'
asbag69
(g90
g71
NtRp4406
(dp4407
g74
(dp4408
sg83
g4393
sg76
(lp4409
g69
(g70
g71
NtRp4410
(dp4411
g74
(dp4412
g82
I3
ssg83
g4406
sg76
(lp4413
S"<open file '<stderr>', mode 'w' at 0x7f7b05f10270>"
p4414
asbasbasbag69
(g85
g71
NtRp4415
(dp4416
g74
(dp4417
sg83
g3948
sg76
(lp4418
g69
(g90
g71
NtRp4419
(dp4420
g74
(dp4421
g94
g95
ssg83
g4415
sg76
(lp4422
S'wsgi.file_wrapper'
p4423
asbag69
(g90
g71
NtRp4424
(dp4425
g74
(dp4426
g101
g102
ssg83
g4415
sg76
(lp4427
S':'
asbag69
(g90
g71
NtRp4428
(dp4429
g74
(dp4430
sg83
g4415
sg76
(lp4431
g69
(g70
g71
NtRp4432
(dp4433
g74
(dp4434
g82
I3
ssg83
g4428
sg76
(lp4435
S'<class wsgiref.util.FileWrapper at 0x30ff8d8>'
p4436
asbasbasbag69
(g85
g71
NtRp4437
(dp4438
g74
(dp4439
sg83
g3948
sg76
(lp4440
g69
(g90
g71
NtRp4441
(dp4442
g74
(dp4443
g94
g95
ssg83
g4437
sg76
(lp4444
S'wsgi.input'
p4445
asbag69
(g90
g71
NtRp4446
(dp4447
g74
(dp4448
g101
g102
ssg83
g4437
sg76
(lp4449
S':'
asbag69
(g90
g71
NtRp4450
(dp4451
g74
(dp4452
sg83
g4437
sg76
(lp4453
g69
(g70
g71
NtRp4454
(dp4455
g74
(dp4456
g82
I3
ssg83
g4450
sg76
(lp4457
S'<cStringIO.StringO object at 0x7f7af4125618>'
p4458
asbasbasbag69
(g85
g71
NtRp4459
(dp4460
g74
(dp4461
sg83
g3948
sg76
(lp4462
g69
(g90
g71
NtRp4463
(dp4464
g74
(dp4465
g94
g95
ssg83
g4459
sg76
(lp4466
S'wsgi.multiprocess'
p4467
asbag69
(g90
g71
NtRp4468
(dp4469
g74
(dp4470
g101
g102
ssg83
g4459
sg76
(lp4471
S':'
asbag69
(g90
g71
NtRp4472
(dp4473
g74
(dp4474
sg83
g4459
sg76
(lp4475
g69
(g70
g71
NtRp4476
(dp4477
g74
(dp4478
g82
I3
ssg83
g4472
sg76
(lp4479
g112
asbasbasbag69
(g85
g71
NtRp4480
(dp4481
g74
(dp4482
sg83
g3948
sg76
(lp4483
g69
(g90
g71
NtRp4484
(dp4485
g74
(dp4486
g94
g95
ssg83
g4480
sg76
(lp4487
S'wsgi.multithread'
p4488
asbag69
(g90
g71
NtRp4489
(dp4490
g74
(dp4491
g101
g102
ssg83
g4480
sg76
(lp4492
S':'
asbag69
(g90
g71
NtRp4493
(dp4494
g74
(dp4495
sg83
g4480
sg76
(lp4496
g69
(g70
g71
NtRp4497
(dp4498
g74
(dp4499
g82
I3
ssg83
g4493
sg76
(lp4500
g3137
asbasbasbag69
(g85
g71
NtRp4501
(dp4502
g74
(dp4503
sg83
g3948
sg76
(lp4504
g69
(g90
g71
NtRp4505
(dp4506
g74
(dp4507
g94
g95
ssg83
g4501
sg76
(lp4508
S'wsgi.run_once'
p4509
asbag69
(g90
g71
NtRp4510
(dp4511
g74
(dp4512
g101
g102
ssg83
g4501
sg76
(lp4513
S':'
asbag69
(g90
g71
NtRp4514
(dp4515
g74
(dp4516
sg83
g4501
sg76
(lp4517
g69
(g70
g71
NtRp4518
(dp4519
g74
(dp4520
g82
I3
ssg83
g4514
sg76
(lp4521
g112
asbasbasbag69
(g85
g71
NtRp4522
(dp4523
g74
(dp4524
sg83
g3948
sg76
(lp4525
g69
(g90
g71
NtRp4526
(dp4527
g74
(dp4528
g94
g95
ssg83
g4522
sg76
(lp4529
S'wsgi.url_scheme'
p4530
asbag69
(g90
g71
NtRp4531
(dp4532
g74
(dp4533
g101
g102
ssg83
g4522
sg76
(lp4534
S':'
asbag69
(g90
g71
NtRp4535
(dp4536
g74
(dp4537
sg83
g4522
sg76
(lp4538
g69
(g70
g71
NtRp4539
(dp4540
g74
(dp4541
g82
I3
ssg83
g4535
sg76
(lp4542
g3180
asbasbasbag69
(g85
g71
NtRp4543
(dp4544
g74
(dp4545
sg83
g3948
sg76
(lp4546
g69
(g90
g71
NtRp4547
(dp4548
g74
(dp4549
g94
g95
ssg83
g4543
sg76
(lp4550
S'wsgi.version'
p4551
asbag69
(g90
g71
NtRp4552
(dp4553
g74
(dp4554
g101
g102
ssg83
g4543
sg76
(lp4555
S':'
asbag69
(g90
g71
NtRp4556
(dp4557
g74
(dp4558
sg83
g4543
sg76
(lp4559
g69
(g70
g71
NtRp4560
(dp4561
g74
(dp4562
g82
I3
ssg83
g4556
sg76
(lp4563
S'1'
asbasbasbasbasbasbasbasbasbasbasbasbasbsS'frames'
p4564
(lp4565
(dp4566
S'file'
p4567
S'/var/www/hosts3/gluon/restricted.py'
p4568
sS'dump'
p4569
(dp4570
S'code'
p4571
S'\'response.write(\\\'<!DOCTYPE html>\\\\n<!-- paulirish....(\\\'"></script>\\\\n</body>\\\\n</html>\\\\n\\\', escape=False)\''
p4572
sS'layer'
p4573
S"'/var/www/hosts3/applications/projeto/views/initial/show_form.html'"
p4574
sS'global compile2'
p4575
S'<function compile2>'
p4576
sS'ccode'
p4577
S'undefined'
p4578
ssS'lnum'
p4579
I211
sS'lines'
p4580
(dp4581
I206
S"    environment['__name__'] = '__restricted__'"
p4582
sI207
S'    try:'
p4583
sI208
S'        if isinstance(code, types.CodeType):'
p4584
sI209
S'            ccode = code'
p4585
sI210
S'        else:'
p4586
sI211
S'            ccode = compile2(code, layer)'
p4587
sI212
S'        exec ccode in environment'
p4588
sI213
S'    except HTTP:'
p4589
sI214
S'        raise'
p4590
sI215
S'    except RestrictedError:'
p4591
ssS'call'
p4592
S'(code=\'response.write(\\\'<!DOCTYPE html>\\\\n<!-- paulirish....(\\\'"></script>\\\\n</body>\\\\n</html>\\\\n\\\', escape=False)\', environment={\'A\': <class \'gluon.html.A\'>, \'Auth\': <class \'gluon.tools.Auth\'>, \'B\': <class \'gluon.html.B\'>, \'BEAUTIFY\': <class \'gluon.html.BEAUTIFY\'>, \'BODY\': <class \'gluon.html.BODY\'>, \'BR\': <class \'gluon.html.BR\'>, \'BUTTON\': <class \'gluon.html.BUTTON\'>, \'CAT\': <class \'gluon.html.CAT\'>, \'CENTER\': <class \'gluon.html.CENTER\'>, \'CLEANUP\': <class \'gluon.validators.CLEANUP\'>, ...}, layer=\'/var/www/hosts3/applications/projeto/views/initial/show_form.html\')'
p4593
sS'func'
p4594
S'restricted'
p4595
sa(dp4596
g4567
S'/var/www/hosts3/gluon/restricted.py'
p4597
sg4569
(dp4598
S'builtincompile'
p4599
S'<built-in function compile>'
p4600
sS'code'
p4601
S'\'response.write(\\\'<!DOCTYPE html>\\\\n<!-- paulirish....(\\\'"></script>\\\\n</body>\\\\n</html>\\\\n\\\', escape=False)\''
p4602
sS'code.rstrip'
p4603
S'<built-in method rstrip of str object>'
p4604
sS').replace'
p4605
g4578
sS'layer'
p4606
S"'/var/www/hosts3/applications/projeto/views/initial/show_form.html'"
p4607
ssg4579
I194
sg4580
(dp4608
I192
S"    The +'\\n' is necessary else compile fails when code ends in a comment."
p4609
sI193
S'    """'
p4610
sI194
S"    return compile(code.rstrip().replace('\\r\\n', '\\n') + '\\n', layer, 'exec')"
p4611
sI195
S''
sI196
S''
sI197
S"def restricted(code, environment=None, layer='Unknown'):"
p4612
sI198
S'    """'
p4613
sI189
S''
sI190
S'def compile2(code, layer):'
p4614
sI191
S'    """'
p4615
ssg4592
S'(code=\'response.write(\\\'<!DOCTYPE html>\\\\n<!-- paulirish....(\\\'"></script>\\\\n</body>\\\\n</html>\\\\n\\\', escape=False)\', layer=\'/var/www/hosts3/applications/projeto/views/initial/show_form.html\')'
p4616
sg4594
S'compile2'
p4617
sasS'pyver'
p4618
S'Python 2.7.3: /usr/bin/python'
p4619
sS'session'
p4620
g69
(g70
g71
NtRp4621
(dp4622
g74
(dp4623
sg76
(lp4624
g69
(g78
g71
NtRp4625
(dp4626
g74
(dp4627
g82
I5
ssg83
Nsg76
(lp4628
g69
(g85
g71
NtRp4629
(dp4630
g74
(dp4631
sg83
g4625
sg76
(lp4632
g69
(g90
g71
NtRp4633
(dp4634
g74
(dp4635
g94
g95
ssg83
g4629
sg76
(lp4636
S'auth'
p4637
asbag69
(g90
g71
NtRp4638
(dp4639
g74
(dp4640
g101
g102
ssg83
g4629
sg76
(lp4641
S':'
asbag69
(g90
g71
NtRp4642
(dp4643
g74
(dp4644
sg83
g4629
sg76
(lp4645
g69
(g70
g71
NtRp4646
(dp4647
g74
(dp4648
g82
I5
ssg83
g4642
sg76
(lp4649
g69
(g78
g71
NtRp4650
(dp4651
g74
(dp4652
g82
I4
ssg83
Nsg76
(lp4653
g69
(g85
g71
NtRp4654
(dp4655
g74
(dp4656
sg83
g4650
sg76
(lp4657
g69
(g90
g71
NtRp4658
(dp4659
g74
(dp4660
g94
g95
ssg83
g4654
sg76
(lp4661
S'expiration'
p4662
asbag69
(g90
g71
NtRp4663
(dp4664
g74
(dp4665
g101
g102
ssg83
g4654
sg76
(lp4666
S':'
asbag69
(g90
g71
NtRp4667
(dp4668
g74
(dp4669
sg83
g4654
sg76
(lp4670
g69
(g70
g71
NtRp4671
(dp4672
g74
(dp4673
g82
I4
ssg83
g4667
sg76
(lp4674
S'3600'
p4675
asbasbasbag69
(g85
g71
NtRp4676
(dp4677
g74
(dp4678
sg83
g4650
sg76
(lp4679
g69
(g90
g71
NtRp4680
(dp4681
g74
(dp4682
g94
g95
ssg83
g4676
sg76
(lp4683
S'hmac_key'
p4684
asbag69
(g90
g71
NtRp4685
(dp4686
g74
(dp4687
g101
g102
ssg83
g4676
sg76
(lp4688
S':'
asbag69
(g90
g71
NtRp4689
(dp4690
g74
(dp4691
sg83
g4676
sg76
(lp4692
g69
(g70
g71
NtRp4693
(dp4694
g74
(dp4695
g82
I4
ssg83
g4689
sg76
(lp4696
S'9866f815-646a-44dc-b07b-1dcc6b65a564'
p4697
asbasbasbag69
(g85
g71
NtRp4698
(dp4699
g74
(dp4700
sg83
g4650
sg76
(lp4701
g69
(g90
g71
NtRp4702
(dp4703
g74
(dp4704
g94
g95
ssg83
g4698
sg76
(lp4705
S'last_visit'
p4706
asbag69
(g90
g71
NtRp4707
(dp4708
g74
(dp4709
g101
g102
ssg83
g4698
sg76
(lp4710
S':'
asbag69
(g90
g71
NtRp4711
(dp4712
g74
(dp4713
sg83
g4698
sg76
(lp4714
g69
(g70
g71
NtRp4715
(dp4716
g74
(dp4717
g82
I4
ssg83
g4711
sg76
(lp4718
S'datetime.datetime(2013, 2, 20, 17, 21, 35, 996294)'
p4719
asbasbasbag69
(g85
g71
NtRp4720
(dp4721
g74
(dp4722
sg83
g4650
sg76
(lp4723
g69
(g90
g71
NtRp4724
(dp4725
g74
(dp4726
g94
g95
ssg83
g4720
sg76
(lp4727
S'remember'
p4728
asbag69
(g90
g71
NtRp4729
(dp4730
g74
(dp4731
g101
g102
ssg83
g4720
sg76
(lp4732
S':'
asbag69
(g90
g71
NtRp4733
(dp4734
g74
(dp4735
sg83
g4720
sg76
(lp4736
g69
(g70
g71
NtRp4737
(dp4738
g74
(dp4739
g82
I4
ssg83
g4733
sg76
(lp4740
g112
asbasbasbag69
(g85
g71
NtRp4741
(dp4742
g74
(dp4743
sg83
g4650
sg76
(lp4744
g69
(g90
g71
NtRp4745
(dp4746
g74
(dp4747
g94
g95
ssg83
g4741
sg76
(lp4748
S'user'
p4749
asbag69
(g90
g71
NtRp4750
(dp4751
g74
(dp4752
g101
g102
ssg83
g4741
sg76
(lp4753
S':'
asbag69
(g90
g71
NtRp4754
(dp4755
g74
(dp4756
sg83
g4741
sg76
(lp4757
g69
(g70
g71
NtRp4758
(dp4759
g74
(dp4760
g82
I4
ssg83
g4754
sg76
(lp4761
g69
(g78
g71
NtRp4762
(dp4763
g74
(dp4764
g82
I3
ssg83
Nsg76
(lp4765
g69
(g85
g71
NtRp4766
(dp4767
g74
(dp4768
sg83
g4762
sg76
(lp4769
g69
(g90
g71
NtRp4770
(dp4771
g74
(dp4772
g94
g95
ssg83
g4766
sg76
(lp4773
S'bio'
p4774
asbag69
(g90
g71
NtRp4775
(dp4776
g74
(dp4777
g101
g102
ssg83
g4766
sg76
(lp4778
S':'
asbag69
(g90
g71
NtRp4779
(dp4780
g74
(dp4781
sg83
g4766
sg76
(lp4782
g69
(g70
g71
NtRp4783
(dp4784
g74
(dp4785
g82
I3
ssg83
g4779
sg76
(lp4786
S'eu'
p4787
asbasbasbag69
(g85
g71
NtRp4788
(dp4789
g74
(dp4790
sg83
g4762
sg76
(lp4791
g69
(g90
g71
NtRp4792
(dp4793
g74
(dp4794
g94
g95
ssg83
g4788
sg76
(lp4795
S'email'
p4796
asbag69
(g90
g71
NtRp4797
(dp4798
g74
(dp4799
g101
g102
ssg83
g4788
sg76
(lp4800
S':'
asbag69
(g90
g71
NtRp4801
(dp4802
g74
(dp4803
sg83
g4788
sg76
(lp4804
g69
(g70
g71
NtRp4805
(dp4806
g74
(dp4807
g82
I3
ssg83
g4801
sg76
(lp4808
S'fernando@ad2.com.br'
p4809
asbasbasbag69
(g85
g71
NtRp4810
(dp4811
g74
(dp4812
sg83
g4762
sg76
(lp4813
g69
(g90
g71
NtRp4814
(dp4815
g74
(dp4816
g94
g95
ssg83
g4810
sg76
(lp4817
S'first_name'
p4818
asbag69
(g90
g71
NtRp4819
(dp4820
g74
(dp4821
g101
g102
ssg83
g4810
sg76
(lp4822
S':'
asbag69
(g90
g71
NtRp4823
(dp4824
g74
(dp4825
sg83
g4810
sg76
(lp4826
g69
(g70
g71
NtRp4827
(dp4828
g74
(dp4829
g82
I3
ssg83
g4823
sg76
(lp4830
S'Fernando'
p4831
asbasbasbag69
(g85
g71
NtRp4832
(dp4833
g74
(dp4834
sg83
g4762
sg76
(lp4835
g69
(g90
g71
NtRp4836
(dp4837
g74
(dp4838
g94
g95
ssg83
g4832
sg76
(lp4839
S'gender'
p4840
asbag69
(g90
g71
NtRp4841
(dp4842
g74
(dp4843
g101
g102
ssg83
g4832
sg76
(lp4844
S':'
asbag69
(g90
g71
NtRp4845
(dp4846
g74
(dp4847
sg83
g4832
sg76
(lp4848
g69
(g70
g71
NtRp4849
(dp4850
g74
(dp4851
g82
I3
ssg83
g4845
sg76
(lp4852
S'masculino'
p4853
asbasbasbag69
(g85
g71
NtRp4854
(dp4855
g74
(dp4856
sg83
g4762
sg76
(lp4857
g69
(g90
g71
NtRp4858
(dp4859
g74
(dp4860
g94
g95
ssg83
g4854
sg76
(lp4861
S'id'
p4862
asbag69
(g90
g71
NtRp4863
(dp4864
g74
(dp4865
g101
g102
ssg83
g4854
sg76
(lp4866
S':'
asbag69
(g90
g71
NtRp4867
(dp4868
g74
(dp4869
sg83
g4854
sg76
(lp4870
g69
(g70
g71
NtRp4871
(dp4872
g74
(dp4873
g82
I3
ssg83
g4867
sg76
(lp4874
S'1'
asbasbasbag69
(g85
g71
NtRp4875
(dp4876
g74
(dp4877
sg83
g4762
sg76
(lp4878
g69
(g90
g71
NtRp4879
(dp4880
g74
(dp4881
g94
g95
ssg83
g4875
sg76
(lp4882
S'last_name'
p4883
asbag69
(g90
g71
NtRp4884
(dp4885
g74
(dp4886
g101
g102
ssg83
g4875
sg76
(lp4887
S':'
asbag69
(g90
g71
NtRp4888
(dp4889
g74
(dp4890
sg83
g4875
sg76
(lp4891
g69
(g70
g71
NtRp4892
(dp4893
g74
(dp4894
g82
I3
ssg83
g4888
sg76
(lp4895
S'Vieira'
p4896
asbasbasbag69
(g85
g71
NtRp4897
(dp4898
g74
(dp4899
sg83
g4762
sg76
(lp4900
g69
(g90
g71
NtRp4901
(dp4902
g74
(dp4903
g94
g95
ssg83
g4897
sg76
(lp4904
S'photo'
p4905
asbag69
(g90
g71
NtRp4906
(dp4907
g74
(dp4908
g101
g102
ssg83
g4897
sg76
(lp4909
S':'
asbag69
(g90
g71
NtRp4910
(dp4911
g74
(dp4912
sg83
g4897
sg76
(lp4913
g69
(g70
g71
NtRp4914
(dp4915
g74
(dp4916
g82
I3
ssg83
g4910
sg76
(lp4917
S'auth_user.photo.8d19308e71e5fcad.73796e637765622e706e67.png'
p4918
asbasbasbag69
(g85
g71
NtRp4919
(dp4920
g74
(dp4921
sg83
g4762
sg76
(lp4922
g69
(g90
g71
NtRp4923
(dp4924
g74
(dp4925
g94
g95
ssg83
g4919
sg76
(lp4926
S'registration_id'
p4927
asbag69
(g90
g71
NtRp4928
(dp4929
g74
(dp4930
g101
g102
ssg83
g4919
sg76
(lp4931
S':'
asbag69
(g90
g71
NtRp4932
(dp4933
g74
(dp4934
sg83
g4919
sg76
(lp4935
g69
(g70
g71
NtRp4936
(dp4937
g74
(dp4938
g82
I3
ssg83
g4932
sg76
(lp4939
S''
asbasbasbag69
(g85
g71
NtRp4940
(dp4941
g74
(dp4942
sg83
g4762
sg76
(lp4943
g69
(g90
g71
NtRp4944
(dp4945
g74
(dp4946
g94
g95
ssg83
g4940
sg76
(lp4947
S'registration_key'
p4948
asbag69
(g90
g71
NtRp4949
(dp4950
g74
(dp4951
g101
g102
ssg83
g4940
sg76
(lp4952
S':'
asbag69
(g90
g71
NtRp4953
(dp4954
g74
(dp4955
sg83
g4940
sg76
(lp4956
g69
(g70
g71
NtRp4957
(dp4958
g74
(dp4959
g82
I3
ssg83
g4953
sg76
(lp4960
S''
asbasbasbag69
(g85
g71
NtRp4961
(dp4962
g74
(dp4963
sg83
g4762
sg76
(lp4964
g69
(g90
g71
NtRp4965
(dp4966
g74
(dp4967
g94
g95
ssg83
g4961
sg76
(lp4968
S'reset_password_key'
p4969
asbag69
(g90
g71
NtRp4970
(dp4971
g74
(dp4972
g101
g102
ssg83
g4961
sg76
(lp4973
S':'
asbag69
(g90
g71
NtRp4974
(dp4975
g74
(dp4976
sg83
g4961
sg76
(lp4977
g69
(g70
g71
NtRp4978
(dp4979
g74
(dp4980
g82
I3
ssg83
g4974
sg76
(lp4981
S''
asbasbasbasbasbasbasbag69
(g85
g71
NtRp4982
(dp4983
g74
(dp4984
sg83
g4650
sg76
(lp4985
g69
(g90
g71
NtRp4986
(dp4987
g74
(dp4988
g94
g95
ssg83
g4982
sg76
(lp4989
S'user_groups'
p4990
asbag69
(g90
g71
NtRp4991
(dp4992
g74
(dp4993
g101
g102
ssg83
g4982
sg76
(lp4994
S':'
asbag69
(g90
g71
NtRp4995
(dp4996
g74
(dp4997
sg83
g4982
sg76
(lp4998
g69
(g70
g71
NtRp4999
(dp5000
g74
(dp5001
g82
I4
ssg83
g4995
sg76
(lp5002
g69
(g78
g71
NtRp5003
(dp5004
g74
(dp5005
g82
I3
ssg83
Nsg76
(lp5006
g69
(g85
g71
NtRp5007
(dp5008
g74
(dp5009
sg83
g5003
sg76
(lp5010
g69
(g90
g71
NtRp5011
(dp5012
g74
(dp5013
g94
g95
ssg83
g5007
sg76
(lp5014
S'1'
asbag69
(g90
g71
NtRp5015
(dp5016
g74
(dp5017
g101
g102
ssg83
g5007
sg76
(lp5018
S':'
asbag69
(g90
g71
NtRp5019
(dp5020
g74
(dp5021
sg83
g5007
sg76
(lp5022
g69
(g70
g71
NtRp5023
(dp5024
g74
(dp5025
g82
I3
ssg83
g5019
sg76
(lp5026
S'user_1'
p5027
asbasbasbag69
(g85
g71
NtRp5028
(dp5029
g74
(dp5030
sg83
g5003
sg76
(lp5031
g69
(g90
g71
NtRp5032
(dp5033
g74
(dp5034
g94
g95
ssg83
g5028
sg76
(lp5035
S'8'
asbag69
(g90
g71
NtRp5036
(dp5037
g74
(dp5038
g101
g102
ssg83
g5028
sg76
(lp5039
S':'
asbag69
(g90
g71
NtRp5040
(dp5041
g74
(dp5042
sg83
g5028
sg76
(lp5043
g69
(g70
g71
NtRp5044
(dp5045
g74
(dp5046
g82
I3
ssg83
g5040
sg76
(lp5047
S'admin'
p5048
asbasbasbasbasbasbasbasbasbasbasbag69
(g85
g71
NtRp5049
(dp5050
g74
(dp5051
sg83
g4625
sg76
(lp5052
g69
(g90
g71
NtRp5053
(dp5054
g74
(dp5055
g94
g95
ssg83
g5049
sg76
(lp5056
S'flash'
p5057
asbag69
(g90
g71
NtRp5058
(dp5059
g74
(dp5060
g101
g102
ssg83
g5049
sg76
(lp5061
S':'
asbag69
(g90
g71
NtRp5062
(dp5063
g74
(dp5064
sg83
g5049
sg76
(lp5065
g69
(g70
g71
NtRp5066
(dp5067
g74
(dp5068
g82
I5
ssg83
g5062
sg76
(lp5069
S'None'
p5070
asbasbasbasbasbsS'etype'
p5071
S"<type 'exceptions.SyntaxError'>"
p5072
sS'date'
p5073
S'Wed Feb 20 17:26:34 2013'
p5074
sS'response'
p5075
g69
(g70
g71
NtRp5076
(dp5077
g74
(dp5078
sg76
(lp5079
g69
(g78
g71
NtRp5080
(dp5081
g74
(dp5082
g82
I5
ssg83
Nsg76
(lp5083
g69
(g85
g71
NtRp5084
(dp5085
g74
(dp5086
sg83
g5080
sg76
(lp5087
g69
(g90
g71
NtRp5088
(dp5089
g74
(dp5090
g94
g95
ssg83
g5084
sg76
(lp5091
g179
asbag69
(g90
g71
NtRp5092
(dp5093
g74
(dp5094
g101
g102
ssg83
g5084
sg76
(lp5095
S':'
asbag69
(g90
g71
NtRp5096
(dp5097
g74
(dp5098
sg83
g5084
sg76
(lp5099
g69
(g70
g71
NtRp5100
(dp5101
g74
(dp5102
g82
I5
ssg83
g5096
sg76
(lp5103
S'<cStringIO.StringO object at 0x7f7ad40bc068>'
p5104
asbasbasbag69
(g85
g71
NtRp5105
(dp5106
g74
(dp5107
sg83
g5080
sg76
(lp5108
g69
(g90
g71
NtRp5109
(dp5110
g74
(dp5111
g94
g95
ssg83
g5105
sg76
(lp5112
g267
asbag69
(g90
g71
NtRp5113
(dp5114
g74
(dp5115
g101
g102
ssg83
g5105
sg76
(lp5116
S':'
asbag69
(g90
g71
NtRp5117
(dp5118
g74
(dp5119
sg83
g5105
sg76
(lp5120
g69
(g70
g71
NtRp5121
(dp5122
g74
(dp5123
g82
I5
ssg83
g5117
sg76
(lp5124
g69
(g78
g71
NtRp5125
(dp5126
g74
(dp5127
g82
I4
ssg83
Nsg76
(lp5128
g69
(g85
g71
NtRp5129
(dp5130
g74
(dp5131
sg83
g5125
sg76
(lp5132
g69
(g90
g71
NtRp5133
(dp5134
g74
(dp5135
g94
g95
ssg83
g5129
sg76
(lp5136
S'session_id_projeto'
p5137
asbag69
(g90
g71
NtRp5138
(dp5139
g74
(dp5140
g101
g102
ssg83
g5129
sg76
(lp5141
S':'
asbag69
(g90
g71
NtRp5142
(dp5143
g74
(dp5144
sg83
g5129
sg76
(lp5145
g69
(g70
g71
NtRp5146
(dp5147
g74
(dp5148
g82
I4
ssg83
g5142
sg76
(lp5149
g1799
ag69
(g78
g71
NtRp5150
(dp5151
g74
(dp5152
g82
I3
ssg83
Nsg76
(lp5153
g69
(g85
g71
NtRp5154
(dp5155
g74
(dp5156
sg83
g5150
sg76
(lp5157
g69
(g90
g71
NtRp5158
(dp5159
g74
(dp5160
g94
g95
ssg83
g5154
sg76
(lp5161
g318
asbag69
(g90
g71
NtRp5162
(dp5163
g74
(dp5164
g101
g102
ssg83
g5154
sg76
(lp5165
S':'
asbag69
(g90
g71
NtRp5166
(dp5167
g74
(dp5168
sg83
g5154
sg76
(lp5169
g69
(g70
g71
NtRp5170
(dp5171
g74
(dp5172
g82
I3
ssg83
g5166
sg76
(lp5173
S''
asbasbasbag69
(g85
g71
NtRp5174
(dp5175
g74
(dp5176
sg83
g5150
sg76
(lp5177
g69
(g90
g71
NtRp5178
(dp5179
g74
(dp5180
g94
g95
ssg83
g5174
sg76
(lp5181
g339
asbag69
(g90
g71
NtRp5182
(dp5183
g74
(dp5184
g101
g102
ssg83
g5174
sg76
(lp5185
S':'
asbag69
(g90
g71
NtRp5186
(dp5187
g74
(dp5188
sg83
g5174
sg76
(lp5189
g69
(g70
g71
NtRp5190
(dp5191
g74
(dp5192
g82
I3
ssg83
g5186
sg76
(lp5193
S''
asbasbasbag69
(g85
g71
NtRp5194
(dp5195
g74
(dp5196
sg83
g5150
sg76
(lp5197
g69
(g90
g71
NtRp5198
(dp5199
g74
(dp5200
g94
g95
ssg83
g5194
sg76
(lp5201
g360
asbag69
(g90
g71
NtRp5202
(dp5203
g74
(dp5204
g101
g102
ssg83
g5194
sg76
(lp5205
S':'
asbag69
(g90
g71
NtRp5206
(dp5207
g74
(dp5208
sg83
g5194
sg76
(lp5209
g69
(g70
g71
NtRp5210
(dp5211
g74
(dp5212
g82
I3
ssg83
g5206
sg76
(lp5213
S''
asbasbasbag69
(g85
g71
NtRp5214
(dp5215
g74
(dp5216
sg83
g5150
sg76
(lp5217
g69
(g90
g71
NtRp5218
(dp5219
g74
(dp5220
g94
g95
ssg83
g5214
sg76
(lp5221
g381
asbag69
(g90
g71
NtRp5222
(dp5223
g74
(dp5224
g101
g102
ssg83
g5214
sg76
(lp5225
S':'
asbag69
(g90
g71
NtRp5226
(dp5227
g74
(dp5228
sg83
g5214
sg76
(lp5229
g69
(g70
g71
NtRp5230
(dp5231
g74
(dp5232
g82
I3
ssg83
g5226
sg76
(lp5233
S''
asbasbasbag69
(g85
g71
NtRp5234
(dp5235
g74
(dp5236
sg83
g5150
sg76
(lp5237
g69
(g90
g71
NtRp5238
(dp5239
g74
(dp5240
g94
g95
ssg83
g5234
sg76
(lp5241
g402
asbag69
(g90
g71
NtRp5242
(dp5243
g74
(dp5244
g101
g102
ssg83
g5234
sg76
(lp5245
S':'
asbag69
(g90
g71
NtRp5246
(dp5247
g74
(dp5248
sg83
g5234
sg76
(lp5249
g69
(g70
g71
NtRp5250
(dp5251
g74
(dp5252
g82
I3
ssg83
g5246
sg76
(lp5253
S''
asbasbasbag69
(g85
g71
NtRp5254
(dp5255
g74
(dp5256
sg83
g5150
sg76
(lp5257
g69
(g90
g71
NtRp5258
(dp5259
g74
(dp5260
g94
g95
ssg83
g5254
sg76
(lp5261
g423
asbag69
(g90
g71
NtRp5262
(dp5263
g74
(dp5264
g101
g102
ssg83
g5254
sg76
(lp5265
S':'
asbag69
(g90
g71
NtRp5266
(dp5267
g74
(dp5268
sg83
g5254
sg76
(lp5269
g69
(g70
g71
NtRp5270
(dp5271
g74
(dp5272
g82
I3
ssg83
g5266
sg76
(lp5273
S'/'
asbasbasbag69
(g85
g71
NtRp5274
(dp5275
g74
(dp5276
sg83
g5150
sg76
(lp5277
g69
(g90
g71
NtRp5278
(dp5279
g74
(dp5280
g94
g95
ssg83
g5274
sg76
(lp5281
g444
asbag69
(g90
g71
NtRp5282
(dp5283
g74
(dp5284
g101
g102
ssg83
g5274
sg76
(lp5285
S':'
asbag69
(g90
g71
NtRp5286
(dp5287
g74
(dp5288
sg83
g5274
sg76
(lp5289
g69
(g70
g71
NtRp5290
(dp5291
g74
(dp5292
g82
I3
ssg83
g5286
sg76
(lp5293
S''
asbasbasbag69
(g85
g71
NtRp5294
(dp5295
g74
(dp5296
sg83
g5150
sg76
(lp5297
g69
(g90
g71
NtRp5298
(dp5299
g74
(dp5300
g94
g95
ssg83
g5294
sg76
(lp5301
g465
asbag69
(g90
g71
NtRp5302
(dp5303
g74
(dp5304
g101
g102
ssg83
g5294
sg76
(lp5305
S':'
asbag69
(g90
g71
NtRp5306
(dp5307
g74
(dp5308
sg83
g5294
sg76
(lp5309
g69
(g70
g71
NtRp5310
(dp5311
g74
(dp5312
g82
I3
ssg83
g5306
sg76
(lp5313
S''
asbasbasbasbasbasbasbasbasbasbasbag69
(g85
g71
NtRp5314
(dp5315
g74
(dp5316
sg83
g5080
sg76
(lp5317
g69
(g90
g71
NtRp5318
(dp5319
g74
(dp5320
g94
g95
ssg83
g5314
sg76
(lp5321
S'delimiters'
p5322
asbag69
(g90
g71
NtRp5323
(dp5324
g74
(dp5325
g101
g102
ssg83
g5314
sg76
(lp5326
S':'
asbag69
(g90
g71
NtRp5327
(dp5328
g74
(dp5329
sg83
g5314
sg76
(lp5330
g69
(g70
g71
NtRp5331
(dp5332
g74
(dp5333
g82
I5
ssg83
g5327
sg76
(lp5334
g69
(g78
g71
NtRp5335
(dp5336
g74
(dp5337
g82
I4
ssg83
Nsg76
(lp5338
g69
(g85
g71
NtRp5339
(dp5340
g74
(dp5341
sg83
g5335
sg76
(lp5342
g69
(g90
g71
NtRp5343
(dp5344
g74
(dp5345
sg83
g5339
sg76
(lp5346
g69
(g70
g71
NtRp5347
(dp5348
g74
(dp5349
g82
I4
ssg83
g5343
sg76
(lp5350
S'{{'
p5351
asbasbasbag69
(g85
g71
NtRp5352
(dp5353
g74
(dp5354
sg83
g5335
sg76
(lp5355
g69
(g90
g71
NtRp5356
(dp5357
g74
(dp5358
sg83
g5352
sg76
(lp5359
g69
(g70
g71
NtRp5360
(dp5361
g74
(dp5362
g82
I4
ssg83
g5356
sg76
(lp5363
S'}}'
p5364
asbasbasbasbasbasbasbag69
(g85
g71
NtRp5365
(dp5366
g74
(dp5367
sg83
g5080
sg76
(lp5368
g69
(g90
g71
NtRp5369
(dp5370
g74
(dp5371
g94
g95
ssg83
g5365
sg76
(lp5372
S'files'
p5373
asbag69
(g90
g71
NtRp5374
(dp5375
g74
(dp5376
g101
g102
ssg83
g5365
sg76
(lp5377
S':'
asbag69
(g90
g71
NtRp5378
(dp5379
g74
(dp5380
sg83
g5365
sg76
(lp5381
g69
(g70
g71
NtRp5382
(dp5383
g74
(dp5384
g82
I5
ssg83
g5378
sg76
(lp5385
g69
(g78
g71
NtRp5386
(dp5387
g74
(dp5388
g82
I4
ssg83
Nsg76
(lp5389
sbasbasbasbag69
(g85
g71
NtRp5390
(dp5391
g74
(dp5392
sg83
g5080
sg76
(lp5393
g69
(g90
g71
NtRp5394
(dp5395
g74
(dp5396
g94
g95
ssg83
g5390
sg76
(lp5397
S'flash'
p5398
asbag69
(g90
g71
NtRp5399
(dp5400
g74
(dp5401
g101
g102
ssg83
g5390
sg76
(lp5402
S':'
asbag69
(g90
g71
NtRp5403
(dp5404
g74
(dp5405
sg83
g5390
sg76
(lp5406
g69
(g70
g71
NtRp5407
(dp5408
g74
(dp5409
g82
I5
ssg83
g5403
sg76
(lp5410
S''
asbasbasbag69
(g85
g71
NtRp5411
(dp5412
g74
(dp5413
sg83
g5080
sg76
(lp5414
g69
(g90
g71
NtRp5415
(dp5416
g74
(dp5417
g94
g95
ssg83
g5411
sg76
(lp5418
S'generic_patterns'
p5419
asbag69
(g90
g71
NtRp5420
(dp5421
g74
(dp5422
g101
g102
ssg83
g5411
sg76
(lp5423
S':'
asbag69
(g90
g71
NtRp5424
(dp5425
g74
(dp5426
sg83
g5411
sg76
(lp5427
g69
(g70
g71
NtRp5428
(dp5429
g74
(dp5430
g82
I5
ssg83
g5424
sg76
(lp5431
g69
(g78
g71
NtRp5432
(dp5433
g74
(dp5434
g82
I4
ssg83
Nsg76
(lp5435
g69
(g85
g71
NtRp5436
(dp5437
g74
(dp5438
sg83
g5432
sg76
(lp5439
g69
(g90
g71
NtRp5440
(dp5441
g74
(dp5442
sg83
g5436
sg76
(lp5443
g69
(g70
g71
NtRp5444
(dp5445
g74
(dp5446
g82
I4
ssg83
g5440
sg76
(lp5447
S'*'
asbasbasbasbasbasbasbag69
(g85
g71
NtRp5448
(dp5449
g74
(dp5450
sg83
g5080
sg76
(lp5451
g69
(g90
g71
NtRp5452
(dp5453
g74
(dp5454
g94
g95
ssg83
g5448
sg76
(lp5455
S'google_analytics_id'
p5456
asbag69
(g90
g71
NtRp5457
(dp5458
g74
(dp5459
g101
g102
ssg83
g5448
sg76
(lp5460
S':'
asbag69
(g90
g71
NtRp5461
(dp5462
g74
(dp5463
sg83
g5448
sg76
(lp5464
g69
(g70
g71
NtRp5465
(dp5466
g74
(dp5467
g82
I5
ssg83
g5461
sg76
(lp5468
S'None'
p5469
asbasbasbag69
(g85
g71
NtRp5470
(dp5471
g74
(dp5472
sg83
g5080
sg76
(lp5473
g69
(g90
g71
NtRp5474
(dp5475
g74
(dp5476
g94
g95
ssg83
g5470
sg76
(lp5477
S'headers'
p5478
asbag69
(g90
g71
NtRp5479
(dp5480
g74
(dp5481
g101
g102
ssg83
g5470
sg76
(lp5482
S':'
asbag69
(g90
g71
NtRp5483
(dp5484
g74
(dp5485
sg83
g5470
sg76
(lp5486
g69
(g70
g71
NtRp5487
(dp5488
g74
(dp5489
g82
I5
ssg83
g5483
sg76
(lp5490
g69
(g78
g71
NtRp5491
(dp5492
g74
(dp5493
g82
I4
ssg83
Nsg76
(lp5494
g69
(g85
g71
NtRp5495
(dp5496
g74
(dp5497
sg83
g5491
sg76
(lp5498
g69
(g90
g71
NtRp5499
(dp5500
g74
(dp5501
g94
g95
ssg83
g5495
sg76
(lp5502
S'X-Powered-By'
p5503
asbag69
(g90
g71
NtRp5504
(dp5505
g74
(dp5506
g101
g102
ssg83
g5495
sg76
(lp5507
S':'
asbag69
(g90
g71
NtRp5508
(dp5509
g74
(dp5510
sg83
g5495
sg76
(lp5511
g69
(g70
g71
NtRp5512
(dp5513
g74
(dp5514
g82
I4
ssg83
g5508
sg76
(lp5515
S'web2py'
p5516
asbasbasbasbasbasbasbag69
(g85
g71
NtRp5517
(dp5518
g74
(dp5519
sg83
g5080
sg76
(lp5520
g69
(g90
g71
NtRp5521
(dp5522
g74
(dp5523
g94
g95
ssg83
g5517
sg76
(lp5524
S'logo'
p5525
asbag69
(g90
g71
NtRp5526
(dp5527
g74
(dp5528
g101
g102
ssg83
g5517
sg76
(lp5529
S':'
asbag69
(g90
g71
NtRp5530
(dp5531
g74
(dp5532
sg83
g5517
sg76
(lp5533
g69
(g70
g71
NtRp5534
(dp5535
g74
(dp5536
g82
I5
ssg83
g5530
sg76
(lp5537
g69
(cgluon.html
A
p5538
g71
NtRp5539
(dp5540
g74
(dp5541
S'_class'
p5542
S'brand'
p5543
sS'_href'
p5544
S''
ssg83
Nsg76
(lp5545
g69
(cgluon.html
B
p5546
g71
NtRp5547
(dp5548
g74
(dp5549
sg83
g5539
sg76
(lp5550
S'hosts'
p5551
ag69
(cgluon.html
SPAN
p5552
g71
NtRp5553
(dp5554
g74
(dp5555
sg83
g5547
sg76
(lp5556
S'3'
asbaS''
asbacgluon.html
XML_unpickle
p5557
(S's\r\x00\x00\x00&trade;&nbsp;'
tRp5558
asbasbasbasbag69
(g85
g71
NtRp5559
(dp5560
g74
(dp5561
sg83
g5080
sg76
(lp5562
g69
(g90
g71
NtRp5563
(dp5564
g74
(dp5565
g94
g95
ssg83
g5559
sg76
(lp5566
S'menu'
p5567
asbag69
(g90
g71
NtRp5568
(dp5569
g74
(dp5570
g101
g102
ssg83
g5559
sg76
(lp5571
S':'
asbag69
(g90
g71
NtRp5572
(dp5573
g74
(dp5574
sg83
g5559
sg76
(lp5575
g69
(g70
g71
NtRp5576
(dp5577
g74
(dp5578
g82
I5
ssg83
g5572
sg76
(lp5579
g69
(g78
g71
NtRp5580
(dp5581
g74
(dp5582
g82
I4
ssg83
Nsg76
(lp5583
g69
(g85
g71
NtRp5584
(dp5585
g74
(dp5586
sg83
g5580
sg76
(lp5587
g69
(g90
g71
NtRp5588
(dp5589
g74
(dp5590
sg83
g5584
sg76
(lp5591
g69
(g70
g71
NtRp5592
(dp5593
g74
(dp5594
g82
I4
ssg83
g5588
sg76
(lp5595
g69
(g78
g71
NtRp5596
(dp5597
g74
(dp5598
g82
I3
ssg83
Nsg76
(lp5599
g69
(g85
g71
NtRp5600
(dp5601
g74
(dp5602
sg83
g5596
sg76
(lp5603
g69
(g90
g71
NtRp5604
(dp5605
g74
(dp5606
sg83
g5600
sg76
(lp5607
g69
(g70
g71
NtRp5608
(dp5609
g74
(dp5610
g82
I3
ssg83
g5604
sg76
(lp5611
cgluon.languages
lazyT_unpickle
p5612
(S't\x08\x00\x00\x00Clientes'
tRp5613
asbasbasbag69
(g85
g71
NtRp5614
(dp5615
g74
(dp5616
sg83
g5596
sg76
(lp5617
g69
(g90
g71
NtRp5618
(dp5619
g74
(dp5620
sg83
g5614
sg76
(lp5621
g69
(g70
g71
NtRp5622
(dp5623
g74
(dp5624
g82
I3
ssg83
g5618
sg76
(lp5625
g112
asbasbasbag69
(g85
g71
NtRp5626
(dp5627
g74
(dp5628
sg83
g5596
sg76
(lp5629
g69
(g90
g71
NtRp5630
(dp5631
g74
(dp5632
sg83
g5626
sg76
(lp5633
g69
(g70
g71
NtRp5634
(dp5635
g74
(dp5636
g82
I3
ssg83
g5630
sg76
(lp5637
S'/'
asbasbasbag69
(g85
g71
NtRp5638
(dp5639
g74
(dp5640
sg83
g5596
sg76
(lp5641
g69
(g90
g71
NtRp5642
(dp5643
g74
(dp5644
sg83
g5638
sg76
(lp5645
g69
(g70
g71
NtRp5646
(dp5647
g74
(dp5648
g82
I3
ssg83
g5642
sg76
(lp5649
g69
(g78
g71
NtRp5650
(dp5651
g74
(dp5652
g82
I2
ssg83
Nsg76
(lp5653
sbasbasbasbasbasbasbasbag69
(g85
g71
NtRp5654
(dp5655
g74
(dp5656
sg83
g5580
sg76
(lp5657
g69
(g90
g71
NtRp5658
(dp5659
g74
(dp5660
sg83
g5654
sg76
(lp5661
g69
(g70
g71
NtRp5662
(dp5663
g74
(dp5664
g82
I4
ssg83
g5658
sg76
(lp5665
g69
(g78
g71
NtRp5666
(dp5667
g74
(dp5668
g82
I3
ssg83
Nsg76
(lp5669
g69
(g85
g71
NtRp5670
(dp5671
g74
(dp5672
sg83
g5666
sg76
(lp5673
g69
(g90
g71
NtRp5674
(dp5675
g74
(dp5676
sg83
g5670
sg76
(lp5677
g69
(g70
g71
NtRp5678
(dp5679
g74
(dp5680
g82
I3
ssg83
g5674
sg76
(lp5681
g5612
(S't\n\x00\x00\x00Servidores'
tRp5682
asbasbasbag69
(g85
g71
NtRp5683
(dp5684
g74
(dp5685
sg83
g5666
sg76
(lp5686
g69
(g90
g71
NtRp5687
(dp5688
g74
(dp5689
sg83
g5683
sg76
(lp5690
g69
(g70
g71
NtRp5691
(dp5692
g74
(dp5693
g82
I3
ssg83
g5687
sg76
(lp5694
g112
asbasbasbag69
(g85
g71
NtRp5695
(dp5696
g74
(dp5697
sg83
g5666
sg76
(lp5698
g69
(g90
g71
NtRp5699
(dp5700
g74
(dp5701
sg83
g5695
sg76
(lp5702
g69
(g70
g71
NtRp5703
(dp5704
g74
(dp5705
g82
I3
ssg83
g5699
sg76
(lp5706
S'/show_servidor'
p5707
asbasbasbag69
(g85
g71
NtRp5708
(dp5709
g74
(dp5710
sg83
g5666
sg76
(lp5711
g69
(g90
g71
NtRp5712
(dp5713
g74
(dp5714
sg83
g5708
sg76
(lp5715
g69
(g70
g71
NtRp5716
(dp5717
g74
(dp5718
g82
I3
ssg83
g5712
sg76
(lp5719
g69
(g78
g71
NtRp5720
(dp5721
g74
(dp5722
g82
I2
ssg83
Nsg76
(lp5723
sbasbasbasbasbasbasbasbag69
(g85
g71
NtRp5724
(dp5725
g74
(dp5726
sg83
g5580
sg76
(lp5727
g69
(g90
g71
NtRp5728
(dp5729
g74
(dp5730
sg83
g5724
sg76
(lp5731
g69
(g70
g71
NtRp5732
(dp5733
g74
(dp5734
g82
I4
ssg83
g5728
sg76
(lp5735
g69
(g78
g71
NtRp5736
(dp5737
g74
(dp5738
g82
I3
ssg83
Nsg76
(lp5739
g69
(g85
g71
NtRp5740
(dp5741
g74
(dp5742
sg83
g5736
sg76
(lp5743
g69
(g90
g71
NtRp5744
(dp5745
g74
(dp5746
sg83
g5740
sg76
(lp5747
g69
(g70
g71
NtRp5748
(dp5749
g74
(dp5750
g82
I3
ssg83
g5744
sg76
(lp5751
g5612
(S't\x07\x00\x00\x00Distros'
tRp5752
asbasbasbag69
(g85
g71
NtRp5753
(dp5754
g74
(dp5755
sg83
g5736
sg76
(lp5756
g69
(g90
g71
NtRp5757
(dp5758
g74
(dp5759
sg83
g5753
sg76
(lp5760
g69
(g70
g71
NtRp5761
(dp5762
g74
(dp5763
g82
I3
ssg83
g5757
sg76
(lp5764
g112
asbasbasbag69
(g85
g71
NtRp5765
(dp5766
g74
(dp5767
sg83
g5736
sg76
(lp5768
g69
(g90
g71
NtRp5769
(dp5770
g74
(dp5771
sg83
g5765
sg76
(lp5772
g69
(g70
g71
NtRp5773
(dp5774
g74
(dp5775
g82
I3
ssg83
g5769
sg76
(lp5776
S'/show_distro'
p5777
asbasbasbag69
(g85
g71
NtRp5778
(dp5779
g74
(dp5780
sg83
g5736
sg76
(lp5781
g69
(g90
g71
NtRp5782
(dp5783
g74
(dp5784
sg83
g5778
sg76
(lp5785
g69
(g70
g71
NtRp5786
(dp5787
g74
(dp5788
g82
I3
ssg83
g5782
sg76
(lp5789
g69
(g78
g71
NtRp5790
(dp5791
g74
(dp5792
g82
I2
ssg83
Nsg76
(lp5793
sbasbasbasbasbasbasbasbasbasbasbasbag69
(g85
g71
NtRp5794
(dp5795
g74
(dp5796
sg83
g5080
sg76
(lp5797
g69
(g90
g71
NtRp5798
(dp5799
g74
(dp5800
g94
g95
ssg83
g5794
sg76
(lp5801
S'menu2'
p5802
asbag69
(g90
g71
NtRp5803
(dp5804
g74
(dp5805
g101
g102
ssg83
g5794
sg76
(lp5806
S':'
asbag69
(g90
g71
NtRp5807
(dp5808
g74
(dp5809
sg83
g5794
sg76
(lp5810
g69
(g70
g71
NtRp5811
(dp5812
g74
(dp5813
g82
I5
ssg83
g5807
sg76
(lp5814
g69
(g78
g71
NtRp5815
(dp5816
g74
(dp5817
g82
I4
ssg83
Nsg76
(lp5818
g69
(g85
g71
NtRp5819
(dp5820
g74
(dp5821
sg83
g5815
sg76
(lp5822
g69
(g90
g71
NtRp5823
(dp5824
g74
(dp5825
sg83
g5819
sg76
(lp5826
g69
(g70
g71
NtRp5827
(dp5828
g74
(dp5829
g82
I4
ssg83
g5823
sg76
(lp5830
g69
(g78
g71
NtRp5831
(dp5832
g74
(dp5833
g82
I3
ssg83
Nsg76
(lp5834
g69
(g85
g71
NtRp5835
(dp5836
g74
(dp5837
sg83
g5831
sg76
(lp5838
g69
(g90
g71
NtRp5839
(dp5840
g74
(dp5841
sg83
g5835
sg76
(lp5842
g69
(g70
g71
NtRp5843
(dp5844
g74
(dp5845
g82
I3
ssg83
g5839
sg76
(lp5846
g69
(g5552
g71
NtRp5847
(dp5848
g74
(dp5849
g5542
S'dropdown-toggle'
p5850
ssg83
Nsg76
(lp5851
S'Admin'
p5852
asbasbasbasbag69
(g85
g71
NtRp5853
(dp5854
g74
(dp5855
sg83
g5831
sg76
(lp5856
g69
(g90
g71
NtRp5857
(dp5858
g74
(dp5859
sg83
g5853
sg76
(lp5860
g69
(g70
g71
NtRp5861
(dp5862
g74
(dp5863
g82
I3
ssg83
g5857
sg76
(lp5864
g112
asbasbasbag69
(g85
g71
NtRp5865
(dp5866
g74
(dp5867
sg83
g5831
sg76
(lp5868
g69
(g90
g71
NtRp5869
(dp5870
g74
(dp5871
sg83
g5865
sg76
(lp5872
g69
(g70
g71
NtRp5873
(dp5874
g74
(dp5875
g82
I3
ssg83
g5869
sg76
(lp5876
S'#'
asbasbasbag69
(g85
g71
NtRp5877
(dp5878
g74
(dp5879
sg83
g5831
sg76
(lp5880
g69
(g90
g71
NtRp5881
(dp5882
g74
(dp5883
sg83
g5877
sg76
(lp5884
g69
(g70
g71
NtRp5885
(dp5886
g74
(dp5887
g82
I3
ssg83
g5881
sg76
(lp5888
g69
(g78
g71
NtRp5889
(dp5890
g74
(dp5891
g82
I2
ssg83
Nsg76
(lp5892
g69
(g85
g71
NtRp5893
(dp5894
g74
(dp5895
sg83
g5889
sg76
(lp5896
g69
(g90
g71
NtRp5897
(dp5898
g74
(dp5899
sg83
g5893
sg76
(lp5900
g69
(g70
g71
NtRp5901
(dp5902
g74
(dp5903
g82
I2
ssg83
g5897
sg76
(lp5904
g69
(g78
g71
NtRp5905
(dp5906
g74
(dp5907
g82
I1
ssg83
Nsg76
(lp5908
g69
(g85
g71
NtRp5909
(dp5910
g74
(dp5911
sg83
g5905
sg76
(lp5912
g69
(g90
g71
NtRp5913
(dp5914
g74
(dp5915
sg83
g5909
sg76
(lp5916
g69
(g70
g71
NtRp5917
(dp5918
g74
(dp5919
g82
I1
ssg83
g5913
sg76
(lp5920
g5612
(S's\t\x00\x00\x00Usu\xc3\xa1rios'
tRp5921
asbasbasbag69
(g85
g71
NtRp5922
(dp5923
g74
(dp5924
sg83
g5905
sg76
(lp5925
g69
(g90
g71
NtRp5926
(dp5927
g74
(dp5928
sg83
g5922
sg76
(lp5929
g69
(g70
g71
NtRp5930
(dp5931
g74
(dp5932
g82
I1
ssg83
g5926
sg76
(lp5933
I00
asbasbasbag69
(g85
g71
NtRp5934
(dp5935
g74
(dp5936
sg83
g5905
sg76
(lp5937
g69
(g90
g71
NtRp5938
(dp5939
g74
(dp5940
sg83
g5934
sg76
(lp5941
g69
(g70
g71
NtRp5942
(dp5943
g74
(dp5944
g82
I1
ssg83
g5938
sg76
(lp5945
S'/manager/users'
p5946
asbasbasbasbasbasbasbag69
(g85
g71
NtRp5947
(dp5948
g74
(dp5949
sg83
g5889
sg76
(lp5950
g69
(g90
g71
NtRp5951
(dp5952
g74
(dp5953
sg83
g5947
sg76
(lp5954
g69
(g70
g71
NtRp5955
(dp5956
g74
(dp5957
g82
I2
ssg83
g5951
sg76
(lp5958
g69
(g78
g71
NtRp5959
(dp5960
g74
(dp5961
g82
I1
ssg83
Nsg76
(lp5962
g69
(g85
g71
NtRp5963
(dp5964
g74
(dp5965
sg83
g5959
sg76
(lp5966
g69
(g90
g71
NtRp5967
(dp5968
g74
(dp5969
sg83
g5963
sg76
(lp5970
g69
(g70
g71
NtRp5971
(dp5972
g74
(dp5973
g82
I1
ssg83
g5967
sg76
(lp5974
g5612
(S't\x06\x00\x00\x00Grupos'
tRp5975
asbasbasbag69
(g85
g71
NtRp5976
(dp5977
g74
(dp5978
sg83
g5959
sg76
(lp5979
g69
(g90
g71
NtRp5980
(dp5981
g74
(dp5982
sg83
g5976
sg76
(lp5983
g69
(g70
g71
NtRp5984
(dp5985
g74
(dp5986
g82
I1
ssg83
g5980
sg76
(lp5987
I00
asbasbasbag69
(g85
g71
NtRp5988
(dp5989
g74
(dp5990
sg83
g5959
sg76
(lp5991
g69
(g90
g71
NtRp5992
(dp5993
g74
(dp5994
sg83
g5988
sg76
(lp5995
g69
(g70
g71
NtRp5996
(dp5997
g74
(dp5998
g82
I1
ssg83
g5992
sg76
(lp5999
S'/manager/groups'
p6000
asbasbasbasbasbasbasbag69
(g85
g71
NtRp6001
(dp6002
g74
(dp6003
sg83
g5889
sg76
(lp6004
g69
(g90
g71
NtRp6005
(dp6006
g74
(dp6007
sg83
g6001
sg76
(lp6008
g69
(g70
g71
NtRp6009
(dp6010
g74
(dp6011
g82
I2
ssg83
g6005
sg76
(lp6012
g69
(g78
g71
NtRp6013
(dp6014
g74
(dp6015
g82
I1
ssg83
Nsg76
(lp6016
g69
(g85
g71
NtRp6017
(dp6018
g74
(dp6019
sg83
g6013
sg76
(lp6020
g69
(g90
g71
NtRp6021
(dp6022
g74
(dp6023
sg83
g6017
sg76
(lp6024
g69
(g70
g71
NtRp6025
(dp6026
g74
(dp6027
g82
I1
ssg83
g6021
sg76
(lp6028
g5612
(S't\x07\x00\x00\x00Membros'
tRp6029
asbasbasbag69
(g85
g71
NtRp6030
(dp6031
g74
(dp6032
sg83
g6013
sg76
(lp6033
g69
(g90
g71
NtRp6034
(dp6035
g74
(dp6036
sg83
g6030
sg76
(lp6037
g69
(g70
g71
NtRp6038
(dp6039
g74
(dp6040
g82
I1
ssg83
g6034
sg76
(lp6041
I00
asbasbasbag69
(g85
g71
NtRp6042
(dp6043
g74
(dp6044
sg83
g6013
sg76
(lp6045
g69
(g90
g71
NtRp6046
(dp6047
g74
(dp6048
sg83
g6042
sg76
(lp6049
g69
(g70
g71
NtRp6050
(dp6051
g74
(dp6052
g82
I1
ssg83
g6046
sg76
(lp6053
S'/manager/membership'
p6054
asbasbasbasbasbasbasbasbasbasbasbasbasbasbasbag69
(g85
g71
NtRp6055
(dp6056
g74
(dp6057
sg83
g5815
sg76
(lp6058
g69
(g90
g71
NtRp6059
(dp6060
g74
(dp6061
sg83
g6055
sg76
(lp6062
g69
(g70
g71
NtRp6063
(dp6064
g74
(dp6065
g82
I4
ssg83
g6059
sg76
(lp6066
g69
(g78
g71
NtRp6067
(dp6068
g74
(dp6069
g82
I3
ssg83
Nsg76
(lp6070
g69
(g85
g71
NtRp6071
(dp6072
g74
(dp6073
sg83
g6067
sg76
(lp6074
g69
(g90
g71
NtRp6075
(dp6076
g74
(dp6077
sg83
g6071
sg76
(lp6078
g69
(g70
g71
NtRp6079
(dp6080
g74
(dp6081
g82
I3
ssg83
g6075
sg76
(lp6082
g69
(g5552
g71
NtRp6083
(dp6084
g74
(dp6085
g5542
g5850
ssg83
Nsg76
(lp6086
S'Login'
p6087
asbasbasbasbag69
(g85
g71
NtRp6088
(dp6089
g74
(dp6090
sg83
g6067
sg76
(lp6091
g69
(g90
g71
NtRp6092
(dp6093
g74
(dp6094
sg83
g6088
sg76
(lp6095
g69
(g70
g71
NtRp6096
(dp6097
g74
(dp6098
g82
I3
ssg83
g6092
sg76
(lp6099
g112
asbasbasbag69
(g85
g71
NtRp6100
(dp6101
g74
(dp6102
sg83
g6067
sg76
(lp6103
g69
(g90
g71
NtRp6104
(dp6105
g74
(dp6106
sg83
g6100
sg76
(lp6107
g69
(g70
g71
NtRp6108
(dp6109
g74
(dp6110
g82
I3
ssg83
g6104
sg76
(lp6111
S'#'
asbasbasbag69
(g85
g71
NtRp6112
(dp6113
g74
(dp6114
sg83
g6067
sg76
(lp6115
g69
(g90
g71
NtRp6116
(dp6117
g74
(dp6118
sg83
g6112
sg76
(lp6119
g69
(g70
g71
NtRp6120
(dp6121
g74
(dp6122
g82
I3
ssg83
g6116
sg76
(lp6123
g69
(g78
g71
NtRp6124
(dp6125
g74
(dp6126
g82
I2
ssg83
Nsg76
(lp6127
g69
(g85
g71
NtRp6128
(dp6129
g74
(dp6130
sg83
g6124
sg76
(lp6131
g69
(g90
g71
NtRp6132
(dp6133
g74
(dp6134
sg83
g6128
sg76
(lp6135
g69
(g70
g71
NtRp6136
(dp6137
g74
(dp6138
g82
I2
ssg83
g6132
sg76
(lp6139
g69
(g78
g71
NtRp6140
(dp6141
g74
(dp6142
g82
I1
ssg83
Nsg76
(lp6143
g69
(g85
g71
NtRp6144
(dp6145
g74
(dp6146
sg83
g6140
sg76
(lp6147
g69
(g90
g71
NtRp6148
(dp6149
g74
(dp6150
sg83
g6144
sg76
(lp6151
g69
(g70
g71
NtRp6152
(dp6153
g74
(dp6154
g82
I1
ssg83
g6148
sg76
(lp6155
g5612
(S't\x06\x00\x00\x00Logout'
tRp6156
asbasbasbag69
(g85
g71
NtRp6157
(dp6158
g74
(dp6159
sg83
g6140
sg76
(lp6160
g69
(g90
g71
NtRp6161
(dp6162
g74
(dp6163
sg83
g6157
sg76
(lp6164
g69
(g70
g71
NtRp6165
(dp6166
g74
(dp6167
g82
I1
ssg83
g6161
sg76
(lp6168
I00
asbasbasbag69
(g85
g71
NtRp6169
(dp6170
g74
(dp6171
sg83
g6140
sg76
(lp6172
g69
(g90
g71
NtRp6173
(dp6174
g74
(dp6175
sg83
g6169
sg76
(lp6176
g69
(g70
g71
NtRp6177
(dp6178
g74
(dp6179
g82
I1
ssg83
g6173
sg76
(lp6180
S'/initial/user/logout'
p6181
asbasbasbasbasbasbasbasbasbasbasbasbasbasbasbasbasbasbasbag69
(g85
g71
NtRp6182
(dp6183
g74
(dp6184
sg83
g5080
sg76
(lp6185
g69
(g90
g71
NtRp6186
(dp6187
g74
(dp6188
g94
g95
ssg83
g6182
sg76
(lp6189
S'meta'
p6190
asbag69
(g90
g71
NtRp6191
(dp6192
g74
(dp6193
g101
g102
ssg83
g6182
sg76
(lp6194
S':'
asbag69
(g90
g71
NtRp6195
(dp6196
g74
(dp6197
sg83
g6182
sg76
(lp6198
g69
(g70
g71
NtRp6199
(dp6200
g74
(dp6201
g82
I5
ssg83
g6195
sg76
(lp6202
g69
(g78
g71
NtRp6203
(dp6204
g74
(dp6205
g82
I4
ssg83
Nsg76
(lp6206
g69
(g85
g71
NtRp6207
(dp6208
g74
(dp6209
sg83
g6203
sg76
(lp6210
g69
(g90
g71
NtRp6211
(dp6212
g74
(dp6213
g94
g95
ssg83
g6207
sg76
(lp6214
S'author'
p6215
asbag69
(g90
g71
NtRp6216
(dp6217
g74
(dp6218
g101
g102
ssg83
g6207
sg76
(lp6219
S':'
asbag69
(g90
g71
NtRp6220
(dp6221
g74
(dp6222
sg83
g6207
sg76
(lp6223
g69
(g70
g71
NtRp6224
(dp6225
g74
(dp6226
g82
I4
ssg83
g6220
sg76
(lp6227
S'Your Name <you@example.com>'
p6228
asbasbasbag69
(g85
g71
NtRp6229
(dp6230
g74
(dp6231
sg83
g6203
sg76
(lp6232
g69
(g90
g71
NtRp6233
(dp6234
g74
(dp6235
g94
g95
ssg83
g6229
sg76
(lp6236
S'description'
p6237
asbag69
(g90
g71
NtRp6238
(dp6239
g74
(dp6240
g101
g102
ssg83
g6229
sg76
(lp6241
S':'
asbag69
(g90
g71
NtRp6242
(dp6243
g74
(dp6244
sg83
g6229
sg76
(lp6245
g69
(g70
g71
NtRp6246
(dp6247
g74
(dp6248
g82
I4
ssg83
g6242
sg76
(lp6249
S'a cool new app'
p6250
asbasbasbag69
(g85
g71
NtRp6251
(dp6252
g74
(dp6253
sg83
g6203
sg76
(lp6254
g69
(g90
g71
NtRp6255
(dp6256
g74
(dp6257
g94
g95
ssg83
g6251
sg76
(lp6258
S'generator'
p6259
asbag69
(g90
g71
NtRp6260
(dp6261
g74
(dp6262
g101
g102
ssg83
g6251
sg76
(lp6263
S':'
asbag69
(g90
g71
NtRp6264
(dp6265
g74
(dp6266
sg83
g6251
sg76
(lp6267
g69
(g70
g71
NtRp6268
(dp6269
g74
(dp6270
g82
I4
ssg83
g6264
sg76
(lp6271
S'Web2py Web Framework'
p6272
asbasbasbag69
(g85
g71
NtRp6273
(dp6274
g74
(dp6275
sg83
g6203
sg76
(lp6276
g69
(g90
g71
NtRp6277
(dp6278
g74
(dp6279
g94
g95
ssg83
g6273
sg76
(lp6280
S'keywords'
p6281
asbag69
(g90
g71
NtRp6282
(dp6283
g74
(dp6284
g101
g102
ssg83
g6273
sg76
(lp6285
S':'
asbag69
(g90
g71
NtRp6286
(dp6287
g74
(dp6288
sg83
g6273
sg76
(lp6289
g69
(g70
g71
NtRp6290
(dp6291
g74
(dp6292
g82
I4
ssg83
g6286
sg76
(lp6293
S'web2py, python, framework'
p6294
asbasbasbasbasbasbasbag69
(g85
g71
NtRp6295
(dp6296
g74
(dp6297
sg83
g5080
sg76
(lp6298
g69
(g90
g71
NtRp6299
(dp6300
g74
(dp6301
g94
g95
ssg83
g6295
sg76
(lp6302
S'models_to_run'
p6303
asbag69
(g90
g71
NtRp6304
(dp6305
g74
(dp6306
g101
g102
ssg83
g6295
sg76
(lp6307
S':'
asbag69
(g90
g71
NtRp6308
(dp6309
g74
(dp6310
sg83
g6295
sg76
(lp6311
g69
(g70
g71
NtRp6312
(dp6313
g74
(dp6314
g82
I5
ssg83
g6308
sg76
(lp6315
g69
(g78
g71
NtRp6316
(dp6317
g74
(dp6318
g82
I4
ssg83
Nsg76
(lp6319
g69
(g85
g71
NtRp6320
(dp6321
g74
(dp6322
sg83
g6316
sg76
(lp6323
g69
(g90
g71
NtRp6324
(dp6325
g74
(dp6326
sg83
g6320
sg76
(lp6327
g69
(g70
g71
NtRp6328
(dp6329
g74
(dp6330
g82
I4
ssg83
g6324
sg76
(lp6331
S'^\\w+\\.py$'
p6332
asbasbasbag69
(g85
g71
NtRp6333
(dp6334
g74
(dp6335
sg83
g6316
sg76
(lp6336
g69
(g90
g71
NtRp6337
(dp6338
g74
(dp6339
sg83
g6333
sg76
(lp6340
g69
(g70
g71
NtRp6341
(dp6342
g74
(dp6343
g82
I4
ssg83
g6337
sg76
(lp6344
S'^initial/\\w+\\.py$'
p6345
asbasbasbag69
(g85
g71
NtRp6346
(dp6347
g74
(dp6348
sg83
g6316
sg76
(lp6349
g69
(g90
g71
NtRp6350
(dp6351
g74
(dp6352
sg83
g6346
sg76
(lp6353
g69
(g70
g71
NtRp6354
(dp6355
g74
(dp6356
g82
I4
ssg83
g6350
sg76
(lp6357
S'^initial/edit_host/\\w+\\.py$'
p6358
asbasbasbasbasbasbasbag69
(g85
g71
NtRp6359
(dp6360
g74
(dp6361
sg83
g5080
sg76
(lp6362
g69
(g90
g71
NtRp6363
(dp6364
g74
(dp6365
g94
g95
ssg83
g6359
sg76
(lp6366
S'postprocessing'
p6367
asbag69
(g90
g71
NtRp6368
(dp6369
g74
(dp6370
g101
g102
ssg83
g6359
sg76
(lp6371
S':'
asbag69
(g90
g71
NtRp6372
(dp6373
g74
(dp6374
sg83
g6359
sg76
(lp6375
g69
(g70
g71
NtRp6376
(dp6377
g74
(dp6378
g82
I5
ssg83
g6372
sg76
(lp6379
g69
(g78
g71
NtRp6380
(dp6381
g74
(dp6382
g82
I4
ssg83
Nsg76
(lp6383
sbasbasbasbag69
(g85
g71
NtRp6384
(dp6385
g74
(dp6386
sg83
g5080
sg76
(lp6387
g69
(g90
g71
NtRp6388
(dp6389
g74
(dp6390
g94
g95
ssg83
g6384
sg76
(lp6391
S'session_cookie_expires'
p6392
asbag69
(g90
g71
NtRp6393
(dp6394
g74
(dp6395
g101
g102
ssg83
g6384
sg76
(lp6396
S':'
asbag69
(g90
g71
NtRp6397
(dp6398
g74
(dp6399
sg83
g6384
sg76
(lp6400
g69
(g70
g71
NtRp6401
(dp6402
g74
(dp6403
g82
I5
ssg83
g6397
sg76
(lp6404
S'None'
p6405
asbasbasbag69
(g85
g71
NtRp6406
(dp6407
g74
(dp6408
sg83
g5080
sg76
(lp6409
g69
(g90
g71
NtRp6410
(dp6411
g74
(dp6412
g94
g95
ssg83
g6406
sg76
(lp6413
S'session_data_name'
p6414
asbag69
(g90
g71
NtRp6415
(dp6416
g74
(dp6417
g101
g102
ssg83
g6406
sg76
(lp6418
S':'
asbag69
(g90
g71
NtRp6419
(dp6420
g74
(dp6421
sg83
g6406
sg76
(lp6422
g69
(g70
g71
NtRp6423
(dp6424
g74
(dp6425
g82
I5
ssg83
g6419
sg76
(lp6426
S'session_data_projeto'
p6427
asbasbasbag69
(g85
g71
NtRp6428
(dp6429
g74
(dp6430
sg83
g5080
sg76
(lp6431
g69
(g90
g71
NtRp6432
(dp6433
g74
(dp6434
g94
g95
ssg83
g6428
sg76
(lp6435
S'session_file'
p6436
asbag69
(g90
g71
NtRp6437
(dp6438
g74
(dp6439
g101
g102
ssg83
g6428
sg76
(lp6440
S':'
asbag69
(g90
g71
NtRp6441
(dp6442
g74
(dp6443
sg83
g6428
sg76
(lp6444
g69
(g70
g71
NtRp6445
(dp6446
g74
(dp6447
g82
I5
ssg83
g6441
sg76
(lp6448
S"<open file '/var/www/hosts3/applications/projeto/sessions/127.0.0.1-0acfffbc-b4bb-461e-bcf3-4358d244c69e', mode 'rb+' at 0x7f7adc122d20>"
p6449
asbasbasbag69
(g85
g71
NtRp6450
(dp6451
g74
(dp6452
sg83
g5080
sg76
(lp6453
g69
(g90
g71
NtRp6454
(dp6455
g74
(dp6456
g94
g95
ssg83
g6450
sg76
(lp6457
S'session_filename'
p6458
asbag69
(g90
g71
NtRp6459
(dp6460
g74
(dp6461
g101
g102
ssg83
g6450
sg76
(lp6462
S':'
asbag69
(g90
g71
NtRp6463
(dp6464
g74
(dp6465
sg83
g6450
sg76
(lp6466
g69
(g70
g71
NtRp6467
(dp6468
g74
(dp6469
g82
I5
ssg83
g6463
sg76
(lp6470
S'/var/www/hosts3/applications/projeto/sessions/127.0.0.1-0acfffbc-b4bb-461e-bcf3-4358d244c69e'
p6471
asbasbasbag69
(g85
g71
NtRp6472
(dp6473
g74
(dp6474
sg83
g5080
sg76
(lp6475
g69
(g90
g71
NtRp6476
(dp6477
g74
(dp6478
g94
g95
ssg83
g6472
sg76
(lp6479
S'session_id'
p6480
asbag69
(g90
g71
NtRp6481
(dp6482
g74
(dp6483
g101
g102
ssg83
g6472
sg76
(lp6484
S':'
asbag69
(g90
g71
NtRp6485
(dp6486
g74
(dp6487
sg83
g6472
sg76
(lp6488
g69
(g70
g71
NtRp6489
(dp6490
g74
(dp6491
g82
I5
ssg83
g6485
sg76
(lp6492
g1799
asbasbasbag69
(g85
g71
NtRp6493
(dp6494
g74
(dp6495
sg83
g5080
sg76
(lp6496
g69
(g90
g71
NtRp6497
(dp6498
g74
(dp6499
g94
g95
ssg83
g6493
sg76
(lp6500
S'session_id_name'
p6501
asbag69
(g90
g71
NtRp6502
(dp6503
g74
(dp6504
g101
g102
ssg83
g6493
sg76
(lp6505
S':'
asbag69
(g90
g71
NtRp6506
(dp6507
g74
(dp6508
sg83
g6493
sg76
(lp6509
g69
(g70
g71
NtRp6510
(dp6511
g74
(dp6512
g82
I5
ssg83
g6506
sg76
(lp6513
g5137
asbasbasbag69
(g85
g71
NtRp6514
(dp6515
g74
(dp6516
sg83
g5080
sg76
(lp6517
g69
(g90
g71
NtRp6518
(dp6519
g74
(dp6520
g94
g95
ssg83
g6514
sg76
(lp6521
S'session_locked'
p6522
asbag69
(g90
g71
NtRp6523
(dp6524
g74
(dp6525
g101
g102
ssg83
g6514
sg76
(lp6526
S':'
asbag69
(g90
g71
NtRp6527
(dp6528
g74
(dp6529
sg83
g6514
sg76
(lp6530
g69
(g70
g71
NtRp6531
(dp6532
g74
(dp6533
g82
I5
ssg83
g6527
sg76
(lp6534
g3137
asbasbasbag69
(g85
g71
NtRp6535
(dp6536
g74
(dp6537
sg83
g5080
sg76
(lp6538
g69
(g90
g71
NtRp6539
(dp6540
g74
(dp6541
g94
g95
ssg83
g6535
sg76
(lp6542
S'session_new'
p6543
asbag69
(g90
g71
NtRp6544
(dp6545
g74
(dp6546
g101
g102
ssg83
g6535
sg76
(lp6547
S':'
asbag69
(g90
g71
NtRp6548
(dp6549
g74
(dp6550
sg83
g6535
sg76
(lp6551
g69
(g70
g71
NtRp6552
(dp6553
g74
(dp6554
g82
I5
ssg83
g6548
sg76
(lp6555
g112
asbasbasbag69
(g85
g71
NtRp6556
(dp6557
g74
(dp6558
sg83
g5080
sg76
(lp6559
g69
(g90
g71
NtRp6560
(dp6561
g74
(dp6562
g94
g95
ssg83
g6556
sg76
(lp6563
S'session_storage_type'
p6564
asbag69
(g90
g71
NtRp6565
(dp6566
g74
(dp6567
g101
g102
ssg83
g6556
sg76
(lp6568
S':'
asbag69
(g90
g71
NtRp6569
(dp6570
g74
(dp6571
sg83
g6556
sg76
(lp6572
g69
(g70
g71
NtRp6573
(dp6574
g74
(dp6575
g82
I5
ssg83
g6569
sg76
(lp6576
g4567
asbasbasbag69
(g85
g71
NtRp6577
(dp6578
g74
(dp6579
sg83
g5080
sg76
(lp6580
g69
(g90
g71
NtRp6581
(dp6582
g74
(dp6583
g94
g95
ssg83
g6577
sg76
(lp6584
S'status'
p6585
asbag69
(g90
g71
NtRp6586
(dp6587
g74
(dp6588
g101
g102
ssg83
g6577
sg76
(lp6589
S':'
asbag69
(g90
g71
NtRp6590
(dp6591
g74
(dp6592
sg83
g6577
sg76
(lp6593
g69
(g70
g71
NtRp6594
(dp6595
g74
(dp6596
g82
I5
ssg83
g6590
sg76
(lp6597
S'200'
p6598
asbasbasbag69
(g85
g71
NtRp6599
(dp6600
g74
(dp6601
sg83
g5080
sg76
(lp6602
g69
(g90
g71
NtRp6603
(dp6604
g74
(dp6605
g94
g95
ssg83
g6599
sg76
(lp6606
S'subtitle'
p6607
asbag69
(g90
g71
NtRp6608
(dp6609
g74
(dp6610
g101
g102
ssg83
g6599
sg76
(lp6611
S':'
asbag69
(g90
g71
NtRp6612
(dp6613
g74
(dp6614
sg83
g6599
sg76
(lp6615
g69
(g70
g71
NtRp6616
(dp6617
g74
(dp6618
g82
I5
ssg83
g6612
sg76
(lp6619
g5612
(S's\r\x00\x00\x00customize me!'
tRp6620
asbasbasbag69
(g85
g71
NtRp6621
(dp6622
g74
(dp6623
sg83
g5080
sg76
(lp6624
g69
(g90
g71
NtRp6625
(dp6626
g74
(dp6627
g94
g95
ssg83
g6621
sg76
(lp6628
S'title'
p6629
asbag69
(g90
g71
NtRp6630
(dp6631
g74
(dp6632
g101
g102
ssg83
g6621
sg76
(lp6633
S':'
asbag69
(g90
g71
NtRp6634
(dp6635
g74
(dp6636
sg83
g6621
sg76
(lp6637
g69
(g70
g71
NtRp6638
(dp6639
g74
(dp6640
g82
I5
ssg83
g6634
sg76
(lp6641
S'Projeto'
p6642
asbasbasbag69
(g85
g71
NtRp6643
(dp6644
g74
(dp6645
sg83
g5080
sg76
(lp6646
g69
(g90
g71
NtRp6647
(dp6648
g74
(dp6649
g94
g95
ssg83
g6643
sg76
(lp6650
S'view'
p6651
asbag69
(g90
g71
NtRp6652
(dp6653
g74
(dp6654
g101
g102
ssg83
g6643
sg76
(lp6655
S':'
asbag69
(g90
g71
NtRp6656
(dp6657
g74
(dp6658
sg83
g6643
sg76
(lp6659
g69
(g70
g71
NtRp6660
(dp6661
g74
(dp6662
g82
I5
ssg83
g6656
sg76
(lp6663
S'initial/show_form.html'
p6664
asbasbasbasbasbsS'locals'
p6665
(dp6666
g4
S"'/var/www/hosts3/applications/projeto/views/initial/show_form.html'"
p6667
sg6
S'\'response.write(\\\'<!DOCTYPE html>\\\\n<!-- paulirish....(\\\'"></script>\\\\n</body>\\\\n</html>\\\\n\\\', escape=False)\''
p6668
sssS'traceback'
p6669
S'Traceback (most recent call last):\n  File "/var/www/hosts3/gluon/restricted.py", line 211, in restricted\n    ccode = compile2(code, layer)\n  File "/var/www/hosts3/gluon/restricted.py", line 194, in compile2\n    return compile(code.rstrip().replace(\'\\r\\n\', \'\\n\') + \'\\n\', layer, \'exec\')\n  File "/var/www/hosts3/applications/projeto/views/initial/show_form.html", line 80\n    response.write(URL(\'initial\', \'/cliente_host\', vars=(f=1)))\n                                                          ^\nSyntaxError: invalid syntax\n'
p6670
s.