(dp1
S'output'
p2
S"<type 'exceptions.IOError'> [Errno 13] Permission denied: '/var/www/hosts3/applications/projeto/databases/c76e61eb1a0ee4223dd9557133d33caf_cliente.table'"
p3
sS'layer'
p4
S'/var/www/hosts3/applications/projeto/models/models.py'
p5
sS'code'
p6
S'Cliente = db.define_table("cliente",\n      Field("nome", notnull=True, unique=True),\n      Field("email"),\n      Field("gtalk"),\n      Field("tel"),\n      #auth.signature\n      format="%(nome)s")\n\nServidor = db.define_table("servidor",\n      Field("nome", notnull=True),\n      format="%(nome)s")\n\nDistro = db.define_table("distro",\n      Field("nome", notnull=True),\n      Field("img", notnull=True),\n      Field("imagem", notnull=True),\n      format="%(nome)s")\n\nHosts = db.define_table("hosts",\n      Field("id_cliente", db.cliente),\n      Field("id_servidor", db.servidor),\n      Field("id_distro", db.distro),\n      Field("servicos", "text"),\n      Field("if1"),\n      Field("ip1"),\n      Field("masc1"),\n      Field("obs1"),\n      Field("if2"),\n      Field("ip2"),\n      Field("masc2"),\n      Field("obs2"),\n      Field("if3"),\n      Field("ip3"),\n      Field("masc3"),\n      Field("obs3"),\n      Field("if4"),\n      Field("ip4"),\n      Field("masc4"),\n      Field("obs4"),\n      Field("nome", notnull=True),\n      Field("ip_chegada", notnull=True),\n      Field("porta_ssh", notnull=True),\n      Field("gateway", notnull=True),\n      Field("rotas", "text"),\n      Field("obs_gerais", "text"),\n      format="%(nome)s")\n\nInterface = db.define_table("interface",\n      Field("id_hosts", db.hosts),\n      Field("nome"),\n      Field("ip"),\n      format="%(nome)s")\n\n\n\n\n'
p7
sS'snapshot'
p8
(dp9
S'exception'
p10
(dp11
S'__getslice__'
p12
S"<method-wrapper '__getslice__' of exceptions.IOError object>"
p13
sS'__str__'
p14
S"<method-wrapper '__str__' of exceptions.IOError object>"
p15
sS'__reduce__'
p16
S'<built-in method __reduce__ of exceptions.IOError object>'
p17
sS'__dict__'
p18
S'{}'
p19
sS'__sizeof__'
p20
S'<built-in method __sizeof__ of exceptions.IOError object>'
p21
sS'__init__'
p22
S"<method-wrapper '__init__' of exceptions.IOError object>"
p23
sS'__setattr__'
p24
S"<method-wrapper '__setattr__' of exceptions.IOError object>"
p25
sS'__reduce_ex__'
p26
S'<built-in method __reduce_ex__ of exceptions.IOError object>'
p27
sS'__new__'
p28
S'<built-in method __new__ of type object>'
p29
sS'errno'
p30
S'13'
p31
sS'__format__'
p32
S'<built-in method __format__ of exceptions.IOError object>'
p33
sS'__class__'
p34
S"<type 'exceptions.IOError'>"
p35
sS'filename'
p36
S"'/var/www/hosts3/applications/projeto/databases/c76e61eb1a0ee4223dd9557133d33caf_cliente.table'"
p37
sS'__doc__'
p38
S"'I/O operation failed.'"
p39
sS'__getitem__'
p40
S"<method-wrapper '__getitem__' of exceptions.IOError object>"
p41
sS'__setstate__'
p42
S'<built-in method __setstate__ of exceptions.IOError object>'
p43
sS'__getattribute__'
p44
S"<method-wrapper '__getattribute__' of exceptions.IOError object>"
p45
sS'args'
p46
S"(13, 'Permission denied')"
p47
sS'__subclasshook__'
p48
S'<built-in method __subclasshook__ of type object>'
p49
sS'__unicode__'
p50
S'<built-in method __unicode__ of exceptions.IOError object>'
p51
sS'strerror'
p52
S"'Permission denied'"
p53
sS'__delattr__'
p54
S"<method-wrapper '__delattr__' of exceptions.IOError object>"
p55
sS'__repr__'
p56
S"<method-wrapper '__repr__' of exceptions.IOError object>"
p57
sS'__hash__'
p58
S"<method-wrapper '__hash__' of exceptions.IOError object>"
p59
ssS'evalue'
p60
S"[Errno 13] Permission denied: '/var/www/hosts3/applications/projeto/databases/c76e61eb1a0ee4223dd9557133d33caf_cliente.table'"
p61
sS'request'
p62
ccopy_reg
_reconstructor
p63
(cgluon.html
BEAUTIFY
p64
c__builtin__
object
p65
NtRp66
(dp67
S'attributes'
p68
(dp69
sS'components'
p70
(lp71
g63
(cgluon.html
TABLE
p72
g65
NtRp73
(dp74
g68
(dp75
S'level'
p76
I5
ssS'parent'
p77
Nsg70
(lp78
g63
(cgluon.html
TR
p79
g65
NtRp80
(dp81
g68
(dp82
sg77
g73
sg70
(lp83
g63
(cgluon.html
TD
p84
g65
NtRp85
(dp86
g68
(dp87
S'_style'
p88
S'font-weight:bold;vertical-align:top'
p89
ssg77
g80
sg70
(lp90
S'ajax'
p91
asbag63
(g84
g65
NtRp92
(dp93
g68
(dp94
S'_valign'
p95
S'top'
p96
ssg77
g80
sg70
(lp97
S':'
asbag63
(g84
g65
NtRp98
(dp99
g68
(dp100
sg77
g80
sg70
(lp101
g63
(g64
g65
NtRp102
(dp103
g68
(dp104
g76
I5
ssg77
g98
sg70
(lp105
S'False'
p106
asbasbasbag63
(g79
g65
NtRp107
(dp108
g68
(dp109
sg77
g73
sg70
(lp110
g63
(g84
g65
NtRp111
(dp112
g68
(dp113
g88
g89
ssg77
g107
sg70
(lp114
S'application'
p115
asbag63
(g84
g65
NtRp116
(dp117
g68
(dp118
g95
g96
ssg77
g107
sg70
(lp119
S':'
asbag63
(g84
g65
NtRp120
(dp121
g68
(dp122
sg77
g107
sg70
(lp123
g63
(g64
g65
NtRp124
(dp125
g68
(dp126
g76
I5
ssg77
g120
sg70
(lp127
S'projeto'
p128
asbasbasbag63
(g79
g65
NtRp129
(dp130
g68
(dp131
sg77
g73
sg70
(lp132
g63
(g84
g65
NtRp133
(dp134
g68
(dp135
g88
g89
ssg77
g129
sg70
(lp136
g46
asbag63
(g84
g65
NtRp137
(dp138
g68
(dp139
g95
g96
ssg77
g129
sg70
(lp140
S':'
asbag63
(g84
g65
NtRp141
(dp142
g68
(dp143
sg77
g129
sg70
(lp144
g63
(g64
g65
NtRp145
(dp146
g68
(dp147
g76
I5
ssg77
g141
sg70
(lp148
g63
(g72
g65
NtRp149
(dp150
g68
(dp151
g76
I4
ssg77
Nsg70
(lp152
sbasbasbasbag63
(g79
g65
NtRp153
(dp154
g68
(dp155
sg77
g73
sg70
(lp156
g63
(g84
g65
NtRp157
(dp158
g68
(dp159
g88
g89
ssg77
g153
sg70
(lp160
S'body'
p161
asbag63
(g84
g65
NtRp162
(dp163
g68
(dp164
g95
g96
ssg77
g153
sg70
(lp165
S':'
asbag63
(g84
g65
NtRp166
(dp167
g68
(dp168
sg77
g153
sg70
(lp169
g63
(g64
g65
NtRp170
(dp171
g68
(dp172
g76
I5
ssg77
g166
sg70
(lp173
S'<cStringIO.StringO object at 0x1696180>'
p174
asbasbasbag63
(g79
g65
NtRp175
(dp176
g68
(dp177
sg77
g73
sg70
(lp178
g63
(g84
g65
NtRp179
(dp180
g68
(dp181
g88
g89
ssg77
g175
sg70
(lp182
S'cid'
p183
asbag63
(g84
g65
NtRp184
(dp185
g68
(dp186
g95
g96
ssg77
g175
sg70
(lp187
S':'
asbag63
(g84
g65
NtRp188
(dp189
g68
(dp190
sg77
g175
sg70
(lp191
g63
(g64
g65
NtRp192
(dp193
g68
(dp194
g76
I5
ssg77
g188
sg70
(lp195
S'None'
p196
asbasbasbag63
(g79
g65
NtRp197
(dp198
g68
(dp199
sg77
g73
sg70
(lp200
g63
(g84
g65
NtRp201
(dp202
g68
(dp203
g88
g89
ssg77
g197
sg70
(lp204
S'client'
p205
asbag63
(g84
g65
NtRp206
(dp207
g68
(dp208
g95
g96
ssg77
g197
sg70
(lp209
S':'
asbag63
(g84
g65
NtRp210
(dp211
g68
(dp212
sg77
g197
sg70
(lp213
g63
(g64
g65
NtRp214
(dp215
g68
(dp216
g76
I5
ssg77
g210
sg70
(lp217
S'127.0.0.1'
p218
asbasbasbag63
(g79
g65
NtRp219
(dp220
g68
(dp221
sg77
g73
sg70
(lp222
g63
(g84
g65
NtRp223
(dp224
g68
(dp225
g88
g89
ssg77
g219
sg70
(lp226
S'controller'
p227
asbag63
(g84
g65
NtRp228
(dp229
g68
(dp230
g95
g96
ssg77
g219
sg70
(lp231
S':'
asbag63
(g84
g65
NtRp232
(dp233
g68
(dp234
sg77
g219
sg70
(lp235
g63
(g64
g65
NtRp236
(dp237
g68
(dp238
g76
I5
ssg77
g232
sg70
(lp239
S'initial'
p240
asbasbasbag63
(g79
g65
NtRp241
(dp242
g68
(dp243
sg77
g73
sg70
(lp244
g63
(g84
g65
NtRp245
(dp246
g68
(dp247
g88
g89
ssg77
g241
sg70
(lp248
S'cookies'
p249
asbag63
(g84
g65
NtRp250
(dp251
g68
(dp252
g95
g96
ssg77
g241
sg70
(lp253
S':'
asbag63
(g84
g65
NtRp254
(dp255
g68
(dp256
sg77
g241
sg70
(lp257
g63
(g64
g65
NtRp258
(dp259
g68
(dp260
g76
I5
ssg77
g254
sg70
(lp261
g63
(g72
g65
NtRp262
(dp263
g68
(dp264
g76
I4
ssg77
Nsg70
(lp265
g63
(g79
g65
NtRp266
(dp267
g68
(dp268
sg77
g262
sg70
(lp269
g63
(g84
g65
NtRp270
(dp271
g68
(dp272
g88
g89
ssg77
g266
sg70
(lp273
S'session_id_projeto'
p274
asbag63
(g84
g65
NtRp275
(dp276
g68
(dp277
g95
g96
ssg77
g266
sg70
(lp278
S':'
asbag63
(g84
g65
NtRp279
(dp280
g68
(dp281
sg77
g266
sg70
(lp282
g63
(g64
g65
NtRp283
(dp284
g68
(dp285
g76
I4
ssg77
g279
sg70
(lp286
S'127.0.0.1-7374a69b-822a-440e-bf95-42dfa3584989'
p287
ag63
(g72
g65
NtRp288
(dp289
g68
(dp290
g76
I3
ssg77
Nsg70
(lp291
g63
(g79
g65
NtRp292
(dp293
g68
(dp294
sg77
g288
sg70
(lp295
g63
(g84
g65
NtRp296
(dp297
g68
(dp298
g88
g89
ssg77
g292
sg70
(lp299
S'comment'
p300
asbag63
(g84
g65
NtRp301
(dp302
g68
(dp303
g95
g96
ssg77
g292
sg70
(lp304
S':'
asbag63
(g84
g65
NtRp305
(dp306
g68
(dp307
sg77
g292
sg70
(lp308
g63
(g64
g65
NtRp309
(dp310
g68
(dp311
g76
I3
ssg77
g305
sg70
(lp312
S''
asbasbasbag63
(g79
g65
NtRp313
(dp314
g68
(dp315
sg77
g288
sg70
(lp316
g63
(g84
g65
NtRp317
(dp318
g68
(dp319
g88
g89
ssg77
g313
sg70
(lp320
S'domain'
p321
asbag63
(g84
g65
NtRp322
(dp323
g68
(dp324
g95
g96
ssg77
g313
sg70
(lp325
S':'
asbag63
(g84
g65
NtRp326
(dp327
g68
(dp328
sg77
g313
sg70
(lp329
g63
(g64
g65
NtRp330
(dp331
g68
(dp332
g76
I3
ssg77
g326
sg70
(lp333
S''
asbasbasbag63
(g79
g65
NtRp334
(dp335
g68
(dp336
sg77
g288
sg70
(lp337
g63
(g84
g65
NtRp338
(dp339
g68
(dp340
g88
g89
ssg77
g334
sg70
(lp341
S'expires'
p342
asbag63
(g84
g65
NtRp343
(dp344
g68
(dp345
g95
g96
ssg77
g334
sg70
(lp346
S':'
asbag63
(g84
g65
NtRp347
(dp348
g68
(dp349
sg77
g334
sg70
(lp350
g63
(g64
g65
NtRp351
(dp352
g68
(dp353
g76
I3
ssg77
g347
sg70
(lp354
S''
asbasbasbag63
(g79
g65
NtRp355
(dp356
g68
(dp357
sg77
g288
sg70
(lp358
g63
(g84
g65
NtRp359
(dp360
g68
(dp361
g88
g89
ssg77
g355
sg70
(lp362
S'httponly'
p363
asbag63
(g84
g65
NtRp364
(dp365
g68
(dp366
g95
g96
ssg77
g355
sg70
(lp367
S':'
asbag63
(g84
g65
NtRp368
(dp369
g68
(dp370
sg77
g355
sg70
(lp371
g63
(g64
g65
NtRp372
(dp373
g68
(dp374
g76
I3
ssg77
g368
sg70
(lp375
S''
asbasbasbag63
(g79
g65
NtRp376
(dp377
g68
(dp378
sg77
g288
sg70
(lp379
g63
(g84
g65
NtRp380
(dp381
g68
(dp382
g88
g89
ssg77
g376
sg70
(lp383
S'max-age'
p384
asbag63
(g84
g65
NtRp385
(dp386
g68
(dp387
g95
g96
ssg77
g376
sg70
(lp388
S':'
asbag63
(g84
g65
NtRp389
(dp390
g68
(dp391
sg77
g376
sg70
(lp392
g63
(g64
g65
NtRp393
(dp394
g68
(dp395
g76
I3
ssg77
g389
sg70
(lp396
S''
asbasbasbag63
(g79
g65
NtRp397
(dp398
g68
(dp399
sg77
g288
sg70
(lp400
g63
(g84
g65
NtRp401
(dp402
g68
(dp403
g88
g89
ssg77
g397
sg70
(lp404
S'path'
p405
asbag63
(g84
g65
NtRp406
(dp407
g68
(dp408
g95
g96
ssg77
g397
sg70
(lp409
S':'
asbag63
(g84
g65
NtRp410
(dp411
g68
(dp412
sg77
g397
sg70
(lp413
g63
(g64
g65
NtRp414
(dp415
g68
(dp416
g76
I3
ssg77
g410
sg70
(lp417
S''
asbasbasbag63
(g79
g65
NtRp418
(dp419
g68
(dp420
sg77
g288
sg70
(lp421
g63
(g84
g65
NtRp422
(dp423
g68
(dp424
g88
g89
ssg77
g418
sg70
(lp425
S'secure'
p426
asbag63
(g84
g65
NtRp427
(dp428
g68
(dp429
g95
g96
ssg77
g418
sg70
(lp430
S':'
asbag63
(g84
g65
NtRp431
(dp432
g68
(dp433
sg77
g418
sg70
(lp434
g63
(g64
g65
NtRp435
(dp436
g68
(dp437
g76
I3
ssg77
g431
sg70
(lp438
S''
asbasbasbag63
(g79
g65
NtRp439
(dp440
g68
(dp441
sg77
g288
sg70
(lp442
g63
(g84
g65
NtRp443
(dp444
g68
(dp445
g88
g89
ssg77
g439
sg70
(lp446
S'version'
p447
asbag63
(g84
g65
NtRp448
(dp449
g68
(dp450
g95
g96
ssg77
g439
sg70
(lp451
S':'
asbag63
(g84
g65
NtRp452
(dp453
g68
(dp454
sg77
g439
sg70
(lp455
g63
(g64
g65
NtRp456
(dp457
g68
(dp458
g76
I3
ssg77
g452
sg70
(lp459
S''
asbasbasbasbasbasbasbasbasbasbasbag63
(g79
g65
NtRp460
(dp461
g68
(dp462
sg77
g73
sg70
(lp463
g63
(g84
g65
NtRp464
(dp465
g68
(dp466
g88
g89
ssg77
g460
sg70
(lp467
S'env'
p468
asbag63
(g84
g65
NtRp469
(dp470
g68
(dp471
g95
g96
ssg77
g460
sg70
(lp472
S':'
asbag63
(g84
g65
NtRp473
(dp474
g68
(dp475
sg77
g460
sg70
(lp476
g63
(g64
g65
NtRp477
(dp478
g68
(dp479
g76
I5
ssg77
g473
sg70
(lp480
g63
(g72
g65
NtRp481
(dp482
g68
(dp483
g76
I4
ssg77
Nsg70
(lp484
g63
(g79
g65
NtRp485
(dp486
g68
(dp487
sg77
g481
sg70
(lp488
g63
(g84
g65
NtRp489
(dp490
g68
(dp491
g88
g89
ssg77
g485
sg70
(lp492
S'app_folders'
p493
asbag63
(g84
g65
NtRp494
(dp495
g68
(dp496
g95
g96
ssg77
g485
sg70
(lp497
S':'
asbag63
(g84
g65
NtRp498
(dp499
g68
(dp500
sg77
g485
sg70
(lp501
g63
(g64
g65
NtRp502
(dp503
g68
(dp504
g76
I4
ssg77
g498
sg70
(lp505
S"set(['/var/www/hosts3/applications/projeto/'])"
p506
asbasbasbag63
(g79
g65
NtRp507
(dp508
g68
(dp509
sg77
g481
sg70
(lp510
g63
(g84
g65
NtRp511
(dp512
g68
(dp513
g88
g89
ssg77
g507
sg70
(lp514
S'applications_parent'
p515
asbag63
(g84
g65
NtRp516
(dp517
g68
(dp518
g95
g96
ssg77
g507
sg70
(lp519
S':'
asbag63
(g84
g65
NtRp520
(dp521
g68
(dp522
sg77
g507
sg70
(lp523
g63
(g64
g65
NtRp524
(dp525
g68
(dp526
g76
I4
ssg77
g520
sg70
(lp527
S'/var/www/hosts3'
p528
asbasbasbag63
(g79
g65
NtRp529
(dp530
g68
(dp531
sg77
g481
sg70
(lp532
g63
(g84
g65
NtRp533
(dp534
g68
(dp535
g88
g89
ssg77
g529
sg70
(lp536
S'cmd_args'
p537
asbag63
(g84
g65
NtRp538
(dp539
g68
(dp540
g95
g96
ssg77
g529
sg70
(lp541
S':'
asbag63
(g84
g65
NtRp542
(dp543
g68
(dp544
sg77
g529
sg70
(lp545
g63
(g64
g65
NtRp546
(dp547
g68
(dp548
g76
I4
ssg77
g542
sg70
(lp549
g63
(g72
g65
NtRp550
(dp551
g68
(dp552
g76
I3
ssg77
Nsg70
(lp553
sbasbasbasbag63
(g79
g65
NtRp554
(dp555
g68
(dp556
sg77
g481
sg70
(lp557
g63
(g84
g65
NtRp558
(dp559
g68
(dp560
g88
g89
ssg77
g554
sg70
(lp561
S'cmd_options'
p562
asbag63
(g84
g65
NtRp563
(dp564
g68
(dp565
g95
g96
ssg77
g554
sg70
(lp566
S':'
asbag63
(g84
g65
NtRp567
(dp568
g68
(dp569
sg77
g554
sg70
(lp570
g63
(g64
g65
NtRp571
(dp572
g68
(dp573
g76
I4
ssg77
g567
sg70
(lp574
S"<Values at 0x167d170: {'verbose': False, 'ip': '127.0.0.1', 'with_scheduler': False, 'ips': [], 'shutdown_timeout': 5, 'taskbar': False, 'port': 8000, 'maxthreads': None, 'softcron': False, 'server_name': 'fernando-workstation', 'bpython': False, 'nogui': False, 'pid_filename': 'httpserver.pid', 'extcron': False, 'runcron': False, 'run_system_tests': False, 'test': None, 'folder': '/var/www/hosts3', 'config': '', 'minthreads': None, 'winservice': '', 'shell': None, 'run': '', 'log_filename': 'httpserver.log', 'debuglevel': 30, 'args': [''], 'socket_timeout': 5, 'ssl_ca_certificate': None, 'scheduler': None, 'profiler_filename': None, 'ssl_private_key': '', 'scheduler_groups': None, 'password': '123456', 'request_queue_size': 5, 'ssl_certificate': '', 'cronjob': False, 'numthreads': None, 'quiet': False, 'interfaces': None, 'import_models': False, 'timeout': 10, 'plain': False, 'nobanner': False}>"
p575
asbasbasbag63
(g79
g65
NtRp576
(dp577
g68
(dp578
sg77
g481
sg70
(lp579
g63
(g84
g65
NtRp580
(dp581
g68
(dp582
g88
g89
ssg77
g576
sg70
(lp583
S'db_sessions'
p584
asbag63
(g84
g65
NtRp585
(dp586
g68
(dp587
g95
g96
ssg77
g576
sg70
(lp588
S':'
asbag63
(g84
g65
NtRp589
(dp590
g68
(dp591
sg77
g576
sg70
(lp592
g63
(g64
g65
NtRp593
(dp594
g68
(dp595
g76
I4
ssg77
g589
sg70
(lp596
S'set([])'
p597
asbasbasbag63
(g79
g65
NtRp598
(dp599
g68
(dp600
sg77
g481
sg70
(lp601
g63
(g84
g65
NtRp602
(dp603
g68
(dp604
g88
g89
ssg77
g598
sg70
(lp605
S'debugging'
p606
asbag63
(g84
g65
NtRp607
(dp608
g68
(dp609
g95
g96
ssg77
g598
sg70
(lp610
S':'
asbag63
(g84
g65
NtRp611
(dp612
g68
(dp613
sg77
g598
sg70
(lp614
g63
(g64
g65
NtRp615
(dp616
g68
(dp617
g76
I4
ssg77
g611
sg70
(lp618
g106
asbasbasbag63
(g79
g65
NtRp619
(dp620
g68
(dp621
sg77
g481
sg70
(lp622
g63
(g84
g65
NtRp623
(dp624
g68
(dp625
g88
g89
ssg77
g619
sg70
(lp626
S'gluon_parent'
p627
asbag63
(g84
g65
NtRp628
(dp629
g68
(dp630
g95
g96
ssg77
g619
sg70
(lp631
S':'
asbag63
(g84
g65
NtRp632
(dp633
g68
(dp634
sg77
g619
sg70
(lp635
g63
(g64
g65
NtRp636
(dp637
g68
(dp638
g76
I4
ssg77
g632
sg70
(lp639
S'/var/www/hosts3'
p640
asbasbasbag63
(g79
g65
NtRp641
(dp642
g68
(dp643
sg77
g481
sg70
(lp644
g63
(g84
g65
NtRp645
(dp646
g68
(dp647
g88
g89
ssg77
g641
sg70
(lp648
S'http_accept'
p649
asbag63
(g84
g65
NtRp650
(dp651
g68
(dp652
g95
g96
ssg77
g641
sg70
(lp653
S':'
asbag63
(g84
g65
NtRp654
(dp655
g68
(dp656
sg77
g641
sg70
(lp657
g63
(g64
g65
NtRp658
(dp659
g68
(dp660
g76
I4
ssg77
g654
sg70
(lp661
S'text/html,application/xhtml+xml,application/xml;q=0.9,*/*;q=0.8'
p662
asbasbasbag63
(g79
g65
NtRp663
(dp664
g68
(dp665
sg77
g481
sg70
(lp666
g63
(g84
g65
NtRp667
(dp668
g68
(dp669
g88
g89
ssg77
g663
sg70
(lp670
S'http_accept_charset'
p671
asbag63
(g84
g65
NtRp672
(dp673
g68
(dp674
g95
g96
ssg77
g663
sg70
(lp675
S':'
asbag63
(g84
g65
NtRp676
(dp677
g68
(dp678
sg77
g663
sg70
(lp679
g63
(g64
g65
NtRp680
(dp681
g68
(dp682
g76
I4
ssg77
g676
sg70
(lp683
S'ISO-8859-1,utf-8;q=0.7,*;q=0.3'
p684
asbasbasbag63
(g79
g65
NtRp685
(dp686
g68
(dp687
sg77
g481
sg70
(lp688
g63
(g84
g65
NtRp689
(dp690
g68
(dp691
g88
g89
ssg77
g685
sg70
(lp692
S'http_accept_encoding'
p693
asbag63
(g84
g65
NtRp694
(dp695
g68
(dp696
g95
g96
ssg77
g685
sg70
(lp697
S':'
asbag63
(g84
g65
NtRp698
(dp699
g68
(dp700
sg77
g685
sg70
(lp701
g63
(g64
g65
NtRp702
(dp703
g68
(dp704
g76
I4
ssg77
g698
sg70
(lp705
S'gzip,deflate,sdch'
p706
asbasbasbag63
(g79
g65
NtRp707
(dp708
g68
(dp709
sg77
g481
sg70
(lp710
g63
(g84
g65
NtRp711
(dp712
g68
(dp713
g88
g89
ssg77
g707
sg70
(lp714
S'http_accept_language'
p715
asbag63
(g84
g65
NtRp716
(dp717
g68
(dp718
g95
g96
ssg77
g707
sg70
(lp719
S':'
asbag63
(g84
g65
NtRp720
(dp721
g68
(dp722
sg77
g707
sg70
(lp723
g63
(g64
g65
NtRp724
(dp725
g68
(dp726
g76
I4
ssg77
g720
sg70
(lp727
S'pt-BR,pt;q=0.8,en-US;q=0.6,en;q=0.4'
p728
asbasbasbag63
(g79
g65
NtRp729
(dp730
g68
(dp731
sg77
g481
sg70
(lp732
g63
(g84
g65
NtRp733
(dp734
g68
(dp735
g88
g89
ssg77
g729
sg70
(lp736
S'http_connection'
p737
asbag63
(g84
g65
NtRp738
(dp739
g68
(dp740
g95
g96
ssg77
g729
sg70
(lp741
S':'
asbag63
(g84
g65
NtRp742
(dp743
g68
(dp744
sg77
g729
sg70
(lp745
g63
(g64
g65
NtRp746
(dp747
g68
(dp748
g76
I4
ssg77
g742
sg70
(lp749
S'keep-alive'
p750
asbasbasbag63
(g79
g65
NtRp751
(dp752
g68
(dp753
sg77
g481
sg70
(lp754
g63
(g84
g65
NtRp755
(dp756
g68
(dp757
g88
g89
ssg77
g751
sg70
(lp758
S'http_cookie'
p759
asbag63
(g84
g65
NtRp760
(dp761
g68
(dp762
g95
g96
ssg77
g751
sg70
(lp763
S':'
asbag63
(g84
g65
NtRp764
(dp765
g68
(dp766
sg77
g751
sg70
(lp767
g63
(g64
g65
NtRp768
(dp769
g68
(dp770
g76
I4
ssg77
g764
sg70
(lp771
S'session_id_projeto=127.0.0.1-7374a69b-822a-440e-bf95-42dfa3584989'
p772
asbasbasbag63
(g79
g65
NtRp773
(dp774
g68
(dp775
sg77
g481
sg70
(lp776
g63
(g84
g65
NtRp777
(dp778
g68
(dp779
g88
g89
ssg77
g773
sg70
(lp780
S'http_host'
p781
asbag63
(g84
g65
NtRp782
(dp783
g68
(dp784
g95
g96
ssg77
g773
sg70
(lp785
S':'
asbag63
(g84
g65
NtRp786
(dp787
g68
(dp788
sg77
g773
sg70
(lp789
g63
(g64
g65
NtRp790
(dp791
g68
(dp792
g76
I4
ssg77
g786
sg70
(lp793
S'127.0.0.1:8000'
p794
asbasbasbag63
(g79
g65
NtRp795
(dp796
g68
(dp797
sg77
g481
sg70
(lp798
g63
(g84
g65
NtRp799
(dp800
g68
(dp801
g88
g89
ssg77
g795
sg70
(lp802
S'http_user_agent'
p803
asbag63
(g84
g65
NtRp804
(dp805
g68
(dp806
g95
g96
ssg77
g795
sg70
(lp807
S':'
asbag63
(g84
g65
NtRp808
(dp809
g68
(dp810
sg77
g795
sg70
(lp811
g63
(g64
g65
NtRp812
(dp813
g68
(dp814
g76
I4
ssg77
g808
sg70
(lp815
S'Mozilla/5.0 (X11; Linux x86_64) AppleWebKit/537.4 (KHTML, like Gecko) Ubuntu/12.10 Chromium/22.0.1229.94 Chrome/22.0.1229.94 Safari/537.4'
p816
asbasbasbag63
(g79
g65
NtRp817
(dp818
g68
(dp819
sg77
g481
sg70
(lp820
g63
(g84
g65
NtRp821
(dp822
g68
(dp823
g88
g89
ssg77
g817
sg70
(lp824
S'is_jython'
p825
asbag63
(g84
g65
NtRp826
(dp827
g68
(dp828
g95
g96
ssg77
g817
sg70
(lp829
S':'
asbag63
(g84
g65
NtRp830
(dp831
g68
(dp832
sg77
g817
sg70
(lp833
g63
(g64
g65
NtRp834
(dp835
g68
(dp836
g76
I4
ssg77
g830
sg70
(lp837
g106
asbasbasbag63
(g79
g65
NtRp838
(dp839
g68
(dp840
sg77
g481
sg70
(lp841
g63
(g84
g65
NtRp842
(dp843
g68
(dp844
g88
g89
ssg77
g838
sg70
(lp845
S'is_pypy'
p846
asbag63
(g84
g65
NtRp847
(dp848
g68
(dp849
g95
g96
ssg77
g838
sg70
(lp850
S':'
asbag63
(g84
g65
NtRp851
(dp852
g68
(dp853
sg77
g838
sg70
(lp854
g63
(g64
g65
NtRp855
(dp856
g68
(dp857
g76
I4
ssg77
g851
sg70
(lp858
g106
asbasbasbag63
(g79
g65
NtRp859
(dp860
g68
(dp861
sg77
g481
sg70
(lp862
g63
(g84
g65
NtRp863
(dp864
g68
(dp865
g88
g89
ssg77
g859
sg70
(lp866
S'path_info'
p867
asbag63
(g84
g65
NtRp868
(dp869
g68
(dp870
g95
g96
ssg77
g859
sg70
(lp871
S':'
asbag63
(g84
g65
NtRp872
(dp873
g68
(dp874
sg77
g859
sg70
(lp875
g63
(g64
g65
NtRp876
(dp877
g68
(dp878
g76
I4
ssg77
g872
sg70
(lp879
S'/'
asbasbasbag63
(g79
g65
NtRp880
(dp881
g68
(dp882
sg77
g481
sg70
(lp883
g63
(g84
g65
NtRp884
(dp885
g68
(dp886
g88
g89
ssg77
g880
sg70
(lp887
S'query_string'
p888
asbag63
(g84
g65
NtRp889
(dp890
g68
(dp891
g95
g96
ssg77
g880
sg70
(lp892
S':'
asbag63
(g84
g65
NtRp893
(dp894
g68
(dp895
sg77
g880
sg70
(lp896
g63
(g64
g65
NtRp897
(dp898
g68
(dp899
g76
I4
ssg77
g893
sg70
(lp900
S''
asbasbasbag63
(g79
g65
NtRp901
(dp902
g68
(dp903
sg77
g481
sg70
(lp904
g63
(g84
g65
NtRp905
(dp906
g68
(dp907
g88
g89
ssg77
g901
sg70
(lp908
S'remote_addr'
p909
asbag63
(g84
g65
NtRp910
(dp911
g68
(dp912
g95
g96
ssg77
g901
sg70
(lp913
S':'
asbag63
(g84
g65
NtRp914
(dp915
g68
(dp916
sg77
g901
sg70
(lp917
g63
(g64
g65
NtRp918
(dp919
g68
(dp920
g76
I4
ssg77
g914
sg70
(lp921
g218
asbasbasbag63
(g79
g65
NtRp922
(dp923
g68
(dp924
sg77
g481
sg70
(lp925
g63
(g84
g65
NtRp926
(dp927
g68
(dp928
g88
g89
ssg77
g922
sg70
(lp929
S'remote_port'
p930
asbag63
(g84
g65
NtRp931
(dp932
g68
(dp933
g95
g96
ssg77
g922
sg70
(lp934
S':'
asbag63
(g84
g65
NtRp935
(dp936
g68
(dp937
sg77
g922
sg70
(lp938
g63
(g64
g65
NtRp939
(dp940
g68
(dp941
g76
I4
ssg77
g935
sg70
(lp942
S'49577'
p943
asbasbasbag63
(g79
g65
NtRp944
(dp945
g68
(dp946
sg77
g481
sg70
(lp947
g63
(g84
g65
NtRp948
(dp949
g68
(dp950
g88
g89
ssg77
g944
sg70
(lp951
S'request_method'
p952
asbag63
(g84
g65
NtRp953
(dp954
g68
(dp955
g95
g96
ssg77
g944
sg70
(lp956
S':'
asbag63
(g84
g65
NtRp957
(dp958
g68
(dp959
sg77
g944
sg70
(lp960
g63
(g64
g65
NtRp961
(dp962
g68
(dp963
g76
I4
ssg77
g957
sg70
(lp964
S'GET'
p965
asbasbasbag63
(g79
g65
NtRp966
(dp967
g68
(dp968
sg77
g481
sg70
(lp969
g63
(g84
g65
NtRp970
(dp971
g68
(dp972
g88
g89
ssg77
g966
sg70
(lp973
S'request_uri'
p974
asbag63
(g84
g65
NtRp975
(dp976
g68
(dp977
g95
g96
ssg77
g966
sg70
(lp978
S':'
asbag63
(g84
g65
NtRp979
(dp980
g68
(dp981
sg77
g966
sg70
(lp982
g63
(g64
g65
NtRp983
(dp984
g68
(dp985
g76
I4
ssg77
g979
sg70
(lp986
S'/projeto/initial/principal'
p987
asbasbasbag63
(g79
g65
NtRp988
(dp989
g68
(dp990
sg77
g481
sg70
(lp991
g63
(g84
g65
NtRp992
(dp993
g68
(dp994
g88
g89
ssg77
g988
sg70
(lp995
S'script_name'
p996
asbag63
(g84
g65
NtRp997
(dp998
g68
(dp999
g95
g96
ssg77
g988
sg70
(lp1000
S':'
asbag63
(g84
g65
NtRp1001
(dp1002
g68
(dp1003
sg77
g988
sg70
(lp1004
g63
(g64
g65
NtRp1005
(dp1006
g68
(dp1007
g76
I4
ssg77
g1001
sg70
(lp1008
S''
asbasbasbag63
(g79
g65
NtRp1009
(dp1010
g68
(dp1011
sg77
g481
sg70
(lp1012
g63
(g84
g65
NtRp1013
(dp1014
g68
(dp1015
g88
g89
ssg77
g1009
sg70
(lp1016
S'server_name'
p1017
asbag63
(g84
g65
NtRp1018
(dp1019
g68
(dp1020
g95
g96
ssg77
g1009
sg70
(lp1021
S':'
asbag63
(g84
g65
NtRp1022
(dp1023
g68
(dp1024
sg77
g1009
sg70
(lp1025
g63
(g64
g65
NtRp1026
(dp1027
g68
(dp1028
g76
I4
ssg77
g1022
sg70
(lp1029
S'fernando-workstation'
p1030
asbasbasbag63
(g79
g65
NtRp1031
(dp1032
g68
(dp1033
sg77
g481
sg70
(lp1034
g63
(g84
g65
NtRp1035
(dp1036
g68
(dp1037
g88
g89
ssg77
g1031
sg70
(lp1038
S'server_port'
p1039
asbag63
(g84
g65
NtRp1040
(dp1041
g68
(dp1042
g95
g96
ssg77
g1031
sg70
(lp1043
S':'
asbag63
(g84
g65
NtRp1044
(dp1045
g68
(dp1046
sg77
g1031
sg70
(lp1047
g63
(g64
g65
NtRp1048
(dp1049
g68
(dp1050
g76
I4
ssg77
g1044
sg70
(lp1051
S'8000'
p1052
asbasbasbag63
(g79
g65
NtRp1053
(dp1054
g68
(dp1055
sg77
g481
sg70
(lp1056
g63
(g84
g65
NtRp1057
(dp1058
g68
(dp1059
g88
g89
ssg77
g1053
sg70
(lp1060
S'server_protocol'
p1061
asbag63
(g84
g65
NtRp1062
(dp1063
g68
(dp1064
g95
g96
ssg77
g1053
sg70
(lp1065
S':'
asbag63
(g84
g65
NtRp1066
(dp1067
g68
(dp1068
sg77
g1053
sg70
(lp1069
g63
(g64
g65
NtRp1070
(dp1071
g68
(dp1072
g76
I4
ssg77
g1066
sg70
(lp1073
S'HTTP/1.1'
p1074
asbasbasbag63
(g79
g65
NtRp1075
(dp1076
g68
(dp1077
sg77
g481
sg70
(lp1078
g63
(g84
g65
NtRp1079
(dp1080
g68
(dp1081
g88
g89
ssg77
g1075
sg70
(lp1082
S'server_software'
p1083
asbag63
(g84
g65
NtRp1084
(dp1085
g68
(dp1086
g95
g96
ssg77
g1075
sg70
(lp1087
S':'
asbag63
(g84
g65
NtRp1088
(dp1089
g68
(dp1090
sg77
g1075
sg70
(lp1091
g63
(g64
g65
NtRp1092
(dp1093
g68
(dp1094
g76
I4
ssg77
g1088
sg70
(lp1095
S'Rocket 1.2.6'
p1096
asbasbasbag63
(g79
g65
NtRp1097
(dp1098
g68
(dp1099
sg77
g481
sg70
(lp1100
g63
(g84
g65
NtRp1101
(dp1102
g68
(dp1103
g88
g89
ssg77
g1097
sg70
(lp1104
S'web2py_original_uri'
p1105
asbag63
(g84
g65
NtRp1106
(dp1107
g68
(dp1108
g95
g96
ssg77
g1097
sg70
(lp1109
S':'
asbag63
(g84
g65
NtRp1110
(dp1111
g68
(dp1112
sg77
g1097
sg70
(lp1113
g63
(g64
g65
NtRp1114
(dp1115
g68
(dp1116
g76
I4
ssg77
g1110
sg70
(lp1117
S'/'
asbasbasbag63
(g79
g65
NtRp1118
(dp1119
g68
(dp1120
sg77
g481
sg70
(lp1121
g63
(g84
g65
NtRp1122
(dp1123
g68
(dp1124
g88
g89
ssg77
g1118
sg70
(lp1125
S'web2py_path'
p1126
asbag63
(g84
g65
NtRp1127
(dp1128
g68
(dp1129
g95
g96
ssg77
g1118
sg70
(lp1130
S':'
asbag63
(g84
g65
NtRp1131
(dp1132
g68
(dp1133
sg77
g1118
sg70
(lp1134
g63
(g64
g65
NtRp1135
(dp1136
g68
(dp1137
g76
I4
ssg77
g1131
sg70
(lp1138
g528
asbasbasbag63
(g79
g65
NtRp1139
(dp1140
g68
(dp1141
sg77
g481
sg70
(lp1142
g63
(g84
g65
NtRp1143
(dp1144
g68
(dp1145
g88
g89
ssg77
g1139
sg70
(lp1146
S'web2py_version'
p1147
asbag63
(g84
g65
NtRp1148
(dp1149
g68
(dp1150
g95
g96
ssg77
g1139
sg70
(lp1151
S':'
asbag63
(g84
g65
NtRp1152
(dp1153
g68
(dp1154
sg77
g1139
sg70
(lp1155
g63
(g64
g65
NtRp1156
(dp1157
g68
(dp1158
g76
I4
ssg77
g1152
sg70
(lp1159
g63
(g72
g65
NtRp1160
(dp1161
g68
(dp1162
g76
I3
ssg77
Nsg70
(lp1163
g63
(g79
g65
NtRp1164
(dp1165
g68
(dp1166
sg77
g1160
sg70
(lp1167
g63
(g84
g65
NtRp1168
(dp1169
g68
(dp1170
sg77
g1164
sg70
(lp1171
g63
(g64
g65
NtRp1172
(dp1173
g68
(dp1174
g76
I3
ssg77
g1168
sg70
(lp1175
S'2'
asbasbasbag63
(g79
g65
NtRp1176
(dp1177
g68
(dp1178
sg77
g1160
sg70
(lp1179
g63
(g84
g65
NtRp1180
(dp1181
g68
(dp1182
sg77
g1176
sg70
(lp1183
g63
(g64
g65
NtRp1184
(dp1185
g68
(dp1186
g76
I3
ssg77
g1180
sg70
(lp1187
S'3'
asbasbasbag63
(g79
g65
NtRp1188
(dp1189
g68
(dp1190
sg77
g1160
sg70
(lp1191
g63
(g84
g65
NtRp1192
(dp1193
g68
(dp1194
sg77
g1188
sg70
(lp1195
g63
(g64
g65
NtRp1196
(dp1197
g68
(dp1198
g76
I3
ssg77
g1192
sg70
(lp1199
S'2'
asbasbasbag63
(g79
g65
NtRp1200
(dp1201
g68
(dp1202
sg77
g1160
sg70
(lp1203
g63
(g84
g65
NtRp1204
(dp1205
g68
(dp1206
sg77
g1200
sg70
(lp1207
g63
(g64
g65
NtRp1208
(dp1209
g68
(dp1210
g76
I3
ssg77
g1204
sg70
(lp1211
S'datetime.datetime(2012, 12, 17, 15, 3, 30)'
p1212
asbasbasbag63
(g79
g65
NtRp1213
(dp1214
g68
(dp1215
sg77
g1160
sg70
(lp1216
g63
(g84
g65
NtRp1217
(dp1218
g68
(dp1219
sg77
g1213
sg70
(lp1220
g63
(g64
g65
NtRp1221
(dp1222
g68
(dp1223
g76
I3
ssg77
g1217
sg70
(lp1224
S'stable'
p1225
asbasbasbasbasbasbasbag63
(g79
g65
NtRp1226
(dp1227
g68
(dp1228
sg77
g481
sg70
(lp1229
g63
(g84
g65
NtRp1230
(dp1231
g68
(dp1232
g88
g89
ssg77
g1226
sg70
(lp1233
S'wsgi_errors'
p1234
asbag63
(g84
g65
NtRp1235
(dp1236
g68
(dp1237
g95
g96
ssg77
g1226
sg70
(lp1238
S':'
asbag63
(g84
g65
NtRp1239
(dp1240
g68
(dp1241
sg77
g1226
sg70
(lp1242
g63
(g64
g65
NtRp1243
(dp1244
g68
(dp1245
g76
I4
ssg77
g1239
sg70
(lp1246
S"<open file '<stderr>', mode 'w' at 0x7fb679098270>"
p1247
asbasbasbag63
(g79
g65
NtRp1248
(dp1249
g68
(dp1250
sg77
g481
sg70
(lp1251
g63
(g84
g65
NtRp1252
(dp1253
g68
(dp1254
g88
g89
ssg77
g1248
sg70
(lp1255
S'wsgi_file_wrapper'
p1256
asbag63
(g84
g65
NtRp1257
(dp1258
g68
(dp1259
g95
g96
ssg77
g1248
sg70
(lp1260
S':'
asbag63
(g84
g65
NtRp1261
(dp1262
g68
(dp1263
sg77
g1248
sg70
(lp1264
g63
(g64
g65
NtRp1265
(dp1266
g68
(dp1267
g76
I4
ssg77
g1261
sg70
(lp1268
S'<class wsgiref.util.FileWrapper at 0x16034c8>'
p1269
asbasbasbag63
(g79
g65
NtRp1270
(dp1271
g68
(dp1272
sg77
g481
sg70
(lp1273
g63
(g84
g65
NtRp1274
(dp1275
g68
(dp1276
g88
g89
ssg77
g1270
sg70
(lp1277
S'wsgi_input'
p1278
asbag63
(g84
g65
NtRp1279
(dp1280
g68
(dp1281
g95
g96
ssg77
g1270
sg70
(lp1282
S':'
asbag63
(g84
g65
NtRp1283
(dp1284
g68
(dp1285
sg77
g1270
sg70
(lp1286
g63
(g64
g65
NtRp1287
(dp1288
g68
(dp1289
g76
I4
ssg77
g1283
sg70
(lp1290
S'<socket._fileobject object at 0x9d12d0>'
p1291
asbasbasbag63
(g79
g65
NtRp1292
(dp1293
g68
(dp1294
sg77
g481
sg70
(lp1295
g63
(g84
g65
NtRp1296
(dp1297
g68
(dp1298
g88
g89
ssg77
g1292
sg70
(lp1299
S'wsgi_multiprocess'
p1300
asbag63
(g84
g65
NtRp1301
(dp1302
g68
(dp1303
g95
g96
ssg77
g1292
sg70
(lp1304
S':'
asbag63
(g84
g65
NtRp1305
(dp1306
g68
(dp1307
sg77
g1292
sg70
(lp1308
g63
(g64
g65
NtRp1309
(dp1310
g68
(dp1311
g76
I4
ssg77
g1305
sg70
(lp1312
g106
asbasbasbag63
(g79
g65
NtRp1313
(dp1314
g68
(dp1315
sg77
g481
sg70
(lp1316
g63
(g84
g65
NtRp1317
(dp1318
g68
(dp1319
g88
g89
ssg77
g1313
sg70
(lp1320
S'wsgi_multithread'
p1321
asbag63
(g84
g65
NtRp1322
(dp1323
g68
(dp1324
g95
g96
ssg77
g1313
sg70
(lp1325
S':'
asbag63
(g84
g65
NtRp1326
(dp1327
g68
(dp1328
sg77
g1313
sg70
(lp1329
g63
(g64
g65
NtRp1330
(dp1331
g68
(dp1332
g76
I4
ssg77
g1326
sg70
(lp1333
S'True'
p1334
asbasbasbag63
(g79
g65
NtRp1335
(dp1336
g68
(dp1337
sg77
g481
sg70
(lp1338
g63
(g84
g65
NtRp1339
(dp1340
g68
(dp1341
g88
g89
ssg77
g1335
sg70
(lp1342
S'wsgi_run_once'
p1343
asbag63
(g84
g65
NtRp1344
(dp1345
g68
(dp1346
g95
g96
ssg77
g1335
sg70
(lp1347
S':'
asbag63
(g84
g65
NtRp1348
(dp1349
g68
(dp1350
sg77
g1335
sg70
(lp1351
g63
(g64
g65
NtRp1352
(dp1353
g68
(dp1354
g76
I4
ssg77
g1348
sg70
(lp1355
g106
asbasbasbag63
(g79
g65
NtRp1356
(dp1357
g68
(dp1358
sg77
g481
sg70
(lp1359
g63
(g84
g65
NtRp1360
(dp1361
g68
(dp1362
g88
g89
ssg77
g1356
sg70
(lp1363
S'wsgi_url_scheme'
p1364
asbag63
(g84
g65
NtRp1365
(dp1366
g68
(dp1367
g95
g96
ssg77
g1356
sg70
(lp1368
S':'
asbag63
(g84
g65
NtRp1369
(dp1370
g68
(dp1371
sg77
g1356
sg70
(lp1372
g63
(g64
g65
NtRp1373
(dp1374
g68
(dp1375
g76
I4
ssg77
g1369
sg70
(lp1376
S'http'
p1377
asbasbasbag63
(g79
g65
NtRp1378
(dp1379
g68
(dp1380
sg77
g481
sg70
(lp1381
g63
(g84
g65
NtRp1382
(dp1383
g68
(dp1384
g88
g89
ssg77
g1378
sg70
(lp1385
S'wsgi_version'
p1386
asbag63
(g84
g65
NtRp1387
(dp1388
g68
(dp1389
g95
g96
ssg77
g1378
sg70
(lp1390
S':'
asbag63
(g84
g65
NtRp1391
(dp1392
g68
(dp1393
sg77
g1378
sg70
(lp1394
g63
(g64
g65
NtRp1395
(dp1396
g68
(dp1397
g76
I4
ssg77
g1391
sg70
(lp1398
g63
(g72
g65
NtRp1399
(dp1400
g68
(dp1401
g76
I3
ssg77
Nsg70
(lp1402
g63
(g79
g65
NtRp1403
(dp1404
g68
(dp1405
sg77
g1399
sg70
(lp1406
g63
(g84
g65
NtRp1407
(dp1408
g68
(dp1409
sg77
g1403
sg70
(lp1410
g63
(g64
g65
NtRp1411
(dp1412
g68
(dp1413
g76
I3
ssg77
g1407
sg70
(lp1414
S'1'
asbasbasbag63
(g79
g65
NtRp1415
(dp1416
g68
(dp1417
sg77
g1399
sg70
(lp1418
g63
(g84
g65
NtRp1419
(dp1420
g68
(dp1421
sg77
g1415
sg70
(lp1422
g63
(g64
g65
NtRp1423
(dp1424
g68
(dp1425
g76
I3
ssg77
g1419
sg70
(lp1426
S'0'
asbasbasbasbasbasbasbasbasbasbasbag63
(g79
g65
NtRp1427
(dp1428
g68
(dp1429
sg77
g73
sg70
(lp1430
g63
(g84
g65
NtRp1431
(dp1432
g68
(dp1433
g88
g89
ssg77
g1427
sg70
(lp1434
S'extension'
p1435
asbag63
(g84
g65
NtRp1436
(dp1437
g68
(dp1438
g95
g96
ssg77
g1427
sg70
(lp1439
S':'
asbag63
(g84
g65
NtRp1440
(dp1441
g68
(dp1442
sg77
g1427
sg70
(lp1443
g63
(g64
g65
NtRp1444
(dp1445
g68
(dp1446
g76
I5
ssg77
g1440
sg70
(lp1447
S'html'
p1448
asbasbasbag63
(g79
g65
NtRp1449
(dp1450
g68
(dp1451
sg77
g73
sg70
(lp1452
g63
(g84
g65
NtRp1453
(dp1454
g68
(dp1455
g88
g89
ssg77
g1449
sg70
(lp1456
S'folder'
p1457
asbag63
(g84
g65
NtRp1458
(dp1459
g68
(dp1460
g95
g96
ssg77
g1449
sg70
(lp1461
S':'
asbag63
(g84
g65
NtRp1462
(dp1463
g68
(dp1464
sg77
g1449
sg70
(lp1465
g63
(g64
g65
NtRp1466
(dp1467
g68
(dp1468
g76
I5
ssg77
g1462
sg70
(lp1469
S'/var/www/hosts3/applications/projeto/'
p1470
asbasbasbag63
(g79
g65
NtRp1471
(dp1472
g68
(dp1473
sg77
g73
sg70
(lp1474
g63
(g84
g65
NtRp1475
(dp1476
g68
(dp1477
g88
g89
ssg77
g1471
sg70
(lp1478
S'function'
p1479
asbag63
(g84
g65
NtRp1480
(dp1481
g68
(dp1482
g95
g96
ssg77
g1471
sg70
(lp1483
S':'
asbag63
(g84
g65
NtRp1484
(dp1485
g68
(dp1486
sg77
g1471
sg70
(lp1487
g63
(g64
g65
NtRp1488
(dp1489
g68
(dp1490
g76
I5
ssg77
g1484
sg70
(lp1491
S'principal'
p1492
asbasbasbag63
(g79
g65
NtRp1493
(dp1494
g68
(dp1495
sg77
g73
sg70
(lp1496
g63
(g84
g65
NtRp1497
(dp1498
g68
(dp1499
g88
g89
ssg77
g1493
sg70
(lp1500
S'get_vars'
p1501
asbag63
(g84
g65
NtRp1502
(dp1503
g68
(dp1504
g95
g96
ssg77
g1493
sg70
(lp1505
S':'
asbag63
(g84
g65
NtRp1506
(dp1507
g68
(dp1508
sg77
g1493
sg70
(lp1509
g63
(g64
g65
NtRp1510
(dp1511
g68
(dp1512
g76
I5
ssg77
g1506
sg70
(lp1513
g63
(g72
g65
NtRp1514
(dp1515
g68
(dp1516
g76
I4
ssg77
Nsg70
(lp1517
sbasbasbasbag63
(g79
g65
NtRp1518
(dp1519
g68
(dp1520
sg77
g73
sg70
(lp1521
g63
(g84
g65
NtRp1522
(dp1523
g68
(dp1524
g88
g89
ssg77
g1518
sg70
(lp1525
S'global_settings'
p1526
asbag63
(g84
g65
NtRp1527
(dp1528
g68
(dp1529
g95
g96
ssg77
g1518
sg70
(lp1530
S':'
asbag63
(g84
g65
NtRp1531
(dp1532
g68
(dp1533
sg77
g1518
sg70
(lp1534
g63
(g64
g65
NtRp1535
(dp1536
g68
(dp1537
g76
I5
ssg77
g1531
sg70
(lp1538
g63
(g72
g65
NtRp1539
(dp1540
g68
(dp1541
g76
I4
ssg77
Nsg70
(lp1542
g63
(g79
g65
NtRp1543
(dp1544
g68
(dp1545
sg77
g1539
sg70
(lp1546
g63
(g84
g65
NtRp1547
(dp1548
g68
(dp1549
g88
g89
ssg77
g1543
sg70
(lp1550
g493
asbag63
(g84
g65
NtRp1551
(dp1552
g68
(dp1553
g95
g96
ssg77
g1543
sg70
(lp1554
S':'
asbag63
(g84
g65
NtRp1555
(dp1556
g68
(dp1557
sg77
g1543
sg70
(lp1558
g63
(g64
g65
NtRp1559
(dp1560
g68
(dp1561
g76
I4
ssg77
g1555
sg70
(lp1562
S"set(['/var/www/hosts3/applications/projeto/'])"
p1563
asbasbasbag63
(g79
g65
NtRp1564
(dp1565
g68
(dp1566
sg77
g1539
sg70
(lp1567
g63
(g84
g65
NtRp1568
(dp1569
g68
(dp1570
g88
g89
ssg77
g1564
sg70
(lp1571
g515
asbag63
(g84
g65
NtRp1572
(dp1573
g68
(dp1574
g95
g96
ssg77
g1564
sg70
(lp1575
S':'
asbag63
(g84
g65
NtRp1576
(dp1577
g68
(dp1578
sg77
g1564
sg70
(lp1579
g63
(g64
g65
NtRp1580
(dp1581
g68
(dp1582
g76
I4
ssg77
g1576
sg70
(lp1583
g528
asbasbasbag63
(g79
g65
NtRp1584
(dp1585
g68
(dp1586
sg77
g1539
sg70
(lp1587
g63
(g84
g65
NtRp1588
(dp1589
g68
(dp1590
g88
g89
ssg77
g1584
sg70
(lp1591
g537
asbag63
(g84
g65
NtRp1592
(dp1593
g68
(dp1594
g95
g96
ssg77
g1584
sg70
(lp1595
S':'
asbag63
(g84
g65
NtRp1596
(dp1597
g68
(dp1598
sg77
g1584
sg70
(lp1599
g63
(g64
g65
NtRp1600
(dp1601
g68
(dp1602
g76
I4
ssg77
g1596
sg70
(lp1603
g63
(g72
g65
NtRp1604
(dp1605
g68
(dp1606
g76
I3
ssg77
Nsg70
(lp1607
sbasbasbasbag63
(g79
g65
NtRp1608
(dp1609
g68
(dp1610
sg77
g1539
sg70
(lp1611
g63
(g84
g65
NtRp1612
(dp1613
g68
(dp1614
g88
g89
ssg77
g1608
sg70
(lp1615
g562
asbag63
(g84
g65
NtRp1616
(dp1617
g68
(dp1618
g95
g96
ssg77
g1608
sg70
(lp1619
S':'
asbag63
(g84
g65
NtRp1620
(dp1621
g68
(dp1622
sg77
g1608
sg70
(lp1623
g63
(g64
g65
NtRp1624
(dp1625
g68
(dp1626
g76
I4
ssg77
g1620
sg70
(lp1627
S"<Values at 0x167d170: {'verbose': False, 'ip': '127.0.0.1', 'with_scheduler': False, 'ips': [], 'shutdown_timeout': 5, 'taskbar': False, 'port': 8000, 'maxthreads': None, 'softcron': False, 'server_name': 'fernando-workstation', 'bpython': False, 'nogui': False, 'pid_filename': 'httpserver.pid', 'extcron': False, 'runcron': False, 'run_system_tests': False, 'test': None, 'folder': '/var/www/hosts3', 'config': '', 'minthreads': None, 'winservice': '', 'shell': None, 'run': '', 'log_filename': 'httpserver.log', 'debuglevel': 30, 'args': [''], 'socket_timeout': 5, 'ssl_ca_certificate': None, 'scheduler': None, 'profiler_filename': None, 'ssl_private_key': '', 'scheduler_groups': None, 'password': '123456', 'request_queue_size': 5, 'ssl_certificate': '', 'cronjob': False, 'numthreads': None, 'quiet': False, 'interfaces': None, 'import_models': False, 'timeout': 10, 'plain': False, 'nobanner': False}>"
p1628
asbasbasbag63
(g79
g65
NtRp1629
(dp1630
g68
(dp1631
sg77
g1539
sg70
(lp1632
g63
(g84
g65
NtRp1633
(dp1634
g68
(dp1635
g88
g89
ssg77
g1629
sg70
(lp1636
g584
asbag63
(g84
g65
NtRp1637
(dp1638
g68
(dp1639
g95
g96
ssg77
g1629
sg70
(lp1640
S':'
asbag63
(g84
g65
NtRp1641
(dp1642
g68
(dp1643
sg77
g1629
sg70
(lp1644
g63
(g64
g65
NtRp1645
(dp1646
g68
(dp1647
g76
I4
ssg77
g1641
sg70
(lp1648
S'set([])'
p1649
asbasbasbag63
(g79
g65
NtRp1650
(dp1651
g68
(dp1652
sg77
g1539
sg70
(lp1653
g63
(g84
g65
NtRp1654
(dp1655
g68
(dp1656
g88
g89
ssg77
g1650
sg70
(lp1657
g606
asbag63
(g84
g65
NtRp1658
(dp1659
g68
(dp1660
g95
g96
ssg77
g1650
sg70
(lp1661
S':'
asbag63
(g84
g65
NtRp1662
(dp1663
g68
(dp1664
sg77
g1650
sg70
(lp1665
g63
(g64
g65
NtRp1666
(dp1667
g68
(dp1668
g76
I4
ssg77
g1662
sg70
(lp1669
g106
asbasbasbag63
(g79
g65
NtRp1670
(dp1671
g68
(dp1672
sg77
g1539
sg70
(lp1673
g63
(g84
g65
NtRp1674
(dp1675
g68
(dp1676
g88
g89
ssg77
g1670
sg70
(lp1677
g627
asbag63
(g84
g65
NtRp1678
(dp1679
g68
(dp1680
g95
g96
ssg77
g1670
sg70
(lp1681
S':'
asbag63
(g84
g65
NtRp1682
(dp1683
g68
(dp1684
sg77
g1670
sg70
(lp1685
g63
(g64
g65
NtRp1686
(dp1687
g68
(dp1688
g76
I4
ssg77
g1682
sg70
(lp1689
g640
asbasbasbag63
(g79
g65
NtRp1690
(dp1691
g68
(dp1692
sg77
g1539
sg70
(lp1693
g63
(g84
g65
NtRp1694
(dp1695
g68
(dp1696
g88
g89
ssg77
g1690
sg70
(lp1697
g825
asbag63
(g84
g65
NtRp1698
(dp1699
g68
(dp1700
g95
g96
ssg77
g1690
sg70
(lp1701
S':'
asbag63
(g84
g65
NtRp1702
(dp1703
g68
(dp1704
sg77
g1690
sg70
(lp1705
g63
(g64
g65
NtRp1706
(dp1707
g68
(dp1708
g76
I4
ssg77
g1702
sg70
(lp1709
g106
asbasbasbag63
(g79
g65
NtRp1710
(dp1711
g68
(dp1712
sg77
g1539
sg70
(lp1713
g63
(g84
g65
NtRp1714
(dp1715
g68
(dp1716
g88
g89
ssg77
g1710
sg70
(lp1717
g846
asbag63
(g84
g65
NtRp1718
(dp1719
g68
(dp1720
g95
g96
ssg77
g1710
sg70
(lp1721
S':'
asbag63
(g84
g65
NtRp1722
(dp1723
g68
(dp1724
sg77
g1710
sg70
(lp1725
g63
(g64
g65
NtRp1726
(dp1727
g68
(dp1728
g76
I4
ssg77
g1722
sg70
(lp1729
g106
asbasbasbag63
(g79
g65
NtRp1730
(dp1731
g68
(dp1732
sg77
g1539
sg70
(lp1733
g63
(g84
g65
NtRp1734
(dp1735
g68
(dp1736
g88
g89
ssg77
g1730
sg70
(lp1737
S'local_hosts'
p1738
asbag63
(g84
g65
NtRp1739
(dp1740
g68
(dp1741
g95
g96
ssg77
g1730
sg70
(lp1742
S':'
asbag63
(g84
g65
NtRp1743
(dp1744
g68
(dp1745
sg77
g1730
sg70
(lp1746
g63
(g64
g65
NtRp1747
(dp1748
g68
(dp1749
g76
I4
ssg77
g1743
sg70
(lp1750
g63
(g72
g65
NtRp1751
(dp1752
g68
(dp1753
g76
I3
ssg77
Nsg70
(lp1754
g63
(g79
g65
NtRp1755
(dp1756
g68
(dp1757
sg77
g1751
sg70
(lp1758
g63
(g84
g65
NtRp1759
(dp1760
g68
(dp1761
sg77
g1755
sg70
(lp1762
g63
(g64
g65
NtRp1763
(dp1764
g68
(dp1765
g76
I3
ssg77
g1759
sg70
(lp1766
S'::1'
p1767
asbasbasbag63
(g79
g65
NtRp1768
(dp1769
g68
(dp1770
sg77
g1751
sg70
(lp1771
g63
(g84
g65
NtRp1772
(dp1773
g68
(dp1774
sg77
g1768
sg70
(lp1775
g63
(g64
g65
NtRp1776
(dp1777
g68
(dp1778
g76
I3
ssg77
g1772
sg70
(lp1779
S'::ffff:127.0.0.1'
p1780
asbasbasbag63
(g79
g65
NtRp1781
(dp1782
g68
(dp1783
sg77
g1751
sg70
(lp1784
g63
(g84
g65
NtRp1785
(dp1786
g68
(dp1787
sg77
g1781
sg70
(lp1788
g63
(g64
g65
NtRp1789
(dp1790
g68
(dp1791
g76
I3
ssg77
g1785
sg70
(lp1792
S'127.0.0.1'
p1793
asbasbasbag63
(g79
g65
NtRp1794
(dp1795
g68
(dp1796
sg77
g1751
sg70
(lp1797
g63
(g84
g65
NtRp1798
(dp1799
g68
(dp1800
sg77
g1794
sg70
(lp1801
g63
(g64
g65
NtRp1802
(dp1803
g68
(dp1804
g76
I3
ssg77
g1798
sg70
(lp1805
S'fernando-workstation'
p1806
asbasbasbasbasbasbasbag63
(g79
g65
NtRp1807
(dp1808
g68
(dp1809
sg77
g1539
sg70
(lp1810
g63
(g84
g65
NtRp1811
(dp1812
g68
(dp1813
g88
g89
ssg77
g1807
sg70
(lp1814
g1147
asbag63
(g84
g65
NtRp1815
(dp1816
g68
(dp1817
g95
g96
ssg77
g1807
sg70
(lp1818
S':'
asbag63
(g84
g65
NtRp1819
(dp1820
g68
(dp1821
sg77
g1807
sg70
(lp1822
g63
(g64
g65
NtRp1823
(dp1824
g68
(dp1825
g76
I4
ssg77
g1819
sg70
(lp1826
g63
(g72
g65
NtRp1827
(dp1828
g68
(dp1829
g76
I3
ssg77
Nsg70
(lp1830
g63
(g79
g65
NtRp1831
(dp1832
g68
(dp1833
sg77
g1827
sg70
(lp1834
g63
(g84
g65
NtRp1835
(dp1836
g68
(dp1837
sg77
g1831
sg70
(lp1838
g63
(g64
g65
NtRp1839
(dp1840
g68
(dp1841
g76
I3
ssg77
g1835
sg70
(lp1842
S'2'
asbasbasbag63
(g79
g65
NtRp1843
(dp1844
g68
(dp1845
sg77
g1827
sg70
(lp1846
g63
(g84
g65
NtRp1847
(dp1848
g68
(dp1849
sg77
g1843
sg70
(lp1850
g63
(g64
g65
NtRp1851
(dp1852
g68
(dp1853
g76
I3
ssg77
g1847
sg70
(lp1854
S'3'
asbasbasbag63
(g79
g65
NtRp1855
(dp1856
g68
(dp1857
sg77
g1827
sg70
(lp1858
g63
(g84
g65
NtRp1859
(dp1860
g68
(dp1861
sg77
g1855
sg70
(lp1862
g63
(g64
g65
NtRp1863
(dp1864
g68
(dp1865
g76
I3
ssg77
g1859
sg70
(lp1866
S'2'
asbasbasbag63
(g79
g65
NtRp1867
(dp1868
g68
(dp1869
sg77
g1827
sg70
(lp1870
g63
(g84
g65
NtRp1871
(dp1872
g68
(dp1873
sg77
g1867
sg70
(lp1874
g63
(g64
g65
NtRp1875
(dp1876
g68
(dp1877
g76
I3
ssg77
g1871
sg70
(lp1878
S'datetime.datetime(2012, 12, 17, 15, 3, 30)'
p1879
asbasbasbag63
(g79
g65
NtRp1880
(dp1881
g68
(dp1882
sg77
g1827
sg70
(lp1883
g63
(g84
g65
NtRp1884
(dp1885
g68
(dp1886
sg77
g1880
sg70
(lp1887
g63
(g64
g65
NtRp1888
(dp1889
g68
(dp1890
g76
I3
ssg77
g1884
sg70
(lp1891
g1225
asbasbasbasbasbasbasbasbasbasbasbag63
(g79
g65
NtRp1892
(dp1893
g68
(dp1894
sg77
g73
sg70
(lp1895
g63
(g84
g65
NtRp1896
(dp1897
g68
(dp1898
g88
g89
ssg77
g1892
sg70
(lp1899
S'is_https'
p1900
asbag63
(g84
g65
NtRp1901
(dp1902
g68
(dp1903
g95
g96
ssg77
g1892
sg70
(lp1904
S':'
asbag63
(g84
g65
NtRp1905
(dp1906
g68
(dp1907
sg77
g1892
sg70
(lp1908
g63
(g64
g65
NtRp1909
(dp1910
g68
(dp1911
g76
I5
ssg77
g1905
sg70
(lp1912
g106
asbasbasbag63
(g79
g65
NtRp1913
(dp1914
g68
(dp1915
sg77
g73
sg70
(lp1916
g63
(g84
g65
NtRp1917
(dp1918
g68
(dp1919
g88
g89
ssg77
g1913
sg70
(lp1920
S'is_local'
p1921
asbag63
(g84
g65
NtRp1922
(dp1923
g68
(dp1924
g95
g96
ssg77
g1913
sg70
(lp1925
S':'
asbag63
(g84
g65
NtRp1926
(dp1927
g68
(dp1928
sg77
g1913
sg70
(lp1929
g63
(g64
g65
NtRp1930
(dp1931
g68
(dp1932
g76
I5
ssg77
g1926
sg70
(lp1933
g1334
asbasbasbag63
(g79
g65
NtRp1934
(dp1935
g68
(dp1936
sg77
g73
sg70
(lp1937
g63
(g84
g65
NtRp1938
(dp1939
g68
(dp1940
g88
g89
ssg77
g1934
sg70
(lp1941
S'is_restful'
p1942
asbag63
(g84
g65
NtRp1943
(dp1944
g68
(dp1945
g95
g96
ssg77
g1934
sg70
(lp1946
S':'
asbag63
(g84
g65
NtRp1947
(dp1948
g68
(dp1949
sg77
g1934
sg70
(lp1950
g63
(g64
g65
NtRp1951
(dp1952
g68
(dp1953
g76
I5
ssg77
g1947
sg70
(lp1954
g106
asbasbasbag63
(g79
g65
NtRp1955
(dp1956
g68
(dp1957
sg77
g73
sg70
(lp1958
g63
(g84
g65
NtRp1959
(dp1960
g68
(dp1961
g88
g89
ssg77
g1955
sg70
(lp1962
S'now'
p1963
asbag63
(g84
g65
NtRp1964
(dp1965
g68
(dp1966
g95
g96
ssg77
g1955
sg70
(lp1967
S':'
asbag63
(g84
g65
NtRp1968
(dp1969
g68
(dp1970
sg77
g1955
sg70
(lp1971
g63
(g64
g65
NtRp1972
(dp1973
g68
(dp1974
g76
I5
ssg77
g1968
sg70
(lp1975
S'datetime.datetime(2013, 4, 29, 13, 8, 36, 576055)'
p1976
asbasbasbag63
(g79
g65
NtRp1977
(dp1978
g68
(dp1979
sg77
g73
sg70
(lp1980
g63
(g84
g65
NtRp1981
(dp1982
g68
(dp1983
g88
g89
ssg77
g1977
sg70
(lp1984
S'post_vars'
p1985
asbag63
(g84
g65
NtRp1986
(dp1987
g68
(dp1988
g95
g96
ssg77
g1977
sg70
(lp1989
S':'
asbag63
(g84
g65
NtRp1990
(dp1991
g68
(dp1992
sg77
g1977
sg70
(lp1993
g63
(g64
g65
NtRp1994
(dp1995
g68
(dp1996
g76
I5
ssg77
g1990
sg70
(lp1997
g63
(g72
g65
NtRp1998
(dp1999
g68
(dp2000
g76
I4
ssg77
Nsg70
(lp2001
sbasbasbasbag63
(g79
g65
NtRp2002
(dp2003
g68
(dp2004
sg77
g73
sg70
(lp2005
g63
(g84
g65
NtRp2006
(dp2007
g68
(dp2008
g88
g89
ssg77
g2002
sg70
(lp2009
S'url'
p2010
asbag63
(g84
g65
NtRp2011
(dp2012
g68
(dp2013
g95
g96
ssg77
g2002
sg70
(lp2014
S':'
asbag63
(g84
g65
NtRp2015
(dp2016
g68
(dp2017
sg77
g2002
sg70
(lp2018
g63
(g64
g65
NtRp2019
(dp2020
g68
(dp2021
g76
I5
ssg77
g2015
sg70
(lp2022
S'/'
asbasbasbag63
(g79
g65
NtRp2023
(dp2024
g68
(dp2025
sg77
g73
sg70
(lp2026
g63
(g84
g65
NtRp2027
(dp2028
g68
(dp2029
g88
g89
ssg77
g2023
sg70
(lp2030
S'utcnow'
p2031
asbag63
(g84
g65
NtRp2032
(dp2033
g68
(dp2034
g95
g96
ssg77
g2023
sg70
(lp2035
S':'
asbag63
(g84
g65
NtRp2036
(dp2037
g68
(dp2038
sg77
g2023
sg70
(lp2039
g63
(g64
g65
NtRp2040
(dp2041
g68
(dp2042
g76
I5
ssg77
g2036
sg70
(lp2043
S'datetime.datetime(2013, 4, 29, 16, 8, 36, 576129)'
p2044
asbasbasbag63
(g79
g65
NtRp2045
(dp2046
g68
(dp2047
sg77
g73
sg70
(lp2048
g63
(g84
g65
NtRp2049
(dp2050
g68
(dp2051
g88
g89
ssg77
g2045
sg70
(lp2052
S'uuid'
p2053
asbag63
(g84
g65
NtRp2054
(dp2055
g68
(dp2056
g95
g96
ssg77
g2045
sg70
(lp2057
S':'
asbag63
(g84
g65
NtRp2058
(dp2059
g68
(dp2060
sg77
g2045
sg70
(lp2061
g63
(g64
g65
NtRp2062
(dp2063
g68
(dp2064
g76
I5
ssg77
g2058
sg70
(lp2065
S'projeto/127.0.0.1.2013-04-29.13-08-36.45690520-aab8-40dc-8144-2fecd06c09a7'
p2066
asbasbasbag63
(g79
g65
NtRp2067
(dp2068
g68
(dp2069
sg77
g73
sg70
(lp2070
g63
(g84
g65
NtRp2071
(dp2072
g68
(dp2073
g88
g89
ssg77
g2067
sg70
(lp2074
S'vars'
p2075
asbag63
(g84
g65
NtRp2076
(dp2077
g68
(dp2078
g95
g96
ssg77
g2067
sg70
(lp2079
S':'
asbag63
(g84
g65
NtRp2080
(dp2081
g68
(dp2082
sg77
g2067
sg70
(lp2083
g63
(g64
g65
NtRp2084
(dp2085
g68
(dp2086
g76
I5
ssg77
g2080
sg70
(lp2087
g63
(g72
g65
NtRp2088
(dp2089
g68
(dp2090
g76
I4
ssg77
Nsg70
(lp2091
sbasbasbasbag63
(g79
g65
NtRp2092
(dp2093
g68
(dp2094
sg77
g73
sg70
(lp2095
g63
(g84
g65
NtRp2096
(dp2097
g68
(dp2098
g88
g89
ssg77
g2092
sg70
(lp2099
S'wsgi'
p2100
asbag63
(g84
g65
NtRp2101
(dp2102
g68
(dp2103
g95
g96
ssg77
g2092
sg70
(lp2104
S':'
asbag63
(g84
g65
NtRp2105
(dp2106
g68
(dp2107
sg77
g2092
sg70
(lp2108
g63
(g64
g65
NtRp2109
(dp2110
g68
(dp2111
g76
I5
ssg77
g2105
sg70
(lp2112
g63
(g72
g65
NtRp2113
(dp2114
g68
(dp2115
g76
I4
ssg77
Nsg70
(lp2116
g63
(g79
g65
NtRp2117
(dp2118
g68
(dp2119
sg77
g2113
sg70
(lp2120
g63
(g84
g65
NtRp2121
(dp2122
g68
(dp2123
g88
g89
ssg77
g2117
sg70
(lp2124
S'environ'
p2125
asbag63
(g84
g65
NtRp2126
(dp2127
g68
(dp2128
g95
g96
ssg77
g2117
sg70
(lp2129
S':'
asbag63
(g84
g65
NtRp2130
(dp2131
g68
(dp2132
sg77
g2117
sg70
(lp2133
g63
(g64
g65
NtRp2134
(dp2135
g68
(dp2136
g76
I4
ssg77
g2130
sg70
(lp2137
g63
(g72
g65
NtRp2138
(dp2139
g68
(dp2140
g76
I3
ssg77
Nsg70
(lp2141
g63
(g79
g65
NtRp2142
(dp2143
g68
(dp2144
sg77
g2138
sg70
(lp2145
g63
(g84
g65
NtRp2146
(dp2147
g68
(dp2148
g88
g89
ssg77
g2142
sg70
(lp2149
S'HTTP_ACCEPT'
p2150
asbag63
(g84
g65
NtRp2151
(dp2152
g68
(dp2153
g95
g96
ssg77
g2142
sg70
(lp2154
S':'
asbag63
(g84
g65
NtRp2155
(dp2156
g68
(dp2157
sg77
g2142
sg70
(lp2158
g63
(g64
g65
NtRp2159
(dp2160
g68
(dp2161
g76
I3
ssg77
g2155
sg70
(lp2162
g662
asbasbasbag63
(g79
g65
NtRp2163
(dp2164
g68
(dp2165
sg77
g2138
sg70
(lp2166
g63
(g84
g65
NtRp2167
(dp2168
g68
(dp2169
g88
g89
ssg77
g2163
sg70
(lp2170
S'HTTP_ACCEPT_CHARSET'
p2171
asbag63
(g84
g65
NtRp2172
(dp2173
g68
(dp2174
g95
g96
ssg77
g2163
sg70
(lp2175
S':'
asbag63
(g84
g65
NtRp2176
(dp2177
g68
(dp2178
sg77
g2163
sg70
(lp2179
g63
(g64
g65
NtRp2180
(dp2181
g68
(dp2182
g76
I3
ssg77
g2176
sg70
(lp2183
g684
asbasbasbag63
(g79
g65
NtRp2184
(dp2185
g68
(dp2186
sg77
g2138
sg70
(lp2187
g63
(g84
g65
NtRp2188
(dp2189
g68
(dp2190
g88
g89
ssg77
g2184
sg70
(lp2191
S'HTTP_ACCEPT_ENCODING'
p2192
asbag63
(g84
g65
NtRp2193
(dp2194
g68
(dp2195
g95
g96
ssg77
g2184
sg70
(lp2196
S':'
asbag63
(g84
g65
NtRp2197
(dp2198
g68
(dp2199
sg77
g2184
sg70
(lp2200
g63
(g64
g65
NtRp2201
(dp2202
g68
(dp2203
g76
I3
ssg77
g2197
sg70
(lp2204
g706
asbasbasbag63
(g79
g65
NtRp2205
(dp2206
g68
(dp2207
sg77
g2138
sg70
(lp2208
g63
(g84
g65
NtRp2209
(dp2210
g68
(dp2211
g88
g89
ssg77
g2205
sg70
(lp2212
S'HTTP_ACCEPT_LANGUAGE'
p2213
asbag63
(g84
g65
NtRp2214
(dp2215
g68
(dp2216
g95
g96
ssg77
g2205
sg70
(lp2217
S':'
asbag63
(g84
g65
NtRp2218
(dp2219
g68
(dp2220
sg77
g2205
sg70
(lp2221
g63
(g64
g65
NtRp2222
(dp2223
g68
(dp2224
g76
I3
ssg77
g2218
sg70
(lp2225
g728
asbasbasbag63
(g79
g65
NtRp2226
(dp2227
g68
(dp2228
sg77
g2138
sg70
(lp2229
g63
(g84
g65
NtRp2230
(dp2231
g68
(dp2232
g88
g89
ssg77
g2226
sg70
(lp2233
S'HTTP_CONNECTION'
p2234
asbag63
(g84
g65
NtRp2235
(dp2236
g68
(dp2237
g95
g96
ssg77
g2226
sg70
(lp2238
S':'
asbag63
(g84
g65
NtRp2239
(dp2240
g68
(dp2241
sg77
g2226
sg70
(lp2242
g63
(g64
g65
NtRp2243
(dp2244
g68
(dp2245
g76
I3
ssg77
g2239
sg70
(lp2246
g750
asbasbasbag63
(g79
g65
NtRp2247
(dp2248
g68
(dp2249
sg77
g2138
sg70
(lp2250
g63
(g84
g65
NtRp2251
(dp2252
g68
(dp2253
g88
g89
ssg77
g2247
sg70
(lp2254
S'HTTP_COOKIE'
p2255
asbag63
(g84
g65
NtRp2256
(dp2257
g68
(dp2258
g95
g96
ssg77
g2247
sg70
(lp2259
S':'
asbag63
(g84
g65
NtRp2260
(dp2261
g68
(dp2262
sg77
g2247
sg70
(lp2263
g63
(g64
g65
NtRp2264
(dp2265
g68
(dp2266
g76
I3
ssg77
g2260
sg70
(lp2267
g772
asbasbasbag63
(g79
g65
NtRp2268
(dp2269
g68
(dp2270
sg77
g2138
sg70
(lp2271
g63
(g84
g65
NtRp2272
(dp2273
g68
(dp2274
g88
g89
ssg77
g2268
sg70
(lp2275
S'HTTP_HOST'
p2276
asbag63
(g84
g65
NtRp2277
(dp2278
g68
(dp2279
g95
g96
ssg77
g2268
sg70
(lp2280
S':'
asbag63
(g84
g65
NtRp2281
(dp2282
g68
(dp2283
sg77
g2268
sg70
(lp2284
g63
(g64
g65
NtRp2285
(dp2286
g68
(dp2287
g76
I3
ssg77
g2281
sg70
(lp2288
g794
asbasbasbag63
(g79
g65
NtRp2289
(dp2290
g68
(dp2291
sg77
g2138
sg70
(lp2292
g63
(g84
g65
NtRp2293
(dp2294
g68
(dp2295
g88
g89
ssg77
g2289
sg70
(lp2296
S'HTTP_USER_AGENT'
p2297
asbag63
(g84
g65
NtRp2298
(dp2299
g68
(dp2300
g95
g96
ssg77
g2289
sg70
(lp2301
S':'
asbag63
(g84
g65
NtRp2302
(dp2303
g68
(dp2304
sg77
g2289
sg70
(lp2305
g63
(g64
g65
NtRp2306
(dp2307
g68
(dp2308
g76
I3
ssg77
g2302
sg70
(lp2309
g816
asbasbasbag63
(g79
g65
NtRp2310
(dp2311
g68
(dp2312
sg77
g2138
sg70
(lp2313
g63
(g84
g65
NtRp2314
(dp2315
g68
(dp2316
g88
g89
ssg77
g2310
sg70
(lp2317
S'PATH_INFO'
p2318
asbag63
(g84
g65
NtRp2319
(dp2320
g68
(dp2321
g95
g96
ssg77
g2310
sg70
(lp2322
S':'
asbag63
(g84
g65
NtRp2323
(dp2324
g68
(dp2325
sg77
g2310
sg70
(lp2326
g63
(g64
g65
NtRp2327
(dp2328
g68
(dp2329
g76
I3
ssg77
g2323
sg70
(lp2330
S'/'
asbasbasbag63
(g79
g65
NtRp2331
(dp2332
g68
(dp2333
sg77
g2138
sg70
(lp2334
g63
(g84
g65
NtRp2335
(dp2336
g68
(dp2337
g88
g89
ssg77
g2331
sg70
(lp2338
S'QUERY_STRING'
p2339
asbag63
(g84
g65
NtRp2340
(dp2341
g68
(dp2342
g95
g96
ssg77
g2331
sg70
(lp2343
S':'
asbag63
(g84
g65
NtRp2344
(dp2345
g68
(dp2346
sg77
g2331
sg70
(lp2347
g63
(g64
g65
NtRp2348
(dp2349
g68
(dp2350
g76
I3
ssg77
g2344
sg70
(lp2351
S''
asbasbasbag63
(g79
g65
NtRp2352
(dp2353
g68
(dp2354
sg77
g2138
sg70
(lp2355
g63
(g84
g65
NtRp2356
(dp2357
g68
(dp2358
g88
g89
ssg77
g2352
sg70
(lp2359
S'REMOTE_ADDR'
p2360
asbag63
(g84
g65
NtRp2361
(dp2362
g68
(dp2363
g95
g96
ssg77
g2352
sg70
(lp2364
S':'
asbag63
(g84
g65
NtRp2365
(dp2366
g68
(dp2367
sg77
g2352
sg70
(lp2368
g63
(g64
g65
NtRp2369
(dp2370
g68
(dp2371
g76
I3
ssg77
g2365
sg70
(lp2372
g218
asbasbasbag63
(g79
g65
NtRp2373
(dp2374
g68
(dp2375
sg77
g2138
sg70
(lp2376
g63
(g84
g65
NtRp2377
(dp2378
g68
(dp2379
g88
g89
ssg77
g2373
sg70
(lp2380
S'REMOTE_PORT'
p2381
asbag63
(g84
g65
NtRp2382
(dp2383
g68
(dp2384
g95
g96
ssg77
g2373
sg70
(lp2385
S':'
asbag63
(g84
g65
NtRp2386
(dp2387
g68
(dp2388
sg77
g2373
sg70
(lp2389
g63
(g64
g65
NtRp2390
(dp2391
g68
(dp2392
g76
I3
ssg77
g2386
sg70
(lp2393
g943
asbasbasbag63
(g79
g65
NtRp2394
(dp2395
g68
(dp2396
sg77
g2138
sg70
(lp2397
g63
(g84
g65
NtRp2398
(dp2399
g68
(dp2400
g88
g89
ssg77
g2394
sg70
(lp2401
S'REQUEST_METHOD'
p2402
asbag63
(g84
g65
NtRp2403
(dp2404
g68
(dp2405
g95
g96
ssg77
g2394
sg70
(lp2406
S':'
asbag63
(g84
g65
NtRp2407
(dp2408
g68
(dp2409
sg77
g2394
sg70
(lp2410
g63
(g64
g65
NtRp2411
(dp2412
g68
(dp2413
g76
I3
ssg77
g2407
sg70
(lp2414
g965
asbasbasbag63
(g79
g65
NtRp2415
(dp2416
g68
(dp2417
sg77
g2138
sg70
(lp2418
g63
(g84
g65
NtRp2419
(dp2420
g68
(dp2421
g88
g89
ssg77
g2415
sg70
(lp2422
S'REQUEST_URI'
p2423
asbag63
(g84
g65
NtRp2424
(dp2425
g68
(dp2426
g95
g96
ssg77
g2415
sg70
(lp2427
S':'
asbag63
(g84
g65
NtRp2428
(dp2429
g68
(dp2430
sg77
g2415
sg70
(lp2431
g63
(g64
g65
NtRp2432
(dp2433
g68
(dp2434
g76
I3
ssg77
g2428
sg70
(lp2435
g987
asbasbasbag63
(g79
g65
NtRp2436
(dp2437
g68
(dp2438
sg77
g2138
sg70
(lp2439
g63
(g84
g65
NtRp2440
(dp2441
g68
(dp2442
g88
g89
ssg77
g2436
sg70
(lp2443
S'SCRIPT_NAME'
p2444
asbag63
(g84
g65
NtRp2445
(dp2446
g68
(dp2447
g95
g96
ssg77
g2436
sg70
(lp2448
S':'
asbag63
(g84
g65
NtRp2449
(dp2450
g68
(dp2451
sg77
g2436
sg70
(lp2452
g63
(g64
g65
NtRp2453
(dp2454
g68
(dp2455
g76
I3
ssg77
g2449
sg70
(lp2456
S''
asbasbasbag63
(g79
g65
NtRp2457
(dp2458
g68
(dp2459
sg77
g2138
sg70
(lp2460
g63
(g84
g65
NtRp2461
(dp2462
g68
(dp2463
g88
g89
ssg77
g2457
sg70
(lp2464
S'SERVER_NAME'
p2465
asbag63
(g84
g65
NtRp2466
(dp2467
g68
(dp2468
g95
g96
ssg77
g2457
sg70
(lp2469
S':'
asbag63
(g84
g65
NtRp2470
(dp2471
g68
(dp2472
sg77
g2457
sg70
(lp2473
g63
(g64
g65
NtRp2474
(dp2475
g68
(dp2476
g76
I3
ssg77
g2470
sg70
(lp2477
g1030
asbasbasbag63
(g79
g65
NtRp2478
(dp2479
g68
(dp2480
sg77
g2138
sg70
(lp2481
g63
(g84
g65
NtRp2482
(dp2483
g68
(dp2484
g88
g89
ssg77
g2478
sg70
(lp2485
S'SERVER_PORT'
p2486
asbag63
(g84
g65
NtRp2487
(dp2488
g68
(dp2489
g95
g96
ssg77
g2478
sg70
(lp2490
S':'
asbag63
(g84
g65
NtRp2491
(dp2492
g68
(dp2493
sg77
g2478
sg70
(lp2494
g63
(g64
g65
NtRp2495
(dp2496
g68
(dp2497
g76
I3
ssg77
g2491
sg70
(lp2498
g1052
asbasbasbag63
(g79
g65
NtRp2499
(dp2500
g68
(dp2501
sg77
g2138
sg70
(lp2502
g63
(g84
g65
NtRp2503
(dp2504
g68
(dp2505
g88
g89
ssg77
g2499
sg70
(lp2506
S'SERVER_PROTOCOL'
p2507
asbag63
(g84
g65
NtRp2508
(dp2509
g68
(dp2510
g95
g96
ssg77
g2499
sg70
(lp2511
S':'
asbag63
(g84
g65
NtRp2512
(dp2513
g68
(dp2514
sg77
g2499
sg70
(lp2515
g63
(g64
g65
NtRp2516
(dp2517
g68
(dp2518
g76
I3
ssg77
g2512
sg70
(lp2519
g1074
asbasbasbag63
(g79
g65
NtRp2520
(dp2521
g68
(dp2522
sg77
g2138
sg70
(lp2523
g63
(g84
g65
NtRp2524
(dp2525
g68
(dp2526
g88
g89
ssg77
g2520
sg70
(lp2527
S'SERVER_SOFTWARE'
p2528
asbag63
(g84
g65
NtRp2529
(dp2530
g68
(dp2531
g95
g96
ssg77
g2520
sg70
(lp2532
S':'
asbag63
(g84
g65
NtRp2533
(dp2534
g68
(dp2535
sg77
g2520
sg70
(lp2536
g63
(g64
g65
NtRp2537
(dp2538
g68
(dp2539
g76
I3
ssg77
g2533
sg70
(lp2540
g1096
asbasbasbag63
(g79
g65
NtRp2541
(dp2542
g68
(dp2543
sg77
g2138
sg70
(lp2544
g63
(g84
g65
NtRp2545
(dp2546
g68
(dp2547
g88
g89
ssg77
g2541
sg70
(lp2548
S'WEB2PY_ORIGINAL_URI'
p2549
asbag63
(g84
g65
NtRp2550
(dp2551
g68
(dp2552
g95
g96
ssg77
g2541
sg70
(lp2553
S':'
asbag63
(g84
g65
NtRp2554
(dp2555
g68
(dp2556
sg77
g2541
sg70
(lp2557
g63
(g64
g65
NtRp2558
(dp2559
g68
(dp2560
g76
I3
ssg77
g2554
sg70
(lp2561
S'/'
asbasbasbag63
(g79
g65
NtRp2562
(dp2563
g68
(dp2564
sg77
g2138
sg70
(lp2565
g63
(g84
g65
NtRp2566
(dp2567
g68
(dp2568
g88
g89
ssg77
g2562
sg70
(lp2569
S'wsgi.errors'
p2570
asbag63
(g84
g65
NtRp2571
(dp2572
g68
(dp2573
g95
g96
ssg77
g2562
sg70
(lp2574
S':'
asbag63
(g84
g65
NtRp2575
(dp2576
g68
(dp2577
sg77
g2562
sg70
(lp2578
g63
(g64
g65
NtRp2579
(dp2580
g68
(dp2581
g76
I3
ssg77
g2575
sg70
(lp2582
S"<open file '<stderr>', mode 'w' at 0x7fb679098270>"
p2583
asbasbasbag63
(g79
g65
NtRp2584
(dp2585
g68
(dp2586
sg77
g2138
sg70
(lp2587
g63
(g84
g65
NtRp2588
(dp2589
g68
(dp2590
g88
g89
ssg77
g2584
sg70
(lp2591
S'wsgi.file_wrapper'
p2592
asbag63
(g84
g65
NtRp2593
(dp2594
g68
(dp2595
g95
g96
ssg77
g2584
sg70
(lp2596
S':'
asbag63
(g84
g65
NtRp2597
(dp2598
g68
(dp2599
sg77
g2584
sg70
(lp2600
g63
(g64
g65
NtRp2601
(dp2602
g68
(dp2603
g76
I3
ssg77
g2597
sg70
(lp2604
S'<class wsgiref.util.FileWrapper at 0x16034c8>'
p2605
asbasbasbag63
(g79
g65
NtRp2606
(dp2607
g68
(dp2608
sg77
g2138
sg70
(lp2609
g63
(g84
g65
NtRp2610
(dp2611
g68
(dp2612
g88
g89
ssg77
g2606
sg70
(lp2613
S'wsgi.input'
p2614
asbag63
(g84
g65
NtRp2615
(dp2616
g68
(dp2617
g95
g96
ssg77
g2606
sg70
(lp2618
S':'
asbag63
(g84
g65
NtRp2619
(dp2620
g68
(dp2621
sg77
g2606
sg70
(lp2622
g63
(g64
g65
NtRp2623
(dp2624
g68
(dp2625
g76
I3
ssg77
g2619
sg70
(lp2626
S'<cStringIO.StringO object at 0x1696180>'
p2627
asbasbasbag63
(g79
g65
NtRp2628
(dp2629
g68
(dp2630
sg77
g2138
sg70
(lp2631
g63
(g84
g65
NtRp2632
(dp2633
g68
(dp2634
g88
g89
ssg77
g2628
sg70
(lp2635
S'wsgi.multiprocess'
p2636
asbag63
(g84
g65
NtRp2637
(dp2638
g68
(dp2639
g95
g96
ssg77
g2628
sg70
(lp2640
S':'
asbag63
(g84
g65
NtRp2641
(dp2642
g68
(dp2643
sg77
g2628
sg70
(lp2644
g63
(g64
g65
NtRp2645
(dp2646
g68
(dp2647
g76
I3
ssg77
g2641
sg70
(lp2648
g106
asbasbasbag63
(g79
g65
NtRp2649
(dp2650
g68
(dp2651
sg77
g2138
sg70
(lp2652
g63
(g84
g65
NtRp2653
(dp2654
g68
(dp2655
g88
g89
ssg77
g2649
sg70
(lp2656
S'wsgi.multithread'
p2657
asbag63
(g84
g65
NtRp2658
(dp2659
g68
(dp2660
g95
g96
ssg77
g2649
sg70
(lp2661
S':'
asbag63
(g84
g65
NtRp2662
(dp2663
g68
(dp2664
sg77
g2649
sg70
(lp2665
g63
(g64
g65
NtRp2666
(dp2667
g68
(dp2668
g76
I3
ssg77
g2662
sg70
(lp2669
g1334
asbasbasbag63
(g79
g65
NtRp2670
(dp2671
g68
(dp2672
sg77
g2138
sg70
(lp2673
g63
(g84
g65
NtRp2674
(dp2675
g68
(dp2676
g88
g89
ssg77
g2670
sg70
(lp2677
S'wsgi.run_once'
p2678
asbag63
(g84
g65
NtRp2679
(dp2680
g68
(dp2681
g95
g96
ssg77
g2670
sg70
(lp2682
S':'
asbag63
(g84
g65
NtRp2683
(dp2684
g68
(dp2685
sg77
g2670
sg70
(lp2686
g63
(g64
g65
NtRp2687
(dp2688
g68
(dp2689
g76
I3
ssg77
g2683
sg70
(lp2690
g106
asbasbasbag63
(g79
g65
NtRp2691
(dp2692
g68
(dp2693
sg77
g2138
sg70
(lp2694
g63
(g84
g65
NtRp2695
(dp2696
g68
(dp2697
g88
g89
ssg77
g2691
sg70
(lp2698
S'wsgi.url_scheme'
p2699
asbag63
(g84
g65
NtRp2700
(dp2701
g68
(dp2702
g95
g96
ssg77
g2691
sg70
(lp2703
S':'
asbag63
(g84
g65
NtRp2704
(dp2705
g68
(dp2706
sg77
g2691
sg70
(lp2707
g63
(g64
g65
NtRp2708
(dp2709
g68
(dp2710
g76
I3
ssg77
g2704
sg70
(lp2711
g1377
asbasbasbag63
(g79
g65
NtRp2712
(dp2713
g68
(dp2714
sg77
g2138
sg70
(lp2715
g63
(g84
g65
NtRp2716
(dp2717
g68
(dp2718
g88
g89
ssg77
g2712
sg70
(lp2719
S'wsgi.version'
p2720
asbag63
(g84
g65
NtRp2721
(dp2722
g68
(dp2723
g95
g96
ssg77
g2712
sg70
(lp2724
S':'
asbag63
(g84
g65
NtRp2725
(dp2726
g68
(dp2727
sg77
g2712
sg70
(lp2728
g63
(g64
g65
NtRp2729
(dp2730
g68
(dp2731
g76
I3
ssg77
g2725
sg70
(lp2732
S'1'
asbasbasbasbasbasbasbasbasbasbasbasbasbsS'frames'
p2733
(lp2734
(dp2735
S'file'
p2736
S'/var/www/hosts3/gluon/restricted.py'
p2737
sS'dump'
p2738
(dp2739
S'environment'
p2740
S"{'A': <class 'gluon.html.A'>, 'Auth': <class 'gluon.tools.Auth'>, 'B': <class 'gluon.html.B'>, 'BEAUTIFY': <class 'gluon.html.BEAUTIFY'>, 'BODY': <class 'gluon.html.BODY'>, 'BR': <class 'gluon.html.BR'>, 'BUTTON': <class 'gluon.html.BUTTON'>, 'CAT': <class 'gluon.html.CAT'>, 'CENTER': <class 'gluon.html.CENTER'>, 'CLEANUP': <class 'gluon.validators.CLEANUP'>, ...}"
p2741
sS'ccode'
p2742
S'<code object <module> at 0x16779b0, file "/var/w...3/applications/projeto/models/models.py", line 1>'
p2743
ssS'lnum'
p2744
I212
sS'lines'
p2745
(dp2746
I207
S'    try:'
p2747
sI208
S'        if isinstance(code, types.CodeType):'
p2748
sI209
S'            ccode = code'
p2749
sI210
S'        else:'
p2750
sI211
S'            ccode = compile2(code, layer)'
p2751
sI212
S'        exec ccode in environment'
p2752
sI213
S'    except HTTP:'
p2753
sI214
S'        raise'
p2754
sI215
S'    except RestrictedError:'
p2755
sI216
S'        # do not encapsulate (obfuscate) the original RestrictedError'
p2756
ssS'call'
p2757
S'(code=\'Cliente = db.define_table("cliente",\\n      Field...\\n      Field("ip"),\\n      format="%(nome)s")\\n\\n\\n\\n\\n\', environment={\'A\': <class \'gluon.html.A\'>, \'Auth\': <class \'gluon.tools.Auth\'>, \'B\': <class \'gluon.html.B\'>, \'BEAUTIFY\': <class \'gluon.html.BEAUTIFY\'>, \'BODY\': <class \'gluon.html.BODY\'>, \'BR\': <class \'gluon.html.BR\'>, \'BUTTON\': <class \'gluon.html.BUTTON\'>, \'CAT\': <class \'gluon.html.CAT\'>, \'CENTER\': <class \'gluon.html.CENTER\'>, \'CLEANUP\': <class \'gluon.validators.CLEANUP\'>, ...}, layer=\'/var/www/hosts3/applications/projeto/models/models.py\')'
p2758
sS'func'
p2759
S'restricted'
p2760
sa(dp2761
g2736
S'/var/www/hosts3/applications/projeto/models/models.py'
p2762
sg2738
(dp2763
S'builtinformat'
p2764
S'<built-in function format>'
p2765
ssg2744
I7
sg2745
(dp2766
I2
S'      Field("nome", notnull=True, unique=True),'
p2767
sI3
S'      Field("email"),'
p2768
sI4
S'      Field("gtalk"),'
p2769
sI5
S'      Field("tel"),'
p2770
sI6
S'      #auth.signature'
p2771
sI7
S'      format="%(nome)s")'
p2772
sI8
S''
sI9
S'Servidor = db.define_table("servidor",'
p2773
sI10
S'      Field("nome", notnull=True),'
p2774
sI11
S'      format="%(nome)s")'
p2775
ssg2757
S'()'
p2776
sg2759
S'<module>'
p2777
sa(dp2778
g2736
S'/var/www/hosts3/gluon/dal.py'
p2779
sg2738
(dp2780
S'fields'
p2781
S'(<gluon.dal.Field object>, <gluon.dal.Field object>, <gluon.dal.Field object>, <gluon.dal.Field object>)'
p2782
sS'self'
p2783
S'<DAL uri="postgres:pg8000://******:123456@127.0.0.1/hosts3_ok">'
p2784
sS'args'
p2785
S"{'format': '%(nome)s'}"
p2786
sS'tablename'
p2787
S"'cliente'"
p2788
sS'table'
p2789
S'undefined'
p2790
sS'self.lazy_define_table'
p2791
S'<bound method DAL.lazy_define_table of <DAL uri=...res:pg8000://******:123456@127.0.0.1/hosts3_ok">>'
p2792
ssg2744
I7186
sg2745
(dp2793
I7181
S'                    % (tablename,invalid_args))'
p2794
sI7182
S'        if self._lazy_tables and not tablename in self._LAZY_TABLES:'
p2795
sI7183
S'            self._LAZY_TABLES[tablename] = (tablename,fields,args)'
p2796
sI7184
S'            table = None'
p2797
sI7185
S'        else:'
p2798
sI7186
S'            table = self.lazy_define_table(tablename,*fields,**args)'
p2799
sI7187
S'        if not tablename in self.tables:'
p2800
sI7188
S'            self.tables.append(tablename)'
p2801
sI7189
S'        return table'
p2802
sI7190
S''
ssg2757
S'(self=<DAL uri="postgres:pg8000://******:123456@127.0.0.1/hosts3_ok">, tablename=\'cliente\', *fields=(<gluon.dal.Field object>, <gluon.dal.Field object>, <gluon.dal.Field object>, <gluon.dal.Field object>), **args={\'format\': \'%(nome)s\'})'
p2803
sg2759
S'define_table'
p2804
sa(dp2805
g2736
S'/var/www/hosts3/gluon/dal.py'
p2806
sg2738
(dp2807
S'polymodel'
p2808
S'None'
p2809
ssg2744
I7222
sg2745
(dp2810
I7217
S"            polymodel = args_get('polymodel',None)"
p2811
sI7218
S'            try:'
p2812
sI7219
S'                GLOBAL_LOCKER.acquire()'
p2813
sI7220
S'                self._adapter.create_table(table,migrate=migrate,'
p2814
sI7221
S'                                           fake_migrate=fake_migrate,'
p2815
sI7222
S'                                           polymodel=polymodel)'
p2816
sI7223
S'            finally:'
p2817
sI7224
S'                GLOBAL_LOCKER.release()'
p2818
sI7225
S'        else:'
p2819
sI7226
S'            table._dbt = None'
p2820
ssg2757
S'(self=<DAL uri="postgres:pg8000://******:123456@127.0.0.1/hosts3_ok">, tablename=\'cliente\', *fields=(<gluon.dal.Field object>, <gluon.dal.Field object>, <gluon.dal.Field object>, <gluon.dal.Field object>), **args={\'format\': \'%(nome)s\'})'
p2821
sg2759
S'lazy_define_table'
p2822
sa(dp2823
g2736
S'/var/www/hosts3/gluon/dal.py'
p2824
sg2738
(dp2825
S'fake_migrate'
p2826
g106
ssg2744
I963
sg2745
(dp2827
I960
S'                self.migrate_table(table,'
p2828
sI961
S'                                   sql_fields, sql_fields_old,'
p2829
sI962
S'                                   sql_fields_aux, logfile,'
p2830
sI963
S'                                   fake_migrate=fake_migrate)'
p2831
sI964
S'        self.file_close(logfile)'
p2832
sI965
S'        return query'
p2833
sI966
S''
sI967
S'    def migrate_table('
p2834
sI958
S'            self.file_close(tfile)'
p2835
sI959
S'            if sql_fields != sql_fields_old:'
p2836
ssg2757
S'(self=<gluon.dal.PostgreSQLAdapter object>, table=<Table cliente (id,nome,email,gtalk,tel)>, migrate=True, fake_migrate=False, polymodel=None)'
p2837
sg2759
S'create_table'
p2838
sa(dp2839
g2736
S'/var/www/hosts3/gluon/dal.py'
p2840
sg2738
(dp2841
S'table'
p2842
S'<Table cliente (id,nome,email,gtalk,tel)>'
p2843
sS'self'
p2844
S'<gluon.dal.PostgreSQLAdapter object>'
p2845
sS'tfile'
p2846
g2790
sS'table._dbt'
p2847
S"'/var/www/hosts3/applications/projeto/databases/c76e61eb1a0ee4223dd9557133d33caf_cliente.table'"
p2848
sS'self.file_open'
p2849
S'<bound method PostgreSQLAdapter.file_open of <gluon.dal.PostgreSQLAdapter object>>'
p2850
ssg2744
I1082
sg2745
(dp2851
I1077
S'                            self.file_close(tfile)'
p2852
sI1078
S"                            logfile.write('success!\\n')"
p2853
sI1079
S'                    else:'
p2854
sI1080
S"                        logfile.write('faked!\\n')"
p2855
sI1081
S'            elif metadata_change:'
p2856
sI1082
S"                tfile = self.file_open(table._dbt, 'w')"
p2857
sI1083
S'                pickle.dump(sql_fields_current, tfile)'
p2858
sI1084
S'                self.file_close(tfile)'
p2859
sI1085
S''
sI1086
S'        if metadata_change and \\'
p2860
ssg2757
S"(self=<gluon.dal.PostgreSQLAdapter object>, table=<Table cliente (id,nome,email,gtalk,tel)>, sql_fields={'email': {'length': 512, 'notnull': False, 'sortable': 3, 'sql': 'VARCHAR(512)', 'type': 'string', 'unique': False}, 'gtalk': {'length': 512, 'notnull': False, 'sortable': 4, 'sql': 'VARCHAR(512)', 'type': 'string', 'unique': False}, 'id': {'length': 512, 'notnull': False, 'sortable': 1, 'sql': 'SERIAL PRIMARY KEY', 'type': 'id', 'unique': False}, 'nome': {'length': 512, 'notnull': True, 'sortable': 2, 'sql': 'VARCHAR(512) NOT NULL UNIQUE', 'type': 'string', 'unique': True}, 'tel': {'length': 512, 'notnull': False, 'sortable': 5, 'sql': 'VARCHAR(512)', 'type': 'string', 'unique': False}}, sql_fields_old={'email': {'length': 512, 'notnull': False, 'sortable': 3, 'sql': 'VARCHAR(512)', 'type': 'string', 'unique': False}, 'gtalk': {'length': 512, 'notnull': False, 'sortable': 4, 'sql': 'VARCHAR(512)', 'type': 'string', 'unique': False}, 'id': {'length': 512, 'notnull': False, 'sortable': 1, 'sql': 'SERIAL PRIMARY KEY', 'type': 'id', 'unique': False}, 'nome': {'length': 512, 'notnull': True, 'sortable': 2, 'sql': 'VARCHAR(512) NOT NULL UNIQUE', 'type': 'string', 'unique': True}}, sql_fields_aux={'email': {'sql': 'VARCHAR(512)'}, 'gtalk': {'sql': 'VARCHAR(512)'}, 'id': {'sql': 'SERIAL PRIMARY KEY'}, 'nome': {'sql': 'VARCHAR(512) NOT NULL UNIQUE'}, 'tel': {'sql': 'VARCHAR(512)'}}, logfile=<gluon.portalocker.LockedFile object>, fake_migrate=False)"
p2861
sg2759
S'migrate_table'
p2862
sa(dp2863
g2736
S'/var/www/hosts3/gluon/dal.py'
p2864
sg2738
(dp2865
S'mode'
p2866
S"'w'"
p2867
sS'portalocker.LockedFile'
p2868
S"<class 'gluon.portalocker.LockedFile'>"
p2869
sS'global portalocker'
p2870
S"<module 'gluon.portalocker' from '/var/www/hosts3/gluon/portalocker.pyc'>"
p2871
sS'fileobj'
p2872
g2790
sS'filename'
p2873
S"'/var/www/hosts3/applications/projeto/databases/c76e61eb1a0ee4223dd9557133d33caf_cliente.table'"
p2874
ssg2744
I673
sg2745
(dp2875
I672
S'        if have_portalocker and lock:'
p2876
sI673
S'            fileobj = portalocker.LockedFile(filename,mode)'
p2877
sI674
S'        else:'
p2878
sI675
S'            fileobj = open(filename,mode)'
p2879
sI676
S'        return fileobj'
p2880
sI677
S''
sI668
S"    def file_open(self, filename, mode='rb', lock=True):"
p2881
sI669
S'        """'
p2882
sI670
S'        to be used ONLY for files that on GAE may not be on filesystem'
p2883
sI671
S'        """'
p2884
ssg2757
S"(self=<gluon.dal.PostgreSQLAdapter object>, filename='/var/www/hosts3/applications/projeto/databases/c76e61eb1a0ee4223dd9557133d33caf_cliente.table', mode='w', lock=True)"
p2885
sg2759
S'file_open'
p2886
sa(dp2887
g2736
S'/var/www/hosts3/gluon/portalocker.py'
p2888
sg2738
(dp2889
S'mode.replace'
p2890
S'<built-in method replace of str object>'
p2891
sS'self'
p2892
S'<gluon.portalocker.LockedFile object>'
p2893
sS'filename'
p2894
S"'/var/www/hosts3/applications/projeto/databases/c76e61eb1a0ee4223dd9557133d33caf_cliente.table'"
p2895
sS'mode'
p2896
S"'w'"
p2897
sS'self.file'
p2898
S'None'
p2899
sS'builtinopen'
p2900
S'<built-in function open>'
p2901
ssg2744
I121
sg2745
(dp2902
I116
S'        self.file = None'
p2903
sI117
S"        if 'r' in mode:"
p2904
sI118
S'            self.file = open(filename, mode)'
p2905
sI119
S'            lock(self.file, LOCK_SH)'
p2906
sI120
S"        elif 'w' in mode or 'a' in mode:"
p2907
sI121
S"            self.file = open(filename, mode.replace('w', 'a'))"
p2908
sI122
S'            lock(self.file, LOCK_EX)'
p2909
sI123
S"            if not 'a' in mode:"
p2910
sI124
S'                self.file.seek(0)'
p2911
sI125
S'                self.file.truncate()'
p2912
ssg2757
S"(self=<gluon.portalocker.LockedFile object>, filename='/var/www/hosts3/applications/projeto/databases/c76e61eb1a0ee4223dd9557133d33caf_cliente.table', mode='w')"
p2913
sg2759
g22
sasS'pyver'
p2914
S'Python 2.7.3: /usr/bin/python'
p2915
sS'session'
p2916
g63
(g64
g65
NtRp2917
(dp2918
g68
(dp2919
sg70
(lp2920
g63
(g72
g65
NtRp2921
(dp2922
g68
(dp2923
g76
I5
ssg77
Nsg70
(lp2924
sbasbsS'etype'
p2925
S"<type 'exceptions.IOError'>"
p2926
sS'date'
p2927
S'Mon Apr 29 13:08:42 2013'
p2928
sS'response'
p2929
g63
(g64
g65
NtRp2930
(dp2931
g68
(dp2932
sg70
(lp2933
g63
(g72
g65
NtRp2934
(dp2935
g68
(dp2936
g76
I5
ssg77
Nsg70
(lp2937
g63
(g79
g65
NtRp2938
(dp2939
g68
(dp2940
sg77
g2934
sg70
(lp2941
g63
(g84
g65
NtRp2942
(dp2943
g68
(dp2944
g88
g89
ssg77
g2938
sg70
(lp2945
g161
asbag63
(g84
g65
NtRp2946
(dp2947
g68
(dp2948
g95
g96
ssg77
g2938
sg70
(lp2949
S':'
asbag63
(g84
g65
NtRp2950
(dp2951
g68
(dp2952
sg77
g2938
sg70
(lp2953
g63
(g64
g65
NtRp2954
(dp2955
g68
(dp2956
g76
I5
ssg77
g2950
sg70
(lp2957
S'<cStringIO.StringO object at 0x16963e8>'
p2958
asbasbasbag63
(g79
g65
NtRp2959
(dp2960
g68
(dp2961
sg77
g2934
sg70
(lp2962
g63
(g84
g65
NtRp2963
(dp2964
g68
(dp2965
g88
g89
ssg77
g2959
sg70
(lp2966
g249
asbag63
(g84
g65
NtRp2967
(dp2968
g68
(dp2969
g95
g96
ssg77
g2959
sg70
(lp2970
S':'
asbag63
(g84
g65
NtRp2971
(dp2972
g68
(dp2973
sg77
g2959
sg70
(lp2974
g63
(g64
g65
NtRp2975
(dp2976
g68
(dp2977
g76
I5
ssg77
g2971
sg70
(lp2978
g63
(g72
g65
NtRp2979
(dp2980
g68
(dp2981
g76
I4
ssg77
Nsg70
(lp2982
g63
(g79
g65
NtRp2983
(dp2984
g68
(dp2985
sg77
g2979
sg70
(lp2986
g63
(g84
g65
NtRp2987
(dp2988
g68
(dp2989
g88
g89
ssg77
g2983
sg70
(lp2990
S'session_id_projeto'
p2991
asbag63
(g84
g65
NtRp2992
(dp2993
g68
(dp2994
g95
g96
ssg77
g2983
sg70
(lp2995
S':'
asbag63
(g84
g65
NtRp2996
(dp2997
g68
(dp2998
sg77
g2983
sg70
(lp2999
g63
(g64
g65
NtRp3000
(dp3001
g68
(dp3002
g76
I4
ssg77
g2996
sg70
(lp3003
g287
ag63
(g72
g65
NtRp3004
(dp3005
g68
(dp3006
g76
I3
ssg77
Nsg70
(lp3007
g63
(g79
g65
NtRp3008
(dp3009
g68
(dp3010
sg77
g3004
sg70
(lp3011
g63
(g84
g65
NtRp3012
(dp3013
g68
(dp3014
g88
g89
ssg77
g3008
sg70
(lp3015
g300
asbag63
(g84
g65
NtRp3016
(dp3017
g68
(dp3018
g95
g96
ssg77
g3008
sg70
(lp3019
S':'
asbag63
(g84
g65
NtRp3020
(dp3021
g68
(dp3022
sg77
g3008
sg70
(lp3023
g63
(g64
g65
NtRp3024
(dp3025
g68
(dp3026
g76
I3
ssg77
g3020
sg70
(lp3027
S''
asbasbasbag63
(g79
g65
NtRp3028
(dp3029
g68
(dp3030
sg77
g3004
sg70
(lp3031
g63
(g84
g65
NtRp3032
(dp3033
g68
(dp3034
g88
g89
ssg77
g3028
sg70
(lp3035
g321
asbag63
(g84
g65
NtRp3036
(dp3037
g68
(dp3038
g95
g96
ssg77
g3028
sg70
(lp3039
S':'
asbag63
(g84
g65
NtRp3040
(dp3041
g68
(dp3042
sg77
g3028
sg70
(lp3043
g63
(g64
g65
NtRp3044
(dp3045
g68
(dp3046
g76
I3
ssg77
g3040
sg70
(lp3047
S''
asbasbasbag63
(g79
g65
NtRp3048
(dp3049
g68
(dp3050
sg77
g3004
sg70
(lp3051
g63
(g84
g65
NtRp3052
(dp3053
g68
(dp3054
g88
g89
ssg77
g3048
sg70
(lp3055
g342
asbag63
(g84
g65
NtRp3056
(dp3057
g68
(dp3058
g95
g96
ssg77
g3048
sg70
(lp3059
S':'
asbag63
(g84
g65
NtRp3060
(dp3061
g68
(dp3062
sg77
g3048
sg70
(lp3063
g63
(g64
g65
NtRp3064
(dp3065
g68
(dp3066
g76
I3
ssg77
g3060
sg70
(lp3067
S''
asbasbasbag63
(g79
g65
NtRp3068
(dp3069
g68
(dp3070
sg77
g3004
sg70
(lp3071
g63
(g84
g65
NtRp3072
(dp3073
g68
(dp3074
g88
g89
ssg77
g3068
sg70
(lp3075
g363
asbag63
(g84
g65
NtRp3076
(dp3077
g68
(dp3078
g95
g96
ssg77
g3068
sg70
(lp3079
S':'
asbag63
(g84
g65
NtRp3080
(dp3081
g68
(dp3082
sg77
g3068
sg70
(lp3083
g63
(g64
g65
NtRp3084
(dp3085
g68
(dp3086
g76
I3
ssg77
g3080
sg70
(lp3087
S''
asbasbasbag63
(g79
g65
NtRp3088
(dp3089
g68
(dp3090
sg77
g3004
sg70
(lp3091
g63
(g84
g65
NtRp3092
(dp3093
g68
(dp3094
g88
g89
ssg77
g3088
sg70
(lp3095
g384
asbag63
(g84
g65
NtRp3096
(dp3097
g68
(dp3098
g95
g96
ssg77
g3088
sg70
(lp3099
S':'
asbag63
(g84
g65
NtRp3100
(dp3101
g68
(dp3102
sg77
g3088
sg70
(lp3103
g63
(g64
g65
NtRp3104
(dp3105
g68
(dp3106
g76
I3
ssg77
g3100
sg70
(lp3107
S''
asbasbasbag63
(g79
g65
NtRp3108
(dp3109
g68
(dp3110
sg77
g3004
sg70
(lp3111
g63
(g84
g65
NtRp3112
(dp3113
g68
(dp3114
g88
g89
ssg77
g3108
sg70
(lp3115
g405
asbag63
(g84
g65
NtRp3116
(dp3117
g68
(dp3118
g95
g96
ssg77
g3108
sg70
(lp3119
S':'
asbag63
(g84
g65
NtRp3120
(dp3121
g68
(dp3122
sg77
g3108
sg70
(lp3123
g63
(g64
g65
NtRp3124
(dp3125
g68
(dp3126
g76
I3
ssg77
g3120
sg70
(lp3127
S'/'
asbasbasbag63
(g79
g65
NtRp3128
(dp3129
g68
(dp3130
sg77
g3004
sg70
(lp3131
g63
(g84
g65
NtRp3132
(dp3133
g68
(dp3134
g88
g89
ssg77
g3128
sg70
(lp3135
g426
asbag63
(g84
g65
NtRp3136
(dp3137
g68
(dp3138
g95
g96
ssg77
g3128
sg70
(lp3139
S':'
asbag63
(g84
g65
NtRp3140
(dp3141
g68
(dp3142
sg77
g3128
sg70
(lp3143
g63
(g64
g65
NtRp3144
(dp3145
g68
(dp3146
g76
I3
ssg77
g3140
sg70
(lp3147
S''
asbasbasbag63
(g79
g65
NtRp3148
(dp3149
g68
(dp3150
sg77
g3004
sg70
(lp3151
g63
(g84
g65
NtRp3152
(dp3153
g68
(dp3154
g88
g89
ssg77
g3148
sg70
(lp3155
g447
asbag63
(g84
g65
NtRp3156
(dp3157
g68
(dp3158
g95
g96
ssg77
g3148
sg70
(lp3159
S':'
asbag63
(g84
g65
NtRp3160
(dp3161
g68
(dp3162
sg77
g3148
sg70
(lp3163
g63
(g64
g65
NtRp3164
(dp3165
g68
(dp3166
g76
I3
ssg77
g3160
sg70
(lp3167
S''
asbasbasbasbasbasbasbasbasbasbasbag63
(g79
g65
NtRp3168
(dp3169
g68
(dp3170
sg77
g2934
sg70
(lp3171
g63
(g84
g65
NtRp3172
(dp3173
g68
(dp3174
g88
g89
ssg77
g3168
sg70
(lp3175
S'delimiters'
p3176
asbag63
(g84
g65
NtRp3177
(dp3178
g68
(dp3179
g95
g96
ssg77
g3168
sg70
(lp3180
S':'
asbag63
(g84
g65
NtRp3181
(dp3182
g68
(dp3183
sg77
g3168
sg70
(lp3184
g63
(g64
g65
NtRp3185
(dp3186
g68
(dp3187
g76
I5
ssg77
g3181
sg70
(lp3188
g63
(g72
g65
NtRp3189
(dp3190
g68
(dp3191
g76
I4
ssg77
Nsg70
(lp3192
g63
(g79
g65
NtRp3193
(dp3194
g68
(dp3195
sg77
g3189
sg70
(lp3196
g63
(g84
g65
NtRp3197
(dp3198
g68
(dp3199
sg77
g3193
sg70
(lp3200
g63
(g64
g65
NtRp3201
(dp3202
g68
(dp3203
g76
I4
ssg77
g3197
sg70
(lp3204
S'{{'
p3205
asbasbasbag63
(g79
g65
NtRp3206
(dp3207
g68
(dp3208
sg77
g3189
sg70
(lp3209
g63
(g84
g65
NtRp3210
(dp3211
g68
(dp3212
sg77
g3206
sg70
(lp3213
g63
(g64
g65
NtRp3214
(dp3215
g68
(dp3216
g76
I4
ssg77
g3210
sg70
(lp3217
S'}}'
p3218
asbasbasbasbasbasbasbag63
(g79
g65
NtRp3219
(dp3220
g68
(dp3221
sg77
g2934
sg70
(lp3222
g63
(g84
g65
NtRp3223
(dp3224
g68
(dp3225
g88
g89
ssg77
g3219
sg70
(lp3226
S'files'
p3227
asbag63
(g84
g65
NtRp3228
(dp3229
g68
(dp3230
g95
g96
ssg77
g3219
sg70
(lp3231
S':'
asbag63
(g84
g65
NtRp3232
(dp3233
g68
(dp3234
sg77
g3219
sg70
(lp3235
g63
(g64
g65
NtRp3236
(dp3237
g68
(dp3238
g76
I5
ssg77
g3232
sg70
(lp3239
g63
(g72
g65
NtRp3240
(dp3241
g68
(dp3242
g76
I4
ssg77
Nsg70
(lp3243
sbasbasbasbag63
(g79
g65
NtRp3244
(dp3245
g68
(dp3246
sg77
g2934
sg70
(lp3247
g63
(g84
g65
NtRp3248
(dp3249
g68
(dp3250
g88
g89
ssg77
g3244
sg70
(lp3251
S'flash'
p3252
asbag63
(g84
g65
NtRp3253
(dp3254
g68
(dp3255
g95
g96
ssg77
g3244
sg70
(lp3256
S':'
asbag63
(g84
g65
NtRp3257
(dp3258
g68
(dp3259
sg77
g3244
sg70
(lp3260
g63
(g64
g65
NtRp3261
(dp3262
g68
(dp3263
g76
I5
ssg77
g3257
sg70
(lp3264
S''
asbasbasbag63
(g79
g65
NtRp3265
(dp3266
g68
(dp3267
sg77
g2934
sg70
(lp3268
g63
(g84
g65
NtRp3269
(dp3270
g68
(dp3271
g88
g89
ssg77
g3265
sg70
(lp3272
S'generic_patterns'
p3273
asbag63
(g84
g65
NtRp3274
(dp3275
g68
(dp3276
g95
g96
ssg77
g3265
sg70
(lp3277
S':'
asbag63
(g84
g65
NtRp3278
(dp3279
g68
(dp3280
sg77
g3265
sg70
(lp3281
g63
(g64
g65
NtRp3282
(dp3283
g68
(dp3284
g76
I5
ssg77
g3278
sg70
(lp3285
g63
(g72
g65
NtRp3286
(dp3287
g68
(dp3288
g76
I4
ssg77
Nsg70
(lp3289
g63
(g79
g65
NtRp3290
(dp3291
g68
(dp3292
sg77
g3286
sg70
(lp3293
g63
(g84
g65
NtRp3294
(dp3295
g68
(dp3296
sg77
g3290
sg70
(lp3297
g63
(g64
g65
NtRp3298
(dp3299
g68
(dp3300
g76
I4
ssg77
g3294
sg70
(lp3301
S'*'
asbasbasbasbasbasbasbag63
(g79
g65
NtRp3302
(dp3303
g68
(dp3304
sg77
g2934
sg70
(lp3305
g63
(g84
g65
NtRp3306
(dp3307
g68
(dp3308
g88
g89
ssg77
g3302
sg70
(lp3309
S'google_analytics_id'
p3310
asbag63
(g84
g65
NtRp3311
(dp3312
g68
(dp3313
g95
g96
ssg77
g3302
sg70
(lp3314
S':'
asbag63
(g84
g65
NtRp3315
(dp3316
g68
(dp3317
sg77
g3302
sg70
(lp3318
g63
(g64
g65
NtRp3319
(dp3320
g68
(dp3321
g76
I5
ssg77
g3315
sg70
(lp3322
S'None'
p3323
asbasbasbag63
(g79
g65
NtRp3324
(dp3325
g68
(dp3326
sg77
g2934
sg70
(lp3327
g63
(g84
g65
NtRp3328
(dp3329
g68
(dp3330
g88
g89
ssg77
g3324
sg70
(lp3331
S'headers'
p3332
asbag63
(g84
g65
NtRp3333
(dp3334
g68
(dp3335
g95
g96
ssg77
g3324
sg70
(lp3336
S':'
asbag63
(g84
g65
NtRp3337
(dp3338
g68
(dp3339
sg77
g3324
sg70
(lp3340
g63
(g64
g65
NtRp3341
(dp3342
g68
(dp3343
g76
I5
ssg77
g3337
sg70
(lp3344
g63
(g72
g65
NtRp3345
(dp3346
g68
(dp3347
g76
I4
ssg77
Nsg70
(lp3348
g63
(g79
g65
NtRp3349
(dp3350
g68
(dp3351
sg77
g3345
sg70
(lp3352
g63
(g84
g65
NtRp3353
(dp3354
g68
(dp3355
g88
g89
ssg77
g3349
sg70
(lp3356
S'X-Powered-By'
p3357
asbag63
(g84
g65
NtRp3358
(dp3359
g68
(dp3360
g95
g96
ssg77
g3349
sg70
(lp3361
S':'
asbag63
(g84
g65
NtRp3362
(dp3363
g68
(dp3364
sg77
g3349
sg70
(lp3365
g63
(g64
g65
NtRp3366
(dp3367
g68
(dp3368
g76
I4
ssg77
g3362
sg70
(lp3369
S'web2py'
p3370
asbasbasbasbasbasbasbag63
(g79
g65
NtRp3371
(dp3372
g68
(dp3373
sg77
g2934
sg70
(lp3374
g63
(g84
g65
NtRp3375
(dp3376
g68
(dp3377
g88
g89
ssg77
g3371
sg70
(lp3378
S'logo'
p3379
asbag63
(g84
g65
NtRp3380
(dp3381
g68
(dp3382
g95
g96
ssg77
g3371
sg70
(lp3383
S':'
asbag63
(g84
g65
NtRp3384
(dp3385
g68
(dp3386
sg77
g3371
sg70
(lp3387
g63
(g64
g65
NtRp3388
(dp3389
g68
(dp3390
g76
I5
ssg77
g3384
sg70
(lp3391
g63
(cgluon.html
A
p3392
g65
NtRp3393
(dp3394
g68
(dp3395
S'_class'
p3396
S'brand'
p3397
sS'_href'
p3398
g1492
ssg77
Nsg70
(lp3399
g63
(cgluon.html
B
p3400
g65
NtRp3401
(dp3402
g68
(dp3403
sg77
g3393
sg70
(lp3404
S'hosts'
p3405
ag63
(cgluon.html
SPAN
p3406
g65
NtRp3407
(dp3408
g68
(dp3409
sg77
g3401
sg70
(lp3410
S'3'
asbaS''
asbacgluon.html
XML_unpickle
p3411
(S's\r\x00\x00\x00&trade;&nbsp;'
tRp3412
asbasbasbasbag63
(g79
g65
NtRp3413
(dp3414
g68
(dp3415
sg77
g2934
sg70
(lp3416
g63
(g84
g65
NtRp3417
(dp3418
g68
(dp3419
g88
g89
ssg77
g3413
sg70
(lp3420
S'menu'
p3421
asbag63
(g84
g65
NtRp3422
(dp3423
g68
(dp3424
g95
g96
ssg77
g3413
sg70
(lp3425
S':'
asbag63
(g84
g65
NtRp3426
(dp3427
g68
(dp3428
sg77
g3413
sg70
(lp3429
g63
(g64
g65
NtRp3430
(dp3431
g68
(dp3432
g76
I5
ssg77
g3426
sg70
(lp3433
g63
(g72
g65
NtRp3434
(dp3435
g68
(dp3436
g76
I4
ssg77
Nsg70
(lp3437
g63
(g79
g65
NtRp3438
(dp3439
g68
(dp3440
sg77
g3434
sg70
(lp3441
g63
(g84
g65
NtRp3442
(dp3443
g68
(dp3444
sg77
g3438
sg70
(lp3445
g63
(g64
g65
NtRp3446
(dp3447
g68
(dp3448
g76
I4
ssg77
g3442
sg70
(lp3449
g63
(g72
g65
NtRp3450
(dp3451
g68
(dp3452
g76
I3
ssg77
Nsg70
(lp3453
g63
(g79
g65
NtRp3454
(dp3455
g68
(dp3456
sg77
g3450
sg70
(lp3457
g63
(g84
g65
NtRp3458
(dp3459
g68
(dp3460
sg77
g3454
sg70
(lp3461
g63
(g64
g65
NtRp3462
(dp3463
g68
(dp3464
g76
I3
ssg77
g3458
sg70
(lp3465
cgluon.languages
lazyT_unpickle
p3466
(S't\x08\x00\x00\x00Clientes'
tRp3467
asbasbasbag63
(g79
g65
NtRp3468
(dp3469
g68
(dp3470
sg77
g3450
sg70
(lp3471
g63
(g84
g65
NtRp3472
(dp3473
g68
(dp3474
sg77
g3468
sg70
(lp3475
g63
(g64
g65
NtRp3476
(dp3477
g68
(dp3478
g76
I3
ssg77
g3472
sg70
(lp3479
g106
asbasbasbag63
(g79
g65
NtRp3480
(dp3481
g68
(dp3482
sg77
g3450
sg70
(lp3483
g63
(g84
g65
NtRp3484
(dp3485
g68
(dp3486
sg77
g3480
sg70
(lp3487
g63
(g64
g65
NtRp3488
(dp3489
g68
(dp3490
g76
I3
ssg77
g3484
sg70
(lp3491
S'/show_cliente'
p3492
asbasbasbag63
(g79
g65
NtRp3493
(dp3494
g68
(dp3495
sg77
g3450
sg70
(lp3496
g63
(g84
g65
NtRp3497
(dp3498
g68
(dp3499
sg77
g3493
sg70
(lp3500
g63
(g64
g65
NtRp3501
(dp3502
g68
(dp3503
g76
I3
ssg77
g3497
sg70
(lp3504
g63
(g72
g65
NtRp3505
(dp3506
g68
(dp3507
g76
I2
ssg77
Nsg70
(lp3508
sbasbasbasbasbasbasbasbag63
(g79
g65
NtRp3509
(dp3510
g68
(dp3511
sg77
g3434
sg70
(lp3512
g63
(g84
g65
NtRp3513
(dp3514
g68
(dp3515
sg77
g3509
sg70
(lp3516
g63
(g64
g65
NtRp3517
(dp3518
g68
(dp3519
g76
I4
ssg77
g3513
sg70
(lp3520
g63
(g72
g65
NtRp3521
(dp3522
g68
(dp3523
g76
I3
ssg77
Nsg70
(lp3524
g63
(g79
g65
NtRp3525
(dp3526
g68
(dp3527
sg77
g3521
sg70
(lp3528
g63
(g84
g65
NtRp3529
(dp3530
g68
(dp3531
sg77
g3525
sg70
(lp3532
g63
(g64
g65
NtRp3533
(dp3534
g68
(dp3535
g76
I3
ssg77
g3529
sg70
(lp3536
g3466
(S't\n\x00\x00\x00Servidores'
tRp3537
asbasbasbag63
(g79
g65
NtRp3538
(dp3539
g68
(dp3540
sg77
g3521
sg70
(lp3541
g63
(g84
g65
NtRp3542
(dp3543
g68
(dp3544
sg77
g3538
sg70
(lp3545
g63
(g64
g65
NtRp3546
(dp3547
g68
(dp3548
g76
I3
ssg77
g3542
sg70
(lp3549
g106
asbasbasbag63
(g79
g65
NtRp3550
(dp3551
g68
(dp3552
sg77
g3521
sg70
(lp3553
g63
(g84
g65
NtRp3554
(dp3555
g68
(dp3556
sg77
g3550
sg70
(lp3557
g63
(g64
g65
NtRp3558
(dp3559
g68
(dp3560
g76
I3
ssg77
g3554
sg70
(lp3561
S'/show_servidor'
p3562
asbasbasbag63
(g79
g65
NtRp3563
(dp3564
g68
(dp3565
sg77
g3521
sg70
(lp3566
g63
(g84
g65
NtRp3567
(dp3568
g68
(dp3569
sg77
g3563
sg70
(lp3570
g63
(g64
g65
NtRp3571
(dp3572
g68
(dp3573
g76
I3
ssg77
g3567
sg70
(lp3574
g63
(g72
g65
NtRp3575
(dp3576
g68
(dp3577
g76
I2
ssg77
Nsg70
(lp3578
sbasbasbasbasbasbasbasbag63
(g79
g65
NtRp3579
(dp3580
g68
(dp3581
sg77
g3434
sg70
(lp3582
g63
(g84
g65
NtRp3583
(dp3584
g68
(dp3585
sg77
g3579
sg70
(lp3586
g63
(g64
g65
NtRp3587
(dp3588
g68
(dp3589
g76
I4
ssg77
g3583
sg70
(lp3590
g63
(g72
g65
NtRp3591
(dp3592
g68
(dp3593
g76
I3
ssg77
Nsg70
(lp3594
g63
(g79
g65
NtRp3595
(dp3596
g68
(dp3597
sg77
g3591
sg70
(lp3598
g63
(g84
g65
NtRp3599
(dp3600
g68
(dp3601
sg77
g3595
sg70
(lp3602
g63
(g64
g65
NtRp3603
(dp3604
g68
(dp3605
g76
I3
ssg77
g3599
sg70
(lp3606
g3466
(S't\x07\x00\x00\x00Distros'
tRp3607
asbasbasbag63
(g79
g65
NtRp3608
(dp3609
g68
(dp3610
sg77
g3591
sg70
(lp3611
g63
(g84
g65
NtRp3612
(dp3613
g68
(dp3614
sg77
g3608
sg70
(lp3615
g63
(g64
g65
NtRp3616
(dp3617
g68
(dp3618
g76
I3
ssg77
g3612
sg70
(lp3619
g106
asbasbasbag63
(g79
g65
NtRp3620
(dp3621
g68
(dp3622
sg77
g3591
sg70
(lp3623
g63
(g84
g65
NtRp3624
(dp3625
g68
(dp3626
sg77
g3620
sg70
(lp3627
g63
(g64
g65
NtRp3628
(dp3629
g68
(dp3630
g76
I3
ssg77
g3624
sg70
(lp3631
S'/show_distro'
p3632
asbasbasbag63
(g79
g65
NtRp3633
(dp3634
g68
(dp3635
sg77
g3591
sg70
(lp3636
g63
(g84
g65
NtRp3637
(dp3638
g68
(dp3639
sg77
g3633
sg70
(lp3640
g63
(g64
g65
NtRp3641
(dp3642
g68
(dp3643
g76
I3
ssg77
g3637
sg70
(lp3644
g63
(g72
g65
NtRp3645
(dp3646
g68
(dp3647
g76
I2
ssg77
Nsg70
(lp3648
sbasbasbasbasbasbasbasbag63
(g79
g65
NtRp3649
(dp3650
g68
(dp3651
sg77
g3434
sg70
(lp3652
g63
(g84
g65
NtRp3653
(dp3654
g68
(dp3655
sg77
g3649
sg70
(lp3656
g63
(g64
g65
NtRp3657
(dp3658
g68
(dp3659
g76
I4
ssg77
g3653
sg70
(lp3660
g63
(g72
g65
NtRp3661
(dp3662
g68
(dp3663
g76
I3
ssg77
Nsg70
(lp3664
g63
(g79
g65
NtRp3665
(dp3666
g68
(dp3667
sg77
g3661
sg70
(lp3668
g63
(g84
g65
NtRp3669
(dp3670
g68
(dp3671
sg77
g3665
sg70
(lp3672
g63
(g64
g65
NtRp3673
(dp3674
g68
(dp3675
g76
I3
ssg77
g3669
sg70
(lp3676
g3466
(S's\x05\x00\x00\x00+host'
tRp3677
asbasbasbag63
(g79
g65
NtRp3678
(dp3679
g68
(dp3680
sg77
g3661
sg70
(lp3681
g63
(g84
g65
NtRp3682
(dp3683
g68
(dp3684
sg77
g3678
sg70
(lp3685
g63
(g64
g65
NtRp3686
(dp3687
g68
(dp3688
g76
I3
ssg77
g3682
sg70
(lp3689
g106
asbasbasbag63
(g79
g65
NtRp3690
(dp3691
g68
(dp3692
sg77
g3661
sg70
(lp3693
g63
(g84
g65
NtRp3694
(dp3695
g68
(dp3696
sg77
g3690
sg70
(lp3697
g63
(g64
g65
NtRp3698
(dp3699
g68
(dp3700
g76
I3
ssg77
g3694
sg70
(lp3701
S'/interface'
p3702
asbasbasbag63
(g79
g65
NtRp3703
(dp3704
g68
(dp3705
sg77
g3661
sg70
(lp3706
g63
(g84
g65
NtRp3707
(dp3708
g68
(dp3709
sg77
g3703
sg70
(lp3710
g63
(g64
g65
NtRp3711
(dp3712
g68
(dp3713
g76
I3
ssg77
g3707
sg70
(lp3714
g63
(g72
g65
NtRp3715
(dp3716
g68
(dp3717
g76
I2
ssg77
Nsg70
(lp3718
sbasbasbasbasbasbasbasbasbasbasbasbag63
(g79
g65
NtRp3719
(dp3720
g68
(dp3721
sg77
g2934
sg70
(lp3722
g63
(g84
g65
NtRp3723
(dp3724
g68
(dp3725
g88
g89
ssg77
g3719
sg70
(lp3726
S'menu2'
p3727
asbag63
(g84
g65
NtRp3728
(dp3729
g68
(dp3730
g95
g96
ssg77
g3719
sg70
(lp3731
S':'
asbag63
(g84
g65
NtRp3732
(dp3733
g68
(dp3734
sg77
g3719
sg70
(lp3735
g63
(g64
g65
NtRp3736
(dp3737
g68
(dp3738
g76
I5
ssg77
g3732
sg70
(lp3739
g63
(g72
g65
NtRp3740
(dp3741
g68
(dp3742
g76
I4
ssg77
Nsg70
(lp3743
g63
(g79
g65
NtRp3744
(dp3745
g68
(dp3746
sg77
g3740
sg70
(lp3747
g63
(g84
g65
NtRp3748
(dp3749
g68
(dp3750
sg77
g3744
sg70
(lp3751
g63
(g64
g65
NtRp3752
(dp3753
g68
(dp3754
g76
I4
ssg77
g3748
sg70
(lp3755
g63
(g72
g65
NtRp3756
(dp3757
g68
(dp3758
g76
I3
ssg77
Nsg70
(lp3759
g63
(g79
g65
NtRp3760
(dp3761
g68
(dp3762
sg77
g3756
sg70
(lp3763
g63
(g84
g65
NtRp3764
(dp3765
g68
(dp3766
sg77
g3760
sg70
(lp3767
g63
(g64
g65
NtRp3768
(dp3769
g68
(dp3770
g76
I3
ssg77
g3764
sg70
(lp3771
g63
(g3406
g65
NtRp3772
(dp3773
g68
(dp3774
g3396
S'dropdown-toggle'
p3775
ssg77
Nsg70
(lp3776
S'Admin'
p3777
asbasbasbasbag63
(g79
g65
NtRp3778
(dp3779
g68
(dp3780
sg77
g3756
sg70
(lp3781
g63
(g84
g65
NtRp3782
(dp3783
g68
(dp3784
sg77
g3778
sg70
(lp3785
g63
(g64
g65
NtRp3786
(dp3787
g68
(dp3788
g76
I3
ssg77
g3782
sg70
(lp3789
g106
asbasbasbag63
(g79
g65
NtRp3790
(dp3791
g68
(dp3792
sg77
g3756
sg70
(lp3793
g63
(g84
g65
NtRp3794
(dp3795
g68
(dp3796
sg77
g3790
sg70
(lp3797
g63
(g64
g65
NtRp3798
(dp3799
g68
(dp3800
g76
I3
ssg77
g3794
sg70
(lp3801
S'#'
asbasbasbag63
(g79
g65
NtRp3802
(dp3803
g68
(dp3804
sg77
g3756
sg70
(lp3805
g63
(g84
g65
NtRp3806
(dp3807
g68
(dp3808
sg77
g3802
sg70
(lp3809
g63
(g64
g65
NtRp3810
(dp3811
g68
(dp3812
g76
I3
ssg77
g3806
sg70
(lp3813
g63
(g72
g65
NtRp3814
(dp3815
g68
(dp3816
g76
I2
ssg77
Nsg70
(lp3817
g63
(g79
g65
NtRp3818
(dp3819
g68
(dp3820
sg77
g3814
sg70
(lp3821
g63
(g84
g65
NtRp3822
(dp3823
g68
(dp3824
sg77
g3818
sg70
(lp3825
g63
(g64
g65
NtRp3826
(dp3827
g68
(dp3828
g76
I2
ssg77
g3822
sg70
(lp3829
g63
(g72
g65
NtRp3830
(dp3831
g68
(dp3832
g76
I1
ssg77
Nsg70
(lp3833
g63
(g79
g65
NtRp3834
(dp3835
g68
(dp3836
sg77
g3830
sg70
(lp3837
g63
(g84
g65
NtRp3838
(dp3839
g68
(dp3840
sg77
g3834
sg70
(lp3841
g63
(g64
g65
NtRp3842
(dp3843
g68
(dp3844
g76
I1
ssg77
g3838
sg70
(lp3845
g3466
(S's\t\x00\x00\x00Usu\xc3\xa1rios'
tRp3846
asbasbasbag63
(g79
g65
NtRp3847
(dp3848
g68
(dp3849
sg77
g3830
sg70
(lp3850
g63
(g84
g65
NtRp3851
(dp3852
g68
(dp3853
sg77
g3847
sg70
(lp3854
g63
(g64
g65
NtRp3855
(dp3856
g68
(dp3857
g76
I1
ssg77
g3851
sg70
(lp3858
I00
asbasbasbag63
(g79
g65
NtRp3859
(dp3860
g68
(dp3861
sg77
g3830
sg70
(lp3862
g63
(g84
g65
NtRp3863
(dp3864
g68
(dp3865
sg77
g3859
sg70
(lp3866
g63
(g64
g65
NtRp3867
(dp3868
g68
(dp3869
g76
I1
ssg77
g3863
sg70
(lp3870
S'/manager/users'
p3871
asbasbasbasbasbasbasbag63
(g79
g65
NtRp3872
(dp3873
g68
(dp3874
sg77
g3814
sg70
(lp3875
g63
(g84
g65
NtRp3876
(dp3877
g68
(dp3878
sg77
g3872
sg70
(lp3879
g63
(g64
g65
NtRp3880
(dp3881
g68
(dp3882
g76
I2
ssg77
g3876
sg70
(lp3883
g63
(g72
g65
NtRp3884
(dp3885
g68
(dp3886
g76
I1
ssg77
Nsg70
(lp3887
g63
(g79
g65
NtRp3888
(dp3889
g68
(dp3890
sg77
g3884
sg70
(lp3891
g63
(g84
g65
NtRp3892
(dp3893
g68
(dp3894
sg77
g3888
sg70
(lp3895
g63
(g64
g65
NtRp3896
(dp3897
g68
(dp3898
g76
I1
ssg77
g3892
sg70
(lp3899
g3466
(S't\x06\x00\x00\x00Grupos'
tRp3900
asbasbasbag63
(g79
g65
NtRp3901
(dp3902
g68
(dp3903
sg77
g3884
sg70
(lp3904
g63
(g84
g65
NtRp3905
(dp3906
g68
(dp3907
sg77
g3901
sg70
(lp3908
g63
(g64
g65
NtRp3909
(dp3910
g68
(dp3911
g76
I1
ssg77
g3905
sg70
(lp3912
I00
asbasbasbag63
(g79
g65
NtRp3913
(dp3914
g68
(dp3915
sg77
g3884
sg70
(lp3916
g63
(g84
g65
NtRp3917
(dp3918
g68
(dp3919
sg77
g3913
sg70
(lp3920
g63
(g64
g65
NtRp3921
(dp3922
g68
(dp3923
g76
I1
ssg77
g3917
sg70
(lp3924
S'/manager/groups'
p3925
asbasbasbasbasbasbasbag63
(g79
g65
NtRp3926
(dp3927
g68
(dp3928
sg77
g3814
sg70
(lp3929
g63
(g84
g65
NtRp3930
(dp3931
g68
(dp3932
sg77
g3926
sg70
(lp3933
g63
(g64
g65
NtRp3934
(dp3935
g68
(dp3936
g76
I2
ssg77
g3930
sg70
(lp3937
g63
(g72
g65
NtRp3938
(dp3939
g68
(dp3940
g76
I1
ssg77
Nsg70
(lp3941
g63
(g79
g65
NtRp3942
(dp3943
g68
(dp3944
sg77
g3938
sg70
(lp3945
g63
(g84
g65
NtRp3946
(dp3947
g68
(dp3948
sg77
g3942
sg70
(lp3949
g63
(g64
g65
NtRp3950
(dp3951
g68
(dp3952
g76
I1
ssg77
g3946
sg70
(lp3953
g3466
(S't\x07\x00\x00\x00Membros'
tRp3954
asbasbasbag63
(g79
g65
NtRp3955
(dp3956
g68
(dp3957
sg77
g3938
sg70
(lp3958
g63
(g84
g65
NtRp3959
(dp3960
g68
(dp3961
sg77
g3955
sg70
(lp3962
g63
(g64
g65
NtRp3963
(dp3964
g68
(dp3965
g76
I1
ssg77
g3959
sg70
(lp3966
I00
asbasbasbag63
(g79
g65
NtRp3967
(dp3968
g68
(dp3969
sg77
g3938
sg70
(lp3970
g63
(g84
g65
NtRp3971
(dp3972
g68
(dp3973
sg77
g3967
sg70
(lp3974
g63
(g64
g65
NtRp3975
(dp3976
g68
(dp3977
g76
I1
ssg77
g3971
sg70
(lp3978
S'/manager/membership'
p3979
asbasbasbasbasbasbasbasbasbasbasbasbasbasbasbag63
(g79
g65
NtRp3980
(dp3981
g68
(dp3982
sg77
g3740
sg70
(lp3983
g63
(g84
g65
NtRp3984
(dp3985
g68
(dp3986
sg77
g3980
sg70
(lp3987
g63
(g64
g65
NtRp3988
(dp3989
g68
(dp3990
g76
I4
ssg77
g3984
sg70
(lp3991
g63
(g72
g65
NtRp3992
(dp3993
g68
(dp3994
g76
I3
ssg77
Nsg70
(lp3995
g63
(g79
g65
NtRp3996
(dp3997
g68
(dp3998
sg77
g3992
sg70
(lp3999
g63
(g84
g65
NtRp4000
(dp4001
g68
(dp4002
sg77
g3996
sg70
(lp4003
g63
(g64
g65
NtRp4004
(dp4005
g68
(dp4006
g76
I3
ssg77
g4000
sg70
(lp4007
g63
(g3406
g65
NtRp4008
(dp4009
g68
(dp4010
g3396
g3775
ssg77
Nsg70
(lp4011
S'Login'
p4012
asbasbasbasbag63
(g79
g65
NtRp4013
(dp4014
g68
(dp4015
sg77
g3992
sg70
(lp4016
g63
(g84
g65
NtRp4017
(dp4018
g68
(dp4019
sg77
g4013
sg70
(lp4020
g63
(g64
g65
NtRp4021
(dp4022
g68
(dp4023
g76
I3
ssg77
g4017
sg70
(lp4024
g106
asbasbasbag63
(g79
g65
NtRp4025
(dp4026
g68
(dp4027
sg77
g3992
sg70
(lp4028
g63
(g84
g65
NtRp4029
(dp4030
g68
(dp4031
sg77
g4025
sg70
(lp4032
g63
(g64
g65
NtRp4033
(dp4034
g68
(dp4035
g76
I3
ssg77
g4029
sg70
(lp4036
S'#'
asbasbasbag63
(g79
g65
NtRp4037
(dp4038
g68
(dp4039
sg77
g3992
sg70
(lp4040
g63
(g84
g65
NtRp4041
(dp4042
g68
(dp4043
sg77
g4037
sg70
(lp4044
g63
(g64
g65
NtRp4045
(dp4046
g68
(dp4047
g76
I3
ssg77
g4041
sg70
(lp4048
g63
(g72
g65
NtRp4049
(dp4050
g68
(dp4051
g76
I2
ssg77
Nsg70
(lp4052
g63
(g79
g65
NtRp4053
(dp4054
g68
(dp4055
sg77
g4049
sg70
(lp4056
g63
(g84
g65
NtRp4057
(dp4058
g68
(dp4059
sg77
g4053
sg70
(lp4060
g63
(g64
g65
NtRp4061
(dp4062
g68
(dp4063
g76
I2
ssg77
g4057
sg70
(lp4064
g63
(g72
g65
NtRp4065
(dp4066
g68
(dp4067
g76
I1
ssg77
Nsg70
(lp4068
g63
(g79
g65
NtRp4069
(dp4070
g68
(dp4071
sg77
g4065
sg70
(lp4072
g63
(g84
g65
NtRp4073
(dp4074
g68
(dp4075
sg77
g4069
sg70
(lp4076
g63
(g64
g65
NtRp4077
(dp4078
g68
(dp4079
g76
I1
ssg77
g4073
sg70
(lp4080
g3466
(S't\x06\x00\x00\x00Logout'
tRp4081
asbasbasbag63
(g79
g65
NtRp4082
(dp4083
g68
(dp4084
sg77
g4065
sg70
(lp4085
g63
(g84
g65
NtRp4086
(dp4087
g68
(dp4088
sg77
g4082
sg70
(lp4089
g63
(g64
g65
NtRp4090
(dp4091
g68
(dp4092
g76
I1
ssg77
g4086
sg70
(lp4093
I00
asbasbasbag63
(g79
g65
NtRp4094
(dp4095
g68
(dp4096
sg77
g4065
sg70
(lp4097
g63
(g84
g65
NtRp4098
(dp4099
g68
(dp4100
sg77
g4094
sg70
(lp4101
g63
(g64
g65
NtRp4102
(dp4103
g68
(dp4104
g76
I1
ssg77
g4098
sg70
(lp4105
S'/initial/user/logout'
p4106
asbasbasbasbasbasbasbasbasbasbasbasbasbasbasbasbasbasbasbag63
(g79
g65
NtRp4107
(dp4108
g68
(dp4109
sg77
g2934
sg70
(lp4110
g63
(g84
g65
NtRp4111
(dp4112
g68
(dp4113
g88
g89
ssg77
g4107
sg70
(lp4114
S'meta'
p4115
asbag63
(g84
g65
NtRp4116
(dp4117
g68
(dp4118
g95
g96
ssg77
g4107
sg70
(lp4119
S':'
asbag63
(g84
g65
NtRp4120
(dp4121
g68
(dp4122
sg77
g4107
sg70
(lp4123
g63
(g64
g65
NtRp4124
(dp4125
g68
(dp4126
g76
I5
ssg77
g4120
sg70
(lp4127
g63
(g72
g65
NtRp4128
(dp4129
g68
(dp4130
g76
I4
ssg77
Nsg70
(lp4131
g63
(g79
g65
NtRp4132
(dp4133
g68
(dp4134
sg77
g4128
sg70
(lp4135
g63
(g84
g65
NtRp4136
(dp4137
g68
(dp4138
g88
g89
ssg77
g4132
sg70
(lp4139
S'author'
p4140
asbag63
(g84
g65
NtRp4141
(dp4142
g68
(dp4143
g95
g96
ssg77
g4132
sg70
(lp4144
S':'
asbag63
(g84
g65
NtRp4145
(dp4146
g68
(dp4147
sg77
g4132
sg70
(lp4148
g63
(g64
g65
NtRp4149
(dp4150
g68
(dp4151
g76
I4
ssg77
g4145
sg70
(lp4152
S'Your Name <you@example.com>'
p4153
asbasbasbag63
(g79
g65
NtRp4154
(dp4155
g68
(dp4156
sg77
g4128
sg70
(lp4157
g63
(g84
g65
NtRp4158
(dp4159
g68
(dp4160
g88
g89
ssg77
g4154
sg70
(lp4161
S'description'
p4162
asbag63
(g84
g65
NtRp4163
(dp4164
g68
(dp4165
g95
g96
ssg77
g4154
sg70
(lp4166
S':'
asbag63
(g84
g65
NtRp4167
(dp4168
g68
(dp4169
sg77
g4154
sg70
(lp4170
g63
(g64
g65
NtRp4171
(dp4172
g68
(dp4173
g76
I4
ssg77
g4167
sg70
(lp4174
S'a cool new app'
p4175
asbasbasbag63
(g79
g65
NtRp4176
(dp4177
g68
(dp4178
sg77
g4128
sg70
(lp4179
g63
(g84
g65
NtRp4180
(dp4181
g68
(dp4182
g88
g89
ssg77
g4176
sg70
(lp4183
S'generator'
p4184
asbag63
(g84
g65
NtRp4185
(dp4186
g68
(dp4187
g95
g96
ssg77
g4176
sg70
(lp4188
S':'
asbag63
(g84
g65
NtRp4189
(dp4190
g68
(dp4191
sg77
g4176
sg70
(lp4192
g63
(g64
g65
NtRp4193
(dp4194
g68
(dp4195
g76
I4
ssg77
g4189
sg70
(lp4196
S'Web2py Web Framework'
p4197
asbasbasbag63
(g79
g65
NtRp4198
(dp4199
g68
(dp4200
sg77
g4128
sg70
(lp4201
g63
(g84
g65
NtRp4202
(dp4203
g68
(dp4204
g88
g89
ssg77
g4198
sg70
(lp4205
S'keywords'
p4206
asbag63
(g84
g65
NtRp4207
(dp4208
g68
(dp4209
g95
g96
ssg77
g4198
sg70
(lp4210
S':'
asbag63
(g84
g65
NtRp4211
(dp4212
g68
(dp4213
sg77
g4198
sg70
(lp4214
g63
(g64
g65
NtRp4215
(dp4216
g68
(dp4217
g76
I4
ssg77
g4211
sg70
(lp4218
S'web2py, python, framework'
p4219
asbasbasbasbasbasbasbag63
(g79
g65
NtRp4220
(dp4221
g68
(dp4222
sg77
g2934
sg70
(lp4223
g63
(g84
g65
NtRp4224
(dp4225
g68
(dp4226
g88
g89
ssg77
g4220
sg70
(lp4227
S'models_to_run'
p4228
asbag63
(g84
g65
NtRp4229
(dp4230
g68
(dp4231
g95
g96
ssg77
g4220
sg70
(lp4232
S':'
asbag63
(g84
g65
NtRp4233
(dp4234
g68
(dp4235
sg77
g4220
sg70
(lp4236
g63
(g64
g65
NtRp4237
(dp4238
g68
(dp4239
g76
I5
ssg77
g4233
sg70
(lp4240
g63
(g72
g65
NtRp4241
(dp4242
g68
(dp4243
g76
I4
ssg77
Nsg70
(lp4244
g63
(g79
g65
NtRp4245
(dp4246
g68
(dp4247
sg77
g4241
sg70
(lp4248
g63
(g84
g65
NtRp4249
(dp4250
g68
(dp4251
sg77
g4245
sg70
(lp4252
g63
(g64
g65
NtRp4253
(dp4254
g68
(dp4255
g76
I4
ssg77
g4249
sg70
(lp4256
S'^\\w+\\.py$'
p4257
asbasbasbag63
(g79
g65
NtRp4258
(dp4259
g68
(dp4260
sg77
g4241
sg70
(lp4261
g63
(g84
g65
NtRp4262
(dp4263
g68
(dp4264
sg77
g4258
sg70
(lp4265
g63
(g64
g65
NtRp4266
(dp4267
g68
(dp4268
g76
I4
ssg77
g4262
sg70
(lp4269
S'^initial/\\w+\\.py$'
p4270
asbasbasbag63
(g79
g65
NtRp4271
(dp4272
g68
(dp4273
sg77
g4241
sg70
(lp4274
g63
(g84
g65
NtRp4275
(dp4276
g68
(dp4277
sg77
g4271
sg70
(lp4278
g63
(g64
g65
NtRp4279
(dp4280
g68
(dp4281
g76
I4
ssg77
g4275
sg70
(lp4282
S'^initial/principal/\\w+\\.py$'
p4283
asbasbasbasbasbasbasbag63
(g79
g65
NtRp4284
(dp4285
g68
(dp4286
sg77
g2934
sg70
(lp4287
g63
(g84
g65
NtRp4288
(dp4289
g68
(dp4290
g88
g89
ssg77
g4284
sg70
(lp4291
S'postprocessing'
p4292
asbag63
(g84
g65
NtRp4293
(dp4294
g68
(dp4295
g95
g96
ssg77
g4284
sg70
(lp4296
S':'
asbag63
(g84
g65
NtRp4297
(dp4298
g68
(dp4299
sg77
g4284
sg70
(lp4300
g63
(g64
g65
NtRp4301
(dp4302
g68
(dp4303
g76
I5
ssg77
g4297
sg70
(lp4304
g63
(g72
g65
NtRp4305
(dp4306
g68
(dp4307
g76
I4
ssg77
Nsg70
(lp4308
sbasbasbasbag63
(g79
g65
NtRp4309
(dp4310
g68
(dp4311
sg77
g2934
sg70
(lp4312
g63
(g84
g65
NtRp4313
(dp4314
g68
(dp4315
g88
g89
ssg77
g4309
sg70
(lp4316
S'session_cookie_expires'
p4317
asbag63
(g84
g65
NtRp4318
(dp4319
g68
(dp4320
g95
g96
ssg77
g4309
sg70
(lp4321
S':'
asbag63
(g84
g65
NtRp4322
(dp4323
g68
(dp4324
sg77
g4309
sg70
(lp4325
g63
(g64
g65
NtRp4326
(dp4327
g68
(dp4328
g76
I5
ssg77
g4322
sg70
(lp4329
S'None'
p4330
asbasbasbag63
(g79
g65
NtRp4331
(dp4332
g68
(dp4333
sg77
g2934
sg70
(lp4334
g63
(g84
g65
NtRp4335
(dp4336
g68
(dp4337
g88
g89
ssg77
g4331
sg70
(lp4338
S'session_data_name'
p4339
asbag63
(g84
g65
NtRp4340
(dp4341
g68
(dp4342
g95
g96
ssg77
g4331
sg70
(lp4343
S':'
asbag63
(g84
g65
NtRp4344
(dp4345
g68
(dp4346
sg77
g4331
sg70
(lp4347
g63
(g64
g65
NtRp4348
(dp4349
g68
(dp4350
g76
I5
ssg77
g4344
sg70
(lp4351
S'session_data_projeto'
p4352
asbasbasbag63
(g79
g65
NtRp4353
(dp4354
g68
(dp4355
sg77
g2934
sg70
(lp4356
g63
(g84
g65
NtRp4357
(dp4358
g68
(dp4359
g88
g89
ssg77
g4353
sg70
(lp4360
S'session_file'
p4361
asbag63
(g84
g65
NtRp4362
(dp4363
g68
(dp4364
g95
g96
ssg77
g4353
sg70
(lp4365
S':'
asbag63
(g84
g65
NtRp4366
(dp4367
g68
(dp4368
sg77
g4353
sg70
(lp4369
g63
(g64
g65
NtRp4370
(dp4371
g68
(dp4372
g76
I5
ssg77
g4366
sg70
(lp4373
S'None'
p4374
asbasbasbag63
(g79
g65
NtRp4375
(dp4376
g68
(dp4377
sg77
g2934
sg70
(lp4378
g63
(g84
g65
NtRp4379
(dp4380
g68
(dp4381
g88
g89
ssg77
g4375
sg70
(lp4382
S'session_filename'
p4383
asbag63
(g84
g65
NtRp4384
(dp4385
g68
(dp4386
g95
g96
ssg77
g4375
sg70
(lp4387
S':'
asbag63
(g84
g65
NtRp4388
(dp4389
g68
(dp4390
sg77
g4375
sg70
(lp4391
g63
(g64
g65
NtRp4392
(dp4393
g68
(dp4394
g76
I5
ssg77
g4388
sg70
(lp4395
S'/var/www/hosts3/applications/projeto/sessions/127.0.0.1-7374a69b-822a-440e-bf95-42dfa3584989'
p4396
asbasbasbag63
(g79
g65
NtRp4397
(dp4398
g68
(dp4399
sg77
g2934
sg70
(lp4400
g63
(g84
g65
NtRp4401
(dp4402
g68
(dp4403
g88
g89
ssg77
g4397
sg70
(lp4404
S'session_id'
p4405
asbag63
(g84
g65
NtRp4406
(dp4407
g68
(dp4408
g95
g96
ssg77
g4397
sg70
(lp4409
S':'
asbag63
(g84
g65
NtRp4410
(dp4411
g68
(dp4412
sg77
g4397
sg70
(lp4413
g63
(g64
g65
NtRp4414
(dp4415
g68
(dp4416
g76
I5
ssg77
g4410
sg70
(lp4417
g287
asbasbasbag63
(g79
g65
NtRp4418
(dp4419
g68
(dp4420
sg77
g2934
sg70
(lp4421
g63
(g84
g65
NtRp4422
(dp4423
g68
(dp4424
g88
g89
ssg77
g4418
sg70
(lp4425
S'session_id_name'
p4426
asbag63
(g84
g65
NtRp4427
(dp4428
g68
(dp4429
g95
g96
ssg77
g4418
sg70
(lp4430
S':'
asbag63
(g84
g65
NtRp4431
(dp4432
g68
(dp4433
sg77
g4418
sg70
(lp4434
g63
(g64
g65
NtRp4435
(dp4436
g68
(dp4437
g76
I5
ssg77
g4431
sg70
(lp4438
g2991
asbasbasbag63
(g79
g65
NtRp4439
(dp4440
g68
(dp4441
sg77
g2934
sg70
(lp4442
g63
(g84
g65
NtRp4443
(dp4444
g68
(dp4445
g88
g89
ssg77
g4439
sg70
(lp4446
S'session_new'
p4447
asbag63
(g84
g65
NtRp4448
(dp4449
g68
(dp4450
g95
g96
ssg77
g4439
sg70
(lp4451
S':'
asbag63
(g84
g65
NtRp4452
(dp4453
g68
(dp4454
sg77
g4439
sg70
(lp4455
g63
(g64
g65
NtRp4456
(dp4457
g68
(dp4458
g76
I5
ssg77
g4452
sg70
(lp4459
g106
asbasbasbag63
(g79
g65
NtRp4460
(dp4461
g68
(dp4462
sg77
g2934
sg70
(lp4463
g63
(g84
g65
NtRp4464
(dp4465
g68
(dp4466
g88
g89
ssg77
g4460
sg70
(lp4467
S'session_storage_type'
p4468
asbag63
(g84
g65
NtRp4469
(dp4470
g68
(dp4471
g95
g96
ssg77
g4460
sg70
(lp4472
S':'
asbag63
(g84
g65
NtRp4473
(dp4474
g68
(dp4475
sg77
g4460
sg70
(lp4476
g63
(g64
g65
NtRp4477
(dp4478
g68
(dp4479
g76
I5
ssg77
g4473
sg70
(lp4480
g2736
asbasbasbag63
(g79
g65
NtRp4481
(dp4482
g68
(dp4483
sg77
g2934
sg70
(lp4484
g63
(g84
g65
NtRp4485
(dp4486
g68
(dp4487
g88
g89
ssg77
g4481
sg70
(lp4488
S'status'
p4489
asbag63
(g84
g65
NtRp4490
(dp4491
g68
(dp4492
g95
g96
ssg77
g4481
sg70
(lp4493
S':'
asbag63
(g84
g65
NtRp4494
(dp4495
g68
(dp4496
sg77
g4481
sg70
(lp4497
g63
(g64
g65
NtRp4498
(dp4499
g68
(dp4500
g76
I5
ssg77
g4494
sg70
(lp4501
S'200'
p4502
asbasbasbag63
(g79
g65
NtRp4503
(dp4504
g68
(dp4505
sg77
g2934
sg70
(lp4506
g63
(g84
g65
NtRp4507
(dp4508
g68
(dp4509
g88
g89
ssg77
g4503
sg70
(lp4510
S'subtitle'
p4511
asbag63
(g84
g65
NtRp4512
(dp4513
g68
(dp4514
g95
g96
ssg77
g4503
sg70
(lp4515
S':'
asbag63
(g84
g65
NtRp4516
(dp4517
g68
(dp4518
sg77
g4503
sg70
(lp4519
g63
(g64
g65
NtRp4520
(dp4521
g68
(dp4522
g76
I5
ssg77
g4516
sg70
(lp4523
g3466
(S's\r\x00\x00\x00customize me!'
tRp4524
asbasbasbag63
(g79
g65
NtRp4525
(dp4526
g68
(dp4527
sg77
g2934
sg70
(lp4528
g63
(g84
g65
NtRp4529
(dp4530
g68
(dp4531
g88
g89
ssg77
g4525
sg70
(lp4532
S'title'
p4533
asbag63
(g84
g65
NtRp4534
(dp4535
g68
(dp4536
g95
g96
ssg77
g4525
sg70
(lp4537
S':'
asbag63
(g84
g65
NtRp4538
(dp4539
g68
(dp4540
sg77
g4525
sg70
(lp4541
g63
(g64
g65
NtRp4542
(dp4543
g68
(dp4544
g76
I5
ssg77
g4538
sg70
(lp4545
S'Projeto'
p4546
asbasbasbag63
(g79
g65
NtRp4547
(dp4548
g68
(dp4549
sg77
g2934
sg70
(lp4550
g63
(g84
g65
NtRp4551
(dp4552
g68
(dp4553
g88
g89
ssg77
g4547
sg70
(lp4554
S'view'
p4555
asbag63
(g84
g65
NtRp4556
(dp4557
g68
(dp4558
g95
g96
ssg77
g4547
sg70
(lp4559
S':'
asbag63
(g84
g65
NtRp4560
(dp4561
g68
(dp4562
sg77
g4547
sg70
(lp4563
g63
(g64
g65
NtRp4564
(dp4565
g68
(dp4566
g76
I5
ssg77
g4560
sg70
(lp4567
S'initial/principal.html'
p4568
asbasbasbasbasbsS'locals'
p4569
(dp4570
S'self'
p4571
S'<gluon.portalocker.LockedFile object>'
p4572
sS'mode'
p4573
S"'w'"
p4574
sg36
S"'/var/www/hosts3/applications/projeto/databases/c76e61eb1a0ee4223dd9557133d33caf_cliente.table'"
p4575
sssS'traceback'
p4576
S'Traceback (most recent call last):\n  File "/var/www/hosts3/gluon/restricted.py", line 212, in restricted\n    exec ccode in environment\n  File "/var/www/hosts3/applications/projeto/models/models.py", line 7, in <module>\n    format="%(nome)s")\n  File "/var/www/hosts3/gluon/dal.py", line 7186, in define_table\n    table = self.lazy_define_table(tablename,*fields,**args)\n  File "/var/www/hosts3/gluon/dal.py", line 7222, in lazy_define_table\n    polymodel=polymodel)\n  File "/var/www/hosts3/gluon/dal.py", line 963, in create_table\n    fake_migrate=fake_migrate)\n  File "/var/www/hosts3/gluon/dal.py", line 1082, in migrate_table\n    tfile = self.file_open(table._dbt, \'w\')\n  File "/var/www/hosts3/gluon/dal.py", line 673, in file_open\n    fileobj = portalocker.LockedFile(filename,mode)\n  File "/var/www/hosts3/gluon/portalocker.py", line 121, in __init__\n    self.file = open(filename, mode.replace(\'w\', \'a\'))\nIOError: [Errno 13] Permission denied: \'/var/www/hosts3/applications/projeto/databases/c76e61eb1a0ee4223dd9557133d33caf_cliente.table\'\n'
p4577
s.