(dp1
S'output'
p2
S"<type 'exceptions.NameError'> name 'var2' is not defined"
p3
sS'layer'
p4
S'/var/www/hosts3/applications/projeto/views/initial/detalhes_host.html'
p5
sS'code'
p6
S'response.write(\'<!DOCTYPE html>\\n<!-- paulirish.com/2008/conditional-stylesheets-vs-css-hacks-answer-neither/ -->\\n<!--[if lt IE 7]><html class="ie ie6 ie-lte9 ie-lte8 ie-lte7 no-js" lang="\', escape=False)\nresponse.write(T.accepted_language or \'en\')\nresponse.write(\'"> <![endif]-->\\n<!--[if IE 7]><html class="ie ie7 ie-lte9 ie-lte8 ie-lte7 no-js" lang="\', escape=False)\nresponse.write(T.accepted_language or \'en\')\nresponse.write(\'"> <![endif]-->\\n<!--[if IE 8]><html class="ie ie8 ie-lte9 ie-lte8 no-js" lang="\', escape=False)\nresponse.write(T.accepted_language or \'en\')\nresponse.write(\'"> <![endif]-->\\n<!--[if IE 9]><html class="ie9 ie-lte9 no-js" lang="\', escape=False)\nresponse.write(T.accepted_language or \'en\')\nresponse.write(\'"> <![endif]-->\\n<!--[if (gt IE 9)|!(IE)]><!--> <html class="no-js" lang="\', escape=False)\nresponse.write(T.accepted_language or \'en\')\nresponse.write(\'"> <!--<![endif]-->\\n<head>\\n  <meta charset="utf-8" />\\n  <!-- www.phpied.com/conditional-comments-block-downloads/ -->\\n  <!-- Always force latest IE rendering engine\\n       (even in intranet) & Chrome Frame\\n       Remove thihos if you use the .htaccess -->\\n  <!--[if IE]>\\n      <meta http-equiv="X-UA-Compatible" content="IE=edge\', escape=False)\nresponse.write(not request.is_local and \',chrome=1\' or \'\')\nresponse.write(\'">\\n      <![endif]-->\\n\\n  <title>\', escape=False)\nresponse.write(response.title or request.application)\nresponse.write(\'</title>\\n\\n  <!-- http://dev.w3.org/html5/markup/meta.name.html -->\\n  <meta name="application-name" content="\', escape=False)\nresponse.write(request.application)\nresponse.write(\'" />\\n\\n  <!-- Speaking of Google, don\\\'t forget to set your site up:\\n       http://google.com/webmasters -->\\n  <meta name="google-site-verification" content="" />\\n\\n  <!--  Mobile Viewport Fix\\n        j.mp/mobileviewport & davidbcalhoun.com/2010/viewport-metatag\\n        device-width: Occupy full width of the screen in its current orientation\\n        initial-scale = 1.0 retains dimensions instead of zooming out if page height > device height\\n        user-scalable = yes allows the user to zoom in -->\\n  <meta name="viewport" content="width=device-width, initial-scale=1.0" />\\n\\n  <link rel="shortcut icon" href="\', escape=False)\nresponse.write(URL(\'static\',\'images/favicon.ico\'))\nresponse.write(\'" type="image/x-icon">\\n  <link rel="apple-touch-icon" href="\', escape=False)\nresponse.write(URL(\'static\',\'images/favicon.png\'))\nresponse.write(\'">\\n\\n  <!-- All JavaScript at the bottom, except for Modernizr which enables\\n       HTML5 elements & feature detects -->\\n  <script src="\', escape=False)\nresponse.write(URL(\'static\',\'js/modernizr.custom.js\'))\nresponse.write(\'"></script>\\n\\n  <!-- include stylesheets -->\\n  \', escape=False)\nresponse.files.append(URL(\'static\',\'css/web2py.css\'))\nresponse.files.append(URL(\'static\',\'css/bootstrap.min.css\'))\nresponse.files.append(URL(\'static\',\'css/bootstrap-responsive.min.css\'))\nresponse.files.append(URL(\'static\',\'css/web2py_bootstrap.css\'))\nresponse.write(\'\\n\\n  \', escape=False)\nresponse.write(\'<script type="text/javascript"><!--\\n    // These variables are used by the web2py_ajax_init function in web2py_ajax.js (which is loaded below).\\n    var w2p_ajax_confirm_message = "\', escape=False)\nresponse.write(T(\'Tem certeza que deseja apagar este objeto?\'))\nresponse.write(\'";\\n    var w2p_ajax_date_format = "\', escape=False)\nresponse.write(T(\'%Y-%m-%d\'))\nresponse.write(\'";\\n    var w2p_ajax_datetime_format = "\', escape=False)\nresponse.write(T(\'%Y-%m-%d %H:%M:%S\'))\nresponse.write(\'";\\n    //--></script>\\n\', escape=False)\nresponse.files.insert(0,URL(\'static\',\'js/jquery.js\'))\nresponse.files.insert(1,URL(\'static\',\'css/calendar.css\'))\nresponse.files.insert(2,URL(\'static\',\'js/calendar.js\'))\nresponse.files.insert(3,URL(\'static\',\'js/web2py.js\'))\nresponse.include_meta()\nresponse.include_files()\nresponse.write(\'\\n\', escape=False)\nresponse.write(\'\\n\\n  \', escape=False)\n# using sidebars need to know what sidebar you want to use\nleft_sidebar_enabled = globals().get(\'left_sidebar_enabled\',False)\nright_sidebar_enabled = globals().get(\'right_sidebar_enabled\',False)\nmiddle_columns = {0:\'span12\',1:\'span9\',2:\'span6\'}[\n(left_sidebar_enabled and 1 or 0)+(right_sidebar_enabled and 1 or 0)]\nresponse.write(\'\\n\\n  <!-- uncomment here to load jquery-ui\\n       <link rel="stylesheet" href="http://ajax.googleapis.com/ajax/libs/jqueryui/1.8.16/themes/base/jquery-ui.css" type="text/css" media="all" />\\n       <script src="http://ajax.googleapis.com/ajax/libs/jqueryui/1.8.16/jquery-ui.min.js" type="text/javascript"></script>\\n       uncomment to load jquery-ui //-->\\n  <noscript><link href="\', escape=False)\nresponse.write(URL(\'static\', \'css/web2py_bootstrap_nojs.css\'))\nresponse.write(\'" rel="stylesheet" type="text/css" /></noscript>\\n  \', escape=False)\nresponse.write(\'\\n</head>\\n\\n<body>\\n  <!-- Navbar ================================================== -->\\n  <div class="navbar navbar-inverse navbar-fixed-top">\\n    <div class="flash">\', escape=False)\nresponse.write(response.flash or \'\')\nresponse.write(\'</div>\\n    <div class="navbar-inner">\\n      <div class="container">\\n        <!-- the next tag is necessary for bootstrap menus, do not remove -->\\n        <button type="button" class="btn btn-navbar" data-toggle="collapse" data-target=".nav-collapse">\\n          <span class="icon-bar"></span>\\n          <span class="icon-bar"></span>\\n          <span class="icon-bar"></span>\\n        </button>\\n\\t\', escape=False)\nresponse.write(response.logo or \'\')\nresponse.write(\'\\n       <ul id="navbar" class="nav pull-right">\', escape=False)\nresponse.write(MENU(response.menu2, _class=\'mobile-menu nav\', li_class=\'dropdown\',ul_class=\'dropdown-menu\'))\nresponse.write(\'</ul>\\n        <div class="nav-collapse"><ul class="nav">\\n          \', escape=False)\nis_mobile=request.user_agent().is_mobile\nresponse.write(\'\\n          \', escape=False)\nif response.menu:\n    response.write(\'\\n          \', escape=False)\n    response.write(MENU(response.menu, _class=\'mobile-menu nav\' if is_mobile else \'nav\',mobile=is_mobile,li_class=\'dropdown\',ul_class=\'dropdown-menu\'))\n    response.write(\'\\n          \', escape=False)\n    pass\nresponse.write(\'\\n        </div><!--/.nav-collapse --></ul>\\n      </div>\\n    </div>\\n  </div><!--/top navbar -->\\n\\n  <div class="container">\\n    <!-- Masthead ================================================== -->\\n    <header class="mastheader row" id="header">\\n        <div class="span12">\\n            <div class="page-header">\\n                <h1><img src="\', escape=False)\nresponse.write(URL(\'static\', \'images\', \'hosts_logo.png\'))\nresponse.write(\'">\\n                    hosts\\n                    <small>\', escape=False)\nresponse.write(response.title or \'\')\nresponse.write(\'</small>\\n                </h1>\\n            </div>\\n            \', escape=False)\nresponse.write(\'\\n            \', escape=False)\nresponse.write(\'\\n        </div>\\n    </header>\\n\\n\\n    <section id="main" class="main row">\\n        \', escape=False)\nif left_sidebar_enabled:\n    response.write(\'\\n        <div class="span3 left-sidebar">\\n            \', escape=False)\n    response.write(\'\\n            <h3>Left Sidebar</h3>\\n            <p></p>\\n            \', escape=False)\n    response.write(\'\\n        </div>\\n        \', escape=False)\n    pass\nresponse.write(\'\\n        \\n        <div class="\', escape=False)\nresponse.write(middle_columns)\nresponse.write(\'">\\n            \', escape=False)\nresponse.write(\'\\n\', escape=False)\nid_cliente = request.vars[\'c\']\nid_host = request.vars[\'f\']\nnome_funcao = request.vars[\'n\']\nnome_funcao1 = request.vars[\'n1\']\nfuncao = request.vars[\'p\']\nfuncao1 = request.vars[\'p1\']\nresponse.write(\'\\n\\n\\n<ul class="breadcrumb">\\n        <li><a href="\', escape=False)\nresponse.write(URL(\'initial\', funcao_ant1))\nresponse.write(\'">\', escape=False)\nresponse.write(nome_ant1)\nresponse.write(\'</a> <span class="divider">/</span></li>\\n        <li><a href="\', escape=False)\nresponse.write(URL(\'initial\', funcao_ant, vars=dict(f=id_cliente, n1=nome_ant1, p1=funcao_ant1)))\nresponse.write(\'">\', escape=False)\nresponse.write(nome_ant)\nresponse.write(\'</a> <span class="divider">/</span></li>\\n        <li>Detalhes</li>\\n      </ul>\\n\\n<div class="span5" >\\n<div class="well">\\n<h3><img src="\', escape=False)\nresponse.write(URL(\'static\', \'images\', args=(detalhes.distro.imagem)))\nresponse.write(\'">\\t\\n<span style="color: black;">\', escape=False)\nresponse.write(detalhes.distro.nome)\nresponse.write(\'</span></h3></br>\\n<p><b>Nome</b>:&nbsp;&nbsp;\', escape=False)\nresponse.write(detalhes.hosts.nome)\nresponse.write(\'</p>\\n<p><b>Servidor</b>:&nbsp;&nbsp;\', escape=False)\nresponse.write(detalhes.servidor.nome)\nresponse.write(\'</p>\\n<p><b>Cliente</b>:&nbsp;&nbsp;\', escape=False)\nresponse.write(detalhes.cliente.nome)\nresponse.write(\'</p>\\n</div>\\n</div>\\n\\n<div class="span5">\\n<div class="well">\\n<h3><span style="color: black;">Acesso</span></h3><br>\\n<p><b>IP de acesso</b>:&nbsp;&nbsp;\', escape=False)\nresponse.write(detalhes.hosts.ip_chegada)\nresponse.write(\'</p>\\n<p><b>Porta</b>:&nbsp;&nbsp;\', escape=False)\nresponse.write(detalhes.hosts.porta_ssh)\nresponse.write(\'</p>\\n<p><b>Gateway</b>:&nbsp;&nbsp;\', escape=False)\nresponse.write(detalhes.hosts.gateway)\nresponse.write(\'</p>\\n</div>\\n</div>\\n\\n<div class="span10"><br><br>\\n<div class="tabbable tabs-left">\\n<ul class="nav nav-tabs span2">\\n<li class="active"><a href="#tabs2-pane1" data-toggle="tab">Interface 1</a></li>\\n<li><a href="#tabs2-pane2" data-toggle="tab">Interface 2</a></li>\\n<li><a href="#tabs2-pane3" data-toggle="tab">Interface 3</a></li>\\n<li><a href="#tabs2-pane4" data-toggle="tab">Interface 4</a></li>\\n</ul>\\n\\n<div class="tab-content span5">\\n<div id="tabs2-pane1" class="tab-pane active">\\n<div class="well">\\n\\t\', escape=False)\nif detalhes.hosts.if1 != "" or None:\n    response.write(\'<h4><span style="color: black;">\', escape=False)\n    response.write(detalhes.hosts.if1)\n    response.write(\'</span></h4>\\n\\t<p><b>IP</b>:&nbsp;&nbsp;\', escape=False)\n    response.write(detalhes.hosts.ip1)\n    response.write(\'</p>\\n\\t<p><b>M\\xc3\\xa1scara</b>:&nbsp;&nbsp;\', escape=False)\n    response.write(detalhes.hosts.masc1)\n    response.write(\'</p>\\n\\t<p><b>Obs</b>:&nbsp;&nbsp;\', escape=False)\n    response.write(detalhes.hosts.obs1)\n    response.write(\'</p>\', escape=False)\nelse:\n    response.write(\'<p style="text-align: center;">Aninda n\\xc3\\xa3o existe uma interface de rede aqui!</p><br><br><br>\\n\\t<p style="text-align: center;"><a class="btn" href="\', escape=False)\n    response.write(URL(\'initial\', \'edit_host\',\n    vars=dict(f=filtro, c=id_cliente, n=nome_funcao, n1=nome_funcao1, p1=funcao1, p=funcao)))\n    response.write(\'">Adicione</a></p>\', escape=False)\n    pass\nresponse.write(\'\\n</div>\\n</div>\\n\\n<div id="tabs2-pane2" class="tab-pane">\\n<div class="well">\\n\\t\', escape=False)\nif detalhes.hosts.if2 != "" or None:\n    response.write(\'<h4><span style="color: black;">\', escape=False)\n    response.write(detalhes.hosts.if2)\n    response.write(\'</span></h4>\\n\\t<p><b>IP</b>:&nbsp;&nbsp;\', escape=False)\n    response.write(detalhes.hosts.ip2)\n    response.write(\'</p>\\n\\t<p><b>M\\xc3\\xa1scara</b>:&nbsp;&nbsp;\', escape=False)\n    response.write(detalhes.hosts.masc2)\n    response.write(\'</p>\\n\\t<p><b>Obs</b>:&nbsp;&nbsp;\', escape=False)\n    response.write(detalhes.hosts.obs2)\n    response.write(\'</p>\', escape=False)\nelse:\n    response.write(\'<p style="text-align: center;">Aninda n\\xc3\\xa3o existe uma interface de rede aqui!</p><br><br><br>\\n\\t<p style="text-align: center;"><a class="btn" href="\', escape=False)\n    response.write(URL(\'initial\', \'edit_host\',\n    vars=dict(f=filtro, c=id_cliente, n=nome_funcao, n1=nome_funcao1, p1=funcao1, p=funcao)))\n    response.write(\'">Adicione</a></p>\', escape=False)\n    pass\nresponse.write(\'\\n</div>\\n</div>\\n\\t\\t\\t\\t\\t\\t\\t    \\n<div id="tabs2-pane3" class="tab-pane">\\n<div class="well">\\n\\t\', escape=False)\nif detalhes.hosts.if3 != "" or None:\n    response.write(\'<h4><span style="color: black;">\', escape=False)\n    response.write(detalhes.hosts.if3)\n    response.write(\'</span></h4>\\n\\t<p><b>IP</b>:&nbsp;&nbsp;\', escape=False)\n    response.write(detalhes.hosts.ip3)\n    response.write(\'</p>\\n\\t<p><b>M\\xc3\\xa1scara</b>:&nbsp;&nbsp;\', escape=False)\n    response.write(detalhes.hosts.masc3)\n    response.write(\'</p>\\n\\t<p><b>Obs</b>:&nbsp;&nbsp;\', escape=False)\n    response.write(detalhes.hosts.obs3)\n    response.write(\'</p>\', escape=False)\nelse:\n    response.write(\'<p style="text-align: center;">Aninda n\\xc3\\xa3o existe uma interface de rede aqui!</p><br><br><br>\\n\\t<p style="text-align: center;"><a class="btn" href="\', escape=False)\n    response.write(URL(\'initial\', \'edit_host\',\n    vars=dict(f=filtro, c=id_cliente, n=nome_funcao, n1=nome_funcao1, p1=funcao1, p=funcao)))\n    response.write(\'">Adicione</a></p>\', escape=False)\n    pass\nresponse.write(\'\\n</div>\\t\\t\\t    \\n</div>\\n\\t\\t\\t\\t\\t\\t\\t    \\n<div id="tabs2-pane4" class="tab-pane">\\n<div class="well">\\n\\t\', escape=False)\nif detalhes.hosts.if4 != "" or None:\n    response.write(\'<h4><span style="color: black;">\', escape=False)\n    response.write(detalhes.hosts.if4)\n    response.write(\'</span></h4>\\n\\t<p><b>IP</b>:&nbsp;&nbsp;\', escape=False)\n    response.write(detalhes.hosts.ip4)\n    response.write(\'</p>\\n\\t<p><b>M\\xc3\\xa1scara</b>:&nbsp;&nbsp;\', escape=False)\n    response.write(detalhes.hosts.masc4)\n    response.write(\'</p>\\n\\t<p><b>Obs</b>:&nbsp;&nbsp;\', escape=False)\n    response.write(detalhes.hosts.obs4)\n    response.write(\'</p>\', escape=False)\nelse:\n    response.write(\'<p style="text-align: center;">Aninda n\\xc3\\xa3o existe uma interface de rede aqui!</p><br><br><br>\\n\\t<p style="text-align: center;"><a class="btn" href="\', escape=False)\n    response.write(URL(\'initial\', \'edit_host\',\n    vars=dict(f=filtro, c=id_cliente, n=nome_funcao, n1=nome_funcao1, p1=funcao1, p=funcao)))\n    response.write(\'">Adicione</a></p>\', escape=False)\n    pass\nresponse.write(\'\\n</div>\\n</div>\\n\\n</div><!-- /.tab-content -->\\n</div>\\n<div>\\n             \\n            \\n<div class="span10"><br><br>\\n<div class="tabbable"><!-- /.tabbable -->\\n<ul class="nav nav-tabs">\\n<li class="active"><a href="#pane1" data-toggle="tab">Servi\\xc3\\xa7os</a></li>\\n<li><a href="#pane2" data-toggle="tab">Observa\\xc3\\xa7\\xc3\\xb5es Gerais</a></li>\\n<li><a href="#pane3" data-toggle="tab">Rotas</a></li>\\n<li><a href="#pane4" data-toggle="tab">Arquivo</a></li>\\n</ul>\\n\\n<div class="tab-content"><!-- /.tab-content -->\\n<div id="pane1" class="tab-pane active">\\n<div class="well">\\n<p>\', escape=False)\nresponse.write(detalhes.hosts.servicos)\nresponse.write(\'</p>\\n</div>\\n</div>\\n\\n<div id="pane2" class="tab-pane">\\n<div class="well">\\n<p>\', escape=False)\nresponse.write(detalhes.hosts.obs_gerais)\nresponse.write(\'</p>\\n</div>\\n</div>\\n\\n<div id="pane3" class="tab-pane">\\n<div class="well">\\n<p>\', escape=False)\nresponse.write(detalhes.hosts.rotas)\nresponse.write(\'</p>\\n</div>\\n</div>\\n\\n<div id="pane4" class="tab-pane">\\n<div class="well">\\n\\n\\n\\t\', escape=False)\nif var2 == \'jpg\' or var2 == \'png\':\n    response.write(\'\\n\\t<a href="\', escape=False)\n    response.write(URL(a=\'projeto\', c=\'static\', f=\'arq\'))\n    response.write(\'/\', escape=False)\n    response.write(detalhes.hosts.upload)\n    response.write(\'" target="_blank"><img src="\', escape=False)\n    response.write(URL(a=\'projeto\', c=\'static\', f=\'images\'))\n    response.write(\'/jpeg.png"></a>\\n\\t\\n\\t\', escape=False)\nelif var2 == \'pdf\':\n    response.write(\'\\n\\t<a href="\', escape=False)\n    response.write(URL(a=\'projeto\', c=\'static\', f=\'arq\'))\n    response.write(\'/\', escape=False)\n    response.write(detalhes.hosts.upload)\n    response.write(\'" target="_blank"><img src="\', escape=False)\n    response.write(URL(a=\'projeto\', c=\'static\', f=\'images\'))\n    response.write(\'/pdf.png"></a>\\n\\n\\t\', escape=False)\nelif var2 != \'\':\n    response.write(\'\\n\\t<a href="\', escape=False)\n    response.write(URL(a=\'projeto\', c=\'static\', f=\'arq\'))\n    response.write(\'/\', escape=False)\n    response.write(detalhes.hosts.upload)\n    response.write(\'" target="_blank"><img src="\', escape=False)\n    response.write(URL(a=\'projeto\', c=\'static\', f=\'images\'))\n    response.write(\'/doc.png"></a>\\n\\t\', escape=False)\n    pass\nresponse.write(\'\\n\\t\', escape=False)\npass\nresponse.write(\'\\n\\t\', escape=False)\npass\nresponse.write(\'\\n\\n\\n</div>\\n</div>\\n    \\n</div><!-- /.tab-content -->\\n</div><!-- /.tabbable -->\\n</div>\\n\\n\\n\\n\\n\\n\', escape=False)\nresponse.write(\'\\n        </div>\\n\\n        \', escape=False)\nif right_sidebar_enabled:\n    response.write(\'\\n        <div class="span3">\\n            \', escape=False)\n    response.write(\'\\n            <h3>Right Sidebar</h3>\\n            <p></p>\\n            \', escape=False)\n    response.write(\'\\n        </div>\\n        \', escape=False)\n    pass\nresponse.write(\'\\n    </section><!--/main-->\\n\\n    <!-- Footer ================================================== -->\\n    <div class="row">\\n        <footer class="footer span12" id="footer">\\n            <div class="footer-content">\\n                \', escape=False)\nresponse.write(\' <!-- this is default footer -->\\n                <div class="copyright pull-left">\', escape=False)\nresponse.write(T(\'Copyright\'))\nresponse.write(\' &#169; \', escape=False)\nresponse.write(request.now.year)\nresponse.write(\'</div>\\n                <div id="poweredBy" class="pull-right">\\n                    \', escape=False)\nresponse.write(T(\'Desenvolvido por\'))\nresponse.write(\'\\n                    <a href="http://www.aldeiadigital.com.br/">Aldeia Digital</a>\\n                </div>\\n                \', escape=False)\nresponse.write(\'\\n            </div>\\n        </footer>\\n    </div>\\n\\n  </div> <!-- /container -->\\n\\n  <!-- The javascript =============================================\\n       (Placed at the end of the document so the pages load faster) -->\\n  <script src="\', escape=False)\nresponse.write(URL(\'static\',\'js/bootstrap.min.js\'))\nresponse.write(\'"></script>\\n  <script src="\', escape=False)\nresponse.write(URL(\'static\',\'js/web2py_bootstrap.js\'))\nresponse.write(\'"></script>\\n  <!--[if lt IE 7 ]>\\n      <script src="\', escape=False)\nresponse.write(URL(\'static\',\'js/dd_belatedpng.js\'))\nresponse.write(\'"></script>\\n      <script> DD_belatedPNG.fix(\\\'img, .png_bg\\\'); //fix any <img> or .png_bg background-images </script>\\n      <![endif]-->\\n  \\n  \', escape=False)\nif response.google_analytics_id:\n    response.write(\'\\n  <script src="\', escape=False)\n    response.write(URL(\'static\',\'js/analytics.js\'))\n    response.write(\'"></script>\\n  <script type="text/javascript">\\n  analytics.initialize({\\n    \\\'Google Analytics\\\':{trackingId:\\\'\', escape=False)\n    response.write(response.google_analytics_id)\n    response.write("\'} \\n  });</script>\\n  ", escape=False)\n    pass\nresponse.write(\'\\n  <!--<script src="\', escape=False)\nresponse.write(URL(\'static\',\'js/share.js\',vars=dict(static=URL(\'static\',\'images\'))))\nresponse.write(\'"></script>-->\\n</body>\\n</html>\\n\', escape=False)'
p7
sS'snapshot'
p8
(dp9
S'exception'
p10
(dp11
S'__hash__'
p12
S"<method-wrapper '__hash__' of exceptions.NameError object>"
p13
sS'__setattr__'
p14
S"<method-wrapper '__setattr__' of exceptions.NameError object>"
p15
sS'__reduce_ex__'
p16
S'<built-in method __reduce_ex__ of exceptions.NameError object>'
p17
sS'__getslice__'
p18
S"<method-wrapper '__getslice__' of exceptions.NameError object>"
p19
sS'__getitem__'
p20
S"<method-wrapper '__getitem__' of exceptions.NameError object>"
p21
sS'__setstate__'
p22
S'<built-in method __setstate__ of exceptions.NameError object>'
p23
sS'args'
p24
S'("name \'var2\' is not defined",)'
p25
sS'__reduce__'
p26
S'<built-in method __reduce__ of exceptions.NameError object>'
p27
sS'__str__'
p28
S"<method-wrapper '__str__' of exceptions.NameError object>"
p29
sS'__format__'
p30
S'<built-in method __format__ of exceptions.NameError object>'
p31
sS'__getattribute__'
p32
S"<method-wrapper '__getattribute__' of exceptions.NameError object>"
p33
sS'__class__'
p34
S"<type 'exceptions.NameError'>"
p35
sS'__unicode__'
p36
S'<built-in method __unicode__ of exceptions.NameError object>'
p37
sS'__delattr__'
p38
S"<method-wrapper '__delattr__' of exceptions.NameError object>"
p39
sS'__subclasshook__'
p40
S'<built-in method __subclasshook__ of type object>'
p41
sS'__repr__'
p42
S"<method-wrapper '__repr__' of exceptions.NameError object>"
p43
sS'__dict__'
p44
S'{}'
p45
sS'__sizeof__'
p46
S'<built-in method __sizeof__ of exceptions.NameError object>'
p47
sS'__doc__'
p48
S"'Name not found globally.'"
p49
sS'__init__'
p50
S"<method-wrapper '__init__' of exceptions.NameError object>"
p51
sS'__new__'
p52
S'<built-in method __new__ of type object>'
p53
ssS'evalue'
p54
S"name 'var2' is not defined"
p55
sS'request'
p56
ccopy_reg
_reconstructor
p57
(cgluon.html
BEAUTIFY
p58
c__builtin__
object
p59
NtRp60
(dp61
S'attributes'
p62
(dp63
sS'components'
p64
(lp65
g57
(cgluon.html
TABLE
p66
g59
NtRp67
(dp68
g62
(dp69
S'level'
p70
I5
ssS'parent'
p71
Nsg64
(lp72
g57
(cgluon.html
TR
p73
g59
NtRp74
(dp75
g62
(dp76
sg71
g67
sg64
(lp77
g57
(cgluon.html
TD
p78
g59
NtRp79
(dp80
g62
(dp81
S'_style'
p82
S'font-weight:bold;vertical-align:top'
p83
ssg71
g74
sg64
(lp84
S'ajax'
p85
asbag57
(g78
g59
NtRp86
(dp87
g62
(dp88
S'_valign'
p89
S'top'
p90
ssg71
g74
sg64
(lp91
S':'
asbag57
(g78
g59
NtRp92
(dp93
g62
(dp94
sg71
g74
sg64
(lp95
g57
(g58
g59
NtRp96
(dp97
g62
(dp98
g70
I5
ssg71
g92
sg64
(lp99
S'False'
p100
asbasbasbag57
(g73
g59
NtRp101
(dp102
g62
(dp103
sg71
g67
sg64
(lp104
g57
(g78
g59
NtRp105
(dp106
g62
(dp107
g82
g83
ssg71
g101
sg64
(lp108
S'application'
p109
asbag57
(g78
g59
NtRp110
(dp111
g62
(dp112
g89
g90
ssg71
g101
sg64
(lp113
S':'
asbag57
(g78
g59
NtRp114
(dp115
g62
(dp116
sg71
g101
sg64
(lp117
g57
(g58
g59
NtRp118
(dp119
g62
(dp120
g70
I5
ssg71
g114
sg64
(lp121
S'projeto'
p122
asbasbasbag57
(g73
g59
NtRp123
(dp124
g62
(dp125
sg71
g67
sg64
(lp126
g57
(g78
g59
NtRp127
(dp128
g62
(dp129
g82
g83
ssg71
g123
sg64
(lp130
g24
asbag57
(g78
g59
NtRp131
(dp132
g62
(dp133
g89
g90
ssg71
g123
sg64
(lp134
S':'
asbag57
(g78
g59
NtRp135
(dp136
g62
(dp137
sg71
g123
sg64
(lp138
g57
(g58
g59
NtRp139
(dp140
g62
(dp141
g70
I5
ssg71
g135
sg64
(lp142
g57
(g66
g59
NtRp143
(dp144
g62
(dp145
g70
I4
ssg71
Nsg64
(lp146
sbasbasbasbag57
(g73
g59
NtRp147
(dp148
g62
(dp149
sg71
g67
sg64
(lp150
g57
(g78
g59
NtRp151
(dp152
g62
(dp153
g82
g83
ssg71
g147
sg64
(lp154
S'body'
p155
asbag57
(g78
g59
NtRp156
(dp157
g62
(dp158
g89
g90
ssg71
g147
sg64
(lp159
S':'
asbag57
(g78
g59
NtRp160
(dp161
g62
(dp162
sg71
g147
sg64
(lp163
g57
(g58
g59
NtRp164
(dp165
g62
(dp166
g70
I5
ssg71
g160
sg64
(lp167
S'<cStringIO.StringO object at 0x7faeb4199110>'
p168
asbasbasbag57
(g73
g59
NtRp169
(dp170
g62
(dp171
sg71
g67
sg64
(lp172
g57
(g78
g59
NtRp173
(dp174
g62
(dp175
g82
g83
ssg71
g169
sg64
(lp176
S'cid'
p177
asbag57
(g78
g59
NtRp178
(dp179
g62
(dp180
g89
g90
ssg71
g169
sg64
(lp181
S':'
asbag57
(g78
g59
NtRp182
(dp183
g62
(dp184
sg71
g169
sg64
(lp185
g57
(g58
g59
NtRp186
(dp187
g62
(dp188
g70
I5
ssg71
g182
sg64
(lp189
S'None'
p190
asbasbasbag57
(g73
g59
NtRp191
(dp192
g62
(dp193
sg71
g67
sg64
(lp194
g57
(g78
g59
NtRp195
(dp196
g62
(dp197
g82
g83
ssg71
g191
sg64
(lp198
S'client'
p199
asbag57
(g78
g59
NtRp200
(dp201
g62
(dp202
g89
g90
ssg71
g191
sg64
(lp203
S':'
asbag57
(g78
g59
NtRp204
(dp205
g62
(dp206
sg71
g191
sg64
(lp207
g57
(g58
g59
NtRp208
(dp209
g62
(dp210
g70
I5
ssg71
g204
sg64
(lp211
S'127.0.0.1'
p212
asbasbasbag57
(g73
g59
NtRp213
(dp214
g62
(dp215
sg71
g67
sg64
(lp216
g57
(g78
g59
NtRp217
(dp218
g62
(dp219
g82
g83
ssg71
g213
sg64
(lp220
S'controller'
p221
asbag57
(g78
g59
NtRp222
(dp223
g62
(dp224
g89
g90
ssg71
g213
sg64
(lp225
S':'
asbag57
(g78
g59
NtRp226
(dp227
g62
(dp228
sg71
g213
sg64
(lp229
g57
(g58
g59
NtRp230
(dp231
g62
(dp232
g70
I5
ssg71
g226
sg64
(lp233
S'initial'
p234
asbasbasbag57
(g73
g59
NtRp235
(dp236
g62
(dp237
sg71
g67
sg64
(lp238
g57
(g78
g59
NtRp239
(dp240
g62
(dp241
g82
g83
ssg71
g235
sg64
(lp242
S'cookies'
p243
asbag57
(g78
g59
NtRp244
(dp245
g62
(dp246
g89
g90
ssg71
g235
sg64
(lp247
S':'
asbag57
(g78
g59
NtRp248
(dp249
g62
(dp250
sg71
g235
sg64
(lp251
g57
(g58
g59
NtRp252
(dp253
g62
(dp254
g70
I5
ssg71
g248
sg64
(lp255
g57
(g66
g59
NtRp256
(dp257
g62
(dp258
g70
I4
ssg71
Nsg64
(lp259
g57
(g73
g59
NtRp260
(dp261
g62
(dp262
sg71
g256
sg64
(lp263
g57
(g78
g59
NtRp264
(dp265
g62
(dp266
g82
g83
ssg71
g260
sg64
(lp267
S'session_id_admin'
p268
asbag57
(g78
g59
NtRp269
(dp270
g62
(dp271
g89
g90
ssg71
g260
sg64
(lp272
S':'
asbag57
(g78
g59
NtRp273
(dp274
g62
(dp275
sg71
g260
sg64
(lp276
g57
(g58
g59
NtRp277
(dp278
g62
(dp279
g70
I4
ssg71
g273
sg64
(lp280
S'127.0.0.1-9ac93a28-57cb-4a57-8f13-2d9258b0177a'
p281
ag57
(g66
g59
NtRp282
(dp283
g62
(dp284
g70
I3
ssg71
Nsg64
(lp285
g57
(g73
g59
NtRp286
(dp287
g62
(dp288
sg71
g282
sg64
(lp289
g57
(g78
g59
NtRp290
(dp291
g62
(dp292
g82
g83
ssg71
g286
sg64
(lp293
S'comment'
p294
asbag57
(g78
g59
NtRp295
(dp296
g62
(dp297
g89
g90
ssg71
g286
sg64
(lp298
S':'
asbag57
(g78
g59
NtRp299
(dp300
g62
(dp301
sg71
g286
sg64
(lp302
g57
(g58
g59
NtRp303
(dp304
g62
(dp305
g70
I3
ssg71
g299
sg64
(lp306
S''
asbasbasbag57
(g73
g59
NtRp307
(dp308
g62
(dp309
sg71
g282
sg64
(lp310
g57
(g78
g59
NtRp311
(dp312
g62
(dp313
g82
g83
ssg71
g307
sg64
(lp314
S'domain'
p315
asbag57
(g78
g59
NtRp316
(dp317
g62
(dp318
g89
g90
ssg71
g307
sg64
(lp319
S':'
asbag57
(g78
g59
NtRp320
(dp321
g62
(dp322
sg71
g307
sg64
(lp323
g57
(g58
g59
NtRp324
(dp325
g62
(dp326
g70
I3
ssg71
g320
sg64
(lp327
S''
asbasbasbag57
(g73
g59
NtRp328
(dp329
g62
(dp330
sg71
g282
sg64
(lp331
g57
(g78
g59
NtRp332
(dp333
g62
(dp334
g82
g83
ssg71
g328
sg64
(lp335
S'expires'
p336
asbag57
(g78
g59
NtRp337
(dp338
g62
(dp339
g89
g90
ssg71
g328
sg64
(lp340
S':'
asbag57
(g78
g59
NtRp341
(dp342
g62
(dp343
sg71
g328
sg64
(lp344
g57
(g58
g59
NtRp345
(dp346
g62
(dp347
g70
I3
ssg71
g341
sg64
(lp348
S''
asbasbasbag57
(g73
g59
NtRp349
(dp350
g62
(dp351
sg71
g282
sg64
(lp352
g57
(g78
g59
NtRp353
(dp354
g62
(dp355
g82
g83
ssg71
g349
sg64
(lp356
S'httponly'
p357
asbag57
(g78
g59
NtRp358
(dp359
g62
(dp360
g89
g90
ssg71
g349
sg64
(lp361
S':'
asbag57
(g78
g59
NtRp362
(dp363
g62
(dp364
sg71
g349
sg64
(lp365
g57
(g58
g59
NtRp366
(dp367
g62
(dp368
g70
I3
ssg71
g362
sg64
(lp369
S''
asbasbasbag57
(g73
g59
NtRp370
(dp371
g62
(dp372
sg71
g282
sg64
(lp373
g57
(g78
g59
NtRp374
(dp375
g62
(dp376
g82
g83
ssg71
g370
sg64
(lp377
S'max-age'
p378
asbag57
(g78
g59
NtRp379
(dp380
g62
(dp381
g89
g90
ssg71
g370
sg64
(lp382
S':'
asbag57
(g78
g59
NtRp383
(dp384
g62
(dp385
sg71
g370
sg64
(lp386
g57
(g58
g59
NtRp387
(dp388
g62
(dp389
g70
I3
ssg71
g383
sg64
(lp390
S''
asbasbasbag57
(g73
g59
NtRp391
(dp392
g62
(dp393
sg71
g282
sg64
(lp394
g57
(g78
g59
NtRp395
(dp396
g62
(dp397
g82
g83
ssg71
g391
sg64
(lp398
S'path'
p399
asbag57
(g78
g59
NtRp400
(dp401
g62
(dp402
g89
g90
ssg71
g391
sg64
(lp403
S':'
asbag57
(g78
g59
NtRp404
(dp405
g62
(dp406
sg71
g391
sg64
(lp407
g57
(g58
g59
NtRp408
(dp409
g62
(dp410
g70
I3
ssg71
g404
sg64
(lp411
S''
asbasbasbag57
(g73
g59
NtRp412
(dp413
g62
(dp414
sg71
g282
sg64
(lp415
g57
(g78
g59
NtRp416
(dp417
g62
(dp418
g82
g83
ssg71
g412
sg64
(lp419
S'secure'
p420
asbag57
(g78
g59
NtRp421
(dp422
g62
(dp423
g89
g90
ssg71
g412
sg64
(lp424
S':'
asbag57
(g78
g59
NtRp425
(dp426
g62
(dp427
sg71
g412
sg64
(lp428
g57
(g58
g59
NtRp429
(dp430
g62
(dp431
g70
I3
ssg71
g425
sg64
(lp432
S''
asbasbasbag57
(g73
g59
NtRp433
(dp434
g62
(dp435
sg71
g282
sg64
(lp436
g57
(g78
g59
NtRp437
(dp438
g62
(dp439
g82
g83
ssg71
g433
sg64
(lp440
S'version'
p441
asbag57
(g78
g59
NtRp442
(dp443
g62
(dp444
g89
g90
ssg71
g433
sg64
(lp445
S':'
asbag57
(g78
g59
NtRp446
(dp447
g62
(dp448
sg71
g433
sg64
(lp449
g57
(g58
g59
NtRp450
(dp451
g62
(dp452
g70
I3
ssg71
g446
sg64
(lp453
S''
asbasbasbasbasbasbasbag57
(g73
g59
NtRp454
(dp455
g62
(dp456
sg71
g256
sg64
(lp457
g57
(g78
g59
NtRp458
(dp459
g62
(dp460
g82
g83
ssg71
g454
sg64
(lp461
S'session_id_agenda'
p462
asbag57
(g78
g59
NtRp463
(dp464
g62
(dp465
g89
g90
ssg71
g454
sg64
(lp466
S':'
asbag57
(g78
g59
NtRp467
(dp468
g62
(dp469
sg71
g454
sg64
(lp470
g57
(g58
g59
NtRp471
(dp472
g62
(dp473
g70
I4
ssg71
g467
sg64
(lp474
S'127.0.0.1-08d13f7f-ac4c-498a-b3a4-f9e93166e0be'
p475
ag57
(g66
g59
NtRp476
(dp477
g62
(dp478
g70
I3
ssg71
Nsg64
(lp479
g57
(g73
g59
NtRp480
(dp481
g62
(dp482
sg71
g476
sg64
(lp483
g57
(g78
g59
NtRp484
(dp485
g62
(dp486
g82
g83
ssg71
g480
sg64
(lp487
g294
asbag57
(g78
g59
NtRp488
(dp489
g62
(dp490
g89
g90
ssg71
g480
sg64
(lp491
S':'
asbag57
(g78
g59
NtRp492
(dp493
g62
(dp494
sg71
g480
sg64
(lp495
g57
(g58
g59
NtRp496
(dp497
g62
(dp498
g70
I3
ssg71
g492
sg64
(lp499
S''
asbasbasbag57
(g73
g59
NtRp500
(dp501
g62
(dp502
sg71
g476
sg64
(lp503
g57
(g78
g59
NtRp504
(dp505
g62
(dp506
g82
g83
ssg71
g500
sg64
(lp507
g315
asbag57
(g78
g59
NtRp508
(dp509
g62
(dp510
g89
g90
ssg71
g500
sg64
(lp511
S':'
asbag57
(g78
g59
NtRp512
(dp513
g62
(dp514
sg71
g500
sg64
(lp515
g57
(g58
g59
NtRp516
(dp517
g62
(dp518
g70
I3
ssg71
g512
sg64
(lp519
S''
asbasbasbag57
(g73
g59
NtRp520
(dp521
g62
(dp522
sg71
g476
sg64
(lp523
g57
(g78
g59
NtRp524
(dp525
g62
(dp526
g82
g83
ssg71
g520
sg64
(lp527
g336
asbag57
(g78
g59
NtRp528
(dp529
g62
(dp530
g89
g90
ssg71
g520
sg64
(lp531
S':'
asbag57
(g78
g59
NtRp532
(dp533
g62
(dp534
sg71
g520
sg64
(lp535
g57
(g58
g59
NtRp536
(dp537
g62
(dp538
g70
I3
ssg71
g532
sg64
(lp539
S''
asbasbasbag57
(g73
g59
NtRp540
(dp541
g62
(dp542
sg71
g476
sg64
(lp543
g57
(g78
g59
NtRp544
(dp545
g62
(dp546
g82
g83
ssg71
g540
sg64
(lp547
g357
asbag57
(g78
g59
NtRp548
(dp549
g62
(dp550
g89
g90
ssg71
g540
sg64
(lp551
S':'
asbag57
(g78
g59
NtRp552
(dp553
g62
(dp554
sg71
g540
sg64
(lp555
g57
(g58
g59
NtRp556
(dp557
g62
(dp558
g70
I3
ssg71
g552
sg64
(lp559
S''
asbasbasbag57
(g73
g59
NtRp560
(dp561
g62
(dp562
sg71
g476
sg64
(lp563
g57
(g78
g59
NtRp564
(dp565
g62
(dp566
g82
g83
ssg71
g560
sg64
(lp567
g378
asbag57
(g78
g59
NtRp568
(dp569
g62
(dp570
g89
g90
ssg71
g560
sg64
(lp571
S':'
asbag57
(g78
g59
NtRp572
(dp573
g62
(dp574
sg71
g560
sg64
(lp575
g57
(g58
g59
NtRp576
(dp577
g62
(dp578
g70
I3
ssg71
g572
sg64
(lp579
S''
asbasbasbag57
(g73
g59
NtRp580
(dp581
g62
(dp582
sg71
g476
sg64
(lp583
g57
(g78
g59
NtRp584
(dp585
g62
(dp586
g82
g83
ssg71
g580
sg64
(lp587
g399
asbag57
(g78
g59
NtRp588
(dp589
g62
(dp590
g89
g90
ssg71
g580
sg64
(lp591
S':'
asbag57
(g78
g59
NtRp592
(dp593
g62
(dp594
sg71
g580
sg64
(lp595
g57
(g58
g59
NtRp596
(dp597
g62
(dp598
g70
I3
ssg71
g592
sg64
(lp599
S''
asbasbasbag57
(g73
g59
NtRp600
(dp601
g62
(dp602
sg71
g476
sg64
(lp603
g57
(g78
g59
NtRp604
(dp605
g62
(dp606
g82
g83
ssg71
g600
sg64
(lp607
g420
asbag57
(g78
g59
NtRp608
(dp609
g62
(dp610
g89
g90
ssg71
g600
sg64
(lp611
S':'
asbag57
(g78
g59
NtRp612
(dp613
g62
(dp614
sg71
g600
sg64
(lp615
g57
(g58
g59
NtRp616
(dp617
g62
(dp618
g70
I3
ssg71
g612
sg64
(lp619
S''
asbasbasbag57
(g73
g59
NtRp620
(dp621
g62
(dp622
sg71
g476
sg64
(lp623
g57
(g78
g59
NtRp624
(dp625
g62
(dp626
g82
g83
ssg71
g620
sg64
(lp627
g441
asbag57
(g78
g59
NtRp628
(dp629
g62
(dp630
g89
g90
ssg71
g620
sg64
(lp631
S':'
asbag57
(g78
g59
NtRp632
(dp633
g62
(dp634
sg71
g620
sg64
(lp635
g57
(g58
g59
NtRp636
(dp637
g62
(dp638
g70
I3
ssg71
g632
sg64
(lp639
S''
asbasbasbasbasbasbasbag57
(g73
g59
NtRp640
(dp641
g62
(dp642
sg71
g256
sg64
(lp643
g57
(g78
g59
NtRp644
(dp645
g62
(dp646
g82
g83
ssg71
g640
sg64
(lp647
S'session_id_projeto'
p648
asbag57
(g78
g59
NtRp649
(dp650
g62
(dp651
g89
g90
ssg71
g640
sg64
(lp652
S':'
asbag57
(g78
g59
NtRp653
(dp654
g62
(dp655
sg71
g640
sg64
(lp656
g57
(g58
g59
NtRp657
(dp658
g62
(dp659
g70
I4
ssg71
g653
sg64
(lp660
S'127.0.0.1-b62d7e8b-74ab-4f83-89b2-ac56f3d74e01'
p661
ag57
(g66
g59
NtRp662
(dp663
g62
(dp664
g70
I3
ssg71
Nsg64
(lp665
g57
(g73
g59
NtRp666
(dp667
g62
(dp668
sg71
g662
sg64
(lp669
g57
(g78
g59
NtRp670
(dp671
g62
(dp672
g82
g83
ssg71
g666
sg64
(lp673
g294
asbag57
(g78
g59
NtRp674
(dp675
g62
(dp676
g89
g90
ssg71
g666
sg64
(lp677
S':'
asbag57
(g78
g59
NtRp678
(dp679
g62
(dp680
sg71
g666
sg64
(lp681
g57
(g58
g59
NtRp682
(dp683
g62
(dp684
g70
I3
ssg71
g678
sg64
(lp685
S''
asbasbasbag57
(g73
g59
NtRp686
(dp687
g62
(dp688
sg71
g662
sg64
(lp689
g57
(g78
g59
NtRp690
(dp691
g62
(dp692
g82
g83
ssg71
g686
sg64
(lp693
g315
asbag57
(g78
g59
NtRp694
(dp695
g62
(dp696
g89
g90
ssg71
g686
sg64
(lp697
S':'
asbag57
(g78
g59
NtRp698
(dp699
g62
(dp700
sg71
g686
sg64
(lp701
g57
(g58
g59
NtRp702
(dp703
g62
(dp704
g70
I3
ssg71
g698
sg64
(lp705
S''
asbasbasbag57
(g73
g59
NtRp706
(dp707
g62
(dp708
sg71
g662
sg64
(lp709
g57
(g78
g59
NtRp710
(dp711
g62
(dp712
g82
g83
ssg71
g706
sg64
(lp713
g336
asbag57
(g78
g59
NtRp714
(dp715
g62
(dp716
g89
g90
ssg71
g706
sg64
(lp717
S':'
asbag57
(g78
g59
NtRp718
(dp719
g62
(dp720
sg71
g706
sg64
(lp721
g57
(g58
g59
NtRp722
(dp723
g62
(dp724
g70
I3
ssg71
g718
sg64
(lp725
S''
asbasbasbag57
(g73
g59
NtRp726
(dp727
g62
(dp728
sg71
g662
sg64
(lp729
g57
(g78
g59
NtRp730
(dp731
g62
(dp732
g82
g83
ssg71
g726
sg64
(lp733
g357
asbag57
(g78
g59
NtRp734
(dp735
g62
(dp736
g89
g90
ssg71
g726
sg64
(lp737
S':'
asbag57
(g78
g59
NtRp738
(dp739
g62
(dp740
sg71
g726
sg64
(lp741
g57
(g58
g59
NtRp742
(dp743
g62
(dp744
g70
I3
ssg71
g738
sg64
(lp745
S''
asbasbasbag57
(g73
g59
NtRp746
(dp747
g62
(dp748
sg71
g662
sg64
(lp749
g57
(g78
g59
NtRp750
(dp751
g62
(dp752
g82
g83
ssg71
g746
sg64
(lp753
g378
asbag57
(g78
g59
NtRp754
(dp755
g62
(dp756
g89
g90
ssg71
g746
sg64
(lp757
S':'
asbag57
(g78
g59
NtRp758
(dp759
g62
(dp760
sg71
g746
sg64
(lp761
g57
(g58
g59
NtRp762
(dp763
g62
(dp764
g70
I3
ssg71
g758
sg64
(lp765
S''
asbasbasbag57
(g73
g59
NtRp766
(dp767
g62
(dp768
sg71
g662
sg64
(lp769
g57
(g78
g59
NtRp770
(dp771
g62
(dp772
g82
g83
ssg71
g766
sg64
(lp773
g399
asbag57
(g78
g59
NtRp774
(dp775
g62
(dp776
g89
g90
ssg71
g766
sg64
(lp777
S':'
asbag57
(g78
g59
NtRp778
(dp779
g62
(dp780
sg71
g766
sg64
(lp781
g57
(g58
g59
NtRp782
(dp783
g62
(dp784
g70
I3
ssg71
g778
sg64
(lp785
S''
asbasbasbag57
(g73
g59
NtRp786
(dp787
g62
(dp788
sg71
g662
sg64
(lp789
g57
(g78
g59
NtRp790
(dp791
g62
(dp792
g82
g83
ssg71
g786
sg64
(lp793
g420
asbag57
(g78
g59
NtRp794
(dp795
g62
(dp796
g89
g90
ssg71
g786
sg64
(lp797
S':'
asbag57
(g78
g59
NtRp798
(dp799
g62
(dp800
sg71
g786
sg64
(lp801
g57
(g58
g59
NtRp802
(dp803
g62
(dp804
g70
I3
ssg71
g798
sg64
(lp805
S''
asbasbasbag57
(g73
g59
NtRp806
(dp807
g62
(dp808
sg71
g662
sg64
(lp809
g57
(g78
g59
NtRp810
(dp811
g62
(dp812
g82
g83
ssg71
g806
sg64
(lp813
g441
asbag57
(g78
g59
NtRp814
(dp815
g62
(dp816
g89
g90
ssg71
g806
sg64
(lp817
S':'
asbag57
(g78
g59
NtRp818
(dp819
g62
(dp820
sg71
g806
sg64
(lp821
g57
(g58
g59
NtRp822
(dp823
g62
(dp824
g70
I3
ssg71
g818
sg64
(lp825
S''
asbasbasbasbasbasbasbag57
(g73
g59
NtRp826
(dp827
g62
(dp828
sg71
g256
sg64
(lp829
g57
(g78
g59
NtRp830
(dp831
g62
(dp832
g82
g83
ssg71
g826
sg64
(lp833
S'session_id_ura'
p834
asbag57
(g78
g59
NtRp835
(dp836
g62
(dp837
g89
g90
ssg71
g826
sg64
(lp838
S':'
asbag57
(g78
g59
NtRp839
(dp840
g62
(dp841
sg71
g826
sg64
(lp842
g57
(g58
g59
NtRp843
(dp844
g62
(dp845
g70
I4
ssg71
g839
sg64
(lp846
S'127.0.0.1-3da33ef2-e113-4f9e-8770-1e2b576e8910'
p847
ag57
(g66
g59
NtRp848
(dp849
g62
(dp850
g70
I3
ssg71
Nsg64
(lp851
g57
(g73
g59
NtRp852
(dp853
g62
(dp854
sg71
g848
sg64
(lp855
g57
(g78
g59
NtRp856
(dp857
g62
(dp858
g82
g83
ssg71
g852
sg64
(lp859
g294
asbag57
(g78
g59
NtRp860
(dp861
g62
(dp862
g89
g90
ssg71
g852
sg64
(lp863
S':'
asbag57
(g78
g59
NtRp864
(dp865
g62
(dp866
sg71
g852
sg64
(lp867
g57
(g58
g59
NtRp868
(dp869
g62
(dp870
g70
I3
ssg71
g864
sg64
(lp871
S''
asbasbasbag57
(g73
g59
NtRp872
(dp873
g62
(dp874
sg71
g848
sg64
(lp875
g57
(g78
g59
NtRp876
(dp877
g62
(dp878
g82
g83
ssg71
g872
sg64
(lp879
g315
asbag57
(g78
g59
NtRp880
(dp881
g62
(dp882
g89
g90
ssg71
g872
sg64
(lp883
S':'
asbag57
(g78
g59
NtRp884
(dp885
g62
(dp886
sg71
g872
sg64
(lp887
g57
(g58
g59
NtRp888
(dp889
g62
(dp890
g70
I3
ssg71
g884
sg64
(lp891
S''
asbasbasbag57
(g73
g59
NtRp892
(dp893
g62
(dp894
sg71
g848
sg64
(lp895
g57
(g78
g59
NtRp896
(dp897
g62
(dp898
g82
g83
ssg71
g892
sg64
(lp899
g336
asbag57
(g78
g59
NtRp900
(dp901
g62
(dp902
g89
g90
ssg71
g892
sg64
(lp903
S':'
asbag57
(g78
g59
NtRp904
(dp905
g62
(dp906
sg71
g892
sg64
(lp907
g57
(g58
g59
NtRp908
(dp909
g62
(dp910
g70
I3
ssg71
g904
sg64
(lp911
S''
asbasbasbag57
(g73
g59
NtRp912
(dp913
g62
(dp914
sg71
g848
sg64
(lp915
g57
(g78
g59
NtRp916
(dp917
g62
(dp918
g82
g83
ssg71
g912
sg64
(lp919
g357
asbag57
(g78
g59
NtRp920
(dp921
g62
(dp922
g89
g90
ssg71
g912
sg64
(lp923
S':'
asbag57
(g78
g59
NtRp924
(dp925
g62
(dp926
sg71
g912
sg64
(lp927
g57
(g58
g59
NtRp928
(dp929
g62
(dp930
g70
I3
ssg71
g924
sg64
(lp931
S''
asbasbasbag57
(g73
g59
NtRp932
(dp933
g62
(dp934
sg71
g848
sg64
(lp935
g57
(g78
g59
NtRp936
(dp937
g62
(dp938
g82
g83
ssg71
g932
sg64
(lp939
g378
asbag57
(g78
g59
NtRp940
(dp941
g62
(dp942
g89
g90
ssg71
g932
sg64
(lp943
S':'
asbag57
(g78
g59
NtRp944
(dp945
g62
(dp946
sg71
g932
sg64
(lp947
g57
(g58
g59
NtRp948
(dp949
g62
(dp950
g70
I3
ssg71
g944
sg64
(lp951
S''
asbasbasbag57
(g73
g59
NtRp952
(dp953
g62
(dp954
sg71
g848
sg64
(lp955
g57
(g78
g59
NtRp956
(dp957
g62
(dp958
g82
g83
ssg71
g952
sg64
(lp959
g399
asbag57
(g78
g59
NtRp960
(dp961
g62
(dp962
g89
g90
ssg71
g952
sg64
(lp963
S':'
asbag57
(g78
g59
NtRp964
(dp965
g62
(dp966
sg71
g952
sg64
(lp967
g57
(g58
g59
NtRp968
(dp969
g62
(dp970
g70
I3
ssg71
g964
sg64
(lp971
S''
asbasbasbag57
(g73
g59
NtRp972
(dp973
g62
(dp974
sg71
g848
sg64
(lp975
g57
(g78
g59
NtRp976
(dp977
g62
(dp978
g82
g83
ssg71
g972
sg64
(lp979
g420
asbag57
(g78
g59
NtRp980
(dp981
g62
(dp982
g89
g90
ssg71
g972
sg64
(lp983
S':'
asbag57
(g78
g59
NtRp984
(dp985
g62
(dp986
sg71
g972
sg64
(lp987
g57
(g58
g59
NtRp988
(dp989
g62
(dp990
g70
I3
ssg71
g984
sg64
(lp991
S''
asbasbasbag57
(g73
g59
NtRp992
(dp993
g62
(dp994
sg71
g848
sg64
(lp995
g57
(g78
g59
NtRp996
(dp997
g62
(dp998
g82
g83
ssg71
g992
sg64
(lp999
g441
asbag57
(g78
g59
NtRp1000
(dp1001
g62
(dp1002
g89
g90
ssg71
g992
sg64
(lp1003
S':'
asbag57
(g78
g59
NtRp1004
(dp1005
g62
(dp1006
sg71
g992
sg64
(lp1007
g57
(g58
g59
NtRp1008
(dp1009
g62
(dp1010
g70
I3
ssg71
g1004
sg64
(lp1011
S''
asbasbasbasbasbasbasbasbasbasbasbag57
(g73
g59
NtRp1012
(dp1013
g62
(dp1014
sg71
g67
sg64
(lp1015
g57
(g78
g59
NtRp1016
(dp1017
g62
(dp1018
g82
g83
ssg71
g1012
sg64
(lp1019
S'env'
p1020
asbag57
(g78
g59
NtRp1021
(dp1022
g62
(dp1023
g89
g90
ssg71
g1012
sg64
(lp1024
S':'
asbag57
(g78
g59
NtRp1025
(dp1026
g62
(dp1027
sg71
g1012
sg64
(lp1028
g57
(g58
g59
NtRp1029
(dp1030
g62
(dp1031
g70
I5
ssg71
g1025
sg64
(lp1032
g57
(g66
g59
NtRp1033
(dp1034
g62
(dp1035
g70
I4
ssg71
Nsg64
(lp1036
g57
(g73
g59
NtRp1037
(dp1038
g62
(dp1039
sg71
g1033
sg64
(lp1040
g57
(g78
g59
NtRp1041
(dp1042
g62
(dp1043
g82
g83
ssg71
g1037
sg64
(lp1044
S'app_folders'
p1045
asbag57
(g78
g59
NtRp1046
(dp1047
g62
(dp1048
g89
g90
ssg71
g1037
sg64
(lp1049
S':'
asbag57
(g78
g59
NtRp1050
(dp1051
g62
(dp1052
sg71
g1037
sg64
(lp1053
g57
(g58
g59
NtRp1054
(dp1055
g62
(dp1056
g70
I4
ssg71
g1050
sg64
(lp1057
S"set(['/var/www/hosts3/applications/admin/', '/var/www/hosts3/applications/projeto/'])"
p1058
asbasbasbag57
(g73
g59
NtRp1059
(dp1060
g62
(dp1061
sg71
g1033
sg64
(lp1062
g57
(g78
g59
NtRp1063
(dp1064
g62
(dp1065
g82
g83
ssg71
g1059
sg64
(lp1066
S'applications_parent'
p1067
asbag57
(g78
g59
NtRp1068
(dp1069
g62
(dp1070
g89
g90
ssg71
g1059
sg64
(lp1071
S':'
asbag57
(g78
g59
NtRp1072
(dp1073
g62
(dp1074
sg71
g1059
sg64
(lp1075
g57
(g58
g59
NtRp1076
(dp1077
g62
(dp1078
g70
I4
ssg71
g1072
sg64
(lp1079
S'/var/www/hosts3'
p1080
asbasbasbag57
(g73
g59
NtRp1081
(dp1082
g62
(dp1083
sg71
g1033
sg64
(lp1084
g57
(g78
g59
NtRp1085
(dp1086
g62
(dp1087
g82
g83
ssg71
g1081
sg64
(lp1088
S'cmd_args'
p1089
asbag57
(g78
g59
NtRp1090
(dp1091
g62
(dp1092
g89
g90
ssg71
g1081
sg64
(lp1093
S':'
asbag57
(g78
g59
NtRp1094
(dp1095
g62
(dp1096
sg71
g1081
sg64
(lp1097
g57
(g58
g59
NtRp1098
(dp1099
g62
(dp1100
g70
I4
ssg71
g1094
sg64
(lp1101
g57
(g66
g59
NtRp1102
(dp1103
g62
(dp1104
g70
I3
ssg71
Nsg64
(lp1105
sbasbasbasbag57
(g73
g59
NtRp1106
(dp1107
g62
(dp1108
sg71
g1033
sg64
(lp1109
g57
(g78
g59
NtRp1110
(dp1111
g62
(dp1112
g82
g83
ssg71
g1106
sg64
(lp1113
S'cmd_options'
p1114
asbag57
(g78
g59
NtRp1115
(dp1116
g62
(dp1117
g89
g90
ssg71
g1106
sg64
(lp1118
S':'
asbag57
(g78
g59
NtRp1119
(dp1120
g62
(dp1121
sg71
g1106
sg64
(lp1122
g57
(g58
g59
NtRp1123
(dp1124
g62
(dp1125
g70
I4
ssg71
g1119
sg64
(lp1126
S"<Values at 0x30c4170: {'verbose': False, 'ip': '127.0.0.1', 'with_scheduler': False, 'ips': [], 'shutdown_timeout': 5, 'taskbar': False, 'port': 8000, 'maxthreads': None, 'softcron': False, 'server_name': 'fernando-workstation', 'bpython': False, 'nogui': False, 'pid_filename': 'httpserver.pid', 'extcron': False, 'runcron': False, 'run_system_tests': False, 'test': None, 'folder': '/var/www/hosts3', 'config': '', 'minthreads': None, 'winservice': '', 'shell': None, 'run': '', 'log_filename': 'httpserver.log', 'debuglevel': 30, 'args': [''], 'socket_timeout': 5, 'ssl_ca_certificate': None, 'scheduler': None, 'profiler_filename': None, 'ssl_private_key': '', 'scheduler_groups': None, 'password': '123456', 'request_queue_size': 5, 'ssl_certificate': '', 'cronjob': False, 'numthreads': None, 'quiet': False, 'interfaces': None, 'import_models': False, 'timeout': 10, 'plain': False, 'nobanner': False}>"
p1127
asbasbasbag57
(g73
g59
NtRp1128
(dp1129
g62
(dp1130
sg71
g1033
sg64
(lp1131
g57
(g78
g59
NtRp1132
(dp1133
g62
(dp1134
g82
g83
ssg71
g1128
sg64
(lp1135
S'db_sessions'
p1136
asbag57
(g78
g59
NtRp1137
(dp1138
g62
(dp1139
g89
g90
ssg71
g1128
sg64
(lp1140
S':'
asbag57
(g78
g59
NtRp1141
(dp1142
g62
(dp1143
sg71
g1128
sg64
(lp1144
g57
(g58
g59
NtRp1145
(dp1146
g62
(dp1147
g70
I4
ssg71
g1141
sg64
(lp1148
S'set([])'
p1149
asbasbasbag57
(g73
g59
NtRp1150
(dp1151
g62
(dp1152
sg71
g1033
sg64
(lp1153
g57
(g78
g59
NtRp1154
(dp1155
g62
(dp1156
g82
g83
ssg71
g1150
sg64
(lp1157
S'debugging'
p1158
asbag57
(g78
g59
NtRp1159
(dp1160
g62
(dp1161
g89
g90
ssg71
g1150
sg64
(lp1162
S':'
asbag57
(g78
g59
NtRp1163
(dp1164
g62
(dp1165
sg71
g1150
sg64
(lp1166
g57
(g58
g59
NtRp1167
(dp1168
g62
(dp1169
g70
I4
ssg71
g1163
sg64
(lp1170
g100
asbasbasbag57
(g73
g59
NtRp1171
(dp1172
g62
(dp1173
sg71
g1033
sg64
(lp1174
g57
(g78
g59
NtRp1175
(dp1176
g62
(dp1177
g82
g83
ssg71
g1171
sg64
(lp1178
S'gluon_parent'
p1179
asbag57
(g78
g59
NtRp1180
(dp1181
g62
(dp1182
g89
g90
ssg71
g1171
sg64
(lp1183
S':'
asbag57
(g78
g59
NtRp1184
(dp1185
g62
(dp1186
sg71
g1171
sg64
(lp1187
g57
(g58
g59
NtRp1188
(dp1189
g62
(dp1190
g70
I4
ssg71
g1184
sg64
(lp1191
S'/var/www/hosts3'
p1192
asbasbasbag57
(g73
g59
NtRp1193
(dp1194
g62
(dp1195
sg71
g1033
sg64
(lp1196
g57
(g78
g59
NtRp1197
(dp1198
g62
(dp1199
g82
g83
ssg71
g1193
sg64
(lp1200
S'http_accept'
p1201
asbag57
(g78
g59
NtRp1202
(dp1203
g62
(dp1204
g89
g90
ssg71
g1193
sg64
(lp1205
S':'
asbag57
(g78
g59
NtRp1206
(dp1207
g62
(dp1208
sg71
g1193
sg64
(lp1209
g57
(g58
g59
NtRp1210
(dp1211
g62
(dp1212
g70
I4
ssg71
g1206
sg64
(lp1213
S'text/html,application/xhtml+xml,application/xml;q=0.9,image/webp,*/*;q=0.8'
p1214
asbasbasbag57
(g73
g59
NtRp1215
(dp1216
g62
(dp1217
sg71
g1033
sg64
(lp1218
g57
(g78
g59
NtRp1219
(dp1220
g62
(dp1221
g82
g83
ssg71
g1215
sg64
(lp1222
S'http_accept_encoding'
p1223
asbag57
(g78
g59
NtRp1224
(dp1225
g62
(dp1226
g89
g90
ssg71
g1215
sg64
(lp1227
S':'
asbag57
(g78
g59
NtRp1228
(dp1229
g62
(dp1230
sg71
g1215
sg64
(lp1231
g57
(g58
g59
NtRp1232
(dp1233
g62
(dp1234
g70
I4
ssg71
g1228
sg64
(lp1235
S'gzip,deflate,sdch'
p1236
asbasbasbag57
(g73
g59
NtRp1237
(dp1238
g62
(dp1239
sg71
g1033
sg64
(lp1240
g57
(g78
g59
NtRp1241
(dp1242
g62
(dp1243
g82
g83
ssg71
g1237
sg64
(lp1244
S'http_accept_language'
p1245
asbag57
(g78
g59
NtRp1246
(dp1247
g62
(dp1248
g89
g90
ssg71
g1237
sg64
(lp1249
S':'
asbag57
(g78
g59
NtRp1250
(dp1251
g62
(dp1252
sg71
g1237
sg64
(lp1253
g57
(g58
g59
NtRp1254
(dp1255
g62
(dp1256
g70
I4
ssg71
g1250
sg64
(lp1257
S'pt-BR,pt;q=0.8,en-US;q=0.6,en;q=0.4'
p1258
asbasbasbag57
(g73
g59
NtRp1259
(dp1260
g62
(dp1261
sg71
g1033
sg64
(lp1262
g57
(g78
g59
NtRp1263
(dp1264
g62
(dp1265
g82
g83
ssg71
g1259
sg64
(lp1266
S'http_cache_control'
p1267
asbag57
(g78
g59
NtRp1268
(dp1269
g62
(dp1270
g89
g90
ssg71
g1259
sg64
(lp1271
S':'
asbag57
(g78
g59
NtRp1272
(dp1273
g62
(dp1274
sg71
g1259
sg64
(lp1275
g57
(g58
g59
NtRp1276
(dp1277
g62
(dp1278
g70
I4
ssg71
g1272
sg64
(lp1279
S'max-age=0'
p1280
asbasbasbag57
(g73
g59
NtRp1281
(dp1282
g62
(dp1283
sg71
g1033
sg64
(lp1284
g57
(g78
g59
NtRp1285
(dp1286
g62
(dp1287
g82
g83
ssg71
g1281
sg64
(lp1288
S'http_connection'
p1289
asbag57
(g78
g59
NtRp1290
(dp1291
g62
(dp1292
g89
g90
ssg71
g1281
sg64
(lp1293
S':'
asbag57
(g78
g59
NtRp1294
(dp1295
g62
(dp1296
sg71
g1281
sg64
(lp1297
g57
(g58
g59
NtRp1298
(dp1299
g62
(dp1300
g70
I4
ssg71
g1294
sg64
(lp1301
S'keep-alive'
p1302
asbasbasbag57
(g73
g59
NtRp1303
(dp1304
g62
(dp1305
sg71
g1033
sg64
(lp1306
g57
(g78
g59
NtRp1307
(dp1308
g62
(dp1309
g82
g83
ssg71
g1303
sg64
(lp1310
S'http_cookie'
p1311
asbag57
(g78
g59
NtRp1312
(dp1313
g62
(dp1314
g89
g90
ssg71
g1303
sg64
(lp1315
S':'
asbag57
(g78
g59
NtRp1316
(dp1317
g62
(dp1318
sg71
g1303
sg64
(lp1319
g57
(g58
g59
NtRp1320
(dp1321
g62
(dp1322
g70
I4
ssg71
g1316
sg64
(lp1323
S'session_id_agenda=127.0.0.1-08d13f7f-ac4c-498a-b3a4-f9e93166e0be; session_id_ura=127.0.0.1-3da33ef2-e113-4f9e-8770-1e2b576e8910; session_id_projeto=127.0.0.1-b62d7e8b-74ab-4f83-89b2-ac56f3d74e01; session_id_admin=127.0.0.1-9ac93a28-57cb-4a57-8f13-2d9258b0177a'
p1324
asbasbasbag57
(g73
g59
NtRp1325
(dp1326
g62
(dp1327
sg71
g1033
sg64
(lp1328
g57
(g78
g59
NtRp1329
(dp1330
g62
(dp1331
g82
g83
ssg71
g1325
sg64
(lp1332
S'http_host'
p1333
asbag57
(g78
g59
NtRp1334
(dp1335
g62
(dp1336
g89
g90
ssg71
g1325
sg64
(lp1337
S':'
asbag57
(g78
g59
NtRp1338
(dp1339
g62
(dp1340
sg71
g1325
sg64
(lp1341
g57
(g58
g59
NtRp1342
(dp1343
g62
(dp1344
g70
I4
ssg71
g1338
sg64
(lp1345
S'127.0.0.1:8000'
p1346
asbasbasbag57
(g73
g59
NtRp1347
(dp1348
g62
(dp1349
sg71
g1033
sg64
(lp1350
g57
(g78
g59
NtRp1351
(dp1352
g62
(dp1353
g82
g83
ssg71
g1347
sg64
(lp1354
S'http_user_agent'
p1355
asbag57
(g78
g59
NtRp1356
(dp1357
g62
(dp1358
g89
g90
ssg71
g1347
sg64
(lp1359
S':'
asbag57
(g78
g59
NtRp1360
(dp1361
g62
(dp1362
sg71
g1347
sg64
(lp1363
g57
(g58
g59
NtRp1364
(dp1365
g62
(dp1366
g70
I4
ssg71
g1360
sg64
(lp1367
S'Mozilla/5.0 (X11; Linux x86_64) AppleWebKit/537.36 (KHTML, like Gecko) Chrome/30.0.1599.114 Safari/537.36'
p1368
asbasbasbag57
(g73
g59
NtRp1369
(dp1370
g62
(dp1371
sg71
g1033
sg64
(lp1372
g57
(g78
g59
NtRp1373
(dp1374
g62
(dp1375
g82
g83
ssg71
g1369
sg64
(lp1376
S'is_jython'
p1377
asbag57
(g78
g59
NtRp1378
(dp1379
g62
(dp1380
g89
g90
ssg71
g1369
sg64
(lp1381
S':'
asbag57
(g78
g59
NtRp1382
(dp1383
g62
(dp1384
sg71
g1369
sg64
(lp1385
g57
(g58
g59
NtRp1386
(dp1387
g62
(dp1388
g70
I4
ssg71
g1382
sg64
(lp1389
g100
asbasbasbag57
(g73
g59
NtRp1390
(dp1391
g62
(dp1392
sg71
g1033
sg64
(lp1393
g57
(g78
g59
NtRp1394
(dp1395
g62
(dp1396
g82
g83
ssg71
g1390
sg64
(lp1397
S'is_pypy'
p1398
asbag57
(g78
g59
NtRp1399
(dp1400
g62
(dp1401
g89
g90
ssg71
g1390
sg64
(lp1402
S':'
asbag57
(g78
g59
NtRp1403
(dp1404
g62
(dp1405
sg71
g1390
sg64
(lp1406
g57
(g58
g59
NtRp1407
(dp1408
g62
(dp1409
g70
I4
ssg71
g1403
sg64
(lp1410
g100
asbasbasbag57
(g73
g59
NtRp1411
(dp1412
g62
(dp1413
sg71
g1033
sg64
(lp1414
g57
(g78
g59
NtRp1415
(dp1416
g62
(dp1417
g82
g83
ssg71
g1411
sg64
(lp1418
S'local_hosts'
p1419
asbag57
(g78
g59
NtRp1420
(dp1421
g62
(dp1422
g89
g90
ssg71
g1411
sg64
(lp1423
S':'
asbag57
(g78
g59
NtRp1424
(dp1425
g62
(dp1426
sg71
g1411
sg64
(lp1427
g57
(g58
g59
NtRp1428
(dp1429
g62
(dp1430
g70
I4
ssg71
g1424
sg64
(lp1431
g57
(g66
g59
NtRp1432
(dp1433
g62
(dp1434
g70
I3
ssg71
Nsg64
(lp1435
g57
(g73
g59
NtRp1436
(dp1437
g62
(dp1438
sg71
g1432
sg64
(lp1439
g57
(g78
g59
NtRp1440
(dp1441
g62
(dp1442
sg71
g1436
sg64
(lp1443
g57
(g58
g59
NtRp1444
(dp1445
g62
(dp1446
g70
I3
ssg71
g1440
sg64
(lp1447
S'::1'
p1448
asbasbasbag57
(g73
g59
NtRp1449
(dp1450
g62
(dp1451
sg71
g1432
sg64
(lp1452
g57
(g78
g59
NtRp1453
(dp1454
g62
(dp1455
sg71
g1449
sg64
(lp1456
g57
(g58
g59
NtRp1457
(dp1458
g62
(dp1459
g70
I3
ssg71
g1453
sg64
(lp1460
S'::ffff:127.0.0.1'
p1461
asbasbasbag57
(g73
g59
NtRp1462
(dp1463
g62
(dp1464
sg71
g1432
sg64
(lp1465
g57
(g78
g59
NtRp1466
(dp1467
g62
(dp1468
sg71
g1462
sg64
(lp1469
g57
(g58
g59
NtRp1470
(dp1471
g62
(dp1472
g70
I3
ssg71
g1466
sg64
(lp1473
S'127.0.0.1'
p1474
asbasbasbag57
(g73
g59
NtRp1475
(dp1476
g62
(dp1477
sg71
g1432
sg64
(lp1478
g57
(g78
g59
NtRp1479
(dp1480
g62
(dp1481
sg71
g1475
sg64
(lp1482
g57
(g58
g59
NtRp1483
(dp1484
g62
(dp1485
g70
I3
ssg71
g1479
sg64
(lp1486
S'fernando-workstation'
p1487
asbasbasbasbasbasbasbag57
(g73
g59
NtRp1488
(dp1489
g62
(dp1490
sg71
g1033
sg64
(lp1491
g57
(g78
g59
NtRp1492
(dp1493
g62
(dp1494
g82
g83
ssg71
g1488
sg64
(lp1495
S'path_info'
p1496
asbag57
(g78
g59
NtRp1497
(dp1498
g62
(dp1499
g89
g90
ssg71
g1488
sg64
(lp1500
S':'
asbag57
(g78
g59
NtRp1501
(dp1502
g62
(dp1503
sg71
g1488
sg64
(lp1504
g57
(g58
g59
NtRp1505
(dp1506
g62
(dp1507
g70
I4
ssg71
g1501
sg64
(lp1508
S'/detalhes_nav'
p1509
asbasbasbag57
(g73
g59
NtRp1510
(dp1511
g62
(dp1512
sg71
g1033
sg64
(lp1513
g57
(g78
g59
NtRp1514
(dp1515
g62
(dp1516
g82
g83
ssg71
g1510
sg64
(lp1517
S'query_string'
p1518
asbag57
(g78
g59
NtRp1519
(dp1520
g62
(dp1521
g89
g90
ssg71
g1510
sg64
(lp1522
S':'
asbag57
(g78
g59
NtRp1523
(dp1524
g62
(dp1525
sg71
g1510
sg64
(lp1526
g57
(g58
g59
NtRp1527
(dp1528
g62
(dp1529
g70
I4
ssg71
g1523
sg64
(lp1530
S'c=1&f=204&n=Agabe&n1=Clientes&p=cliente_host&p1=show_cliente'
p1531
asbasbasbag57
(g73
g59
NtRp1532
(dp1533
g62
(dp1534
sg71
g1033
sg64
(lp1535
g57
(g78
g59
NtRp1536
(dp1537
g62
(dp1538
g82
g83
ssg71
g1532
sg64
(lp1539
S'remote_addr'
p1540
asbag57
(g78
g59
NtRp1541
(dp1542
g62
(dp1543
g89
g90
ssg71
g1532
sg64
(lp1544
S':'
asbag57
(g78
g59
NtRp1545
(dp1546
g62
(dp1547
sg71
g1532
sg64
(lp1548
g57
(g58
g59
NtRp1549
(dp1550
g62
(dp1551
g70
I4
ssg71
g1545
sg64
(lp1552
g212
asbasbasbag57
(g73
g59
NtRp1553
(dp1554
g62
(dp1555
sg71
g1033
sg64
(lp1556
g57
(g78
g59
NtRp1557
(dp1558
g62
(dp1559
g82
g83
ssg71
g1553
sg64
(lp1560
S'remote_port'
p1561
asbag57
(g78
g59
NtRp1562
(dp1563
g62
(dp1564
g89
g90
ssg71
g1553
sg64
(lp1565
S':'
asbag57
(g78
g59
NtRp1566
(dp1567
g62
(dp1568
sg71
g1553
sg64
(lp1569
g57
(g58
g59
NtRp1570
(dp1571
g62
(dp1572
g70
I4
ssg71
g1566
sg64
(lp1573
S'51134'
p1574
asbasbasbag57
(g73
g59
NtRp1575
(dp1576
g62
(dp1577
sg71
g1033
sg64
(lp1578
g57
(g78
g59
NtRp1579
(dp1580
g62
(dp1581
g82
g83
ssg71
g1575
sg64
(lp1582
S'request_method'
p1583
asbag57
(g78
g59
NtRp1584
(dp1585
g62
(dp1586
g89
g90
ssg71
g1575
sg64
(lp1587
S':'
asbag57
(g78
g59
NtRp1588
(dp1589
g62
(dp1590
sg71
g1575
sg64
(lp1591
g57
(g58
g59
NtRp1592
(dp1593
g62
(dp1594
g70
I4
ssg71
g1588
sg64
(lp1595
S'GET'
p1596
asbasbasbag57
(g73
g59
NtRp1597
(dp1598
g62
(dp1599
sg71
g1033
sg64
(lp1600
g57
(g78
g59
NtRp1601
(dp1602
g62
(dp1603
g82
g83
ssg71
g1597
sg64
(lp1604
S'request_uri'
p1605
asbag57
(g78
g59
NtRp1606
(dp1607
g62
(dp1608
g89
g90
ssg71
g1597
sg64
(lp1609
S':'
asbag57
(g78
g59
NtRp1610
(dp1611
g62
(dp1612
sg71
g1597
sg64
(lp1613
g57
(g58
g59
NtRp1614
(dp1615
g62
(dp1616
g70
I4
ssg71
g1610
sg64
(lp1617
S'/projeto/initial/detalhes_nav?c=1&f=204&n=Agabe&n1=Clientes&p=cliente_host&p1=show_cliente'
p1618
asbasbasbag57
(g73
g59
NtRp1619
(dp1620
g62
(dp1621
sg71
g1033
sg64
(lp1622
g57
(g78
g59
NtRp1623
(dp1624
g62
(dp1625
g82
g83
ssg71
g1619
sg64
(lp1626
S'script_name'
p1627
asbag57
(g78
g59
NtRp1628
(dp1629
g62
(dp1630
g89
g90
ssg71
g1619
sg64
(lp1631
S':'
asbag57
(g78
g59
NtRp1632
(dp1633
g62
(dp1634
sg71
g1619
sg64
(lp1635
g57
(g58
g59
NtRp1636
(dp1637
g62
(dp1638
g70
I4
ssg71
g1632
sg64
(lp1639
S''
asbasbasbag57
(g73
g59
NtRp1640
(dp1641
g62
(dp1642
sg71
g1033
sg64
(lp1643
g57
(g78
g59
NtRp1644
(dp1645
g62
(dp1646
g82
g83
ssg71
g1640
sg64
(lp1647
S'server_name'
p1648
asbag57
(g78
g59
NtRp1649
(dp1650
g62
(dp1651
g89
g90
ssg71
g1640
sg64
(lp1652
S':'
asbag57
(g78
g59
NtRp1653
(dp1654
g62
(dp1655
sg71
g1640
sg64
(lp1656
g57
(g58
g59
NtRp1657
(dp1658
g62
(dp1659
g70
I4
ssg71
g1653
sg64
(lp1660
S'fernando-workstation'
p1661
asbasbasbag57
(g73
g59
NtRp1662
(dp1663
g62
(dp1664
sg71
g1033
sg64
(lp1665
g57
(g78
g59
NtRp1666
(dp1667
g62
(dp1668
g82
g83
ssg71
g1662
sg64
(lp1669
S'server_port'
p1670
asbag57
(g78
g59
NtRp1671
(dp1672
g62
(dp1673
g89
g90
ssg71
g1662
sg64
(lp1674
S':'
asbag57
(g78
g59
NtRp1675
(dp1676
g62
(dp1677
sg71
g1662
sg64
(lp1678
g57
(g58
g59
NtRp1679
(dp1680
g62
(dp1681
g70
I4
ssg71
g1675
sg64
(lp1682
S'8000'
p1683
asbasbasbag57
(g73
g59
NtRp1684
(dp1685
g62
(dp1686
sg71
g1033
sg64
(lp1687
g57
(g78
g59
NtRp1688
(dp1689
g62
(dp1690
g82
g83
ssg71
g1684
sg64
(lp1691
S'server_protocol'
p1692
asbag57
(g78
g59
NtRp1693
(dp1694
g62
(dp1695
g89
g90
ssg71
g1684
sg64
(lp1696
S':'
asbag57
(g78
g59
NtRp1697
(dp1698
g62
(dp1699
sg71
g1684
sg64
(lp1700
g57
(g58
g59
NtRp1701
(dp1702
g62
(dp1703
g70
I4
ssg71
g1697
sg64
(lp1704
S'HTTP/1.1'
p1705
asbasbasbag57
(g73
g59
NtRp1706
(dp1707
g62
(dp1708
sg71
g1033
sg64
(lp1709
g57
(g78
g59
NtRp1710
(dp1711
g62
(dp1712
g82
g83
ssg71
g1706
sg64
(lp1713
S'server_software'
p1714
asbag57
(g78
g59
NtRp1715
(dp1716
g62
(dp1717
g89
g90
ssg71
g1706
sg64
(lp1718
S':'
asbag57
(g78
g59
NtRp1719
(dp1720
g62
(dp1721
sg71
g1706
sg64
(lp1722
g57
(g58
g59
NtRp1723
(dp1724
g62
(dp1725
g70
I4
ssg71
g1719
sg64
(lp1726
S'Rocket 1.2.6'
p1727
asbasbasbag57
(g73
g59
NtRp1728
(dp1729
g62
(dp1730
sg71
g1033
sg64
(lp1731
g57
(g78
g59
NtRp1732
(dp1733
g62
(dp1734
g82
g83
ssg71
g1728
sg64
(lp1735
S'web2py_original_uri'
p1736
asbag57
(g78
g59
NtRp1737
(dp1738
g62
(dp1739
g89
g90
ssg71
g1728
sg64
(lp1740
S':'
asbag57
(g78
g59
NtRp1741
(dp1742
g62
(dp1743
sg71
g1728
sg64
(lp1744
g57
(g58
g59
NtRp1745
(dp1746
g62
(dp1747
g70
I4
ssg71
g1741
sg64
(lp1748
S'/detalhes_nav?c=1&f=204&n=Agabe&n1=Clientes&p=cliente_host&p1=show_cliente'
p1749
asbasbasbag57
(g73
g59
NtRp1750
(dp1751
g62
(dp1752
sg71
g1033
sg64
(lp1753
g57
(g78
g59
NtRp1754
(dp1755
g62
(dp1756
g82
g83
ssg71
g1750
sg64
(lp1757
S'web2py_path'
p1758
asbag57
(g78
g59
NtRp1759
(dp1760
g62
(dp1761
g89
g90
ssg71
g1750
sg64
(lp1762
S':'
asbag57
(g78
g59
NtRp1763
(dp1764
g62
(dp1765
sg71
g1750
sg64
(lp1766
g57
(g58
g59
NtRp1767
(dp1768
g62
(dp1769
g70
I4
ssg71
g1763
sg64
(lp1770
g1080
asbasbasbag57
(g73
g59
NtRp1771
(dp1772
g62
(dp1773
sg71
g1033
sg64
(lp1774
g57
(g78
g59
NtRp1775
(dp1776
g62
(dp1777
g82
g83
ssg71
g1771
sg64
(lp1778
S'web2py_version'
p1779
asbag57
(g78
g59
NtRp1780
(dp1781
g62
(dp1782
g89
g90
ssg71
g1771
sg64
(lp1783
S':'
asbag57
(g78
g59
NtRp1784
(dp1785
g62
(dp1786
sg71
g1771
sg64
(lp1787
g57
(g58
g59
NtRp1788
(dp1789
g62
(dp1790
g70
I4
ssg71
g1784
sg64
(lp1791
g57
(g66
g59
NtRp1792
(dp1793
g62
(dp1794
g70
I3
ssg71
Nsg64
(lp1795
g57
(g73
g59
NtRp1796
(dp1797
g62
(dp1798
sg71
g1792
sg64
(lp1799
g57
(g78
g59
NtRp1800
(dp1801
g62
(dp1802
sg71
g1796
sg64
(lp1803
g57
(g58
g59
NtRp1804
(dp1805
g62
(dp1806
g70
I3
ssg71
g1800
sg64
(lp1807
S'2'
asbasbasbag57
(g73
g59
NtRp1808
(dp1809
g62
(dp1810
sg71
g1792
sg64
(lp1811
g57
(g78
g59
NtRp1812
(dp1813
g62
(dp1814
sg71
g1808
sg64
(lp1815
g57
(g58
g59
NtRp1816
(dp1817
g62
(dp1818
g70
I3
ssg71
g1812
sg64
(lp1819
S'3'
asbasbasbag57
(g73
g59
NtRp1820
(dp1821
g62
(dp1822
sg71
g1792
sg64
(lp1823
g57
(g78
g59
NtRp1824
(dp1825
g62
(dp1826
sg71
g1820
sg64
(lp1827
g57
(g58
g59
NtRp1828
(dp1829
g62
(dp1830
g70
I3
ssg71
g1824
sg64
(lp1831
S'2'
asbasbasbag57
(g73
g59
NtRp1832
(dp1833
g62
(dp1834
sg71
g1792
sg64
(lp1835
g57
(g78
g59
NtRp1836
(dp1837
g62
(dp1838
sg71
g1832
sg64
(lp1839
g57
(g58
g59
NtRp1840
(dp1841
g62
(dp1842
g70
I3
ssg71
g1836
sg64
(lp1843
S'datetime.datetime(2012, 12, 17, 15, 3, 30)'
p1844
asbasbasbag57
(g73
g59
NtRp1845
(dp1846
g62
(dp1847
sg71
g1792
sg64
(lp1848
g57
(g78
g59
NtRp1849
(dp1850
g62
(dp1851
sg71
g1845
sg64
(lp1852
g57
(g58
g59
NtRp1853
(dp1854
g62
(dp1855
g70
I3
ssg71
g1849
sg64
(lp1856
S'stable'
p1857
asbasbasbasbasbasbasbag57
(g73
g59
NtRp1858
(dp1859
g62
(dp1860
sg71
g1033
sg64
(lp1861
g57
(g78
g59
NtRp1862
(dp1863
g62
(dp1864
g82
g83
ssg71
g1858
sg64
(lp1865
S'wsgi_errors'
p1866
asbag57
(g78
g59
NtRp1867
(dp1868
g62
(dp1869
g89
g90
ssg71
g1858
sg64
(lp1870
S':'
asbag57
(g78
g59
NtRp1871
(dp1872
g62
(dp1873
sg71
g1858
sg64
(lp1874
g57
(g58
g59
NtRp1875
(dp1876
g62
(dp1877
g70
I4
ssg71
g1871
sg64
(lp1878
S"<open file '<stderr>', mode 'w' at 0x7faedd228270>"
p1879
asbasbasbag57
(g73
g59
NtRp1880
(dp1881
g62
(dp1882
sg71
g1033
sg64
(lp1883
g57
(g78
g59
NtRp1884
(dp1885
g62
(dp1886
g82
g83
ssg71
g1880
sg64
(lp1887
S'wsgi_file_wrapper'
p1888
asbag57
(g78
g59
NtRp1889
(dp1890
g62
(dp1891
g89
g90
ssg71
g1880
sg64
(lp1892
S':'
asbag57
(g78
g59
NtRp1893
(dp1894
g62
(dp1895
sg71
g1880
sg64
(lp1896
g57
(g58
g59
NtRp1897
(dp1898
g62
(dp1899
g70
I4
ssg71
g1893
sg64
(lp1900
S'<class wsgiref.util.FileWrapper at 0x304b4c8>'
p1901
asbasbasbag57
(g73
g59
NtRp1902
(dp1903
g62
(dp1904
sg71
g1033
sg64
(lp1905
g57
(g78
g59
NtRp1906
(dp1907
g62
(dp1908
g82
g83
ssg71
g1902
sg64
(lp1909
S'wsgi_input'
p1910
asbag57
(g78
g59
NtRp1911
(dp1912
g62
(dp1913
g89
g90
ssg71
g1902
sg64
(lp1914
S':'
asbag57
(g78
g59
NtRp1915
(dp1916
g62
(dp1917
sg71
g1902
sg64
(lp1918
g57
(g58
g59
NtRp1919
(dp1920
g62
(dp1921
g70
I4
ssg71
g1915
sg64
(lp1922
S'<socket._fileobject object at 0x7faec80d44d0>'
p1923
asbasbasbag57
(g73
g59
NtRp1924
(dp1925
g62
(dp1926
sg71
g1033
sg64
(lp1927
g57
(g78
g59
NtRp1928
(dp1929
g62
(dp1930
g82
g83
ssg71
g1924
sg64
(lp1931
S'wsgi_multiprocess'
p1932
asbag57
(g78
g59
NtRp1933
(dp1934
g62
(dp1935
g89
g90
ssg71
g1924
sg64
(lp1936
S':'
asbag57
(g78
g59
NtRp1937
(dp1938
g62
(dp1939
sg71
g1924
sg64
(lp1940
g57
(g58
g59
NtRp1941
(dp1942
g62
(dp1943
g70
I4
ssg71
g1937
sg64
(lp1944
g100
asbasbasbag57
(g73
g59
NtRp1945
(dp1946
g62
(dp1947
sg71
g1033
sg64
(lp1948
g57
(g78
g59
NtRp1949
(dp1950
g62
(dp1951
g82
g83
ssg71
g1945
sg64
(lp1952
S'wsgi_multithread'
p1953
asbag57
(g78
g59
NtRp1954
(dp1955
g62
(dp1956
g89
g90
ssg71
g1945
sg64
(lp1957
S':'
asbag57
(g78
g59
NtRp1958
(dp1959
g62
(dp1960
sg71
g1945
sg64
(lp1961
g57
(g58
g59
NtRp1962
(dp1963
g62
(dp1964
g70
I4
ssg71
g1958
sg64
(lp1965
S'True'
p1966
asbasbasbag57
(g73
g59
NtRp1967
(dp1968
g62
(dp1969
sg71
g1033
sg64
(lp1970
g57
(g78
g59
NtRp1971
(dp1972
g62
(dp1973
g82
g83
ssg71
g1967
sg64
(lp1974
S'wsgi_run_once'
p1975
asbag57
(g78
g59
NtRp1976
(dp1977
g62
(dp1978
g89
g90
ssg71
g1967
sg64
(lp1979
S':'
asbag57
(g78
g59
NtRp1980
(dp1981
g62
(dp1982
sg71
g1967
sg64
(lp1983
g57
(g58
g59
NtRp1984
(dp1985
g62
(dp1986
g70
I4
ssg71
g1980
sg64
(lp1987
g100
asbasbasbag57
(g73
g59
NtRp1988
(dp1989
g62
(dp1990
sg71
g1033
sg64
(lp1991
g57
(g78
g59
NtRp1992
(dp1993
g62
(dp1994
g82
g83
ssg71
g1988
sg64
(lp1995
S'wsgi_url_scheme'
p1996
asbag57
(g78
g59
NtRp1997
(dp1998
g62
(dp1999
g89
g90
ssg71
g1988
sg64
(lp2000
S':'
asbag57
(g78
g59
NtRp2001
(dp2002
g62
(dp2003
sg71
g1988
sg64
(lp2004
g57
(g58
g59
NtRp2005
(dp2006
g62
(dp2007
g70
I4
ssg71
g2001
sg64
(lp2008
S'http'
p2009
asbasbasbag57
(g73
g59
NtRp2010
(dp2011
g62
(dp2012
sg71
g1033
sg64
(lp2013
g57
(g78
g59
NtRp2014
(dp2015
g62
(dp2016
g82
g83
ssg71
g2010
sg64
(lp2017
S'wsgi_version'
p2018
asbag57
(g78
g59
NtRp2019
(dp2020
g62
(dp2021
g89
g90
ssg71
g2010
sg64
(lp2022
S':'
asbag57
(g78
g59
NtRp2023
(dp2024
g62
(dp2025
sg71
g2010
sg64
(lp2026
g57
(g58
g59
NtRp2027
(dp2028
g62
(dp2029
g70
I4
ssg71
g2023
sg64
(lp2030
g57
(g66
g59
NtRp2031
(dp2032
g62
(dp2033
g70
I3
ssg71
Nsg64
(lp2034
g57
(g73
g59
NtRp2035
(dp2036
g62
(dp2037
sg71
g2031
sg64
(lp2038
g57
(g78
g59
NtRp2039
(dp2040
g62
(dp2041
sg71
g2035
sg64
(lp2042
g57
(g58
g59
NtRp2043
(dp2044
g62
(dp2045
g70
I3
ssg71
g2039
sg64
(lp2046
S'1'
asbasbasbag57
(g73
g59
NtRp2047
(dp2048
g62
(dp2049
sg71
g2031
sg64
(lp2050
g57
(g78
g59
NtRp2051
(dp2052
g62
(dp2053
sg71
g2047
sg64
(lp2054
g57
(g58
g59
NtRp2055
(dp2056
g62
(dp2057
g70
I3
ssg71
g2051
sg64
(lp2058
S'0'
asbasbasbasbasbasbasbasbasbasbasbag57
(g73
g59
NtRp2059
(dp2060
g62
(dp2061
sg71
g67
sg64
(lp2062
g57
(g78
g59
NtRp2063
(dp2064
g62
(dp2065
g82
g83
ssg71
g2059
sg64
(lp2066
S'extension'
p2067
asbag57
(g78
g59
NtRp2068
(dp2069
g62
(dp2070
g89
g90
ssg71
g2059
sg64
(lp2071
S':'
asbag57
(g78
g59
NtRp2072
(dp2073
g62
(dp2074
sg71
g2059
sg64
(lp2075
g57
(g58
g59
NtRp2076
(dp2077
g62
(dp2078
g70
I5
ssg71
g2072
sg64
(lp2079
S'html'
p2080
asbasbasbag57
(g73
g59
NtRp2081
(dp2082
g62
(dp2083
sg71
g67
sg64
(lp2084
g57
(g78
g59
NtRp2085
(dp2086
g62
(dp2087
g82
g83
ssg71
g2081
sg64
(lp2088
S'folder'
p2089
asbag57
(g78
g59
NtRp2090
(dp2091
g62
(dp2092
g89
g90
ssg71
g2081
sg64
(lp2093
S':'
asbag57
(g78
g59
NtRp2094
(dp2095
g62
(dp2096
sg71
g2081
sg64
(lp2097
g57
(g58
g59
NtRp2098
(dp2099
g62
(dp2100
g70
I5
ssg71
g2094
sg64
(lp2101
S'/var/www/hosts3/applications/projeto/'
p2102
asbasbasbag57
(g73
g59
NtRp2103
(dp2104
g62
(dp2105
sg71
g67
sg64
(lp2106
g57
(g78
g59
NtRp2107
(dp2108
g62
(dp2109
g82
g83
ssg71
g2103
sg64
(lp2110
S'function'
p2111
asbag57
(g78
g59
NtRp2112
(dp2113
g62
(dp2114
g89
g90
ssg71
g2103
sg64
(lp2115
S':'
asbag57
(g78
g59
NtRp2116
(dp2117
g62
(dp2118
sg71
g2103
sg64
(lp2119
g57
(g58
g59
NtRp2120
(dp2121
g62
(dp2122
g70
I5
ssg71
g2116
sg64
(lp2123
S'detalhes_nav'
p2124
asbasbasbag57
(g73
g59
NtRp2125
(dp2126
g62
(dp2127
sg71
g67
sg64
(lp2128
g57
(g78
g59
NtRp2129
(dp2130
g62
(dp2131
g82
g83
ssg71
g2125
sg64
(lp2132
S'get_vars'
p2133
asbag57
(g78
g59
NtRp2134
(dp2135
g62
(dp2136
g89
g90
ssg71
g2125
sg64
(lp2137
S':'
asbag57
(g78
g59
NtRp2138
(dp2139
g62
(dp2140
sg71
g2125
sg64
(lp2141
g57
(g58
g59
NtRp2142
(dp2143
g62
(dp2144
g70
I5
ssg71
g2138
sg64
(lp2145
g57
(g66
g59
NtRp2146
(dp2147
g62
(dp2148
g70
I4
ssg71
Nsg64
(lp2149
g57
(g73
g59
NtRp2150
(dp2151
g62
(dp2152
sg71
g2146
sg64
(lp2153
g57
(g78
g59
NtRp2154
(dp2155
g62
(dp2156
g82
g83
ssg71
g2150
sg64
(lp2157
S'c'
asbag57
(g78
g59
NtRp2158
(dp2159
g62
(dp2160
g89
g90
ssg71
g2150
sg64
(lp2161
S':'
asbag57
(g78
g59
NtRp2162
(dp2163
g62
(dp2164
sg71
g2150
sg64
(lp2165
g57
(g58
g59
NtRp2166
(dp2167
g62
(dp2168
g70
I4
ssg71
g2162
sg64
(lp2169
S'1'
asbasbasbag57
(g73
g59
NtRp2170
(dp2171
g62
(dp2172
sg71
g2146
sg64
(lp2173
g57
(g78
g59
NtRp2174
(dp2175
g62
(dp2176
g82
g83
ssg71
g2170
sg64
(lp2177
S'f'
asbag57
(g78
g59
NtRp2178
(dp2179
g62
(dp2180
g89
g90
ssg71
g2170
sg64
(lp2181
S':'
asbag57
(g78
g59
NtRp2182
(dp2183
g62
(dp2184
sg71
g2170
sg64
(lp2185
g57
(g58
g59
NtRp2186
(dp2187
g62
(dp2188
g70
I4
ssg71
g2182
sg64
(lp2189
S'204'
p2190
asbasbasbag57
(g73
g59
NtRp2191
(dp2192
g62
(dp2193
sg71
g2146
sg64
(lp2194
g57
(g78
g59
NtRp2195
(dp2196
g62
(dp2197
g82
g83
ssg71
g2191
sg64
(lp2198
S'n'
asbag57
(g78
g59
NtRp2199
(dp2200
g62
(dp2201
g89
g90
ssg71
g2191
sg64
(lp2202
S':'
asbag57
(g78
g59
NtRp2203
(dp2204
g62
(dp2205
sg71
g2191
sg64
(lp2206
g57
(g58
g59
NtRp2207
(dp2208
g62
(dp2209
g70
I4
ssg71
g2203
sg64
(lp2210
S'Agabe'
p2211
asbasbasbag57
(g73
g59
NtRp2212
(dp2213
g62
(dp2214
sg71
g2146
sg64
(lp2215
g57
(g78
g59
NtRp2216
(dp2217
g62
(dp2218
g82
g83
ssg71
g2212
sg64
(lp2219
S'n1'
p2220
asbag57
(g78
g59
NtRp2221
(dp2222
g62
(dp2223
g89
g90
ssg71
g2212
sg64
(lp2224
S':'
asbag57
(g78
g59
NtRp2225
(dp2226
g62
(dp2227
sg71
g2212
sg64
(lp2228
g57
(g58
g59
NtRp2229
(dp2230
g62
(dp2231
g70
I4
ssg71
g2225
sg64
(lp2232
S'Clientes'
p2233
asbasbasbag57
(g73
g59
NtRp2234
(dp2235
g62
(dp2236
sg71
g2146
sg64
(lp2237
g57
(g78
g59
NtRp2238
(dp2239
g62
(dp2240
g82
g83
ssg71
g2234
sg64
(lp2241
S'p'
asbag57
(g78
g59
NtRp2242
(dp2243
g62
(dp2244
g89
g90
ssg71
g2234
sg64
(lp2245
S':'
asbag57
(g78
g59
NtRp2246
(dp2247
g62
(dp2248
sg71
g2234
sg64
(lp2249
g57
(g58
g59
NtRp2250
(dp2251
g62
(dp2252
g70
I4
ssg71
g2246
sg64
(lp2253
S'cliente_host'
p2254
asbasbasbag57
(g73
g59
NtRp2255
(dp2256
g62
(dp2257
sg71
g2146
sg64
(lp2258
g57
(g78
g59
NtRp2259
(dp2260
g62
(dp2261
g82
g83
ssg71
g2255
sg64
(lp2262
S'p1'
p2263
asbag57
(g78
g59
NtRp2264
(dp2265
g62
(dp2266
g89
g90
ssg71
g2255
sg64
(lp2267
S':'
asbag57
(g78
g59
NtRp2268
(dp2269
g62
(dp2270
sg71
g2255
sg64
(lp2271
g57
(g58
g59
NtRp2272
(dp2273
g62
(dp2274
g70
I4
ssg71
g2268
sg64
(lp2275
S'show_cliente'
p2276
asbasbasbasbasbasbasbag57
(g73
g59
NtRp2277
(dp2278
g62
(dp2279
sg71
g67
sg64
(lp2280
g57
(g78
g59
NtRp2281
(dp2282
g62
(dp2283
g82
g83
ssg71
g2277
sg64
(lp2284
S'global_settings'
p2285
asbag57
(g78
g59
NtRp2286
(dp2287
g62
(dp2288
g89
g90
ssg71
g2277
sg64
(lp2289
S':'
asbag57
(g78
g59
NtRp2290
(dp2291
g62
(dp2292
sg71
g2277
sg64
(lp2293
g57
(g58
g59
NtRp2294
(dp2295
g62
(dp2296
g70
I5
ssg71
g2290
sg64
(lp2297
g57
(g66
g59
NtRp2298
(dp2299
g62
(dp2300
g70
I4
ssg71
Nsg64
(lp2301
g57
(g73
g59
NtRp2302
(dp2303
g62
(dp2304
sg71
g2298
sg64
(lp2305
g57
(g78
g59
NtRp2306
(dp2307
g62
(dp2308
g82
g83
ssg71
g2302
sg64
(lp2309
g1045
asbag57
(g78
g59
NtRp2310
(dp2311
g62
(dp2312
g89
g90
ssg71
g2302
sg64
(lp2313
S':'
asbag57
(g78
g59
NtRp2314
(dp2315
g62
(dp2316
sg71
g2302
sg64
(lp2317
g57
(g58
g59
NtRp2318
(dp2319
g62
(dp2320
g70
I4
ssg71
g2314
sg64
(lp2321
S"set(['/var/www/hosts3/applications/admin/', '/var/www/hosts3/applications/projeto/'])"
p2322
asbasbasbag57
(g73
g59
NtRp2323
(dp2324
g62
(dp2325
sg71
g2298
sg64
(lp2326
g57
(g78
g59
NtRp2327
(dp2328
g62
(dp2329
g82
g83
ssg71
g2323
sg64
(lp2330
g1067
asbag57
(g78
g59
NtRp2331
(dp2332
g62
(dp2333
g89
g90
ssg71
g2323
sg64
(lp2334
S':'
asbag57
(g78
g59
NtRp2335
(dp2336
g62
(dp2337
sg71
g2323
sg64
(lp2338
g57
(g58
g59
NtRp2339
(dp2340
g62
(dp2341
g70
I4
ssg71
g2335
sg64
(lp2342
g1080
asbasbasbag57
(g73
g59
NtRp2343
(dp2344
g62
(dp2345
sg71
g2298
sg64
(lp2346
g57
(g78
g59
NtRp2347
(dp2348
g62
(dp2349
g82
g83
ssg71
g2343
sg64
(lp2350
g1089
asbag57
(g78
g59
NtRp2351
(dp2352
g62
(dp2353
g89
g90
ssg71
g2343
sg64
(lp2354
S':'
asbag57
(g78
g59
NtRp2355
(dp2356
g62
(dp2357
sg71
g2343
sg64
(lp2358
g57
(g58
g59
NtRp2359
(dp2360
g62
(dp2361
g70
I4
ssg71
g2355
sg64
(lp2362
g57
(g66
g59
NtRp2363
(dp2364
g62
(dp2365
g70
I3
ssg71
Nsg64
(lp2366
sbasbasbasbag57
(g73
g59
NtRp2367
(dp2368
g62
(dp2369
sg71
g2298
sg64
(lp2370
g57
(g78
g59
NtRp2371
(dp2372
g62
(dp2373
g82
g83
ssg71
g2367
sg64
(lp2374
g1114
asbag57
(g78
g59
NtRp2375
(dp2376
g62
(dp2377
g89
g90
ssg71
g2367
sg64
(lp2378
S':'
asbag57
(g78
g59
NtRp2379
(dp2380
g62
(dp2381
sg71
g2367
sg64
(lp2382
g57
(g58
g59
NtRp2383
(dp2384
g62
(dp2385
g70
I4
ssg71
g2379
sg64
(lp2386
S"<Values at 0x30c4170: {'verbose': False, 'ip': '127.0.0.1', 'with_scheduler': False, 'ips': [], 'shutdown_timeout': 5, 'taskbar': False, 'port': 8000, 'maxthreads': None, 'softcron': False, 'server_name': 'fernando-workstation', 'bpython': False, 'nogui': False, 'pid_filename': 'httpserver.pid', 'extcron': False, 'runcron': False, 'run_system_tests': False, 'test': None, 'folder': '/var/www/hosts3', 'config': '', 'minthreads': None, 'winservice': '', 'shell': None, 'run': '', 'log_filename': 'httpserver.log', 'debuglevel': 30, 'args': [''], 'socket_timeout': 5, 'ssl_ca_certificate': None, 'scheduler': None, 'profiler_filename': None, 'ssl_private_key': '', 'scheduler_groups': None, 'password': '123456', 'request_queue_size': 5, 'ssl_certificate': '', 'cronjob': False, 'numthreads': None, 'quiet': False, 'interfaces': None, 'import_models': False, 'timeout': 10, 'plain': False, 'nobanner': False}>"
p2387
asbasbasbag57
(g73
g59
NtRp2388
(dp2389
g62
(dp2390
sg71
g2298
sg64
(lp2391
g57
(g78
g59
NtRp2392
(dp2393
g62
(dp2394
g82
g83
ssg71
g2388
sg64
(lp2395
g1136
asbag57
(g78
g59
NtRp2396
(dp2397
g62
(dp2398
g89
g90
ssg71
g2388
sg64
(lp2399
S':'
asbag57
(g78
g59
NtRp2400
(dp2401
g62
(dp2402
sg71
g2388
sg64
(lp2403
g57
(g58
g59
NtRp2404
(dp2405
g62
(dp2406
g70
I4
ssg71
g2400
sg64
(lp2407
S'set([])'
p2408
asbasbasbag57
(g73
g59
NtRp2409
(dp2410
g62
(dp2411
sg71
g2298
sg64
(lp2412
g57
(g78
g59
NtRp2413
(dp2414
g62
(dp2415
g82
g83
ssg71
g2409
sg64
(lp2416
g1158
asbag57
(g78
g59
NtRp2417
(dp2418
g62
(dp2419
g89
g90
ssg71
g2409
sg64
(lp2420
S':'
asbag57
(g78
g59
NtRp2421
(dp2422
g62
(dp2423
sg71
g2409
sg64
(lp2424
g57
(g58
g59
NtRp2425
(dp2426
g62
(dp2427
g70
I4
ssg71
g2421
sg64
(lp2428
g100
asbasbasbag57
(g73
g59
NtRp2429
(dp2430
g62
(dp2431
sg71
g2298
sg64
(lp2432
g57
(g78
g59
NtRp2433
(dp2434
g62
(dp2435
g82
g83
ssg71
g2429
sg64
(lp2436
g1179
asbag57
(g78
g59
NtRp2437
(dp2438
g62
(dp2439
g89
g90
ssg71
g2429
sg64
(lp2440
S':'
asbag57
(g78
g59
NtRp2441
(dp2442
g62
(dp2443
sg71
g2429
sg64
(lp2444
g57
(g58
g59
NtRp2445
(dp2446
g62
(dp2447
g70
I4
ssg71
g2441
sg64
(lp2448
g1192
asbasbasbag57
(g73
g59
NtRp2449
(dp2450
g62
(dp2451
sg71
g2298
sg64
(lp2452
g57
(g78
g59
NtRp2453
(dp2454
g62
(dp2455
g82
g83
ssg71
g2449
sg64
(lp2456
g1377
asbag57
(g78
g59
NtRp2457
(dp2458
g62
(dp2459
g89
g90
ssg71
g2449
sg64
(lp2460
S':'
asbag57
(g78
g59
NtRp2461
(dp2462
g62
(dp2463
sg71
g2449
sg64
(lp2464
g57
(g58
g59
NtRp2465
(dp2466
g62
(dp2467
g70
I4
ssg71
g2461
sg64
(lp2468
g100
asbasbasbag57
(g73
g59
NtRp2469
(dp2470
g62
(dp2471
sg71
g2298
sg64
(lp2472
g57
(g78
g59
NtRp2473
(dp2474
g62
(dp2475
g82
g83
ssg71
g2469
sg64
(lp2476
g1398
asbag57
(g78
g59
NtRp2477
(dp2478
g62
(dp2479
g89
g90
ssg71
g2469
sg64
(lp2480
S':'
asbag57
(g78
g59
NtRp2481
(dp2482
g62
(dp2483
sg71
g2469
sg64
(lp2484
g57
(g58
g59
NtRp2485
(dp2486
g62
(dp2487
g70
I4
ssg71
g2481
sg64
(lp2488
g100
asbasbasbag57
(g73
g59
NtRp2489
(dp2490
g62
(dp2491
sg71
g2298
sg64
(lp2492
g57
(g78
g59
NtRp2493
(dp2494
g62
(dp2495
g82
g83
ssg71
g2489
sg64
(lp2496
g1419
asbag57
(g78
g59
NtRp2497
(dp2498
g62
(dp2499
g89
g90
ssg71
g2489
sg64
(lp2500
S':'
asbag57
(g78
g59
NtRp2501
(dp2502
g62
(dp2503
sg71
g2489
sg64
(lp2504
g57
(g58
g59
NtRp2505
(dp2506
g62
(dp2507
g70
I4
ssg71
g2501
sg64
(lp2508
g57
(g66
g59
NtRp2509
(dp2510
g62
(dp2511
g70
I3
ssg71
Nsg64
(lp2512
g57
(g73
g59
NtRp2513
(dp2514
g62
(dp2515
sg71
g2509
sg64
(lp2516
g57
(g78
g59
NtRp2517
(dp2518
g62
(dp2519
sg71
g2513
sg64
(lp2520
g57
(g58
g59
NtRp2521
(dp2522
g62
(dp2523
g70
I3
ssg71
g2517
sg64
(lp2524
g1448
asbasbasbag57
(g73
g59
NtRp2525
(dp2526
g62
(dp2527
sg71
g2509
sg64
(lp2528
g57
(g78
g59
NtRp2529
(dp2530
g62
(dp2531
sg71
g2525
sg64
(lp2532
g57
(g58
g59
NtRp2533
(dp2534
g62
(dp2535
g70
I3
ssg71
g2529
sg64
(lp2536
g1461
asbasbasbag57
(g73
g59
NtRp2537
(dp2538
g62
(dp2539
sg71
g2509
sg64
(lp2540
g57
(g78
g59
NtRp2541
(dp2542
g62
(dp2543
sg71
g2537
sg64
(lp2544
g57
(g58
g59
NtRp2545
(dp2546
g62
(dp2547
g70
I3
ssg71
g2541
sg64
(lp2548
g1474
asbasbasbag57
(g73
g59
NtRp2549
(dp2550
g62
(dp2551
sg71
g2509
sg64
(lp2552
g57
(g78
g59
NtRp2553
(dp2554
g62
(dp2555
sg71
g2549
sg64
(lp2556
g57
(g58
g59
NtRp2557
(dp2558
g62
(dp2559
g70
I3
ssg71
g2553
sg64
(lp2560
g1487
asbasbasbasbasbasbasbag57
(g73
g59
NtRp2561
(dp2562
g62
(dp2563
sg71
g2298
sg64
(lp2564
g57
(g78
g59
NtRp2565
(dp2566
g62
(dp2567
g82
g83
ssg71
g2561
sg64
(lp2568
g1779
asbag57
(g78
g59
NtRp2569
(dp2570
g62
(dp2571
g89
g90
ssg71
g2561
sg64
(lp2572
S':'
asbag57
(g78
g59
NtRp2573
(dp2574
g62
(dp2575
sg71
g2561
sg64
(lp2576
g57
(g58
g59
NtRp2577
(dp2578
g62
(dp2579
g70
I4
ssg71
g2573
sg64
(lp2580
g57
(g66
g59
NtRp2581
(dp2582
g62
(dp2583
g70
I3
ssg71
Nsg64
(lp2584
g57
(g73
g59
NtRp2585
(dp2586
g62
(dp2587
sg71
g2581
sg64
(lp2588
g57
(g78
g59
NtRp2589
(dp2590
g62
(dp2591
sg71
g2585
sg64
(lp2592
g57
(g58
g59
NtRp2593
(dp2594
g62
(dp2595
g70
I3
ssg71
g2589
sg64
(lp2596
S'2'
asbasbasbag57
(g73
g59
NtRp2597
(dp2598
g62
(dp2599
sg71
g2581
sg64
(lp2600
g57
(g78
g59
NtRp2601
(dp2602
g62
(dp2603
sg71
g2597
sg64
(lp2604
g57
(g58
g59
NtRp2605
(dp2606
g62
(dp2607
g70
I3
ssg71
g2601
sg64
(lp2608
S'3'
asbasbasbag57
(g73
g59
NtRp2609
(dp2610
g62
(dp2611
sg71
g2581
sg64
(lp2612
g57
(g78
g59
NtRp2613
(dp2614
g62
(dp2615
sg71
g2609
sg64
(lp2616
g57
(g58
g59
NtRp2617
(dp2618
g62
(dp2619
g70
I3
ssg71
g2613
sg64
(lp2620
S'2'
asbasbasbag57
(g73
g59
NtRp2621
(dp2622
g62
(dp2623
sg71
g2581
sg64
(lp2624
g57
(g78
g59
NtRp2625
(dp2626
g62
(dp2627
sg71
g2621
sg64
(lp2628
g57
(g58
g59
NtRp2629
(dp2630
g62
(dp2631
g70
I3
ssg71
g2625
sg64
(lp2632
S'datetime.datetime(2012, 12, 17, 15, 3, 30)'
p2633
asbasbasbag57
(g73
g59
NtRp2634
(dp2635
g62
(dp2636
sg71
g2581
sg64
(lp2637
g57
(g78
g59
NtRp2638
(dp2639
g62
(dp2640
sg71
g2634
sg64
(lp2641
g57
(g58
g59
NtRp2642
(dp2643
g62
(dp2644
g70
I3
ssg71
g2638
sg64
(lp2645
g1857
asbasbasbasbasbasbasbasbasbasbasbag57
(g73
g59
NtRp2646
(dp2647
g62
(dp2648
sg71
g67
sg64
(lp2649
g57
(g78
g59
NtRp2650
(dp2651
g62
(dp2652
g82
g83
ssg71
g2646
sg64
(lp2653
S'is_https'
p2654
asbag57
(g78
g59
NtRp2655
(dp2656
g62
(dp2657
g89
g90
ssg71
g2646
sg64
(lp2658
S':'
asbag57
(g78
g59
NtRp2659
(dp2660
g62
(dp2661
sg71
g2646
sg64
(lp2662
g57
(g58
g59
NtRp2663
(dp2664
g62
(dp2665
g70
I5
ssg71
g2659
sg64
(lp2666
g100
asbasbasbag57
(g73
g59
NtRp2667
(dp2668
g62
(dp2669
sg71
g67
sg64
(lp2670
g57
(g78
g59
NtRp2671
(dp2672
g62
(dp2673
g82
g83
ssg71
g2667
sg64
(lp2674
S'is_local'
p2675
asbag57
(g78
g59
NtRp2676
(dp2677
g62
(dp2678
g89
g90
ssg71
g2667
sg64
(lp2679
S':'
asbag57
(g78
g59
NtRp2680
(dp2681
g62
(dp2682
sg71
g2667
sg64
(lp2683
g57
(g58
g59
NtRp2684
(dp2685
g62
(dp2686
g70
I5
ssg71
g2680
sg64
(lp2687
g1966
asbasbasbag57
(g73
g59
NtRp2688
(dp2689
g62
(dp2690
sg71
g67
sg64
(lp2691
g57
(g78
g59
NtRp2692
(dp2693
g62
(dp2694
g82
g83
ssg71
g2688
sg64
(lp2695
S'is_restful'
p2696
asbag57
(g78
g59
NtRp2697
(dp2698
g62
(dp2699
g89
g90
ssg71
g2688
sg64
(lp2700
S':'
asbag57
(g78
g59
NtRp2701
(dp2702
g62
(dp2703
sg71
g2688
sg64
(lp2704
g57
(g58
g59
NtRp2705
(dp2706
g62
(dp2707
g70
I5
ssg71
g2701
sg64
(lp2708
g100
asbasbasbag57
(g73
g59
NtRp2709
(dp2710
g62
(dp2711
sg71
g67
sg64
(lp2712
g57
(g78
g59
NtRp2713
(dp2714
g62
(dp2715
g82
g83
ssg71
g2709
sg64
(lp2716
S'now'
p2717
asbag57
(g78
g59
NtRp2718
(dp2719
g62
(dp2720
g89
g90
ssg71
g2709
sg64
(lp2721
S':'
asbag57
(g78
g59
NtRp2722
(dp2723
g62
(dp2724
sg71
g2709
sg64
(lp2725
g57
(g58
g59
NtRp2726
(dp2727
g62
(dp2728
g70
I5
ssg71
g2722
sg64
(lp2729
S'datetime.datetime(2014, 2, 6, 14, 17, 40, 106203)'
p2730
asbasbasbag57
(g73
g59
NtRp2731
(dp2732
g62
(dp2733
sg71
g67
sg64
(lp2734
g57
(g78
g59
NtRp2735
(dp2736
g62
(dp2737
g82
g83
ssg71
g2731
sg64
(lp2738
S'post_vars'
p2739
asbag57
(g78
g59
NtRp2740
(dp2741
g62
(dp2742
g89
g90
ssg71
g2731
sg64
(lp2743
S':'
asbag57
(g78
g59
NtRp2744
(dp2745
g62
(dp2746
sg71
g2731
sg64
(lp2747
g57
(g58
g59
NtRp2748
(dp2749
g62
(dp2750
g70
I5
ssg71
g2744
sg64
(lp2751
g57
(g66
g59
NtRp2752
(dp2753
g62
(dp2754
g70
I4
ssg71
Nsg64
(lp2755
sbasbasbasbag57
(g73
g59
NtRp2756
(dp2757
g62
(dp2758
sg71
g67
sg64
(lp2759
g57
(g78
g59
NtRp2760
(dp2761
g62
(dp2762
g82
g83
ssg71
g2756
sg64
(lp2763
S'url'
p2764
asbag57
(g78
g59
NtRp2765
(dp2766
g62
(dp2767
g89
g90
ssg71
g2756
sg64
(lp2768
S':'
asbag57
(g78
g59
NtRp2769
(dp2770
g62
(dp2771
sg71
g2756
sg64
(lp2772
g57
(g58
g59
NtRp2773
(dp2774
g62
(dp2775
g70
I5
ssg71
g2769
sg64
(lp2776
g1509
asbasbasbag57
(g73
g59
NtRp2777
(dp2778
g62
(dp2779
sg71
g67
sg64
(lp2780
g57
(g78
g59
NtRp2781
(dp2782
g62
(dp2783
g82
g83
ssg71
g2777
sg64
(lp2784
S'utcnow'
p2785
asbag57
(g78
g59
NtRp2786
(dp2787
g62
(dp2788
g89
g90
ssg71
g2777
sg64
(lp2789
S':'
asbag57
(g78
g59
NtRp2790
(dp2791
g62
(dp2792
sg71
g2777
sg64
(lp2793
g57
(g58
g59
NtRp2794
(dp2795
g62
(dp2796
g70
I5
ssg71
g2790
sg64
(lp2797
S'datetime.datetime(2014, 2, 6, 16, 17, 40, 106266)'
p2798
asbasbasbag57
(g73
g59
NtRp2799
(dp2800
g62
(dp2801
sg71
g67
sg64
(lp2802
g57
(g78
g59
NtRp2803
(dp2804
g62
(dp2805
g82
g83
ssg71
g2799
sg64
(lp2806
S'uuid'
p2807
asbag57
(g78
g59
NtRp2808
(dp2809
g62
(dp2810
g89
g90
ssg71
g2799
sg64
(lp2811
S':'
asbag57
(g78
g59
NtRp2812
(dp2813
g62
(dp2814
sg71
g2799
sg64
(lp2815
g57
(g58
g59
NtRp2816
(dp2817
g62
(dp2818
g70
I5
ssg71
g2812
sg64
(lp2819
S'projeto/127.0.0.1.2014-02-06.14-17-40.92ccea7b-a075-40de-b59c-7da4b9eeb326'
p2820
asbasbasbag57
(g73
g59
NtRp2821
(dp2822
g62
(dp2823
sg71
g67
sg64
(lp2824
g57
(g78
g59
NtRp2825
(dp2826
g62
(dp2827
g82
g83
ssg71
g2821
sg64
(lp2828
S'vars'
p2829
asbag57
(g78
g59
NtRp2830
(dp2831
g62
(dp2832
g89
g90
ssg71
g2821
sg64
(lp2833
S':'
asbag57
(g78
g59
NtRp2834
(dp2835
g62
(dp2836
sg71
g2821
sg64
(lp2837
g57
(g58
g59
NtRp2838
(dp2839
g62
(dp2840
g70
I5
ssg71
g2834
sg64
(lp2841
g57
(g66
g59
NtRp2842
(dp2843
g62
(dp2844
g70
I4
ssg71
Nsg64
(lp2845
g57
(g73
g59
NtRp2846
(dp2847
g62
(dp2848
sg71
g2842
sg64
(lp2849
g57
(g78
g59
NtRp2850
(dp2851
g62
(dp2852
g82
g83
ssg71
g2846
sg64
(lp2853
S'c'
asbag57
(g78
g59
NtRp2854
(dp2855
g62
(dp2856
g89
g90
ssg71
g2846
sg64
(lp2857
S':'
asbag57
(g78
g59
NtRp2858
(dp2859
g62
(dp2860
sg71
g2846
sg64
(lp2861
g57
(g58
g59
NtRp2862
(dp2863
g62
(dp2864
g70
I4
ssg71
g2858
sg64
(lp2865
S'1'
asbasbasbag57
(g73
g59
NtRp2866
(dp2867
g62
(dp2868
sg71
g2842
sg64
(lp2869
g57
(g78
g59
NtRp2870
(dp2871
g62
(dp2872
g82
g83
ssg71
g2866
sg64
(lp2873
S'f'
asbag57
(g78
g59
NtRp2874
(dp2875
g62
(dp2876
g89
g90
ssg71
g2866
sg64
(lp2877
S':'
asbag57
(g78
g59
NtRp2878
(dp2879
g62
(dp2880
sg71
g2866
sg64
(lp2881
g57
(g58
g59
NtRp2882
(dp2883
g62
(dp2884
g70
I4
ssg71
g2878
sg64
(lp2885
g2190
asbasbasbag57
(g73
g59
NtRp2886
(dp2887
g62
(dp2888
sg71
g2842
sg64
(lp2889
g57
(g78
g59
NtRp2890
(dp2891
g62
(dp2892
g82
g83
ssg71
g2886
sg64
(lp2893
S'n'
asbag57
(g78
g59
NtRp2894
(dp2895
g62
(dp2896
g89
g90
ssg71
g2886
sg64
(lp2897
S':'
asbag57
(g78
g59
NtRp2898
(dp2899
g62
(dp2900
sg71
g2886
sg64
(lp2901
g57
(g58
g59
NtRp2902
(dp2903
g62
(dp2904
g70
I4
ssg71
g2898
sg64
(lp2905
g2211
asbasbasbag57
(g73
g59
NtRp2906
(dp2907
g62
(dp2908
sg71
g2842
sg64
(lp2909
g57
(g78
g59
NtRp2910
(dp2911
g62
(dp2912
g82
g83
ssg71
g2906
sg64
(lp2913
g2220
asbag57
(g78
g59
NtRp2914
(dp2915
g62
(dp2916
g89
g90
ssg71
g2906
sg64
(lp2917
S':'
asbag57
(g78
g59
NtRp2918
(dp2919
g62
(dp2920
sg71
g2906
sg64
(lp2921
g57
(g58
g59
NtRp2922
(dp2923
g62
(dp2924
g70
I4
ssg71
g2918
sg64
(lp2925
g2233
asbasbasbag57
(g73
g59
NtRp2926
(dp2927
g62
(dp2928
sg71
g2842
sg64
(lp2929
g57
(g78
g59
NtRp2930
(dp2931
g62
(dp2932
g82
g83
ssg71
g2926
sg64
(lp2933
S'p'
asbag57
(g78
g59
NtRp2934
(dp2935
g62
(dp2936
g89
g90
ssg71
g2926
sg64
(lp2937
S':'
asbag57
(g78
g59
NtRp2938
(dp2939
g62
(dp2940
sg71
g2926
sg64
(lp2941
g57
(g58
g59
NtRp2942
(dp2943
g62
(dp2944
g70
I4
ssg71
g2938
sg64
(lp2945
g2254
asbasbasbag57
(g73
g59
NtRp2946
(dp2947
g62
(dp2948
sg71
g2842
sg64
(lp2949
g57
(g78
g59
NtRp2950
(dp2951
g62
(dp2952
g82
g83
ssg71
g2946
sg64
(lp2953
g2263
asbag57
(g78
g59
NtRp2954
(dp2955
g62
(dp2956
g89
g90
ssg71
g2946
sg64
(lp2957
S':'
asbag57
(g78
g59
NtRp2958
(dp2959
g62
(dp2960
sg71
g2946
sg64
(lp2961
g57
(g58
g59
NtRp2962
(dp2963
g62
(dp2964
g70
I4
ssg71
g2958
sg64
(lp2965
g2276
asbasbasbasbasbasbasbag57
(g73
g59
NtRp2966
(dp2967
g62
(dp2968
sg71
g67
sg64
(lp2969
g57
(g78
g59
NtRp2970
(dp2971
g62
(dp2972
g82
g83
ssg71
g2966
sg64
(lp2973
S'wsgi'
p2974
asbag57
(g78
g59
NtRp2975
(dp2976
g62
(dp2977
g89
g90
ssg71
g2966
sg64
(lp2978
S':'
asbag57
(g78
g59
NtRp2979
(dp2980
g62
(dp2981
sg71
g2966
sg64
(lp2982
g57
(g58
g59
NtRp2983
(dp2984
g62
(dp2985
g70
I5
ssg71
g2979
sg64
(lp2986
g57
(g66
g59
NtRp2987
(dp2988
g62
(dp2989
g70
I4
ssg71
Nsg64
(lp2990
g57
(g73
g59
NtRp2991
(dp2992
g62
(dp2993
sg71
g2987
sg64
(lp2994
g57
(g78
g59
NtRp2995
(dp2996
g62
(dp2997
g82
g83
ssg71
g2991
sg64
(lp2998
S'environ'
p2999
asbag57
(g78
g59
NtRp3000
(dp3001
g62
(dp3002
g89
g90
ssg71
g2991
sg64
(lp3003
S':'
asbag57
(g78
g59
NtRp3004
(dp3005
g62
(dp3006
sg71
g2991
sg64
(lp3007
g57
(g58
g59
NtRp3008
(dp3009
g62
(dp3010
g70
I4
ssg71
g3004
sg64
(lp3011
g57
(g66
g59
NtRp3012
(dp3013
g62
(dp3014
g70
I3
ssg71
Nsg64
(lp3015
g57
(g73
g59
NtRp3016
(dp3017
g62
(dp3018
sg71
g3012
sg64
(lp3019
g57
(g78
g59
NtRp3020
(dp3021
g62
(dp3022
g82
g83
ssg71
g3016
sg64
(lp3023
S'HTTP_ACCEPT'
p3024
asbag57
(g78
g59
NtRp3025
(dp3026
g62
(dp3027
g89
g90
ssg71
g3016
sg64
(lp3028
S':'
asbag57
(g78
g59
NtRp3029
(dp3030
g62
(dp3031
sg71
g3016
sg64
(lp3032
g57
(g58
g59
NtRp3033
(dp3034
g62
(dp3035
g70
I3
ssg71
g3029
sg64
(lp3036
g1214
asbasbasbag57
(g73
g59
NtRp3037
(dp3038
g62
(dp3039
sg71
g3012
sg64
(lp3040
g57
(g78
g59
NtRp3041
(dp3042
g62
(dp3043
g82
g83
ssg71
g3037
sg64
(lp3044
S'HTTP_ACCEPT_ENCODING'
p3045
asbag57
(g78
g59
NtRp3046
(dp3047
g62
(dp3048
g89
g90
ssg71
g3037
sg64
(lp3049
S':'
asbag57
(g78
g59
NtRp3050
(dp3051
g62
(dp3052
sg71
g3037
sg64
(lp3053
g57
(g58
g59
NtRp3054
(dp3055
g62
(dp3056
g70
I3
ssg71
g3050
sg64
(lp3057
g1236
asbasbasbag57
(g73
g59
NtRp3058
(dp3059
g62
(dp3060
sg71
g3012
sg64
(lp3061
g57
(g78
g59
NtRp3062
(dp3063
g62
(dp3064
g82
g83
ssg71
g3058
sg64
(lp3065
S'HTTP_ACCEPT_LANGUAGE'
p3066
asbag57
(g78
g59
NtRp3067
(dp3068
g62
(dp3069
g89
g90
ssg71
g3058
sg64
(lp3070
S':'
asbag57
(g78
g59
NtRp3071
(dp3072
g62
(dp3073
sg71
g3058
sg64
(lp3074
g57
(g58
g59
NtRp3075
(dp3076
g62
(dp3077
g70
I3
ssg71
g3071
sg64
(lp3078
g1258
asbasbasbag57
(g73
g59
NtRp3079
(dp3080
g62
(dp3081
sg71
g3012
sg64
(lp3082
g57
(g78
g59
NtRp3083
(dp3084
g62
(dp3085
g82
g83
ssg71
g3079
sg64
(lp3086
S'HTTP_CACHE_CONTROL'
p3087
asbag57
(g78
g59
NtRp3088
(dp3089
g62
(dp3090
g89
g90
ssg71
g3079
sg64
(lp3091
S':'
asbag57
(g78
g59
NtRp3092
(dp3093
g62
(dp3094
sg71
g3079
sg64
(lp3095
g57
(g58
g59
NtRp3096
(dp3097
g62
(dp3098
g70
I3
ssg71
g3092
sg64
(lp3099
g1280
asbasbasbag57
(g73
g59
NtRp3100
(dp3101
g62
(dp3102
sg71
g3012
sg64
(lp3103
g57
(g78
g59
NtRp3104
(dp3105
g62
(dp3106
g82
g83
ssg71
g3100
sg64
(lp3107
S'HTTP_CONNECTION'
p3108
asbag57
(g78
g59
NtRp3109
(dp3110
g62
(dp3111
g89
g90
ssg71
g3100
sg64
(lp3112
S':'
asbag57
(g78
g59
NtRp3113
(dp3114
g62
(dp3115
sg71
g3100
sg64
(lp3116
g57
(g58
g59
NtRp3117
(dp3118
g62
(dp3119
g70
I3
ssg71
g3113
sg64
(lp3120
g1302
asbasbasbag57
(g73
g59
NtRp3121
(dp3122
g62
(dp3123
sg71
g3012
sg64
(lp3124
g57
(g78
g59
NtRp3125
(dp3126
g62
(dp3127
g82
g83
ssg71
g3121
sg64
(lp3128
S'HTTP_COOKIE'
p3129
asbag57
(g78
g59
NtRp3130
(dp3131
g62
(dp3132
g89
g90
ssg71
g3121
sg64
(lp3133
S':'
asbag57
(g78
g59
NtRp3134
(dp3135
g62
(dp3136
sg71
g3121
sg64
(lp3137
g57
(g58
g59
NtRp3138
(dp3139
g62
(dp3140
g70
I3
ssg71
g3134
sg64
(lp3141
g1324
asbasbasbag57
(g73
g59
NtRp3142
(dp3143
g62
(dp3144
sg71
g3012
sg64
(lp3145
g57
(g78
g59
NtRp3146
(dp3147
g62
(dp3148
g82
g83
ssg71
g3142
sg64
(lp3149
S'HTTP_HOST'
p3150
asbag57
(g78
g59
NtRp3151
(dp3152
g62
(dp3153
g89
g90
ssg71
g3142
sg64
(lp3154
S':'
asbag57
(g78
g59
NtRp3155
(dp3156
g62
(dp3157
sg71
g3142
sg64
(lp3158
g57
(g58
g59
NtRp3159
(dp3160
g62
(dp3161
g70
I3
ssg71
g3155
sg64
(lp3162
g1346
asbasbasbag57
(g73
g59
NtRp3163
(dp3164
g62
(dp3165
sg71
g3012
sg64
(lp3166
g57
(g78
g59
NtRp3167
(dp3168
g62
(dp3169
g82
g83
ssg71
g3163
sg64
(lp3170
S'HTTP_USER_AGENT'
p3171
asbag57
(g78
g59
NtRp3172
(dp3173
g62
(dp3174
g89
g90
ssg71
g3163
sg64
(lp3175
S':'
asbag57
(g78
g59
NtRp3176
(dp3177
g62
(dp3178
sg71
g3163
sg64
(lp3179
g57
(g58
g59
NtRp3180
(dp3181
g62
(dp3182
g70
I3
ssg71
g3176
sg64
(lp3183
g1368
asbasbasbag57
(g73
g59
NtRp3184
(dp3185
g62
(dp3186
sg71
g3012
sg64
(lp3187
g57
(g78
g59
NtRp3188
(dp3189
g62
(dp3190
g82
g83
ssg71
g3184
sg64
(lp3191
S'PATH_INFO'
p3192
asbag57
(g78
g59
NtRp3193
(dp3194
g62
(dp3195
g89
g90
ssg71
g3184
sg64
(lp3196
S':'
asbag57
(g78
g59
NtRp3197
(dp3198
g62
(dp3199
sg71
g3184
sg64
(lp3200
g57
(g58
g59
NtRp3201
(dp3202
g62
(dp3203
g70
I3
ssg71
g3197
sg64
(lp3204
g1509
asbasbasbag57
(g73
g59
NtRp3205
(dp3206
g62
(dp3207
sg71
g3012
sg64
(lp3208
g57
(g78
g59
NtRp3209
(dp3210
g62
(dp3211
g82
g83
ssg71
g3205
sg64
(lp3212
S'QUERY_STRING'
p3213
asbag57
(g78
g59
NtRp3214
(dp3215
g62
(dp3216
g89
g90
ssg71
g3205
sg64
(lp3217
S':'
asbag57
(g78
g59
NtRp3218
(dp3219
g62
(dp3220
sg71
g3205
sg64
(lp3221
g57
(g58
g59
NtRp3222
(dp3223
g62
(dp3224
g70
I3
ssg71
g3218
sg64
(lp3225
g1531
asbasbasbag57
(g73
g59
NtRp3226
(dp3227
g62
(dp3228
sg71
g3012
sg64
(lp3229
g57
(g78
g59
NtRp3230
(dp3231
g62
(dp3232
g82
g83
ssg71
g3226
sg64
(lp3233
S'REMOTE_ADDR'
p3234
asbag57
(g78
g59
NtRp3235
(dp3236
g62
(dp3237
g89
g90
ssg71
g3226
sg64
(lp3238
S':'
asbag57
(g78
g59
NtRp3239
(dp3240
g62
(dp3241
sg71
g3226
sg64
(lp3242
g57
(g58
g59
NtRp3243
(dp3244
g62
(dp3245
g70
I3
ssg71
g3239
sg64
(lp3246
g212
asbasbasbag57
(g73
g59
NtRp3247
(dp3248
g62
(dp3249
sg71
g3012
sg64
(lp3250
g57
(g78
g59
NtRp3251
(dp3252
g62
(dp3253
g82
g83
ssg71
g3247
sg64
(lp3254
S'REMOTE_PORT'
p3255
asbag57
(g78
g59
NtRp3256
(dp3257
g62
(dp3258
g89
g90
ssg71
g3247
sg64
(lp3259
S':'
asbag57
(g78
g59
NtRp3260
(dp3261
g62
(dp3262
sg71
g3247
sg64
(lp3263
g57
(g58
g59
NtRp3264
(dp3265
g62
(dp3266
g70
I3
ssg71
g3260
sg64
(lp3267
g1574
asbasbasbag57
(g73
g59
NtRp3268
(dp3269
g62
(dp3270
sg71
g3012
sg64
(lp3271
g57
(g78
g59
NtRp3272
(dp3273
g62
(dp3274
g82
g83
ssg71
g3268
sg64
(lp3275
S'REQUEST_METHOD'
p3276
asbag57
(g78
g59
NtRp3277
(dp3278
g62
(dp3279
g89
g90
ssg71
g3268
sg64
(lp3280
S':'
asbag57
(g78
g59
NtRp3281
(dp3282
g62
(dp3283
sg71
g3268
sg64
(lp3284
g57
(g58
g59
NtRp3285
(dp3286
g62
(dp3287
g70
I3
ssg71
g3281
sg64
(lp3288
g1596
asbasbasbag57
(g73
g59
NtRp3289
(dp3290
g62
(dp3291
sg71
g3012
sg64
(lp3292
g57
(g78
g59
NtRp3293
(dp3294
g62
(dp3295
g82
g83
ssg71
g3289
sg64
(lp3296
S'REQUEST_URI'
p3297
asbag57
(g78
g59
NtRp3298
(dp3299
g62
(dp3300
g89
g90
ssg71
g3289
sg64
(lp3301
S':'
asbag57
(g78
g59
NtRp3302
(dp3303
g62
(dp3304
sg71
g3289
sg64
(lp3305
g57
(g58
g59
NtRp3306
(dp3307
g62
(dp3308
g70
I3
ssg71
g3302
sg64
(lp3309
g1618
asbasbasbag57
(g73
g59
NtRp3310
(dp3311
g62
(dp3312
sg71
g3012
sg64
(lp3313
g57
(g78
g59
NtRp3314
(dp3315
g62
(dp3316
g82
g83
ssg71
g3310
sg64
(lp3317
S'SCRIPT_NAME'
p3318
asbag57
(g78
g59
NtRp3319
(dp3320
g62
(dp3321
g89
g90
ssg71
g3310
sg64
(lp3322
S':'
asbag57
(g78
g59
NtRp3323
(dp3324
g62
(dp3325
sg71
g3310
sg64
(lp3326
g57
(g58
g59
NtRp3327
(dp3328
g62
(dp3329
g70
I3
ssg71
g3323
sg64
(lp3330
S''
asbasbasbag57
(g73
g59
NtRp3331
(dp3332
g62
(dp3333
sg71
g3012
sg64
(lp3334
g57
(g78
g59
NtRp3335
(dp3336
g62
(dp3337
g82
g83
ssg71
g3331
sg64
(lp3338
S'SERVER_NAME'
p3339
asbag57
(g78
g59
NtRp3340
(dp3341
g62
(dp3342
g89
g90
ssg71
g3331
sg64
(lp3343
S':'
asbag57
(g78
g59
NtRp3344
(dp3345
g62
(dp3346
sg71
g3331
sg64
(lp3347
g57
(g58
g59
NtRp3348
(dp3349
g62
(dp3350
g70
I3
ssg71
g3344
sg64
(lp3351
g1661
asbasbasbag57
(g73
g59
NtRp3352
(dp3353
g62
(dp3354
sg71
g3012
sg64
(lp3355
g57
(g78
g59
NtRp3356
(dp3357
g62
(dp3358
g82
g83
ssg71
g3352
sg64
(lp3359
S'SERVER_PORT'
p3360
asbag57
(g78
g59
NtRp3361
(dp3362
g62
(dp3363
g89
g90
ssg71
g3352
sg64
(lp3364
S':'
asbag57
(g78
g59
NtRp3365
(dp3366
g62
(dp3367
sg71
g3352
sg64
(lp3368
g57
(g58
g59
NtRp3369
(dp3370
g62
(dp3371
g70
I3
ssg71
g3365
sg64
(lp3372
g1683
asbasbasbag57
(g73
g59
NtRp3373
(dp3374
g62
(dp3375
sg71
g3012
sg64
(lp3376
g57
(g78
g59
NtRp3377
(dp3378
g62
(dp3379
g82
g83
ssg71
g3373
sg64
(lp3380
S'SERVER_PROTOCOL'
p3381
asbag57
(g78
g59
NtRp3382
(dp3383
g62
(dp3384
g89
g90
ssg71
g3373
sg64
(lp3385
S':'
asbag57
(g78
g59
NtRp3386
(dp3387
g62
(dp3388
sg71
g3373
sg64
(lp3389
g57
(g58
g59
NtRp3390
(dp3391
g62
(dp3392
g70
I3
ssg71
g3386
sg64
(lp3393
g1705
asbasbasbag57
(g73
g59
NtRp3394
(dp3395
g62
(dp3396
sg71
g3012
sg64
(lp3397
g57
(g78
g59
NtRp3398
(dp3399
g62
(dp3400
g82
g83
ssg71
g3394
sg64
(lp3401
S'SERVER_SOFTWARE'
p3402
asbag57
(g78
g59
NtRp3403
(dp3404
g62
(dp3405
g89
g90
ssg71
g3394
sg64
(lp3406
S':'
asbag57
(g78
g59
NtRp3407
(dp3408
g62
(dp3409
sg71
g3394
sg64
(lp3410
g57
(g58
g59
NtRp3411
(dp3412
g62
(dp3413
g70
I3
ssg71
g3407
sg64
(lp3414
g1727
asbasbasbag57
(g73
g59
NtRp3415
(dp3416
g62
(dp3417
sg71
g3012
sg64
(lp3418
g57
(g78
g59
NtRp3419
(dp3420
g62
(dp3421
g82
g83
ssg71
g3415
sg64
(lp3422
S'WEB2PY_ORIGINAL_URI'
p3423
asbag57
(g78
g59
NtRp3424
(dp3425
g62
(dp3426
g89
g90
ssg71
g3415
sg64
(lp3427
S':'
asbag57
(g78
g59
NtRp3428
(dp3429
g62
(dp3430
sg71
g3415
sg64
(lp3431
g57
(g58
g59
NtRp3432
(dp3433
g62
(dp3434
g70
I3
ssg71
g3428
sg64
(lp3435
g1749
asbasbasbag57
(g73
g59
NtRp3436
(dp3437
g62
(dp3438
sg71
g3012
sg64
(lp3439
g57
(g78
g59
NtRp3440
(dp3441
g62
(dp3442
g82
g83
ssg71
g3436
sg64
(lp3443
S'wsgi.errors'
p3444
asbag57
(g78
g59
NtRp3445
(dp3446
g62
(dp3447
g89
g90
ssg71
g3436
sg64
(lp3448
S':'
asbag57
(g78
g59
NtRp3449
(dp3450
g62
(dp3451
sg71
g3436
sg64
(lp3452
g57
(g58
g59
NtRp3453
(dp3454
g62
(dp3455
g70
I3
ssg71
g3449
sg64
(lp3456
S"<open file '<stderr>', mode 'w' at 0x7faedd228270>"
p3457
asbasbasbag57
(g73
g59
NtRp3458
(dp3459
g62
(dp3460
sg71
g3012
sg64
(lp3461
g57
(g78
g59
NtRp3462
(dp3463
g62
(dp3464
g82
g83
ssg71
g3458
sg64
(lp3465
S'wsgi.file_wrapper'
p3466
asbag57
(g78
g59
NtRp3467
(dp3468
g62
(dp3469
g89
g90
ssg71
g3458
sg64
(lp3470
S':'
asbag57
(g78
g59
NtRp3471
(dp3472
g62
(dp3473
sg71
g3458
sg64
(lp3474
g57
(g58
g59
NtRp3475
(dp3476
g62
(dp3477
g70
I3
ssg71
g3471
sg64
(lp3478
S'<class wsgiref.util.FileWrapper at 0x304b4c8>'
p3479
asbasbasbag57
(g73
g59
NtRp3480
(dp3481
g62
(dp3482
sg71
g3012
sg64
(lp3483
g57
(g78
g59
NtRp3484
(dp3485
g62
(dp3486
g82
g83
ssg71
g3480
sg64
(lp3487
S'wsgi.input'
p3488
asbag57
(g78
g59
NtRp3489
(dp3490
g62
(dp3491
g89
g90
ssg71
g3480
sg64
(lp3492
S':'
asbag57
(g78
g59
NtRp3493
(dp3494
g62
(dp3495
sg71
g3480
sg64
(lp3496
g57
(g58
g59
NtRp3497
(dp3498
g62
(dp3499
g70
I3
ssg71
g3493
sg64
(lp3500
S'<cStringIO.StringO object at 0x7faeb4199110>'
p3501
asbasbasbag57
(g73
g59
NtRp3502
(dp3503
g62
(dp3504
sg71
g3012
sg64
(lp3505
g57
(g78
g59
NtRp3506
(dp3507
g62
(dp3508
g82
g83
ssg71
g3502
sg64
(lp3509
S'wsgi.multiprocess'
p3510
asbag57
(g78
g59
NtRp3511
(dp3512
g62
(dp3513
g89
g90
ssg71
g3502
sg64
(lp3514
S':'
asbag57
(g78
g59
NtRp3515
(dp3516
g62
(dp3517
sg71
g3502
sg64
(lp3518
g57
(g58
g59
NtRp3519
(dp3520
g62
(dp3521
g70
I3
ssg71
g3515
sg64
(lp3522
g100
asbasbasbag57
(g73
g59
NtRp3523
(dp3524
g62
(dp3525
sg71
g3012
sg64
(lp3526
g57
(g78
g59
NtRp3527
(dp3528
g62
(dp3529
g82
g83
ssg71
g3523
sg64
(lp3530
S'wsgi.multithread'
p3531
asbag57
(g78
g59
NtRp3532
(dp3533
g62
(dp3534
g89
g90
ssg71
g3523
sg64
(lp3535
S':'
asbag57
(g78
g59
NtRp3536
(dp3537
g62
(dp3538
sg71
g3523
sg64
(lp3539
g57
(g58
g59
NtRp3540
(dp3541
g62
(dp3542
g70
I3
ssg71
g3536
sg64
(lp3543
g1966
asbasbasbag57
(g73
g59
NtRp3544
(dp3545
g62
(dp3546
sg71
g3012
sg64
(lp3547
g57
(g78
g59
NtRp3548
(dp3549
g62
(dp3550
g82
g83
ssg71
g3544
sg64
(lp3551
S'wsgi.run_once'
p3552
asbag57
(g78
g59
NtRp3553
(dp3554
g62
(dp3555
g89
g90
ssg71
g3544
sg64
(lp3556
S':'
asbag57
(g78
g59
NtRp3557
(dp3558
g62
(dp3559
sg71
g3544
sg64
(lp3560
g57
(g58
g59
NtRp3561
(dp3562
g62
(dp3563
g70
I3
ssg71
g3557
sg64
(lp3564
g100
asbasbasbag57
(g73
g59
NtRp3565
(dp3566
g62
(dp3567
sg71
g3012
sg64
(lp3568
g57
(g78
g59
NtRp3569
(dp3570
g62
(dp3571
g82
g83
ssg71
g3565
sg64
(lp3572
S'wsgi.url_scheme'
p3573
asbag57
(g78
g59
NtRp3574
(dp3575
g62
(dp3576
g89
g90
ssg71
g3565
sg64
(lp3577
S':'
asbag57
(g78
g59
NtRp3578
(dp3579
g62
(dp3580
sg71
g3565
sg64
(lp3581
g57
(g58
g59
NtRp3582
(dp3583
g62
(dp3584
g70
I3
ssg71
g3578
sg64
(lp3585
g2009
asbasbasbag57
(g73
g59
NtRp3586
(dp3587
g62
(dp3588
sg71
g3012
sg64
(lp3589
g57
(g78
g59
NtRp3590
(dp3591
g62
(dp3592
g82
g83
ssg71
g3586
sg64
(lp3593
S'wsgi.version'
p3594
asbag57
(g78
g59
NtRp3595
(dp3596
g62
(dp3597
g89
g90
ssg71
g3586
sg64
(lp3598
S':'
asbag57
(g78
g59
NtRp3599
(dp3600
g62
(dp3601
sg71
g3586
sg64
(lp3602
g57
(g58
g59
NtRp3603
(dp3604
g62
(dp3605
g70
I3
ssg71
g3599
sg64
(lp3606
S'1'
asbasbasbasbasbasbasbasbasbasbasbasbasbsS'frames'
p3607
(lp3608
(dp3609
S'file'
p3610
S'/var/www/hosts3/gluon/restricted.py'
p3611
sS'dump'
p3612
(dp3613
S'environment'
p3614
S"{'A': <class 'gluon.html.A'>, 'Auth': <class 'gluon.tools.Auth'>, 'B': <class 'gluon.html.B'>, 'BEAUTIFY': <class 'gluon.html.BEAUTIFY'>, 'BODY': <class 'gluon.html.BODY'>, 'BR': <class 'gluon.html.BR'>, 'BUTTON': <class 'gluon.html.BUTTON'>, 'CAT': <class 'gluon.html.CAT'>, 'CENTER': <class 'gluon.html.CENTER'>, 'CLEANUP': <class 'gluon.validators.CLEANUP'>, ...}"
p3615
sS'ccode'
p3616
S'<code object <module> at 0x7faecc2b19b0, file "/...rojeto/views/initial/detalhes_host.html", line 1>'
p3617
ssS'lnum'
p3618
I212
sS'lines'
p3619
(dp3620
I207
S'    try:'
p3621
sI208
S'        if isinstance(code, types.CodeType):'
p3622
sI209
S'            ccode = code'
p3623
sI210
S'        else:'
p3624
sI211
S'            ccode = compile2(code, layer)'
p3625
sI212
S'        exec ccode in environment'
p3626
sI213
S'    except HTTP:'
p3627
sI214
S'        raise'
p3628
sI215
S'    except RestrictedError:'
p3629
sI216
S'        # do not encapsulate (obfuscate) the original RestrictedError'
p3630
ssS'call'
p3631
S'(code=r"response.write(\'<!DOCTYPE html>\\n<!-- paulirish....></script>-->\\n</body>\\n</html>\\n\', escape=False)", environment={\'A\': <class \'gluon.html.A\'>, \'Auth\': <class \'gluon.tools.Auth\'>, \'B\': <class \'gluon.html.B\'>, \'BEAUTIFY\': <class \'gluon.html.BEAUTIFY\'>, \'BODY\': <class \'gluon.html.BODY\'>, \'BR\': <class \'gluon.html.BR\'>, \'BUTTON\': <class \'gluon.html.BUTTON\'>, \'CAT\': <class \'gluon.html.CAT\'>, \'CENTER\': <class \'gluon.html.CENTER\'>, \'CLEANUP\': <class \'gluon.validators.CLEANUP\'>, ...}, layer=\'/var/www/hosts3/applications/projeto/views/initial/detalhes_host.html\')'
p3632
sS'func'
p3633
S'restricted'
p3634
sa(dp3635
g3610
S'/var/www/hosts3/applications/projeto/views/initial/detalhes_host.html'
p3636
sg3612
(dp3637
sg3618
I187
sg3619
(dp3638
I192
S'    response.write(\'" target="_blank"><img src="\', escape=False)'
p3639
sI193
S"    response.write(URL(a='projeto', c='static', f='images'))"
p3640
sI194
S'    response.write(\'/jpeg.png"></a>\\n\\t\\n\\t\', escape=False)'
p3641
sI195
S"elif var2 == 'pdf':"
p3642
sI196
S'    response.write(\'\\n\\t<a href="\', escape=False)'
p3643
sI197
S"    response.write(URL(a='projeto', c='static', f='arq'))"
p3644
sI178
S'    response.write(\'">Adicione</a></p>\', escape=False)'
p3645
sI179
S'    pass'
p3646
sI180
S'response.write(\'\\n</div>\\n</div>\\n\\n</div><!-- /.tab-content -->\\n</div>\\n<div>\\n             \\n            \\n<div class="span10"><br><br>\\n<div class="tabbable"><!-- /.tabbable -->\\n<ul class="nav nav-tabs">\\n<li class="active"><a href="#pane1" data-toggle="tab">Servi\\xc3\\xa7os</a></li>\\n<li><a href="#pane2" data-toggle="tab">Observa\\xc3\\xa7\\xc3\\xb5es Gerais</a></li>\\n<li><a href="#pane3" data-toggle="tab">Rotas</a></li>\\n<li><a href="#pane4" data-toggle="tab">Arquivo</a></li>\\n</ul>\\n\\n<div class="tab-content"><!-- /.tab-content -->\\n<div id="pane1" class="tab-pane active">\\n<div class="well">\\n<p>\', escape=False)'
p3647
sI181
S'response.write(detalhes.hosts.servicos)'
p3648
sI182
S'response.write(\'</p>\\n</div>\\n</div>\\n\\n<div id="pane2" class="tab-pane">\\n<div class="well">\\n<p>\', escape=False)'
p3649
sI183
S'response.write(detalhes.hosts.obs_gerais)'
p3650
sI184
S'response.write(\'</p>\\n</div>\\n</div>\\n\\n<div id="pane3" class="tab-pane">\\n<div class="well">\\n<p>\', escape=False)'
p3651
sI185
S'response.write(detalhes.hosts.rotas)'
p3652
sI186
S'response.write(\'</p>\\n</div>\\n</div>\\n\\n<div id="pane4" class="tab-pane">\\n<div class="well">\\n\\n\\n\\t\', escape=False)'
p3653
sI187
S"if var2 == 'jpg' or var2 == 'png':"
p3654
sI188
S'    response.write(\'\\n\\t<a href="\', escape=False)'
p3655
sI189
S"    response.write(URL(a='projeto', c='static', f='arq'))"
p3656
sI190
S"    response.write('/', escape=False)"
p3657
sI191
S'    response.write(detalhes.hosts.upload)'
p3658
ssg3631
S'()'
p3659
sg3633
S'<module>'
p3660
sasS'pyver'
p3661
S'Python 2.7.3: /usr/bin/python'
p3662
sS'session'
p3663
g57
(g58
g59
NtRp3664
(dp3665
g62
(dp3666
sg64
(lp3667
g57
(g66
g59
NtRp3668
(dp3669
g62
(dp3670
g70
I5
ssg71
Nsg64
(lp3671
g57
(g73
g59
NtRp3672
(dp3673
g62
(dp3674
sg71
g3668
sg64
(lp3675
g57
(g78
g59
NtRp3676
(dp3677
g62
(dp3678
g82
g83
ssg71
g3672
sg64
(lp3679
S'auth'
p3680
asbag57
(g78
g59
NtRp3681
(dp3682
g62
(dp3683
g89
g90
ssg71
g3672
sg64
(lp3684
S':'
asbag57
(g78
g59
NtRp3685
(dp3686
g62
(dp3687
sg71
g3672
sg64
(lp3688
g57
(g58
g59
NtRp3689
(dp3690
g62
(dp3691
g70
I5
ssg71
g3685
sg64
(lp3692
g57
(g66
g59
NtRp3693
(dp3694
g62
(dp3695
g70
I4
ssg71
Nsg64
(lp3696
g57
(g73
g59
NtRp3697
(dp3698
g62
(dp3699
sg71
g3693
sg64
(lp3700
g57
(g78
g59
NtRp3701
(dp3702
g62
(dp3703
g82
g83
ssg71
g3697
sg64
(lp3704
S'expiration'
p3705
asbag57
(g78
g59
NtRp3706
(dp3707
g62
(dp3708
g89
g90
ssg71
g3697
sg64
(lp3709
S':'
asbag57
(g78
g59
NtRp3710
(dp3711
g62
(dp3712
sg71
g3697
sg64
(lp3713
g57
(g58
g59
NtRp3714
(dp3715
g62
(dp3716
g70
I4
ssg71
g3710
sg64
(lp3717
S'3600'
p3718
asbasbasbag57
(g73
g59
NtRp3719
(dp3720
g62
(dp3721
sg71
g3693
sg64
(lp3722
g57
(g78
g59
NtRp3723
(dp3724
g62
(dp3725
g82
g83
ssg71
g3719
sg64
(lp3726
S'hmac_key'
p3727
asbag57
(g78
g59
NtRp3728
(dp3729
g62
(dp3730
g89
g90
ssg71
g3719
sg64
(lp3731
S':'
asbag57
(g78
g59
NtRp3732
(dp3733
g62
(dp3734
sg71
g3719
sg64
(lp3735
g57
(g58
g59
NtRp3736
(dp3737
g62
(dp3738
g70
I4
ssg71
g3732
sg64
(lp3739
S'15eac825-e663-4e1f-b7ef-bfeeb3efe8fe'
p3740
asbasbasbag57
(g73
g59
NtRp3741
(dp3742
g62
(dp3743
sg71
g3693
sg64
(lp3744
g57
(g78
g59
NtRp3745
(dp3746
g62
(dp3747
g82
g83
ssg71
g3741
sg64
(lp3748
S'last_visit'
p3749
asbag57
(g78
g59
NtRp3750
(dp3751
g62
(dp3752
g89
g90
ssg71
g3741
sg64
(lp3753
S':'
asbag57
(g78
g59
NtRp3754
(dp3755
g62
(dp3756
sg71
g3741
sg64
(lp3757
g57
(g58
g59
NtRp3758
(dp3759
g62
(dp3760
g70
I4
ssg71
g3754
sg64
(lp3761
S'datetime.datetime(2014, 2, 6, 14, 17, 40, 106203)'
p3762
asbasbasbag57
(g73
g59
NtRp3763
(dp3764
g62
(dp3765
sg71
g3693
sg64
(lp3766
g57
(g78
g59
NtRp3767
(dp3768
g62
(dp3769
g82
g83
ssg71
g3763
sg64
(lp3770
S'remember'
p3771
asbag57
(g78
g59
NtRp3772
(dp3773
g62
(dp3774
g89
g90
ssg71
g3763
sg64
(lp3775
S':'
asbag57
(g78
g59
NtRp3776
(dp3777
g62
(dp3778
sg71
g3763
sg64
(lp3779
g57
(g58
g59
NtRp3780
(dp3781
g62
(dp3782
g70
I4
ssg71
g3776
sg64
(lp3783
g100
asbasbasbag57
(g73
g59
NtRp3784
(dp3785
g62
(dp3786
sg71
g3693
sg64
(lp3787
g57
(g78
g59
NtRp3788
(dp3789
g62
(dp3790
g82
g83
ssg71
g3784
sg64
(lp3791
S'user'
p3792
asbag57
(g78
g59
NtRp3793
(dp3794
g62
(dp3795
g89
g90
ssg71
g3784
sg64
(lp3796
S':'
asbag57
(g78
g59
NtRp3797
(dp3798
g62
(dp3799
sg71
g3784
sg64
(lp3800
g57
(g58
g59
NtRp3801
(dp3802
g62
(dp3803
g70
I4
ssg71
g3797
sg64
(lp3804
g57
(g66
g59
NtRp3805
(dp3806
g62
(dp3807
g70
I3
ssg71
Nsg64
(lp3808
g57
(g73
g59
NtRp3809
(dp3810
g62
(dp3811
sg71
g3805
sg64
(lp3812
g57
(g78
g59
NtRp3813
(dp3814
g62
(dp3815
g82
g83
ssg71
g3809
sg64
(lp3816
S'email'
p3817
asbag57
(g78
g59
NtRp3818
(dp3819
g62
(dp3820
g89
g90
ssg71
g3809
sg64
(lp3821
S':'
asbag57
(g78
g59
NtRp3822
(dp3823
g62
(dp3824
sg71
g3809
sg64
(lp3825
g57
(g58
g59
NtRp3826
(dp3827
g62
(dp3828
g70
I3
ssg71
g3822
sg64
(lp3829
S'andre@ad2.com.br'
p3830
asbasbasbag57
(g73
g59
NtRp3831
(dp3832
g62
(dp3833
sg71
g3805
sg64
(lp3834
g57
(g78
g59
NtRp3835
(dp3836
g62
(dp3837
g82
g83
ssg71
g3831
sg64
(lp3838
S'first_name'
p3839
asbag57
(g78
g59
NtRp3840
(dp3841
g62
(dp3842
g89
g90
ssg71
g3831
sg64
(lp3843
S':'
asbag57
(g78
g59
NtRp3844
(dp3845
g62
(dp3846
sg71
g3831
sg64
(lp3847
g57
(g58
g59
NtRp3848
(dp3849
g62
(dp3850
g70
I3
ssg71
g3844
sg64
(lp3851
S'Andre'
p3852
asbasbasbag57
(g73
g59
NtRp3853
(dp3854
g62
(dp3855
sg71
g3805
sg64
(lp3856
g57
(g78
g59
NtRp3857
(dp3858
g62
(dp3859
g82
g83
ssg71
g3853
sg64
(lp3860
S'id'
p3861
asbag57
(g78
g59
NtRp3862
(dp3863
g62
(dp3864
g89
g90
ssg71
g3853
sg64
(lp3865
S':'
asbag57
(g78
g59
NtRp3866
(dp3867
g62
(dp3868
sg71
g3853
sg64
(lp3869
g57
(g58
g59
NtRp3870
(dp3871
g62
(dp3872
g70
I3
ssg71
g3866
sg64
(lp3873
S'2'
asbasbasbag57
(g73
g59
NtRp3874
(dp3875
g62
(dp3876
sg71
g3805
sg64
(lp3877
g57
(g78
g59
NtRp3878
(dp3879
g62
(dp3880
g82
g83
ssg71
g3874
sg64
(lp3881
S'last_name'
p3882
asbag57
(g78
g59
NtRp3883
(dp3884
g62
(dp3885
g89
g90
ssg71
g3874
sg64
(lp3886
S':'
asbag57
(g78
g59
NtRp3887
(dp3888
g62
(dp3889
sg71
g3874
sg64
(lp3890
g57
(g58
g59
NtRp3891
(dp3892
g62
(dp3893
g70
I3
ssg71
g3887
sg64
(lp3894
S'Lu\xc3\xads'
p3895
asbasbasbag57
(g73
g59
NtRp3896
(dp3897
g62
(dp3898
sg71
g3805
sg64
(lp3899
g57
(g78
g59
NtRp3900
(dp3901
g62
(dp3902
g82
g83
ssg71
g3896
sg64
(lp3903
S'registration_id'
p3904
asbag57
(g78
g59
NtRp3905
(dp3906
g62
(dp3907
g89
g90
ssg71
g3896
sg64
(lp3908
S':'
asbag57
(g78
g59
NtRp3909
(dp3910
g62
(dp3911
sg71
g3896
sg64
(lp3912
g57
(g58
g59
NtRp3913
(dp3914
g62
(dp3915
g70
I3
ssg71
g3909
sg64
(lp3916
S''
asbasbasbag57
(g73
g59
NtRp3917
(dp3918
g62
(dp3919
sg71
g3805
sg64
(lp3920
g57
(g78
g59
NtRp3921
(dp3922
g62
(dp3923
g82
g83
ssg71
g3917
sg64
(lp3924
S'registration_key'
p3925
asbag57
(g78
g59
NtRp3926
(dp3927
g62
(dp3928
g89
g90
ssg71
g3917
sg64
(lp3929
S':'
asbag57
(g78
g59
NtRp3930
(dp3931
g62
(dp3932
sg71
g3917
sg64
(lp3933
g57
(g58
g59
NtRp3934
(dp3935
g62
(dp3936
g70
I3
ssg71
g3930
sg64
(lp3937
S''
asbasbasbag57
(g73
g59
NtRp3938
(dp3939
g62
(dp3940
sg71
g3805
sg64
(lp3941
g57
(g78
g59
NtRp3942
(dp3943
g62
(dp3944
g82
g83
ssg71
g3938
sg64
(lp3945
S'reset_password_key'
p3946
asbag57
(g78
g59
NtRp3947
(dp3948
g62
(dp3949
g89
g90
ssg71
g3938
sg64
(lp3950
S':'
asbag57
(g78
g59
NtRp3951
(dp3952
g62
(dp3953
sg71
g3938
sg64
(lp3954
g57
(g58
g59
NtRp3955
(dp3956
g62
(dp3957
g70
I3
ssg71
g3951
sg64
(lp3958
S''
asbasbasbasbasbasbasbag57
(g73
g59
NtRp3959
(dp3960
g62
(dp3961
sg71
g3693
sg64
(lp3962
g57
(g78
g59
NtRp3963
(dp3964
g62
(dp3965
g82
g83
ssg71
g3959
sg64
(lp3966
S'user_groups'
p3967
asbag57
(g78
g59
NtRp3968
(dp3969
g62
(dp3970
g89
g90
ssg71
g3959
sg64
(lp3971
S':'
asbag57
(g78
g59
NtRp3972
(dp3973
g62
(dp3974
sg71
g3959
sg64
(lp3975
g57
(g58
g59
NtRp3976
(dp3977
g62
(dp3978
g70
I4
ssg71
g3972
sg64
(lp3979
g57
(g66
g59
NtRp3980
(dp3981
g62
(dp3982
g70
I3
ssg71
Nsg64
(lp3983
g57
(g73
g59
NtRp3984
(dp3985
g62
(dp3986
sg71
g3980
sg64
(lp3987
g57
(g78
g59
NtRp3988
(dp3989
g62
(dp3990
g82
g83
ssg71
g3984
sg64
(lp3991
S'2'
asbag57
(g78
g59
NtRp3992
(dp3993
g62
(dp3994
g89
g90
ssg71
g3984
sg64
(lp3995
S':'
asbag57
(g78
g59
NtRp3996
(dp3997
g62
(dp3998
sg71
g3984
sg64
(lp3999
g57
(g58
g59
NtRp4000
(dp4001
g62
(dp4002
g70
I3
ssg71
g3996
sg64
(lp4003
S'group2'
p4004
asbasbasbag57
(g73
g59
NtRp4005
(dp4006
g62
(dp4007
sg71
g3980
sg64
(lp4008
g57
(g78
g59
NtRp4009
(dp4010
g62
(dp4011
g82
g83
ssg71
g4005
sg64
(lp4012
S'8'
asbag57
(g78
g59
NtRp4013
(dp4014
g62
(dp4015
g89
g90
ssg71
g4005
sg64
(lp4016
S':'
asbag57
(g78
g59
NtRp4017
(dp4018
g62
(dp4019
sg71
g4005
sg64
(lp4020
g57
(g58
g59
NtRp4021
(dp4022
g62
(dp4023
g70
I3
ssg71
g4017
sg64
(lp4024
S'internet'
p4025
asbasbasbasbasbasbasbasbasbasbasbag57
(g73
g59
NtRp4026
(dp4027
g62
(dp4028
sg71
g3668
sg64
(lp4029
g57
(g78
g59
NtRp4030
(dp4031
g62
(dp4032
g82
g83
ssg71
g4026
sg64
(lp4033
S'flash'
p4034
asbag57
(g78
g59
NtRp4035
(dp4036
g62
(dp4037
g89
g90
ssg71
g4026
sg64
(lp4038
S':'
asbag57
(g78
g59
NtRp4039
(dp4040
g62
(dp4041
sg71
g4026
sg64
(lp4042
g57
(g58
g59
NtRp4043
(dp4044
g62
(dp4045
g70
I5
ssg71
g4039
sg64
(lp4046
S'None'
p4047
asbasbasbasbasbsS'etype'
p4048
S"<type 'exceptions.NameError'>"
p4049
sS'date'
p4050
S'Thu Feb  6 14:17:40 2014'
p4051
sS'response'
p4052
g57
(g58
g59
NtRp4053
(dp4054
g62
(dp4055
sg64
(lp4056
g57
(g66
g59
NtRp4057
(dp4058
g62
(dp4059
g70
I5
ssg71
Nsg64
(lp4060
g57
(g73
g59
NtRp4061
(dp4062
g62
(dp4063
sg71
g4057
sg64
(lp4064
g57
(g78
g59
NtRp4065
(dp4066
g62
(dp4067
g82
g83
ssg71
g4061
sg64
(lp4068
g155
asbag57
(g78
g59
NtRp4069
(dp4070
g62
(dp4071
g89
g90
ssg71
g4061
sg64
(lp4072
S':'
asbag57
(g78
g59
NtRp4073
(dp4074
g62
(dp4075
sg71
g4061
sg64
(lp4076
g57
(g58
g59
NtRp4077
(dp4078
g62
(dp4079
g70
I5
ssg71
g4073
sg64
(lp4080
S'<cStringIO.StringO object at 0x7faec433a298>'
p4081
asbasbasbag57
(g73
g59
NtRp4082
(dp4083
g62
(dp4084
sg71
g4057
sg64
(lp4085
g57
(g78
g59
NtRp4086
(dp4087
g62
(dp4088
g82
g83
ssg71
g4082
sg64
(lp4089
g243
asbag57
(g78
g59
NtRp4090
(dp4091
g62
(dp4092
g89
g90
ssg71
g4082
sg64
(lp4093
S':'
asbag57
(g78
g59
NtRp4094
(dp4095
g62
(dp4096
sg71
g4082
sg64
(lp4097
g57
(g58
g59
NtRp4098
(dp4099
g62
(dp4100
g70
I5
ssg71
g4094
sg64
(lp4101
g57
(g66
g59
NtRp4102
(dp4103
g62
(dp4104
g70
I4
ssg71
Nsg64
(lp4105
g57
(g73
g59
NtRp4106
(dp4107
g62
(dp4108
sg71
g4102
sg64
(lp4109
g57
(g78
g59
NtRp4110
(dp4111
g62
(dp4112
g82
g83
ssg71
g4106
sg64
(lp4113
S'session_id_projeto'
p4114
asbag57
(g78
g59
NtRp4115
(dp4116
g62
(dp4117
g89
g90
ssg71
g4106
sg64
(lp4118
S':'
asbag57
(g78
g59
NtRp4119
(dp4120
g62
(dp4121
sg71
g4106
sg64
(lp4122
g57
(g58
g59
NtRp4123
(dp4124
g62
(dp4125
g70
I4
ssg71
g4119
sg64
(lp4126
g661
ag57
(g66
g59
NtRp4127
(dp4128
g62
(dp4129
g70
I3
ssg71
Nsg64
(lp4130
g57
(g73
g59
NtRp4131
(dp4132
g62
(dp4133
sg71
g4127
sg64
(lp4134
g57
(g78
g59
NtRp4135
(dp4136
g62
(dp4137
g82
g83
ssg71
g4131
sg64
(lp4138
g294
asbag57
(g78
g59
NtRp4139
(dp4140
g62
(dp4141
g89
g90
ssg71
g4131
sg64
(lp4142
S':'
asbag57
(g78
g59
NtRp4143
(dp4144
g62
(dp4145
sg71
g4131
sg64
(lp4146
g57
(g58
g59
NtRp4147
(dp4148
g62
(dp4149
g70
I3
ssg71
g4143
sg64
(lp4150
S''
asbasbasbag57
(g73
g59
NtRp4151
(dp4152
g62
(dp4153
sg71
g4127
sg64
(lp4154
g57
(g78
g59
NtRp4155
(dp4156
g62
(dp4157
g82
g83
ssg71
g4151
sg64
(lp4158
g315
asbag57
(g78
g59
NtRp4159
(dp4160
g62
(dp4161
g89
g90
ssg71
g4151
sg64
(lp4162
S':'
asbag57
(g78
g59
NtRp4163
(dp4164
g62
(dp4165
sg71
g4151
sg64
(lp4166
g57
(g58
g59
NtRp4167
(dp4168
g62
(dp4169
g70
I3
ssg71
g4163
sg64
(lp4170
S''
asbasbasbag57
(g73
g59
NtRp4171
(dp4172
g62
(dp4173
sg71
g4127
sg64
(lp4174
g57
(g78
g59
NtRp4175
(dp4176
g62
(dp4177
g82
g83
ssg71
g4171
sg64
(lp4178
g336
asbag57
(g78
g59
NtRp4179
(dp4180
g62
(dp4181
g89
g90
ssg71
g4171
sg64
(lp4182
S':'
asbag57
(g78
g59
NtRp4183
(dp4184
g62
(dp4185
sg71
g4171
sg64
(lp4186
g57
(g58
g59
NtRp4187
(dp4188
g62
(dp4189
g70
I3
ssg71
g4183
sg64
(lp4190
S''
asbasbasbag57
(g73
g59
NtRp4191
(dp4192
g62
(dp4193
sg71
g4127
sg64
(lp4194
g57
(g78
g59
NtRp4195
(dp4196
g62
(dp4197
g82
g83
ssg71
g4191
sg64
(lp4198
g357
asbag57
(g78
g59
NtRp4199
(dp4200
g62
(dp4201
g89
g90
ssg71
g4191
sg64
(lp4202
S':'
asbag57
(g78
g59
NtRp4203
(dp4204
g62
(dp4205
sg71
g4191
sg64
(lp4206
g57
(g58
g59
NtRp4207
(dp4208
g62
(dp4209
g70
I3
ssg71
g4203
sg64
(lp4210
S''
asbasbasbag57
(g73
g59
NtRp4211
(dp4212
g62
(dp4213
sg71
g4127
sg64
(lp4214
g57
(g78
g59
NtRp4215
(dp4216
g62
(dp4217
g82
g83
ssg71
g4211
sg64
(lp4218
g378
asbag57
(g78
g59
NtRp4219
(dp4220
g62
(dp4221
g89
g90
ssg71
g4211
sg64
(lp4222
S':'
asbag57
(g78
g59
NtRp4223
(dp4224
g62
(dp4225
sg71
g4211
sg64
(lp4226
g57
(g58
g59
NtRp4227
(dp4228
g62
(dp4229
g70
I3
ssg71
g4223
sg64
(lp4230
S''
asbasbasbag57
(g73
g59
NtRp4231
(dp4232
g62
(dp4233
sg71
g4127
sg64
(lp4234
g57
(g78
g59
NtRp4235
(dp4236
g62
(dp4237
g82
g83
ssg71
g4231
sg64
(lp4238
g399
asbag57
(g78
g59
NtRp4239
(dp4240
g62
(dp4241
g89
g90
ssg71
g4231
sg64
(lp4242
S':'
asbag57
(g78
g59
NtRp4243
(dp4244
g62
(dp4245
sg71
g4231
sg64
(lp4246
g57
(g58
g59
NtRp4247
(dp4248
g62
(dp4249
g70
I3
ssg71
g4243
sg64
(lp4250
S'/'
asbasbasbag57
(g73
g59
NtRp4251
(dp4252
g62
(dp4253
sg71
g4127
sg64
(lp4254
g57
(g78
g59
NtRp4255
(dp4256
g62
(dp4257
g82
g83
ssg71
g4251
sg64
(lp4258
g420
asbag57
(g78
g59
NtRp4259
(dp4260
g62
(dp4261
g89
g90
ssg71
g4251
sg64
(lp4262
S':'
asbag57
(g78
g59
NtRp4263
(dp4264
g62
(dp4265
sg71
g4251
sg64
(lp4266
g57
(g58
g59
NtRp4267
(dp4268
g62
(dp4269
g70
I3
ssg71
g4263
sg64
(lp4270
S''
asbasbasbag57
(g73
g59
NtRp4271
(dp4272
g62
(dp4273
sg71
g4127
sg64
(lp4274
g57
(g78
g59
NtRp4275
(dp4276
g62
(dp4277
g82
g83
ssg71
g4271
sg64
(lp4278
g441
asbag57
(g78
g59
NtRp4279
(dp4280
g62
(dp4281
g89
g90
ssg71
g4271
sg64
(lp4282
S':'
asbag57
(g78
g59
NtRp4283
(dp4284
g62
(dp4285
sg71
g4271
sg64
(lp4286
g57
(g58
g59
NtRp4287
(dp4288
g62
(dp4289
g70
I3
ssg71
g4283
sg64
(lp4290
S''
asbasbasbasbasbasbasbasbasbasbasbag57
(g73
g59
NtRp4291
(dp4292
g62
(dp4293
sg71
g4057
sg64
(lp4294
g57
(g78
g59
NtRp4295
(dp4296
g62
(dp4297
g82
g83
ssg71
g4291
sg64
(lp4298
S'delimiters'
p4299
asbag57
(g78
g59
NtRp4300
(dp4301
g62
(dp4302
g89
g90
ssg71
g4291
sg64
(lp4303
S':'
asbag57
(g78
g59
NtRp4304
(dp4305
g62
(dp4306
sg71
g4291
sg64
(lp4307
g57
(g58
g59
NtRp4308
(dp4309
g62
(dp4310
g70
I5
ssg71
g4304
sg64
(lp4311
g57
(g66
g59
NtRp4312
(dp4313
g62
(dp4314
g70
I4
ssg71
Nsg64
(lp4315
g57
(g73
g59
NtRp4316
(dp4317
g62
(dp4318
sg71
g4312
sg64
(lp4319
g57
(g78
g59
NtRp4320
(dp4321
g62
(dp4322
sg71
g4316
sg64
(lp4323
g57
(g58
g59
NtRp4324
(dp4325
g62
(dp4326
g70
I4
ssg71
g4320
sg64
(lp4327
S'{{'
p4328
asbasbasbag57
(g73
g59
NtRp4329
(dp4330
g62
(dp4331
sg71
g4312
sg64
(lp4332
g57
(g78
g59
NtRp4333
(dp4334
g62
(dp4335
sg71
g4329
sg64
(lp4336
g57
(g58
g59
NtRp4337
(dp4338
g62
(dp4339
g70
I4
ssg71
g4333
sg64
(lp4340
S'}}'
p4341
asbasbasbasbasbasbasbag57
(g73
g59
NtRp4342
(dp4343
g62
(dp4344
sg71
g4057
sg64
(lp4345
g57
(g78
g59
NtRp4346
(dp4347
g62
(dp4348
g82
g83
ssg71
g4342
sg64
(lp4349
S'files'
p4350
asbag57
(g78
g59
NtRp4351
(dp4352
g62
(dp4353
g89
g90
ssg71
g4342
sg64
(lp4354
S':'
asbag57
(g78
g59
NtRp4355
(dp4356
g62
(dp4357
sg71
g4342
sg64
(lp4358
g57
(g58
g59
NtRp4359
(dp4360
g62
(dp4361
g70
I5
ssg71
g4355
sg64
(lp4362
g57
(g66
g59
NtRp4363
(dp4364
g62
(dp4365
g70
I4
ssg71
Nsg64
(lp4366
g57
(g73
g59
NtRp4367
(dp4368
g62
(dp4369
sg71
g4363
sg64
(lp4370
g57
(g78
g59
NtRp4371
(dp4372
g62
(dp4373
sg71
g4367
sg64
(lp4374
g57
(g58
g59
NtRp4375
(dp4376
g62
(dp4377
g70
I4
ssg71
g4371
sg64
(lp4378
S'/projeto/static/js/jquery.js'
p4379
asbasbasbag57
(g73
g59
NtRp4380
(dp4381
g62
(dp4382
sg71
g4363
sg64
(lp4383
g57
(g78
g59
NtRp4384
(dp4385
g62
(dp4386
sg71
g4380
sg64
(lp4387
g57
(g58
g59
NtRp4388
(dp4389
g62
(dp4390
g70
I4
ssg71
g4384
sg64
(lp4391
S'/projeto/static/css/calendar.css'
p4392
asbasbasbag57
(g73
g59
NtRp4393
(dp4394
g62
(dp4395
sg71
g4363
sg64
(lp4396
g57
(g78
g59
NtRp4397
(dp4398
g62
(dp4399
sg71
g4393
sg64
(lp4400
g57
(g58
g59
NtRp4401
(dp4402
g62
(dp4403
g70
I4
ssg71
g4397
sg64
(lp4404
S'/projeto/static/js/calendar.js'
p4405
asbasbasbag57
(g73
g59
NtRp4406
(dp4407
g62
(dp4408
sg71
g4363
sg64
(lp4409
g57
(g78
g59
NtRp4410
(dp4411
g62
(dp4412
sg71
g4406
sg64
(lp4413
g57
(g58
g59
NtRp4414
(dp4415
g62
(dp4416
g70
I4
ssg71
g4410
sg64
(lp4417
S'/projeto/static/js/web2py.js'
p4418
asbasbasbag57
(g73
g59
NtRp4419
(dp4420
g62
(dp4421
sg71
g4363
sg64
(lp4422
g57
(g78
g59
NtRp4423
(dp4424
g62
(dp4425
sg71
g4419
sg64
(lp4426
g57
(g58
g59
NtRp4427
(dp4428
g62
(dp4429
g70
I4
ssg71
g4423
sg64
(lp4430
S'/projeto/static/css/web2py.css'
p4431
asbasbasbag57
(g73
g59
NtRp4432
(dp4433
g62
(dp4434
sg71
g4363
sg64
(lp4435
g57
(g78
g59
NtRp4436
(dp4437
g62
(dp4438
sg71
g4432
sg64
(lp4439
g57
(g58
g59
NtRp4440
(dp4441
g62
(dp4442
g70
I4
ssg71
g4436
sg64
(lp4443
S'/projeto/static/css/bootstrap.min.css'
p4444
asbasbasbag57
(g73
g59
NtRp4445
(dp4446
g62
(dp4447
sg71
g4363
sg64
(lp4448
g57
(g78
g59
NtRp4449
(dp4450
g62
(dp4451
sg71
g4445
sg64
(lp4452
g57
(g58
g59
NtRp4453
(dp4454
g62
(dp4455
g70
I4
ssg71
g4449
sg64
(lp4456
S'/projeto/static/css/bootstrap-responsive.min.css'
p4457
asbasbasbag57
(g73
g59
NtRp4458
(dp4459
g62
(dp4460
sg71
g4363
sg64
(lp4461
g57
(g78
g59
NtRp4462
(dp4463
g62
(dp4464
sg71
g4458
sg64
(lp4465
g57
(g58
g59
NtRp4466
(dp4467
g62
(dp4468
g70
I4
ssg71
g4462
sg64
(lp4469
S'/projeto/static/css/web2py_bootstrap.css'
p4470
asbasbasbasbasbasbasbag57
(g73
g59
NtRp4471
(dp4472
g62
(dp4473
sg71
g4057
sg64
(lp4474
g57
(g78
g59
NtRp4475
(dp4476
g62
(dp4477
g82
g83
ssg71
g4471
sg64
(lp4478
S'flash'
p4479
asbag57
(g78
g59
NtRp4480
(dp4481
g62
(dp4482
g89
g90
ssg71
g4471
sg64
(lp4483
S':'
asbag57
(g78
g59
NtRp4484
(dp4485
g62
(dp4486
sg71
g4471
sg64
(lp4487
g57
(g58
g59
NtRp4488
(dp4489
g62
(dp4490
g70
I5
ssg71
g4484
sg64
(lp4491
S''
asbasbasbag57
(g73
g59
NtRp4492
(dp4493
g62
(dp4494
sg71
g4057
sg64
(lp4495
g57
(g78
g59
NtRp4496
(dp4497
g62
(dp4498
g82
g83
ssg71
g4492
sg64
(lp4499
S'generic_patterns'
p4500
asbag57
(g78
g59
NtRp4501
(dp4502
g62
(dp4503
g89
g90
ssg71
g4492
sg64
(lp4504
S':'
asbag57
(g78
g59
NtRp4505
(dp4506
g62
(dp4507
sg71
g4492
sg64
(lp4508
g57
(g58
g59
NtRp4509
(dp4510
g62
(dp4511
g70
I5
ssg71
g4505
sg64
(lp4512
g57
(g66
g59
NtRp4513
(dp4514
g62
(dp4515
g70
I4
ssg71
Nsg64
(lp4516
g57
(g73
g59
NtRp4517
(dp4518
g62
(dp4519
sg71
g4513
sg64
(lp4520
g57
(g78
g59
NtRp4521
(dp4522
g62
(dp4523
sg71
g4517
sg64
(lp4524
g57
(g58
g59
NtRp4525
(dp4526
g62
(dp4527
g70
I4
ssg71
g4521
sg64
(lp4528
S'*'
asbasbasbasbasbasbasbag57
(g73
g59
NtRp4529
(dp4530
g62
(dp4531
sg71
g4057
sg64
(lp4532
g57
(g78
g59
NtRp4533
(dp4534
g62
(dp4535
g82
g83
ssg71
g4529
sg64
(lp4536
S'google_analytics_id'
p4537
asbag57
(g78
g59
NtRp4538
(dp4539
g62
(dp4540
g89
g90
ssg71
g4529
sg64
(lp4541
S':'
asbag57
(g78
g59
NtRp4542
(dp4543
g62
(dp4544
sg71
g4529
sg64
(lp4545
g57
(g58
g59
NtRp4546
(dp4547
g62
(dp4548
g70
I5
ssg71
g4542
sg64
(lp4549
S'None'
p4550
asbasbasbag57
(g73
g59
NtRp4551
(dp4552
g62
(dp4553
sg71
g4057
sg64
(lp4554
g57
(g78
g59
NtRp4555
(dp4556
g62
(dp4557
g82
g83
ssg71
g4551
sg64
(lp4558
S'headers'
p4559
asbag57
(g78
g59
NtRp4560
(dp4561
g62
(dp4562
g89
g90
ssg71
g4551
sg64
(lp4563
S':'
asbag57
(g78
g59
NtRp4564
(dp4565
g62
(dp4566
sg71
g4551
sg64
(lp4567
g57
(g58
g59
NtRp4568
(dp4569
g62
(dp4570
g70
I5
ssg71
g4564
sg64
(lp4571
g57
(g66
g59
NtRp4572
(dp4573
g62
(dp4574
g70
I4
ssg71
Nsg64
(lp4575
g57
(g73
g59
NtRp4576
(dp4577
g62
(dp4578
sg71
g4572
sg64
(lp4579
g57
(g78
g59
NtRp4580
(dp4581
g62
(dp4582
g82
g83
ssg71
g4576
sg64
(lp4583
S'X-Powered-By'
p4584
asbag57
(g78
g59
NtRp4585
(dp4586
g62
(dp4587
g89
g90
ssg71
g4576
sg64
(lp4588
S':'
asbag57
(g78
g59
NtRp4589
(dp4590
g62
(dp4591
sg71
g4576
sg64
(lp4592
g57
(g58
g59
NtRp4593
(dp4594
g62
(dp4595
g70
I4
ssg71
g4589
sg64
(lp4596
S'web2py'
p4597
asbasbasbasbasbasbasbag57
(g73
g59
NtRp4598
(dp4599
g62
(dp4600
sg71
g4057
sg64
(lp4601
g57
(g78
g59
NtRp4602
(dp4603
g62
(dp4604
g82
g83
ssg71
g4598
sg64
(lp4605
S'logo'
p4606
asbag57
(g78
g59
NtRp4607
(dp4608
g62
(dp4609
g89
g90
ssg71
g4598
sg64
(lp4610
S':'
asbag57
(g78
g59
NtRp4611
(dp4612
g62
(dp4613
sg71
g4598
sg64
(lp4614
g57
(g58
g59
NtRp4615
(dp4616
g62
(dp4617
g70
I5
ssg71
g4611
sg64
(lp4618
g57
(cgluon.html
A
p4619
g59
NtRp4620
(dp4621
g62
(dp4622
S'_class'
p4623
S'brand'
p4624
sS'_href'
p4625
S'principal'
p4626
ssg71
Nsg64
(lp4627
g57
(cgluon.html
B
p4628
g59
NtRp4629
(dp4630
g62
(dp4631
sg71
g4620
sg64
(lp4632
S'hosts'
p4633
ag57
(cgluon.html
SPAN
p4634
g59
NtRp4635
(dp4636
g62
(dp4637
sg71
g4629
sg64
(lp4638
S'3'
asbaS''
asbacgluon.html
XML_unpickle
p4639
(S's\r\x00\x00\x00&trade;&nbsp;'
tRp4640
asbasbasbasbag57
(g73
g59
NtRp4641
(dp4642
g62
(dp4643
sg71
g4057
sg64
(lp4644
g57
(g78
g59
NtRp4645
(dp4646
g62
(dp4647
g82
g83
ssg71
g4641
sg64
(lp4648
S'menu'
p4649
asbag57
(g78
g59
NtRp4650
(dp4651
g62
(dp4652
g89
g90
ssg71
g4641
sg64
(lp4653
S':'
asbag57
(g78
g59
NtRp4654
(dp4655
g62
(dp4656
sg71
g4641
sg64
(lp4657
g57
(g58
g59
NtRp4658
(dp4659
g62
(dp4660
g70
I5
ssg71
g4654
sg64
(lp4661
g57
(g66
g59
NtRp4662
(dp4663
g62
(dp4664
g70
I4
ssg71
Nsg64
(lp4665
g57
(g73
g59
NtRp4666
(dp4667
g62
(dp4668
sg71
g4662
sg64
(lp4669
g57
(g78
g59
NtRp4670
(dp4671
g62
(dp4672
sg71
g4666
sg64
(lp4673
g57
(g58
g59
NtRp4674
(dp4675
g62
(dp4676
g70
I4
ssg71
g4670
sg64
(lp4677
g57
(g66
g59
NtRp4678
(dp4679
g62
(dp4680
g70
I3
ssg71
Nsg64
(lp4681
g57
(g73
g59
NtRp4682
(dp4683
g62
(dp4684
sg71
g4678
sg64
(lp4685
g57
(g78
g59
NtRp4686
(dp4687
g62
(dp4688
sg71
g4682
sg64
(lp4689
g57
(g58
g59
NtRp4690
(dp4691
g62
(dp4692
g70
I3
ssg71
g4686
sg64
(lp4693
cgluon.languages
lazyT_unpickle
p4694
(S't\x08\x00\x00\x00Clientes'
tRp4695
asbasbasbag57
(g73
g59
NtRp4696
(dp4697
g62
(dp4698
sg71
g4678
sg64
(lp4699
g57
(g78
g59
NtRp4700
(dp4701
g62
(dp4702
sg71
g4696
sg64
(lp4703
g57
(g58
g59
NtRp4704
(dp4705
g62
(dp4706
g70
I3
ssg71
g4700
sg64
(lp4707
g100
asbasbasbag57
(g73
g59
NtRp4708
(dp4709
g62
(dp4710
sg71
g4678
sg64
(lp4711
g57
(g78
g59
NtRp4712
(dp4713
g62
(dp4714
sg71
g4708
sg64
(lp4715
g57
(g58
g59
NtRp4716
(dp4717
g62
(dp4718
g70
I3
ssg71
g4712
sg64
(lp4719
S'/show_cliente'
p4720
asbasbasbag57
(g73
g59
NtRp4721
(dp4722
g62
(dp4723
sg71
g4678
sg64
(lp4724
g57
(g78
g59
NtRp4725
(dp4726
g62
(dp4727
sg71
g4721
sg64
(lp4728
g57
(g58
g59
NtRp4729
(dp4730
g62
(dp4731
g70
I3
ssg71
g4725
sg64
(lp4732
g57
(g66
g59
NtRp4733
(dp4734
g62
(dp4735
g70
I2
ssg71
Nsg64
(lp4736
sbasbasbasbasbasbasbasbag57
(g73
g59
NtRp4737
(dp4738
g62
(dp4739
sg71
g4662
sg64
(lp4740
g57
(g78
g59
NtRp4741
(dp4742
g62
(dp4743
sg71
g4737
sg64
(lp4744
g57
(g58
g59
NtRp4745
(dp4746
g62
(dp4747
g70
I4
ssg71
g4741
sg64
(lp4748
g57
(g66
g59
NtRp4749
(dp4750
g62
(dp4751
g70
I3
ssg71
Nsg64
(lp4752
g57
(g73
g59
NtRp4753
(dp4754
g62
(dp4755
sg71
g4749
sg64
(lp4756
g57
(g78
g59
NtRp4757
(dp4758
g62
(dp4759
sg71
g4753
sg64
(lp4760
g57
(g58
g59
NtRp4761
(dp4762
g62
(dp4763
g70
I3
ssg71
g4757
sg64
(lp4764
g4694
(S't\n\x00\x00\x00Servidores'
tRp4765
asbasbasbag57
(g73
g59
NtRp4766
(dp4767
g62
(dp4768
sg71
g4749
sg64
(lp4769
g57
(g78
g59
NtRp4770
(dp4771
g62
(dp4772
sg71
g4766
sg64
(lp4773
g57
(g58
g59
NtRp4774
(dp4775
g62
(dp4776
g70
I3
ssg71
g4770
sg64
(lp4777
g100
asbasbasbag57
(g73
g59
NtRp4778
(dp4779
g62
(dp4780
sg71
g4749
sg64
(lp4781
g57
(g78
g59
NtRp4782
(dp4783
g62
(dp4784
sg71
g4778
sg64
(lp4785
g57
(g58
g59
NtRp4786
(dp4787
g62
(dp4788
g70
I3
ssg71
g4782
sg64
(lp4789
S'/show_servidor'
p4790
asbasbasbag57
(g73
g59
NtRp4791
(dp4792
g62
(dp4793
sg71
g4749
sg64
(lp4794
g57
(g78
g59
NtRp4795
(dp4796
g62
(dp4797
sg71
g4791
sg64
(lp4798
g57
(g58
g59
NtRp4799
(dp4800
g62
(dp4801
g70
I3
ssg71
g4795
sg64
(lp4802
g57
(g66
g59
NtRp4803
(dp4804
g62
(dp4805
g70
I2
ssg71
Nsg64
(lp4806
sbasbasbasbasbasbasbasbag57
(g73
g59
NtRp4807
(dp4808
g62
(dp4809
sg71
g4662
sg64
(lp4810
g57
(g78
g59
NtRp4811
(dp4812
g62
(dp4813
sg71
g4807
sg64
(lp4814
g57
(g58
g59
NtRp4815
(dp4816
g62
(dp4817
g70
I4
ssg71
g4811
sg64
(lp4818
g57
(g66
g59
NtRp4819
(dp4820
g62
(dp4821
g70
I3
ssg71
Nsg64
(lp4822
g57
(g73
g59
NtRp4823
(dp4824
g62
(dp4825
sg71
g4819
sg64
(lp4826
g57
(g78
g59
NtRp4827
(dp4828
g62
(dp4829
sg71
g4823
sg64
(lp4830
g57
(g58
g59
NtRp4831
(dp4832
g62
(dp4833
g70
I3
ssg71
g4827
sg64
(lp4834
g4694
(S't\x07\x00\x00\x00Distros'
tRp4835
asbasbasbag57
(g73
g59
NtRp4836
(dp4837
g62
(dp4838
sg71
g4819
sg64
(lp4839
g57
(g78
g59
NtRp4840
(dp4841
g62
(dp4842
sg71
g4836
sg64
(lp4843
g57
(g58
g59
NtRp4844
(dp4845
g62
(dp4846
g70
I3
ssg71
g4840
sg64
(lp4847
g100
asbasbasbag57
(g73
g59
NtRp4848
(dp4849
g62
(dp4850
sg71
g4819
sg64
(lp4851
g57
(g78
g59
NtRp4852
(dp4853
g62
(dp4854
sg71
g4848
sg64
(lp4855
g57
(g58
g59
NtRp4856
(dp4857
g62
(dp4858
g70
I3
ssg71
g4852
sg64
(lp4859
S'/show_distro'
p4860
asbasbasbag57
(g73
g59
NtRp4861
(dp4862
g62
(dp4863
sg71
g4819
sg64
(lp4864
g57
(g78
g59
NtRp4865
(dp4866
g62
(dp4867
sg71
g4861
sg64
(lp4868
g57
(g58
g59
NtRp4869
(dp4870
g62
(dp4871
g70
I3
ssg71
g4865
sg64
(lp4872
g57
(g66
g59
NtRp4873
(dp4874
g62
(dp4875
g70
I2
ssg71
Nsg64
(lp4876
sbasbasbasbasbasbasbasbag57
(g73
g59
NtRp4877
(dp4878
g62
(dp4879
sg71
g4662
sg64
(lp4880
g57
(g78
g59
NtRp4881
(dp4882
g62
(dp4883
sg71
g4877
sg64
(lp4884
g57
(g58
g59
NtRp4885
(dp4886
g62
(dp4887
g70
I4
ssg71
g4881
sg64
(lp4888
g57
(g66
g59
NtRp4889
(dp4890
g62
(dp4891
g70
I3
ssg71
Nsg64
(lp4892
g57
(g73
g59
NtRp4893
(dp4894
g62
(dp4895
sg71
g4889
sg64
(lp4896
g57
(g78
g59
NtRp4897
(dp4898
g62
(dp4899
sg71
g4893
sg64
(lp4900
g57
(g58
g59
NtRp4901
(dp4902
g62
(dp4903
g70
I3
ssg71
g4897
sg64
(lp4904
g4694
(S's\x05\x00\x00\x00+host'
tRp4905
asbasbasbag57
(g73
g59
NtRp4906
(dp4907
g62
(dp4908
sg71
g4889
sg64
(lp4909
g57
(g78
g59
NtRp4910
(dp4911
g62
(dp4912
sg71
g4906
sg64
(lp4913
g57
(g58
g59
NtRp4914
(dp4915
g62
(dp4916
g70
I3
ssg71
g4910
sg64
(lp4917
g100
asbasbasbag57
(g73
g59
NtRp4918
(dp4919
g62
(dp4920
sg71
g4889
sg64
(lp4921
g57
(g78
g59
NtRp4922
(dp4923
g62
(dp4924
sg71
g4918
sg64
(lp4925
g57
(g58
g59
NtRp4926
(dp4927
g62
(dp4928
g70
I3
ssg71
g4922
sg64
(lp4929
S'/interface'
p4930
asbasbasbag57
(g73
g59
NtRp4931
(dp4932
g62
(dp4933
sg71
g4889
sg64
(lp4934
g57
(g78
g59
NtRp4935
(dp4936
g62
(dp4937
sg71
g4931
sg64
(lp4938
g57
(g58
g59
NtRp4939
(dp4940
g62
(dp4941
g70
I3
ssg71
g4935
sg64
(lp4942
g57
(g66
g59
NtRp4943
(dp4944
g62
(dp4945
g70
I2
ssg71
Nsg64
(lp4946
sbasbasbasbasbasbasbasbasbasbasbasbag57
(g73
g59
NtRp4947
(dp4948
g62
(dp4949
sg71
g4057
sg64
(lp4950
g57
(g78
g59
NtRp4951
(dp4952
g62
(dp4953
g82
g83
ssg71
g4947
sg64
(lp4954
S'menu2'
p4955
asbag57
(g78
g59
NtRp4956
(dp4957
g62
(dp4958
g89
g90
ssg71
g4947
sg64
(lp4959
S':'
asbag57
(g78
g59
NtRp4960
(dp4961
g62
(dp4962
sg71
g4947
sg64
(lp4963
g57
(g58
g59
NtRp4964
(dp4965
g62
(dp4966
g70
I5
ssg71
g4960
sg64
(lp4967
g57
(g66
g59
NtRp4968
(dp4969
g62
(dp4970
g70
I4
ssg71
Nsg64
(lp4971
g57
(g73
g59
NtRp4972
(dp4973
g62
(dp4974
sg71
g4968
sg64
(lp4975
g57
(g78
g59
NtRp4976
(dp4977
g62
(dp4978
sg71
g4972
sg64
(lp4979
g57
(g58
g59
NtRp4980
(dp4981
g62
(dp4982
g70
I4
ssg71
g4976
sg64
(lp4983
g57
(g66
g59
NtRp4984
(dp4985
g62
(dp4986
g70
I3
ssg71
Nsg64
(lp4987
g57
(g73
g59
NtRp4988
(dp4989
g62
(dp4990
sg71
g4984
sg64
(lp4991
g57
(g78
g59
NtRp4992
(dp4993
g62
(dp4994
sg71
g4988
sg64
(lp4995
g57
(g58
g59
NtRp4996
(dp4997
g62
(dp4998
g70
I3
ssg71
g4992
sg64
(lp4999
g57
(g4634
g59
NtRp5000
(dp5001
g62
(dp5002
g4623
S'dropdown-toggle'
p5003
ssg71
g57
(g4619
g59
NtRp5004
(dp5005
g62
(dp5006
g4625
S'#'
ssg71
g57
(cgluon.html
LI
p5007
g59
NtRp5008
(dp5009
g62
(dp5010
g4623
S'dropdown'
p5011
ssg71
g57
(cgluon.html
UL
p5012
g59
NtRp5013
(dp5014
g62
(dp5015
S'mobile'
p5016
I00
sS'ul_class'
p5017
S'dropdown-menu'
p5018
sS'li_active'
p5019
S'web2py-menu-active'
p5020
sS'li_class'
p5021
g5011
sS'li_first'
p5022
S'web2py-menu-first'
p5023
sg4623
S'mobile-menu nav'
p5024
sS'li_last'
p5025
S'web2py-menu-last'
p5026
ssg71
Nsg64
(lp5027
g5008
ag57
(g5007
g59
NtRp5028
(dp5029
g62
(dp5030
g4623
g5011
ssg71
g5013
sg64
(lp5031
g57
(g4619
g59
NtRp5032
(dp5033
g62
(dp5034
g4625
S'#'
ssg71
g5028
sg64
(lp5035
g57
(g4634
g59
NtRp5036
(dp5037
g62
(dp5038
g4623
g5003
ssg71
g5032
sg64
(lp5039
S'Login'
p5040
asbasbag57
(g5012
g59
NtRp5041
(dp5042
g62
(dp5043
g4623
g5018
ssg71
g5028
sg64
(lp5044
g57
(g5007
g59
NtRp5045
(dp5046
g62
(dp5047
sg71
g5041
sg64
(lp5048
g57
(g4619
g59
NtRp5049
(dp5050
g62
(dp5051
g4625
S'/initial/user/logout'
p5052
ssg71
g5045
sg64
(lp5053
g4694
(S't\x06\x00\x00\x00Logout'
tRp5054
asbasbasbasbasbsg64
(lp5055
g5004
ag57
(g5012
g59
NtRp5056
(dp5057
g62
(dp5058
g4623
g5018
ssg71
g5008
sg64
(lp5059
g57
(g5007
g59
NtRp5060
(dp5061
g62
(dp5062
sg71
g5056
sg64
(lp5063
g57
(g4619
g59
NtRp5064
(dp5065
g62
(dp5066
g4625
S'/manager/users'
p5067
ssg71
g5060
sg64
(lp5068
g4694
(S's\t\x00\x00\x00Usu\xc3\xa1rios'
tRp5069
asbasbag57
(g5007
g59
NtRp5070
(dp5071
g62
(dp5072
sg71
g5056
sg64
(lp5073
g57
(g4619
g59
NtRp5074
(dp5075
g62
(dp5076
g4625
S'/manager/groups'
p5077
ssg71
g5070
sg64
(lp5078
g4694
(S't\x06\x00\x00\x00Grupos'
tRp5079
asbasbag57
(g5007
g59
NtRp5080
(dp5081
g62
(dp5082
sg71
g5056
sg64
(lp5083
g57
(g4619
g59
NtRp5084
(dp5085
g62
(dp5086
g4625
S'/manager/membership'
p5087
ssg71
g5080
sg64
(lp5088
g4694
(S't\x07\x00\x00\x00Membros'
tRp5089
asbasbasbasbsg64
(lp5090
g5000
asbsg64
(lp5091
S'Admin'
p5092
asbasbasbasbag57
(g73
g59
NtRp5093
(dp5094
g62
(dp5095
sg71
g4984
sg64
(lp5096
g57
(g78
g59
NtRp5097
(dp5098
g62
(dp5099
sg71
g5093
sg64
(lp5100
g57
(g58
g59
NtRp5101
(dp5102
g62
(dp5103
g70
I3
ssg71
g5097
sg64
(lp5104
g100
asbasbasbag57
(g73
g59
NtRp5105
(dp5106
g62
(dp5107
sg71
g4984
sg64
(lp5108
g57
(g78
g59
NtRp5109
(dp5110
g62
(dp5111
sg71
g5105
sg64
(lp5112
g57
(g58
g59
NtRp5113
(dp5114
g62
(dp5115
g70
I3
ssg71
g5109
sg64
(lp5116
S'#'
asbasbasbag57
(g73
g59
NtRp5117
(dp5118
g62
(dp5119
sg71
g4984
sg64
(lp5120
g57
(g78
g59
NtRp5121
(dp5122
g62
(dp5123
sg71
g5117
sg64
(lp5124
g57
(g58
g59
NtRp5125
(dp5126
g62
(dp5127
g70
I3
ssg71
g5121
sg64
(lp5128
g57
(g66
g59
NtRp5129
(dp5130
g62
(dp5131
g70
I2
ssg71
Nsg64
(lp5132
g57
(g73
g59
NtRp5133
(dp5134
g62
(dp5135
sg71
g5129
sg64
(lp5136
g57
(g78
g59
NtRp5137
(dp5138
g62
(dp5139
sg71
g5133
sg64
(lp5140
g57
(g58
g59
NtRp5141
(dp5142
g62
(dp5143
g70
I2
ssg71
g5137
sg64
(lp5144
g57
(g66
g59
NtRp5145
(dp5146
g62
(dp5147
g70
I1
ssg71
Nsg64
(lp5148
g57
(g73
g59
NtRp5149
(dp5150
g62
(dp5151
sg71
g5145
sg64
(lp5152
g57
(g78
g59
NtRp5153
(dp5154
g62
(dp5155
sg71
g5149
sg64
(lp5156
g57
(g58
g59
NtRp5157
(dp5158
g62
(dp5159
g70
I1
ssg71
g5153
sg64
(lp5160
g5069
asbasbasbag57
(g73
g59
NtRp5161
(dp5162
g62
(dp5163
sg71
g5145
sg64
(lp5164
g57
(g78
g59
NtRp5165
(dp5166
g62
(dp5167
sg71
g5161
sg64
(lp5168
g57
(g58
g59
NtRp5169
(dp5170
g62
(dp5171
g70
I1
ssg71
g5165
sg64
(lp5172
I00
asbasbasbag57
(g73
g59
NtRp5173
(dp5174
g62
(dp5175
sg71
g5145
sg64
(lp5176
g57
(g78
g59
NtRp5177
(dp5178
g62
(dp5179
sg71
g5173
sg64
(lp5180
g57
(g58
g59
NtRp5181
(dp5182
g62
(dp5183
g70
I1
ssg71
g5177
sg64
(lp5184
g5067
asbasbasbasbasbasbasbag57
(g73
g59
NtRp5185
(dp5186
g62
(dp5187
sg71
g5129
sg64
(lp5188
g57
(g78
g59
NtRp5189
(dp5190
g62
(dp5191
sg71
g5185
sg64
(lp5192
g57
(g58
g59
NtRp5193
(dp5194
g62
(dp5195
g70
I2
ssg71
g5189
sg64
(lp5196
g57
(g66
g59
NtRp5197
(dp5198
g62
(dp5199
g70
I1
ssg71
Nsg64
(lp5200
g57
(g73
g59
NtRp5201
(dp5202
g62
(dp5203
sg71
g5197
sg64
(lp5204
g57
(g78
g59
NtRp5205
(dp5206
g62
(dp5207
sg71
g5201
sg64
(lp5208
g57
(g58
g59
NtRp5209
(dp5210
g62
(dp5211
g70
I1
ssg71
g5205
sg64
(lp5212
g5079
asbasbasbag57
(g73
g59
NtRp5213
(dp5214
g62
(dp5215
sg71
g5197
sg64
(lp5216
g57
(g78
g59
NtRp5217
(dp5218
g62
(dp5219
sg71
g5213
sg64
(lp5220
g57
(g58
g59
NtRp5221
(dp5222
g62
(dp5223
g70
I1
ssg71
g5217
sg64
(lp5224
I00
asbasbasbag57
(g73
g59
NtRp5225
(dp5226
g62
(dp5227
sg71
g5197
sg64
(lp5228
g57
(g78
g59
NtRp5229
(dp5230
g62
(dp5231
sg71
g5225
sg64
(lp5232
g57
(g58
g59
NtRp5233
(dp5234
g62
(dp5235
g70
I1
ssg71
g5229
sg64
(lp5236
g5077
asbasbasbasbasbasbasbag57
(g73
g59
NtRp5237
(dp5238
g62
(dp5239
sg71
g5129
sg64
(lp5240
g57
(g78
g59
NtRp5241
(dp5242
g62
(dp5243
sg71
g5237
sg64
(lp5244
g57
(g58
g59
NtRp5245
(dp5246
g62
(dp5247
g70
I2
ssg71
g5241
sg64
(lp5248
g57
(g66
g59
NtRp5249
(dp5250
g62
(dp5251
g70
I1
ssg71
Nsg64
(lp5252
g57
(g73
g59
NtRp5253
(dp5254
g62
(dp5255
sg71
g5249
sg64
(lp5256
g57
(g78
g59
NtRp5257
(dp5258
g62
(dp5259
sg71
g5253
sg64
(lp5260
g57
(g58
g59
NtRp5261
(dp5262
g62
(dp5263
g70
I1
ssg71
g5257
sg64
(lp5264
g5089
asbasbasbag57
(g73
g59
NtRp5265
(dp5266
g62
(dp5267
sg71
g5249
sg64
(lp5268
g57
(g78
g59
NtRp5269
(dp5270
g62
(dp5271
sg71
g5265
sg64
(lp5272
g57
(g58
g59
NtRp5273
(dp5274
g62
(dp5275
g70
I1
ssg71
g5269
sg64
(lp5276
I00
asbasbasbag57
(g73
g59
NtRp5277
(dp5278
g62
(dp5279
sg71
g5249
sg64
(lp5280
g57
(g78
g59
NtRp5281
(dp5282
g62
(dp5283
sg71
g5277
sg64
(lp5284
g57
(g58
g59
NtRp5285
(dp5286
g62
(dp5287
g70
I1
ssg71
g5281
sg64
(lp5288
g5087
asbasbasbasbasbasbasbasbasbasbasbasbasbasbasbag57
(g73
g59
NtRp5289
(dp5290
g62
(dp5291
sg71
g4968
sg64
(lp5292
g57
(g78
g59
NtRp5293
(dp5294
g62
(dp5295
sg71
g5289
sg64
(lp5296
g57
(g58
g59
NtRp5297
(dp5298
g62
(dp5299
g70
I4
ssg71
g5293
sg64
(lp5300
g57
(g66
g59
NtRp5301
(dp5302
g62
(dp5303
g70
I3
ssg71
Nsg64
(lp5304
g57
(g73
g59
NtRp5305
(dp5306
g62
(dp5307
sg71
g5301
sg64
(lp5308
g57
(g78
g59
NtRp5309
(dp5310
g62
(dp5311
sg71
g5305
sg64
(lp5312
g57
(g58
g59
NtRp5313
(dp5314
g62
(dp5315
g70
I3
ssg71
g5309
sg64
(lp5316
g5036
asbasbasbag57
(g73
g59
NtRp5317
(dp5318
g62
(dp5319
sg71
g5301
sg64
(lp5320
g57
(g78
g59
NtRp5321
(dp5322
g62
(dp5323
sg71
g5317
sg64
(lp5324
g57
(g58
g59
NtRp5325
(dp5326
g62
(dp5327
g70
I3
ssg71
g5321
sg64
(lp5328
g100
asbasbasbag57
(g73
g59
NtRp5329
(dp5330
g62
(dp5331
sg71
g5301
sg64
(lp5332
g57
(g78
g59
NtRp5333
(dp5334
g62
(dp5335
sg71
g5329
sg64
(lp5336
g57
(g58
g59
NtRp5337
(dp5338
g62
(dp5339
g70
I3
ssg71
g5333
sg64
(lp5340
S'#'
asbasbasbag57
(g73
g59
NtRp5341
(dp5342
g62
(dp5343
sg71
g5301
sg64
(lp5344
g57
(g78
g59
NtRp5345
(dp5346
g62
(dp5347
sg71
g5341
sg64
(lp5348
g57
(g58
g59
NtRp5349
(dp5350
g62
(dp5351
g70
I3
ssg71
g5345
sg64
(lp5352
g57
(g66
g59
NtRp5353
(dp5354
g62
(dp5355
g70
I2
ssg71
Nsg64
(lp5356
g57
(g73
g59
NtRp5357
(dp5358
g62
(dp5359
sg71
g5353
sg64
(lp5360
g57
(g78
g59
NtRp5361
(dp5362
g62
(dp5363
sg71
g5357
sg64
(lp5364
g57
(g58
g59
NtRp5365
(dp5366
g62
(dp5367
g70
I2
ssg71
g5361
sg64
(lp5368
g57
(g66
g59
NtRp5369
(dp5370
g62
(dp5371
g70
I1
ssg71
Nsg64
(lp5372
g57
(g73
g59
NtRp5373
(dp5374
g62
(dp5375
sg71
g5369
sg64
(lp5376
g57
(g78
g59
NtRp5377
(dp5378
g62
(dp5379
sg71
g5373
sg64
(lp5380
g57
(g58
g59
NtRp5381
(dp5382
g62
(dp5383
g70
I1
ssg71
g5377
sg64
(lp5384
g5054
asbasbasbag57
(g73
g59
NtRp5385
(dp5386
g62
(dp5387
sg71
g5369
sg64
(lp5388
g57
(g78
g59
NtRp5389
(dp5390
g62
(dp5391
sg71
g5385
sg64
(lp5392
g57
(g58
g59
NtRp5393
(dp5394
g62
(dp5395
g70
I1
ssg71
g5389
sg64
(lp5396
I00
asbasbasbag57
(g73
g59
NtRp5397
(dp5398
g62
(dp5399
sg71
g5369
sg64
(lp5400
g57
(g78
g59
NtRp5401
(dp5402
g62
(dp5403
sg71
g5397
sg64
(lp5404
g57
(g58
g59
NtRp5405
(dp5406
g62
(dp5407
g70
I1
ssg71
g5401
sg64
(lp5408
g5052
asbasbasbasbasbasbasbasbasbasbasbasbasbasbasbasbasbasbasbag57
(g73
g59
NtRp5409
(dp5410
g62
(dp5411
sg71
g4057
sg64
(lp5412
g57
(g78
g59
NtRp5413
(dp5414
g62
(dp5415
g82
g83
ssg71
g5409
sg64
(lp5416
S'meta'
p5417
asbag57
(g78
g59
NtRp5418
(dp5419
g62
(dp5420
g89
g90
ssg71
g5409
sg64
(lp5421
S':'
asbag57
(g78
g59
NtRp5422
(dp5423
g62
(dp5424
sg71
g5409
sg64
(lp5425
g57
(g58
g59
NtRp5426
(dp5427
g62
(dp5428
g70
I5
ssg71
g5422
sg64
(lp5429
g57
(g66
g59
NtRp5430
(dp5431
g62
(dp5432
g70
I4
ssg71
Nsg64
(lp5433
g57
(g73
g59
NtRp5434
(dp5435
g62
(dp5436
sg71
g5430
sg64
(lp5437
g57
(g78
g59
NtRp5438
(dp5439
g62
(dp5440
g82
g83
ssg71
g5434
sg64
(lp5441
S'author'
p5442
asbag57
(g78
g59
NtRp5443
(dp5444
g62
(dp5445
g89
g90
ssg71
g5434
sg64
(lp5446
S':'
asbag57
(g78
g59
NtRp5447
(dp5448
g62
(dp5449
sg71
g5434
sg64
(lp5450
g57
(g58
g59
NtRp5451
(dp5452
g62
(dp5453
g70
I4
ssg71
g5447
sg64
(lp5454
S'Your Name <you@example.com>'
p5455
asbasbasbag57
(g73
g59
NtRp5456
(dp5457
g62
(dp5458
sg71
g5430
sg64
(lp5459
g57
(g78
g59
NtRp5460
(dp5461
g62
(dp5462
g82
g83
ssg71
g5456
sg64
(lp5463
S'description'
p5464
asbag57
(g78
g59
NtRp5465
(dp5466
g62
(dp5467
g89
g90
ssg71
g5456
sg64
(lp5468
S':'
asbag57
(g78
g59
NtRp5469
(dp5470
g62
(dp5471
sg71
g5456
sg64
(lp5472
g57
(g58
g59
NtRp5473
(dp5474
g62
(dp5475
g70
I4
ssg71
g5469
sg64
(lp5476
S'a cool new app'
p5477
asbasbasbag57
(g73
g59
NtRp5478
(dp5479
g62
(dp5480
sg71
g5430
sg64
(lp5481
g57
(g78
g59
NtRp5482
(dp5483
g62
(dp5484
g82
g83
ssg71
g5478
sg64
(lp5485
S'generator'
p5486
asbag57
(g78
g59
NtRp5487
(dp5488
g62
(dp5489
g89
g90
ssg71
g5478
sg64
(lp5490
S':'
asbag57
(g78
g59
NtRp5491
(dp5492
g62
(dp5493
sg71
g5478
sg64
(lp5494
g57
(g58
g59
NtRp5495
(dp5496
g62
(dp5497
g70
I4
ssg71
g5491
sg64
(lp5498
S'Web2py Web Framework'
p5499
asbasbasbag57
(g73
g59
NtRp5500
(dp5501
g62
(dp5502
sg71
g5430
sg64
(lp5503
g57
(g78
g59
NtRp5504
(dp5505
g62
(dp5506
g82
g83
ssg71
g5500
sg64
(lp5507
S'keywords'
p5508
asbag57
(g78
g59
NtRp5509
(dp5510
g62
(dp5511
g89
g90
ssg71
g5500
sg64
(lp5512
S':'
asbag57
(g78
g59
NtRp5513
(dp5514
g62
(dp5515
sg71
g5500
sg64
(lp5516
g57
(g58
g59
NtRp5517
(dp5518
g62
(dp5519
g70
I4
ssg71
g5513
sg64
(lp5520
S'web2py, python, framework'
p5521
asbasbasbasbasbasbasbag57
(g73
g59
NtRp5522
(dp5523
g62
(dp5524
sg71
g4057
sg64
(lp5525
g57
(g78
g59
NtRp5526
(dp5527
g62
(dp5528
g82
g83
ssg71
g5522
sg64
(lp5529
S'models_to_run'
p5530
asbag57
(g78
g59
NtRp5531
(dp5532
g62
(dp5533
g89
g90
ssg71
g5522
sg64
(lp5534
S':'
asbag57
(g78
g59
NtRp5535
(dp5536
g62
(dp5537
sg71
g5522
sg64
(lp5538
g57
(g58
g59
NtRp5539
(dp5540
g62
(dp5541
g70
I5
ssg71
g5535
sg64
(lp5542
g57
(g66
g59
NtRp5543
(dp5544
g62
(dp5545
g70
I4
ssg71
Nsg64
(lp5546
g57
(g73
g59
NtRp5547
(dp5548
g62
(dp5549
sg71
g5543
sg64
(lp5550
g57
(g78
g59
NtRp5551
(dp5552
g62
(dp5553
sg71
g5547
sg64
(lp5554
g57
(g58
g59
NtRp5555
(dp5556
g62
(dp5557
g70
I4
ssg71
g5551
sg64
(lp5558
S'^\\w+\\.py$'
p5559
asbasbasbag57
(g73
g59
NtRp5560
(dp5561
g62
(dp5562
sg71
g5543
sg64
(lp5563
g57
(g78
g59
NtRp5564
(dp5565
g62
(dp5566
sg71
g5560
sg64
(lp5567
g57
(g58
g59
NtRp5568
(dp5569
g62
(dp5570
g70
I4
ssg71
g5564
sg64
(lp5571
S'^initial/\\w+\\.py$'
p5572
asbasbasbag57
(g73
g59
NtRp5573
(dp5574
g62
(dp5575
sg71
g5543
sg64
(lp5576
g57
(g78
g59
NtRp5577
(dp5578
g62
(dp5579
sg71
g5573
sg64
(lp5580
g57
(g58
g59
NtRp5581
(dp5582
g62
(dp5583
g70
I4
ssg71
g5577
sg64
(lp5584
S'^initial/detalhes_nav/\\w+\\.py$'
p5585
asbasbasbasbasbasbasbag57
(g73
g59
NtRp5586
(dp5587
g62
(dp5588
sg71
g4057
sg64
(lp5589
g57
(g78
g59
NtRp5590
(dp5591
g62
(dp5592
g82
g83
ssg71
g5586
sg64
(lp5593
S'postprocessing'
p5594
asbag57
(g78
g59
NtRp5595
(dp5596
g62
(dp5597
g89
g90
ssg71
g5586
sg64
(lp5598
S':'
asbag57
(g78
g59
NtRp5599
(dp5600
g62
(dp5601
sg71
g5586
sg64
(lp5602
g57
(g58
g59
NtRp5603
(dp5604
g62
(dp5605
g70
I5
ssg71
g5599
sg64
(lp5606
g57
(g66
g59
NtRp5607
(dp5608
g62
(dp5609
g70
I4
ssg71
Nsg64
(lp5610
sbasbasbasbag57
(g73
g59
NtRp5611
(dp5612
g62
(dp5613
sg71
g4057
sg64
(lp5614
g57
(g78
g59
NtRp5615
(dp5616
g62
(dp5617
g82
g83
ssg71
g5611
sg64
(lp5618
S'session_cookie_expires'
p5619
asbag57
(g78
g59
NtRp5620
(dp5621
g62
(dp5622
g89
g90
ssg71
g5611
sg64
(lp5623
S':'
asbag57
(g78
g59
NtRp5624
(dp5625
g62
(dp5626
sg71
g5611
sg64
(lp5627
g57
(g58
g59
NtRp5628
(dp5629
g62
(dp5630
g70
I5
ssg71
g5624
sg64
(lp5631
S'None'
p5632
asbasbasbag57
(g73
g59
NtRp5633
(dp5634
g62
(dp5635
sg71
g4057
sg64
(lp5636
g57
(g78
g59
NtRp5637
(dp5638
g62
(dp5639
g82
g83
ssg71
g5633
sg64
(lp5640
S'session_data_name'
p5641
asbag57
(g78
g59
NtRp5642
(dp5643
g62
(dp5644
g89
g90
ssg71
g5633
sg64
(lp5645
S':'
asbag57
(g78
g59
NtRp5646
(dp5647
g62
(dp5648
sg71
g5633
sg64
(lp5649
g57
(g58
g59
NtRp5650
(dp5651
g62
(dp5652
g70
I5
ssg71
g5646
sg64
(lp5653
S'session_data_projeto'
p5654
asbasbasbag57
(g73
g59
NtRp5655
(dp5656
g62
(dp5657
sg71
g4057
sg64
(lp5658
g57
(g78
g59
NtRp5659
(dp5660
g62
(dp5661
g82
g83
ssg71
g5655
sg64
(lp5662
S'session_file'
p5663
asbag57
(g78
g59
NtRp5664
(dp5665
g62
(dp5666
g89
g90
ssg71
g5655
sg64
(lp5667
S':'
asbag57
(g78
g59
NtRp5668
(dp5669
g62
(dp5670
sg71
g5655
sg64
(lp5671
g57
(g58
g59
NtRp5672
(dp5673
g62
(dp5674
g70
I5
ssg71
g5668
sg64
(lp5675
S"<open file '/var/www/hosts3/applications/projeto/sessions/127.0.0.1-b62d7e8b-74ab-4f83-89b2-ac56f3d74e01', mode 'rb+' at 0x7faeb43745d0>"
p5676
asbasbasbag57
(g73
g59
NtRp5677
(dp5678
g62
(dp5679
sg71
g4057
sg64
(lp5680
g57
(g78
g59
NtRp5681
(dp5682
g62
(dp5683
g82
g83
ssg71
g5677
sg64
(lp5684
S'session_filename'
p5685
asbag57
(g78
g59
NtRp5686
(dp5687
g62
(dp5688
g89
g90
ssg71
g5677
sg64
(lp5689
S':'
asbag57
(g78
g59
NtRp5690
(dp5691
g62
(dp5692
sg71
g5677
sg64
(lp5693
g57
(g58
g59
NtRp5694
(dp5695
g62
(dp5696
g70
I5
ssg71
g5690
sg64
(lp5697
S'/var/www/hosts3/applications/projeto/sessions/127.0.0.1-b62d7e8b-74ab-4f83-89b2-ac56f3d74e01'
p5698
asbasbasbag57
(g73
g59
NtRp5699
(dp5700
g62
(dp5701
sg71
g4057
sg64
(lp5702
g57
(g78
g59
NtRp5703
(dp5704
g62
(dp5705
g82
g83
ssg71
g5699
sg64
(lp5706
S'session_id'
p5707
asbag57
(g78
g59
NtRp5708
(dp5709
g62
(dp5710
g89
g90
ssg71
g5699
sg64
(lp5711
S':'
asbag57
(g78
g59
NtRp5712
(dp5713
g62
(dp5714
sg71
g5699
sg64
(lp5715
g57
(g58
g59
NtRp5716
(dp5717
g62
(dp5718
g70
I5
ssg71
g5712
sg64
(lp5719
g661
asbasbasbag57
(g73
g59
NtRp5720
(dp5721
g62
(dp5722
sg71
g4057
sg64
(lp5723
g57
(g78
g59
NtRp5724
(dp5725
g62
(dp5726
g82
g83
ssg71
g5720
sg64
(lp5727
S'session_id_name'
p5728
asbag57
(g78
g59
NtRp5729
(dp5730
g62
(dp5731
g89
g90
ssg71
g5720
sg64
(lp5732
S':'
asbag57
(g78
g59
NtRp5733
(dp5734
g62
(dp5735
sg71
g5720
sg64
(lp5736
g57
(g58
g59
NtRp5737
(dp5738
g62
(dp5739
g70
I5
ssg71
g5733
sg64
(lp5740
g4114
asbasbasbag57
(g73
g59
NtRp5741
(dp5742
g62
(dp5743
sg71
g4057
sg64
(lp5744
g57
(g78
g59
NtRp5745
(dp5746
g62
(dp5747
g82
g83
ssg71
g5741
sg64
(lp5748
S'session_locked'
p5749
asbag57
(g78
g59
NtRp5750
(dp5751
g62
(dp5752
g89
g90
ssg71
g5741
sg64
(lp5753
S':'
asbag57
(g78
g59
NtRp5754
(dp5755
g62
(dp5756
sg71
g5741
sg64
(lp5757
g57
(g58
g59
NtRp5758
(dp5759
g62
(dp5760
g70
I5
ssg71
g5754
sg64
(lp5761
g1966
asbasbasbag57
(g73
g59
NtRp5762
(dp5763
g62
(dp5764
sg71
g4057
sg64
(lp5765
g57
(g78
g59
NtRp5766
(dp5767
g62
(dp5768
g82
g83
ssg71
g5762
sg64
(lp5769
S'session_new'
p5770
asbag57
(g78
g59
NtRp5771
(dp5772
g62
(dp5773
g89
g90
ssg71
g5762
sg64
(lp5774
S':'
asbag57
(g78
g59
NtRp5775
(dp5776
g62
(dp5777
sg71
g5762
sg64
(lp5778
g57
(g58
g59
NtRp5779
(dp5780
g62
(dp5781
g70
I5
ssg71
g5775
sg64
(lp5782
g100
asbasbasbag57
(g73
g59
NtRp5783
(dp5784
g62
(dp5785
sg71
g4057
sg64
(lp5786
g57
(g78
g59
NtRp5787
(dp5788
g62
(dp5789
g82
g83
ssg71
g5783
sg64
(lp5790
S'session_storage_type'
p5791
asbag57
(g78
g59
NtRp5792
(dp5793
g62
(dp5794
g89
g90
ssg71
g5783
sg64
(lp5795
S':'
asbag57
(g78
g59
NtRp5796
(dp5797
g62
(dp5798
sg71
g5783
sg64
(lp5799
g57
(g58
g59
NtRp5800
(dp5801
g62
(dp5802
g70
I5
ssg71
g5796
sg64
(lp5803
g3610
asbasbasbag57
(g73
g59
NtRp5804
(dp5805
g62
(dp5806
sg71
g4057
sg64
(lp5807
g57
(g78
g59
NtRp5808
(dp5809
g62
(dp5810
g82
g83
ssg71
g5804
sg64
(lp5811
S'status'
p5812
asbag57
(g78
g59
NtRp5813
(dp5814
g62
(dp5815
g89
g90
ssg71
g5804
sg64
(lp5816
S':'
asbag57
(g78
g59
NtRp5817
(dp5818
g62
(dp5819
sg71
g5804
sg64
(lp5820
g57
(g58
g59
NtRp5821
(dp5822
g62
(dp5823
g70
I5
ssg71
g5817
sg64
(lp5824
S'200'
p5825
asbasbasbag57
(g73
g59
NtRp5826
(dp5827
g62
(dp5828
sg71
g4057
sg64
(lp5829
g57
(g78
g59
NtRp5830
(dp5831
g62
(dp5832
g82
g83
ssg71
g5826
sg64
(lp5833
S'subtitle'
p5834
asbag57
(g78
g59
NtRp5835
(dp5836
g62
(dp5837
g89
g90
ssg71
g5826
sg64
(lp5838
S':'
asbag57
(g78
g59
NtRp5839
(dp5840
g62
(dp5841
sg71
g5826
sg64
(lp5842
g57
(g58
g59
NtRp5843
(dp5844
g62
(dp5845
g70
I5
ssg71
g5839
sg64
(lp5846
g4694
(S's\r\x00\x00\x00customize me!'
tRp5847
asbasbasbag57
(g73
g59
NtRp5848
(dp5849
g62
(dp5850
sg71
g4057
sg64
(lp5851
g57
(g78
g59
NtRp5852
(dp5853
g62
(dp5854
g82
g83
ssg71
g5848
sg64
(lp5855
S'title'
p5856
asbag57
(g78
g59
NtRp5857
(dp5858
g62
(dp5859
g89
g90
ssg71
g5848
sg64
(lp5860
S':'
asbag57
(g78
g59
NtRp5861
(dp5862
g62
(dp5863
sg71
g5848
sg64
(lp5864
g57
(g58
g59
NtRp5865
(dp5866
g62
(dp5867
g70
I5
ssg71
g5861
sg64
(lp5868
S'Projeto'
p5869
asbasbasbag57
(g73
g59
NtRp5870
(dp5871
g62
(dp5872
sg71
g4057
sg64
(lp5873
g57
(g78
g59
NtRp5874
(dp5875
g62
(dp5876
g82
g83
ssg71
g5870
sg64
(lp5877
S'view'
p5878
asbag57
(g78
g59
NtRp5879
(dp5880
g62
(dp5881
g89
g90
ssg71
g5870
sg64
(lp5882
S':'
asbag57
(g78
g59
NtRp5883
(dp5884
g62
(dp5885
sg71
g5870
sg64
(lp5886
g57
(g58
g59
NtRp5887
(dp5888
g62
(dp5889
g70
I5
ssg71
g5883
sg64
(lp5890
S'initial/detalhes_host.html'
p5891
asbasbasbasbasbsS'locals'
p5892
(dp5893
S'OBJECT'
p5894
S"<class 'gluon.html.OBJECT'>"
p5895
sS'SQLDB'
p5896
S"<class 'gluon.dal.DAL'>"
p5897
sS'Servidor'
p5898
S'<Table servidor (id,nome)>'
p5899
sg3663
S"<Storage {'_formkey[hosts/59]': '9aa2f9a1-3bd5-4...login]': '5b0364a7-8c75-42fa-a040-a35646ca32aa'}>"
p5900
sS'LINK'
p5901
S"<class 'gluon.html.LINK'>"
p5902
sS'BR'
p5903
S"<class 'gluon.html.BR'>"
p5904
sS'local_import'
p5905
S'<function <lambda>>'
p5906
sS'filtro'
p5907
S"'204'"
p5908
sS'__package__'
p5909
S'None'
p5910
sS'Distro'
p5911
S'<Table distro (id,nome,img,imagem)>'
p5912
sS'PRE'
p5913
S"<class 'gluon.html.PRE'>"
p5914
sS'IS_INT_IN_RANGE'
p5915
S"<class 'gluon.validators.IS_INT_IN_RANGE'>"
p5916
sS'left_sidebar_enabled'
p5917
g100
sS'IS_LOWER'
p5918
S"<class 'gluon.validators.IS_LOWER'>"
p5919
sS'IS_STRONG'
p5920
S"<class 'gluon.validators.IS_STRONG'>"
p5921
sS'cache'
p5922
S'<gluon.cache.Cache object>'
p5923
sS'IS_IN_DB'
p5924
S"<class 'gluon.validators.IS_IN_DB'>"
p5925
sS'TAG'
p5926
S'<gluon.html.__TAG__ object>'
p5927
sS'SQLField'
p5928
S"<class 'gluon.dal.Field'>"
p5929
sS'mail'
p5930
S'<gluon.tools.Mail object>'
p5931
sS'logger'
p5932
S'<logging.Logger object>'
p5933
sS'BODY'
p5934
S"<class 'gluon.html.BODY'>"
p5935
sS'IS_DATE_IN_RANGE'
p5936
S"<class 'gluon.validators.IS_DATE_IN_RANGE'>"
p5937
sS'detalhes'
p5938
S"<Row {'servidor': {'id': 17, 'nome': 'Virtualiza...n.jpg', 'nome': 'Debian 5.0 (Lenny)', 'id': 11}}>"
p5939
sS'IFRAME'
p5940
S"<class 'gluon.html.IFRAME'>"
p5941
sS'funcao_ant'
p5942
S"'cliente_host'"
p5943
sS'URL'
p5944
S'<function URL>'
p5945
sS'nome_ant'
p5946
S"'Agabe'"
p5947
sS'__file__'
p5948
S"'/var/www/hosts3/applications/projeto/views/initial/detalhes_host.html'"
p5949
sS'db'
p5950
S'<DAL uri="postgres:pg8000://******:123456@127.0.0.1/hosts3_ok">'
p5951
sS'auth'
p5952
S'<gluon.tools.Auth object>'
p5953
sS'P'
S"<class 'gluon.html.P'>"
p5954
sS'Hosts'
p5955
S'<Table hosts (id,id_cliente,id_servidor,id_distr...egada,porta_ssh,gateway,rotas,obs_gerais,upload)>'
p5956
sS'TFOOT'
p5957
S"<class 'gluon.html.TFOOT'>"
p5958
sS'XHTML'
p5959
S"<class 'gluon.html.XHTML'>"
p5960
sS'ON'
p5961
g1966
sS'OL'
p5962
S"<class 'gluon.html.OL'>"
p5963
sS'TEXTAREA'
p5964
S"<class 'gluon.html.TEXTAREA'>"
p5965
sS'MENU'
p5966
S"<class 'gluon.html.MENU'>"
p5967
sS'funcao'
p5968
S"'cliente_host'"
p5969
sS'IS_IMAGE'
p5970
S"<class 'gluon.validators.IS_IMAGE'>"
p5971
sS'nome_funcao1'
p5972
S"'Clientes'"
p5973
sS'EM'
p5974
S"<class 'gluon.html.EM'>"
p5975
sS'CODE'
p5976
S"<class 'gluon.html.CODE'>"
p5977
sS'HTTP'
p5978
S"<class 'gluon.http.HTTP'>"
p5979
sS'HR'
p5980
S"<class 'gluon.html.HR'>"
p5981
sS'IS_DATETIME'
p5982
S"<class 'gluon.validators.IS_DATETIME'>"
p5983
sS'Storage'
p5984
S"<class 'gluon.storage.Storage'>"
p5985
sS'STYLE'
p5986
S"<class 'gluon.html.STYLE'>"
p5987
sS'LABEL'
p5988
S"<class 'gluon.html.LABEL'>"
p5989
sS'OPTGROUP'
p5990
S"<class 'gluon.html.OPTGROUP'>"
p5991
sS'CLEANUP'
p5992
S"<class 'gluon.validators.CLEANUP'>"
p5993
sS'SELECT'
p5994
S"<class 'gluon.html.SELECT'>"
p5995
sS'CENTER'
p5996
S"<class 'gluon.html.CENTER'>"
p5997
sS'id_host'
p5998
S"'204'"
p5999
sS'Auth'
p6000
S"<class 'gluon.tools.Auth'>"
p6001
sS'DEVELOPMENT_MENU'
p6002
g1966
sS'__builtins__'
p6003
S"{'ArithmeticError': <type 'exceptions.ArithmeticError'>, 'AssertionError': <type 'exceptions.AssertionError'>, 'AttributeError': <type 'exceptions.AttributeError'>, 'BaseException': <type 'exceptions.BaseException'>, 'BufferError': <type 'exceptions.BufferError'>, 'BytesWarning': <type 'exceptions.BytesWarning'>, 'DeprecationWarning': <type 'exceptions.DeprecationWarning'>, 'EOFError': <type 'exceptions.EOFError'>, 'Ellipsis': Ellipsis, 'EnvironmentError': <type 'exceptions.EnvironmentError'>, ...}"
p6004
sS'HTML'
p6005
S"<class 'gluon.html.HTML'>"
p6006
sS'Interface'
p6007
S'<Table interface (id,id_hosts,nome,ip)>'
p6008
sS'SQLFORM'
p6009
S"<class 'gluon.sqlhtml.SQLFORM'>"
p6010
sS'LOAD'
p6011
S'<function LOAD>'
p6012
sS'redirect'
p6013
S'<function redirect>'
p6014
sS'FIELDSET'
p6015
S"<class 'gluon.html.FIELDSET'>"
p6016
sS'IS_EQUAL_TO'
p6017
S"<class 'gluon.validators.IS_EQUAL_TO'>"
p6018
sS'nome_funcao'
p6019
S"'Agabe'"
p6020
sS'embed64'
p6021
S'<function embed64>'
p6022
sS'IS_LIST_OF'
p6023
S"<class 'gluon.validators.IS_LIST_OF'>"
p6024
sS'INPUT'
p6025
S"<class 'gluon.html.INPUT'>"
p6026
sS'EMBED'
p6027
S"<class 'gluon.html.EMBED'>"
p6028
sS'_'
S'<function _>'
p6029
sS'logging'
p6030
S"<module 'logging' from '/usr/lib/python2.7/logging/__init__.pyc'>"
p6031
sS'H2'
p6032
S"<class 'gluon.html.H2'>"
p6033
sS'H3'
p6034
S"<class 'gluon.html.H3'>"
p6035
sS'BUTTON'
p6036
S"<class 'gluon.html.BUTTON'>"
p6037
sS'H1'
p6038
S"<class 'gluon.html.H1'>"
p6039
sS'H6'
p6040
S"<class 'gluon.html.H6'>"
p6041
sS'H4'
p6042
S"<class 'gluon.html.H4'>"
p6043
sS'H5'
p6044
S"<class 'gluon.html.H5'>"
p6045
sS'UL'
p6046
S"<class 'gluon.html.UL'>"
p6047
sS'IS_UPPER'
p6048
S"<class 'gluon.validators.IS_UPPER'>"
p6049
sS'xmlescape'
p6050
S'<function xmlescape>'
p6051
sS'IS_TIME'
p6052
S"<class 'gluon.validators.IS_TIME'>"
p6053
sS'OPTION'
p6054
S"<class 'gluon.html.OPTION'>"
p6055
sS'TITLE'
p6056
S"<class 'gluon.html.TITLE'>"
p6057
sS'CRYPT'
p6058
S"<class 'gluon.validators.CRYPT'>"
p6059
sS'IS_EMPTY_OR'
p6060
S"<class 'gluon.validators.IS_EMPTY_OR'>"
p6061
sS'MARKMIN'
p6062
S"<class 'gluon.html.MARKMIN'>"
p6063
sS'__name__'
p6064
S"'__restricted__'"
p6065
sS'STRONG'
p6066
S"<class 'gluon.html.STRONG'>"
p6067
sS'COL'
p6068
S"<class 'gluon.html.COL'>"
p6069
sS'SCRIPT'
p6070
S"<class 'gluon.html.SCRIPT'>"
p6071
sS'config'
p6072
S"<Storage {'mail': <Storage {}>, 'db': <Storage {...s3_ok', 'pool_size': 10}>, 'auth': <Storage {}>}>"
p6073
sS'IS_NOT_EMPTY'
p6074
S"<class 'gluon.validators.IS_NOT_EMPTY'>"
p6075
sS'is_mobile'
p6076
g100
sS'TABLE'
p6077
S"<class 'gluon.html.TABLE'>"
p6078
sS'nome_ant1'
p6079
S"'Clientes'"
p6080
sS'IS_IPV4'
p6081
S"<class 'gluon.validators.IS_IPV4'>"
p6082
sS'IS_LENGTH'
p6083
S"<class 'gluon.validators.IS_LENGTH'>"
p6084
sS'XML'
p6085
S"<class 'gluon.html.XML'>"
p6086
sS'B'
S"<class 'gluon.html.B'>"
p6087
sS'IMG'
p6088
S"<class 'gluon.html.IMG'>"
p6089
sS'SQLTABLE'
p6090
S"<class 'gluon.sqlhtml.SQLTABLE'>"
p6091
sS'IS_MATCH'
p6092
S"<class 'gluon.validators.IS_MATCH'>"
p6093
sS'IS_ALPHANUMERIC'
p6094
S"<class 'gluon.validators.IS_ALPHANUMERIC'>"
p6095
sS'Cliente'
p6096
S'<Table cliente (id,nome,email,gtalk)>'
p6097
sS'SPAN'
p6098
S"<class 'gluon.html.SPAN'>"
p6099
sS'IS_SLUG'
p6100
S"<class 'gluon.validators.IS_SLUG'>"
p6101
sS'BEAUTIFY'
p6102
S"<class 'gluon.html.BEAUTIFY'>"
p6103
sS'META'
p6104
S"<class 'gluon.html.META'>"
p6105
sS'id_cliente'
p6106
S"'1'"
p6107
sS'IS_DATE'
p6108
S"<class 'gluon.validators.IS_DATE'>"
p6109
sS'IS_EMAIL'
p6110
S"<class 'gluon.validators.IS_EMAIL'>"
p6111
sS'funcao1'
p6112
S"'show_cliente'"
p6113
sS'IS_FLOAT_IN_RANGE'
p6114
S"<class 'gluon.validators.IS_FLOAT_IN_RANGE'>"
p6115
sS'TBODY'
p6116
S"<class 'gluon.html.TBODY'>"
p6117
sS'CAT'
p6118
S"<class 'gluon.html.CAT'>"
p6119
sS'Field'
p6120
S"<class 'gluon.dal.Field'>"
p6121
sS'middle_columns'
p6122
S"'span12'"
p6123
sS'DIV'
p6124
S"<class 'gluon.html.DIV'>"
p6125
sS'LEGEND'
p6126
S"<class 'gluon.html.LEGEND'>"
p6127
sS'notifica'
p6128
S'<function notifica>'
p6129
sS'COLGROUP'
p6130
S"<class 'gluon.html.COLGROUP'>"
p6131
sS'DAL'
p6132
S"<class 'gluon.dal.DAL'>"
p6133
sS'TT'
p6134
S"<class 'gluon.html.TT'>"
p6135
sS'TR'
p6136
S"<class 'gluon.html.TR'>"
p6137
sS'LI'
p6138
S"<class 'gluon.html.LI'>"
p6139
sS'right_sidebar_enabled'
p6140
g100
sS'TH'
p6141
S"<class 'gluon.html.TH'>"
p6142
sS'TD'
p6143
S"<class 'gluon.html.TD'>"
p6144
sS'IS_URL'
p6145
S"<class 'gluon.validators.IS_URL'>"
p6146
sS'A'
S"<class 'gluon.html.A'>"
p6147
sS'HEAD'
p6148
S"<class 'gluon.html.HEAD'>"
p6149
sS'IS_DATETIME_IN_RANGE'
p6150
S"<class 'gluon.validators.IS_DATETIME_IN_RANGE'>"
p6151
sS'FORM'
p6152
S"<class 'gluon.html.FORM'>"
p6153
sS'I'
S"<class 'gluon.html.I'>"
p6154
sS'IS_NOT_IN_DB'
p6155
S"<class 'gluon.validators.IS_NOT_IN_DB'>"
p6156
sg4052
S"<Storage {'body': <cStringIO.StringO object at 0...cc2b2230>, 'view': 'initial/detalhes_host.html'}>"
p6157
sS'funcao_ant1'
p6158
S"'show_cliente'"
p6159
sS'THEAD'
p6160
S"<class 'gluon.html.THEAD'>"
p6161
sS'IS_NULL_OR'
p6162
S"<class 'gluon.validators.IS_EMPTY_OR'>"
p6163
sg56
S"<Storage {'function': 'detalhes_nav', 'body': <c...plications/projeto/', 'post_vars': <Storage {}>}>"
p6164
sS'IS_EXPR'
p6165
S"<class 'gluon.validators.IS_EXPR'>"
p6166
sS'T'
S'<gluon.languages.translator object>'
p6167
sS'IS_IN_SET'
p6168
S"<class 'gluon.validators.IS_IN_SET'>"
p6169
sS'IS_UPLOAD_FILENAME'
p6170
S"<class 'gluon.validators.IS_UPLOAD_FILENAME'>"
p6171
sS'IS_DECIMAL_IN_RANGE'
p6172
S"<class 'gluon.validators.IS_DECIMAL_IN_RANGE'>"
p6173
sssS'traceback'
p6174
S'Traceback (most recent call last):\n  File "/var/www/hosts3/gluon/restricted.py", line 212, in restricted\n    exec ccode in environment\n  File "/var/www/hosts3/applications/projeto/views/initial/detalhes_host.html", line 187, in <module>\nNameError: name \'var2\' is not defined\n'
p6175
s.