(dp1
S'output'
p2
S"<type 'exceptions.SyntaxError'> invalid syntax (detalhes_host.html, line 193)"
p3
sS'layer'
p4
S'/var/www/hosts3/applications/projeto/views/initial/detalhes_host.html'
p5
sS'code'
p6
S'response.write(\'<!DOCTYPE html>\\n<!-- paulirish.com/2008/conditional-stylesheets-vs-css-hacks-answer-neither/ -->\\n<!--[if lt IE 7]><html class="ie ie6 ie-lte9 ie-lte8 ie-lte7 no-js" lang="\', escape=False)\nresponse.write(T.accepted_language or \'en\')\nresponse.write(\'"> <![endif]-->\\n<!--[if IE 7]><html class="ie ie7 ie-lte9 ie-lte8 ie-lte7 no-js" lang="\', escape=False)\nresponse.write(T.accepted_language or \'en\')\nresponse.write(\'"> <![endif]-->\\n<!--[if IE 8]><html class="ie ie8 ie-lte9 ie-lte8 no-js" lang="\', escape=False)\nresponse.write(T.accepted_language or \'en\')\nresponse.write(\'"> <![endif]-->\\n<!--[if IE 9]><html class="ie9 ie-lte9 no-js" lang="\', escape=False)\nresponse.write(T.accepted_language or \'en\')\nresponse.write(\'"> <![endif]-->\\n<!--[if (gt IE 9)|!(IE)]><!--> <html class="no-js" lang="\', escape=False)\nresponse.write(T.accepted_language or \'en\')\nresponse.write(\'"> <!--<![endif]-->\\n<head>\\n  <meta charset="utf-8" />\\n  <!-- www.phpied.com/conditional-comments-block-downloads/ -->\\n  <!-- Always force latest IE rendering engine\\n       (even in intranet) & Chrome Frame\\n       Remove thihos if you use the .htaccess -->\\n  <!--[if IE]>\\n      <meta http-equiv="X-UA-Compatible" content="IE=edge\', escape=False)\nresponse.write(not request.is_local and \',chrome=1\' or \'\')\nresponse.write(\'">\\n      <![endif]-->\\n\\n  <title>\', escape=False)\nresponse.write(response.title or request.application)\nresponse.write(\'</title>\\n\\n  <!-- http://dev.w3.org/html5/markup/meta.name.html -->\\n  <meta name="application-name" content="\', escape=False)\nresponse.write(request.application)\nresponse.write(\'" />\\n\\n  <!-- Speaking of Google, don\\\'t forget to set your site up:\\n       http://google.com/webmasters -->\\n  <meta name="google-site-verification" content="" />\\n\\n  <!--  Mobile Viewport Fix\\n        j.mp/mobileviewport & davidbcalhoun.com/2010/viewport-metatag\\n        device-width: Occupy full width of the screen in its current orientation\\n        initial-scale = 1.0 retains dimensions instead of zooming out if page height > device height\\n        user-scalable = yes allows the user to zoom in -->\\n  <meta name="viewport" content="width=device-width, initial-scale=1.0" />\\n\\n  <link rel="shortcut icon" href="\', escape=False)\nresponse.write(URL(\'static\',\'images/favicon.ico\'))\nresponse.write(\'" type="image/x-icon">\\n  <link rel="apple-touch-icon" href="\', escape=False)\nresponse.write(URL(\'static\',\'images/favicon.png\'))\nresponse.write(\'">\\n\\n  <!-- All JavaScript at the bottom, except for Modernizr which enables\\n       HTML5 elements & feature detects -->\\n  <script src="\', escape=False)\nresponse.write(URL(\'static\',\'js/modernizr.custom.js\'))\nresponse.write(\'"></script>\\n\\n  <!-- include stylesheets -->\\n  \', escape=False)\nresponse.files.append(URL(\'static\',\'css/web2py.css\'))\nresponse.files.append(URL(\'static\',\'css/bootstrap.min.css\'))\nresponse.files.append(URL(\'static\',\'css/bootstrap-responsive.min.css\'))\nresponse.files.append(URL(\'static\',\'css/web2py_bootstrap.css\'))\nresponse.write(\'\\n\\n  \', escape=False)\nresponse.write(\'<script type="text/javascript"><!--\\n    // These variables are used by the web2py_ajax_init function in web2py_ajax.js (which is loaded below).\\n    var w2p_ajax_confirm_message = "\', escape=False)\nresponse.write(T(\'Tem certeza que deseja apagar este objeto?\'))\nresponse.write(\'";\\n    var w2p_ajax_date_format = "\', escape=False)\nresponse.write(T(\'%Y-%m-%d\'))\nresponse.write(\'";\\n    var w2p_ajax_datetime_format = "\', escape=False)\nresponse.write(T(\'%Y-%m-%d %H:%M:%S\'))\nresponse.write(\'";\\n    //--></script>\\n\', escape=False)\nresponse.files.insert(0,URL(\'static\',\'js/jquery.js\'))\nresponse.files.insert(1,URL(\'static\',\'css/calendar.css\'))\nresponse.files.insert(2,URL(\'static\',\'js/calendar.js\'))\nresponse.files.insert(3,URL(\'static\',\'js/web2py.js\'))\nresponse.include_meta()\nresponse.include_files()\nresponse.write(\'\\n\', escape=False)\nresponse.write(\'\\n\\n  \', escape=False)\n# using sidebars need to know what sidebar you want to use\nleft_sidebar_enabled = globals().get(\'left_sidebar_enabled\',False)\nright_sidebar_enabled = globals().get(\'right_sidebar_enabled\',False)\nmiddle_columns = {0:\'span12\',1:\'span9\',2:\'span6\'}[\n(left_sidebar_enabled and 1 or 0)+(right_sidebar_enabled and 1 or 0)]\nresponse.write(\'\\n\\n  <!-- uncomment here to load jquery-ui\\n       <link rel="stylesheet" href="http://ajax.googleapis.com/ajax/libs/jqueryui/1.8.16/themes/base/jquery-ui.css" type="text/css" media="all" />\\n       <script src="http://ajax.googleapis.com/ajax/libs/jqueryui/1.8.16/jquery-ui.min.js" type="text/javascript"></script>\\n       uncomment to load jquery-ui //-->\\n  <noscript><link href="\', escape=False)\nresponse.write(URL(\'static\', \'css/web2py_bootstrap_nojs.css\'))\nresponse.write(\'" rel="stylesheet" type="text/css" /></noscript>\\n  \', escape=False)\nresponse.write(\'\\n</head>\\n\\n<body>\\n  <!-- Navbar ================================================== -->\\n  <div class="navbar navbar-inverse navbar-fixed-top">\\n    <div class="flash">\', escape=False)\nresponse.write(response.flash or \'\')\nresponse.write(\'</div>\\n    <div class="navbar-inner">\\n      <div class="container">\\n        <!-- the next tag is necessary for bootstrap menus, do not remove -->\\n        <button type="button" class="btn btn-navbar" data-toggle="collapse" data-target=".nav-collapse">\\n          <span class="icon-bar"></span>\\n          <span class="icon-bar"></span>\\n          <span class="icon-bar"></span>\\n        </button>\\n\\t\', escape=False)\nresponse.write(response.logo or \'\')\nresponse.write(\'\\n       <ul id="navbar" class="nav pull-right">\', escape=False)\nresponse.write(MENU(response.menu2, _class=\'mobile-menu nav\', li_class=\'dropdown\',ul_class=\'dropdown-menu\'))\nresponse.write(\'</ul>\\n        <div class="nav-collapse"><ul class="nav">\\n          \', escape=False)\nis_mobile=request.user_agent().is_mobile\nresponse.write(\'\\n          \', escape=False)\nif response.menu:\n    response.write(\'\\n          \', escape=False)\n    response.write(MENU(response.menu, _class=\'mobile-menu nav\' if is_mobile else \'nav\',mobile=is_mobile,li_class=\'dropdown\',ul_class=\'dropdown-menu\'))\n    response.write(\'\\n          \', escape=False)\n    pass\nresponse.write(\'\\n        </div><!--/.nav-collapse --></ul>\\n      </div>\\n    </div>\\n  </div><!--/top navbar -->\\n\\n  <div class="container">\\n    <!-- Masthead ================================================== -->\\n    <header class="mastheader row" id="header">\\n        <div class="span12">\\n            <div class="page-header">\\n                <h1><img src="\', escape=False)\nresponse.write(URL(\'static\', \'images\', \'hosts_logo.png\'))\nresponse.write(\'">\\n                    hosts\\n                    <small>\', escape=False)\nresponse.write(response.title or \'\')\nresponse.write(\'</small>\\n                </h1>\\n            </div>\\n            \', escape=False)\nresponse.write(\'\\n            \', escape=False)\nresponse.write(\'\\n        </div>\\n    </header>\\n\\n\\n    <section id="main" class="main row">\\n        \', escape=False)\nif left_sidebar_enabled:\n    response.write(\'\\n        <div class="span3 left-sidebar">\\n            \', escape=False)\n    response.write(\'\\n            <h3>Left Sidebar</h3>\\n            <p></p>\\n            \', escape=False)\n    response.write(\'\\n        </div>\\n        \', escape=False)\n    pass\nresponse.write(\'\\n        \\n        <div class="\', escape=False)\nresponse.write(middle_columns)\nresponse.write(\'">\\n            \', escape=False)\nresponse.write(\'\\n\', escape=False)\nid_cliente = request.vars[\'c\']\nid_host = request.vars[\'f\']\nnome_funcao = request.vars[\'n\']\nnome_funcao1 = request.vars[\'n1\']\nfuncao = request.vars[\'p\']\nfuncao1 = request.vars[\'p1\']\nresponse.write(\'\\n\\n\\n<ul class="breadcrumb">\\n        <li><a href="\', escape=False)\nresponse.write(URL(\'initial\', funcao_ant1))\nresponse.write(\'">\', escape=False)\nresponse.write(nome_ant1)\nresponse.write(\'</a> <span class="divider">/</span></li>\\n        <li><a href="\', escape=False)\nresponse.write(URL(\'initial\', funcao_ant, vars=dict(f=id_cliente, n1=nome_ant1, p1=funcao_ant1)))\nresponse.write(\'">\', escape=False)\nresponse.write(nome_ant)\nresponse.write(\'</a> <span class="divider">/</span></li>\\n        <li>Detalhes</li>\\n      </ul>\\n\\n<div class="span5" >\\n<div class="well">\\n<h3><img src="\', escape=False)\nresponse.write(URL(\'static\', \'images\', args=(detalhes.distro.imagem)))\nresponse.write(\'">\\t\\n<span style="color: black;">\', escape=False)\nresponse.write(detalhes.distro.nome)\nresponse.write(\'</span></h3></br>\\n<p><b>Nome</b>:&nbsp;&nbsp;\', escape=False)\nresponse.write(detalhes.hosts.nome)\nresponse.write(\'</p>\\n<p><b>Servidor</b>:&nbsp;&nbsp;\', escape=False)\nresponse.write(detalhes.servidor.nome)\nresponse.write(\'</p>\\n<p><b>Cliente</b>:&nbsp;&nbsp;\', escape=False)\nresponse.write(detalhes.cliente.nome)\nresponse.write(\'</p>\\n</div>\\n</div>\\n\\n<div class="span5">\\n<div class="well">\\n<h3><span style="color: black;">Acesso</span></h3><br>\\n<p><b>IP de acesso</b>:&nbsp;&nbsp;\', escape=False)\nresponse.write(detalhes.hosts.ip_chegada)\nresponse.write(\'</p>\\n<p><b>Porta</b>:&nbsp;&nbsp;\', escape=False)\nresponse.write(detalhes.hosts.porta_ssh)\nresponse.write(\'</p>\\n<p><b>Gateway</b>:&nbsp;&nbsp;\', escape=False)\nresponse.write(detalhes.hosts.gateway)\nresponse.write(\'</p>\\n</div>\\n</div>\\n\\n<div class="span10"><br><br>\\n<div class="tabbable tabs-left">\\n<ul class="nav nav-tabs span2">\\n<li class="active"><a href="#tabs2-pane1" data-toggle="tab">Interface 1</a></li>\\n<li><a href="#tabs2-pane2" data-toggle="tab">Interface 2</a></li>\\n<li><a href="#tabs2-pane3" data-toggle="tab">Interface 3</a></li>\\n<li><a href="#tabs2-pane4" data-toggle="tab">Interface 4</a></li>\\n</ul>\\n\\n<div class="tab-content span5">\\n<div id="tabs2-pane1" class="tab-pane active">\\n<div class="well">\\n\\t\', escape=False)\nif detalhes.hosts.if1 != "" or None:\n    response.write(\'<h4><span style="color: black;">\', escape=False)\n    response.write(detalhes.hosts.if1)\n    response.write(\'</span></h4>\\n\\t<p><b>IP</b>:&nbsp;&nbsp;\', escape=False)\n    response.write(detalhes.hosts.ip1)\n    response.write(\'</p>\\n\\t<p><b>M\\xc3\\xa1scara</b>:&nbsp;&nbsp;\', escape=False)\n    response.write(detalhes.hosts.masc1)\n    response.write(\'</p>\\n\\t<p><b>Obs</b>:&nbsp;&nbsp;\', escape=False)\n    response.write(detalhes.hosts.obs1)\n    response.write(\'</p>\', escape=False)\nelse:\n    response.write(\'<p style="text-align: center;">Aninda n\\xc3\\xa3o existe uma interface de rede aqui!</p><br><br><br>\\n\\t<p style="text-align: center;"><a class="btn" href="\', escape=False)\n    response.write(URL(\'initial\', \'edit_host\',\n    vars=dict(f=filtro, c=id_cliente, n=nome_funcao, n1=nome_funcao1, p1=funcao1, p=funcao)))\n    response.write(\'">Adicione</a></p>\', escape=False)\n    pass\nresponse.write(\'\\n</div>\\n</div>\\n\\n<div id="tabs2-pane2" class="tab-pane">\\n<div class="well">\\n\\t\', escape=False)\nif detalhes.hosts.if2 != "" or None:\n    response.write(\'<h4><span style="color: black;">\', escape=False)\n    response.write(detalhes.hosts.if2)\n    response.write(\'</span></h4>\\n\\t<p><b>IP</b>:&nbsp;&nbsp;\', escape=False)\n    response.write(detalhes.hosts.ip2)\n    response.write(\'</p>\\n\\t<p><b>M\\xc3\\xa1scara</b>:&nbsp;&nbsp;\', escape=False)\n    response.write(detalhes.hosts.masc2)\n    response.write(\'</p>\\n\\t<p><b>Obs</b>:&nbsp;&nbsp;\', escape=False)\n    response.write(detalhes.hosts.obs2)\n    response.write(\'</p>\', escape=False)\nelse:\n    response.write(\'<p style="text-align: center;">Aninda n\\xc3\\xa3o existe uma interface de rede aqui!</p><br><br><br>\\n\\t<p style="text-align: center;"><a class="btn" href="\', escape=False)\n    response.write(URL(\'initial\', \'edit_host\',\n    vars=dict(f=filtro, c=id_cliente, n=nome_funcao, n1=nome_funcao1, p1=funcao1, p=funcao)))\n    response.write(\'">Adicione</a></p>\', escape=False)\n    pass\nresponse.write(\'\\n</div>\\n</div>\\n\\t\\t\\t\\t\\t\\t\\t    \\n<div id="tabs2-pane3" class="tab-pane">\\n<div class="well">\\n\\t\', escape=False)\nif detalhes.hosts.if3 != "" or None:\n    response.write(\'<h4><span style="color: black;">\', escape=False)\n    response.write(detalhes.hosts.if3)\n    response.write(\'</span></h4>\\n\\t<p><b>IP</b>:&nbsp;&nbsp;\', escape=False)\n    response.write(detalhes.hosts.ip3)\n    response.write(\'</p>\\n\\t<p><b>M\\xc3\\xa1scara</b>:&nbsp;&nbsp;\', escape=False)\n    response.write(detalhes.hosts.masc3)\n    response.write(\'</p>\\n\\t<p><b>Obs</b>:&nbsp;&nbsp;\', escape=False)\n    response.write(detalhes.hosts.obs3)\n    response.write(\'</p>\', escape=False)\nelse:\n    response.write(\'<p style="text-align: center;">Aninda n\\xc3\\xa3o existe uma interface de rede aqui!</p><br><br><br>\\n\\t<p style="text-align: center;"><a class="btn" href="\', escape=False)\n    response.write(URL(\'initial\', \'edit_host\',\n    vars=dict(f=filtro, c=id_cliente, n=nome_funcao, n1=nome_funcao1, p1=funcao1, p=funcao)))\n    response.write(\'">Adicione</a></p>\', escape=False)\n    pass\nresponse.write(\'\\n</div>\\t\\t\\t    \\n</div>\\n\\t\\t\\t\\t\\t\\t\\t    \\n<div id="tabs2-pane4" class="tab-pane">\\n<div class="well">\\n\\t\', escape=False)\nif detalhes.hosts.if4 != "" or None:\n    response.write(\'<h4><span style="color: black;">\', escape=False)\n    response.write(detalhes.hosts.if4)\n    response.write(\'</span></h4>\\n\\t<p><b>IP</b>:&nbsp;&nbsp;\', escape=False)\n    response.write(detalhes.hosts.ip4)\n    response.write(\'</p>\\n\\t<p><b>M\\xc3\\xa1scara</b>:&nbsp;&nbsp;\', escape=False)\n    response.write(detalhes.hosts.masc4)\n    response.write(\'</p>\\n\\t<p><b>Obs</b>:&nbsp;&nbsp;\', escape=False)\n    response.write(detalhes.hosts.obs4)\n    response.write(\'</p>\', escape=False)\nelse:\n    response.write(\'<p style="text-align: center;">Aninda n\\xc3\\xa3o existe uma interface de rede aqui!</p><br><br><br>\\n\\t<p style="text-align: center;"><a class="btn" href="\', escape=False)\n    response.write(URL(\'initial\', \'edit_host\',\n    vars=dict(f=filtro, c=id_cliente, n=nome_funcao, n1=nome_funcao1, p1=funcao1, p=funcao)))\n    response.write(\'">Adicione</a></p>\', escape=False)\n    pass\nresponse.write(\'\\n</div>\\n</div>\\n\\n</div><!-- /.tab-content -->\\n</div>\\n<div>\\n             \\n            \\n<div class="span10"><br><br>\\n<div class="tabbable"><!-- /.tabbable -->\\n<ul class="nav nav-tabs">\\n<li class="active"><a href="#pane1" data-toggle="tab">Servi\\xc3\\xa7os</a></li>\\n<li><a href="#pane2" data-toggle="tab">Observa\\xc3\\xa7\\xc3\\xb5es Gerais</a></li>\\n<li><a href="#pane3" data-toggle="tab">Rotas</a></li>\\n<li><a href="#pane4" data-toggle="tab">Arquivo</a></li>\\n</ul>\\n\\n<div class="tab-content"><!-- /.tab-content -->\\n<div id="pane1" class="tab-pane active">\\n<div class="well">\\n<p>\', escape=False)\nresponse.write(detalhes.hosts.servicos)\nresponse.write(\'</p>\\n</div>\\n</div>\\n\\n<div id="pane2" class="tab-pane">\\n<div class="well">\\n<p>\', escape=False)\nresponse.write(detalhes.hosts.obs_gerais)\nresponse.write(\'</p>\\n</div>\\n</div>\\n\\n<div id="pane3" class="tab-pane">\\n<div class="well">\\n<p>\', escape=False)\nresponse.write(detalhes.hosts.rotas)\nresponse.write(\'</p>\\n</div>\\n</div>\\n\\n<div id="pane4" class="tab-pane">\\n<div class="well">\\n<a href="\', escape=False)\nresponse.write(URL(a=\'projeto\', c=\'static\', f=\'arq\'))\nresponse.write(\'/\', escape=False)\nresponse.write(detalhes.hosts.upload)\nresponse.write(\'" target="_blank">Arquivo</a>\\n<p>\', escape=False)\nresponse.write(detalhes.hosts.upload)\nresponse.write(\'</p>\\n\', escape=False)\n/div>\n</div>\n</div><!-- /.tab-content -->\n</div><!-- /.tabbable -->\n</div>\nresponse.write(\'{{end}}\', escape=False)\nresponse.write(\'\\n        </div>\\n\\n        \', escape=False)\nif right_sidebar_enabled:\n    response.write(\'\\n        <div class="span3">\\n            \', escape=False)\n    response.write(\'\\n            <h3>Right Sidebar</h3>\\n            <p></p>\\n            \', escape=False)\n    response.write(\'\\n        </div>\\n        \', escape=False)\n    pass\nresponse.write(\'\\n    </section><!--/main-->\\n\\n    <!-- Footer ================================================== -->\\n    <div class="row">\\n        <footer class="footer span12" id="footer">\\n            <div class="footer-content">\\n                \', escape=False)\nresponse.write(\' <!-- this is default footer -->\\n                <div class="copyright pull-left">\', escape=False)\nresponse.write(T(\'Copyright\'))\nresponse.write(\' &#169; \', escape=False)\nresponse.write(request.now.year)\nresponse.write(\'</div>\\n                <div id="poweredBy" class="pull-right">\\n                    \', escape=False)\nresponse.write(T(\'Desenvolvido por\'))\nresponse.write(\'\\n                    <a href="http://www.aldeiadigital.com.br/">Aldeia Digital</a>\\n                </div>\\n                \', escape=False)\nresponse.write(\'\\n            </div>\\n        </footer>\\n    </div>\\n\\n  </div> <!-- /container -->\\n\\n  <!-- The javascript =============================================\\n       (Placed at the end of the document so the pages load faster) -->\\n  <script src="\', escape=False)\nresponse.write(URL(\'static\',\'js/bootstrap.min.js\'))\nresponse.write(\'"></script>\\n  <script src="\', escape=False)\nresponse.write(URL(\'static\',\'js/web2py_bootstrap.js\'))\nresponse.write(\'"></script>\\n  <!--[if lt IE 7 ]>\\n      <script src="\', escape=False)\nresponse.write(URL(\'static\',\'js/dd_belatedpng.js\'))\nresponse.write(\'"></script>\\n      <script> DD_belatedPNG.fix(\\\'img, .png_bg\\\'); //fix any <img> or .png_bg background-images </script>\\n      <![endif]-->\\n  \\n  \', escape=False)\nif response.google_analytics_id:\n    response.write(\'\\n  <script src="\', escape=False)\n    response.write(URL(\'static\',\'js/analytics.js\'))\n    response.write(\'"></script>\\n  <script type="text/javascript">\\n  analytics.initialize({\\n    \\\'Google Analytics\\\':{trackingId:\\\'\', escape=False)\n    response.write(response.google_analytics_id)\n    response.write("\'} \\n  });</script>\\n  ", escape=False)\n    pass\nresponse.write(\'\\n  <!--<script src="\', escape=False)\nresponse.write(URL(\'static\',\'js/share.js\',vars=dict(static=URL(\'static\',\'images\'))))\nresponse.write(\'"></script>-->\\n</body>\\n</html>\\n\', escape=False)'
p7
sS'snapshot'
p8
(dp9
S'exception'
p10
(dp11
S'__getslice__'
p12
S"<method-wrapper '__getslice__' of exceptions.SyntaxError object>"
p13
sS'text'
p14
S"'/div>\\n'"
p15
sS'__str__'
p16
S"<method-wrapper '__str__' of exceptions.SyntaxError object>"
p17
sS'__reduce__'
p18
S'<built-in method __reduce__ of exceptions.SyntaxError object>'
p19
sS'__dict__'
p20
S'{}'
p21
sS'__sizeof__'
p22
S'<built-in method __sizeof__ of exceptions.SyntaxError object>'
p23
sS'__init__'
p24
S"<method-wrapper '__init__' of exceptions.SyntaxError object>"
p25
sS'__setattr__'
p26
S"<method-wrapper '__setattr__' of exceptions.SyntaxError object>"
p27
sS'__reduce_ex__'
p28
S'<built-in method __reduce_ex__ of exceptions.SyntaxError object>'
p29
sS'__new__'
p30
S'<built-in method __new__ of type object>'
p31
sS'__format__'
p32
S'<built-in method __format__ of exceptions.SyntaxError object>'
p33
sS'__class__'
p34
S"<type 'exceptions.SyntaxError'>"
p35
sS'filename'
p36
S"'/var/www/hosts3/applications/projeto/views/initial/detalhes_host.html'"
p37
sS'lineno'
p38
S'193'
p39
sS'msg'
p40
S"'invalid syntax'"
p41
sS'__doc__'
p42
S"'Invalid syntax.'"
p43
sS'__getitem__'
p44
S"<method-wrapper '__getitem__' of exceptions.SyntaxError object>"
p45
sS'__setstate__'
p46
S'<built-in method __setstate__ of exceptions.SyntaxError object>'
p47
sS'__getattribute__'
p48
S"<method-wrapper '__getattribute__' of exceptions.SyntaxError object>"
p49
sS'print_file_and_line'
p50
S'None'
p51
sS'args'
p52
S"('invalid syntax', ('/var/www/hosts3/applications/projeto/views/initial/detalhes_host.html', 193, 1, '/div>\\n'))"
p53
sS'__subclasshook__'
p54
S'<built-in method __subclasshook__ of type object>'
p55
sS'offset'
p56
S'1'
sS'__unicode__'
p57
S'<built-in method __unicode__ of exceptions.SyntaxError object>'
p58
sS'__delattr__'
p59
S"<method-wrapper '__delattr__' of exceptions.SyntaxError object>"
p60
sS'__repr__'
p61
S"<method-wrapper '__repr__' of exceptions.SyntaxError object>"
p62
sS'__hash__'
p63
S"<method-wrapper '__hash__' of exceptions.SyntaxError object>"
p64
ssS'evalue'
p65
S'invalid syntax (detalhes_host.html, line 193)'
p66
sS'request'
p67
ccopy_reg
_reconstructor
p68
(cgluon.html
BEAUTIFY
p69
c__builtin__
object
p70
NtRp71
(dp72
S'attributes'
p73
(dp74
sS'components'
p75
(lp76
g68
(cgluon.html
TABLE
p77
g70
NtRp78
(dp79
g73
(dp80
S'level'
p81
I5
ssS'parent'
p82
Nsg75
(lp83
g68
(cgluon.html
TR
p84
g70
NtRp85
(dp86
g73
(dp87
sg82
g78
sg75
(lp88
g68
(cgluon.html
TD
p89
g70
NtRp90
(dp91
g73
(dp92
S'_style'
p93
S'font-weight:bold;vertical-align:top'
p94
ssg82
g85
sg75
(lp95
S'ajax'
p96
asbag68
(g89
g70
NtRp97
(dp98
g73
(dp99
S'_valign'
p100
S'top'
p101
ssg82
g85
sg75
(lp102
S':'
asbag68
(g89
g70
NtRp103
(dp104
g73
(dp105
sg82
g85
sg75
(lp106
g68
(g69
g70
NtRp107
(dp108
g73
(dp109
g81
I5
ssg82
g103
sg75
(lp110
S'False'
p111
asbasbasbag68
(g84
g70
NtRp112
(dp113
g73
(dp114
sg82
g78
sg75
(lp115
g68
(g89
g70
NtRp116
(dp117
g73
(dp118
g93
g94
ssg82
g112
sg75
(lp119
S'application'
p120
asbag68
(g89
g70
NtRp121
(dp122
g73
(dp123
g100
g101
ssg82
g112
sg75
(lp124
S':'
asbag68
(g89
g70
NtRp125
(dp126
g73
(dp127
sg82
g112
sg75
(lp128
g68
(g69
g70
NtRp129
(dp130
g73
(dp131
g81
I5
ssg82
g125
sg75
(lp132
S'projeto'
p133
asbasbasbag68
(g84
g70
NtRp134
(dp135
g73
(dp136
sg82
g78
sg75
(lp137
g68
(g89
g70
NtRp138
(dp139
g73
(dp140
g93
g94
ssg82
g134
sg75
(lp141
g52
asbag68
(g89
g70
NtRp142
(dp143
g73
(dp144
g100
g101
ssg82
g134
sg75
(lp145
S':'
asbag68
(g89
g70
NtRp146
(dp147
g73
(dp148
sg82
g134
sg75
(lp149
g68
(g69
g70
NtRp150
(dp151
g73
(dp152
g81
I5
ssg82
g146
sg75
(lp153
g68
(g77
g70
NtRp154
(dp155
g73
(dp156
g81
I4
ssg82
Nsg75
(lp157
sbasbasbasbag68
(g84
g70
NtRp158
(dp159
g73
(dp160
sg82
g78
sg75
(lp161
g68
(g89
g70
NtRp162
(dp163
g73
(dp164
g93
g94
ssg82
g158
sg75
(lp165
S'body'
p166
asbag68
(g89
g70
NtRp167
(dp168
g73
(dp169
g100
g101
ssg82
g158
sg75
(lp170
S':'
asbag68
(g89
g70
NtRp171
(dp172
g73
(dp173
sg82
g158
sg75
(lp174
g68
(g69
g70
NtRp175
(dp176
g73
(dp177
g81
I5
ssg82
g171
sg75
(lp178
S'<cStringIO.StringO object at 0x7f4e902817a0>'
p179
asbasbasbag68
(g84
g70
NtRp180
(dp181
g73
(dp182
sg82
g78
sg75
(lp183
g68
(g89
g70
NtRp184
(dp185
g73
(dp186
g93
g94
ssg82
g180
sg75
(lp187
S'cid'
p188
asbag68
(g89
g70
NtRp189
(dp190
g73
(dp191
g100
g101
ssg82
g180
sg75
(lp192
S':'
asbag68
(g89
g70
NtRp193
(dp194
g73
(dp195
sg82
g180
sg75
(lp196
g68
(g69
g70
NtRp197
(dp198
g73
(dp199
g81
I5
ssg82
g193
sg75
(lp200
S'None'
p201
asbasbasbag68
(g84
g70
NtRp202
(dp203
g73
(dp204
sg82
g78
sg75
(lp205
g68
(g89
g70
NtRp206
(dp207
g73
(dp208
g93
g94
ssg82
g202
sg75
(lp209
S'client'
p210
asbag68
(g89
g70
NtRp211
(dp212
g73
(dp213
g100
g101
ssg82
g202
sg75
(lp214
S':'
asbag68
(g89
g70
NtRp215
(dp216
g73
(dp217
sg82
g202
sg75
(lp218
g68
(g69
g70
NtRp219
(dp220
g73
(dp221
g81
I5
ssg82
g215
sg75
(lp222
S'127.0.0.1'
p223
asbasbasbag68
(g84
g70
NtRp224
(dp225
g73
(dp226
sg82
g78
sg75
(lp227
g68
(g89
g70
NtRp228
(dp229
g73
(dp230
g93
g94
ssg82
g224
sg75
(lp231
S'controller'
p232
asbag68
(g89
g70
NtRp233
(dp234
g73
(dp235
g100
g101
ssg82
g224
sg75
(lp236
S':'
asbag68
(g89
g70
NtRp237
(dp238
g73
(dp239
sg82
g224
sg75
(lp240
g68
(g69
g70
NtRp241
(dp242
g73
(dp243
g81
I5
ssg82
g237
sg75
(lp244
S'initial'
p245
asbasbasbag68
(g84
g70
NtRp246
(dp247
g73
(dp248
sg82
g78
sg75
(lp249
g68
(g89
g70
NtRp250
(dp251
g73
(dp252
g93
g94
ssg82
g246
sg75
(lp253
S'cookies'
p254
asbag68
(g89
g70
NtRp255
(dp256
g73
(dp257
g100
g101
ssg82
g246
sg75
(lp258
S':'
asbag68
(g89
g70
NtRp259
(dp260
g73
(dp261
sg82
g246
sg75
(lp262
g68
(g69
g70
NtRp263
(dp264
g73
(dp265
g81
I5
ssg82
g259
sg75
(lp266
g68
(g77
g70
NtRp267
(dp268
g73
(dp269
g81
I4
ssg82
Nsg75
(lp270
g68
(g84
g70
NtRp271
(dp272
g73
(dp273
sg82
g267
sg75
(lp274
g68
(g89
g70
NtRp275
(dp276
g73
(dp277
g93
g94
ssg82
g271
sg75
(lp278
S'session_id_admin'
p279
asbag68
(g89
g70
NtRp280
(dp281
g73
(dp282
g100
g101
ssg82
g271
sg75
(lp283
S':'
asbag68
(g89
g70
NtRp284
(dp285
g73
(dp286
sg82
g271
sg75
(lp287
g68
(g69
g70
NtRp288
(dp289
g73
(dp290
g81
I4
ssg82
g284
sg75
(lp291
S'127.0.0.1-9ac93a28-57cb-4a57-8f13-2d9258b0177a'
p292
ag68
(g77
g70
NtRp293
(dp294
g73
(dp295
g81
I3
ssg82
Nsg75
(lp296
g68
(g84
g70
NtRp297
(dp298
g73
(dp299
sg82
g293
sg75
(lp300
g68
(g89
g70
NtRp301
(dp302
g73
(dp303
g93
g94
ssg82
g297
sg75
(lp304
S'comment'
p305
asbag68
(g89
g70
NtRp306
(dp307
g73
(dp308
g100
g101
ssg82
g297
sg75
(lp309
S':'
asbag68
(g89
g70
NtRp310
(dp311
g73
(dp312
sg82
g297
sg75
(lp313
g68
(g69
g70
NtRp314
(dp315
g73
(dp316
g81
I3
ssg82
g310
sg75
(lp317
S''
asbasbasbag68
(g84
g70
NtRp318
(dp319
g73
(dp320
sg82
g293
sg75
(lp321
g68
(g89
g70
NtRp322
(dp323
g73
(dp324
g93
g94
ssg82
g318
sg75
(lp325
S'domain'
p326
asbag68
(g89
g70
NtRp327
(dp328
g73
(dp329
g100
g101
ssg82
g318
sg75
(lp330
S':'
asbag68
(g89
g70
NtRp331
(dp332
g73
(dp333
sg82
g318
sg75
(lp334
g68
(g69
g70
NtRp335
(dp336
g73
(dp337
g81
I3
ssg82
g331
sg75
(lp338
S''
asbasbasbag68
(g84
g70
NtRp339
(dp340
g73
(dp341
sg82
g293
sg75
(lp342
g68
(g89
g70
NtRp343
(dp344
g73
(dp345
g93
g94
ssg82
g339
sg75
(lp346
S'expires'
p347
asbag68
(g89
g70
NtRp348
(dp349
g73
(dp350
g100
g101
ssg82
g339
sg75
(lp351
S':'
asbag68
(g89
g70
NtRp352
(dp353
g73
(dp354
sg82
g339
sg75
(lp355
g68
(g69
g70
NtRp356
(dp357
g73
(dp358
g81
I3
ssg82
g352
sg75
(lp359
S''
asbasbasbag68
(g84
g70
NtRp360
(dp361
g73
(dp362
sg82
g293
sg75
(lp363
g68
(g89
g70
NtRp364
(dp365
g73
(dp366
g93
g94
ssg82
g360
sg75
(lp367
S'httponly'
p368
asbag68
(g89
g70
NtRp369
(dp370
g73
(dp371
g100
g101
ssg82
g360
sg75
(lp372
S':'
asbag68
(g89
g70
NtRp373
(dp374
g73
(dp375
sg82
g360
sg75
(lp376
g68
(g69
g70
NtRp377
(dp378
g73
(dp379
g81
I3
ssg82
g373
sg75
(lp380
S''
asbasbasbag68
(g84
g70
NtRp381
(dp382
g73
(dp383
sg82
g293
sg75
(lp384
g68
(g89
g70
NtRp385
(dp386
g73
(dp387
g93
g94
ssg82
g381
sg75
(lp388
S'max-age'
p389
asbag68
(g89
g70
NtRp390
(dp391
g73
(dp392
g100
g101
ssg82
g381
sg75
(lp393
S':'
asbag68
(g89
g70
NtRp394
(dp395
g73
(dp396
sg82
g381
sg75
(lp397
g68
(g69
g70
NtRp398
(dp399
g73
(dp400
g81
I3
ssg82
g394
sg75
(lp401
S''
asbasbasbag68
(g84
g70
NtRp402
(dp403
g73
(dp404
sg82
g293
sg75
(lp405
g68
(g89
g70
NtRp406
(dp407
g73
(dp408
g93
g94
ssg82
g402
sg75
(lp409
S'path'
p410
asbag68
(g89
g70
NtRp411
(dp412
g73
(dp413
g100
g101
ssg82
g402
sg75
(lp414
S':'
asbag68
(g89
g70
NtRp415
(dp416
g73
(dp417
sg82
g402
sg75
(lp418
g68
(g69
g70
NtRp419
(dp420
g73
(dp421
g81
I3
ssg82
g415
sg75
(lp422
S''
asbasbasbag68
(g84
g70
NtRp423
(dp424
g73
(dp425
sg82
g293
sg75
(lp426
g68
(g89
g70
NtRp427
(dp428
g73
(dp429
g93
g94
ssg82
g423
sg75
(lp430
S'secure'
p431
asbag68
(g89
g70
NtRp432
(dp433
g73
(dp434
g100
g101
ssg82
g423
sg75
(lp435
S':'
asbag68
(g89
g70
NtRp436
(dp437
g73
(dp438
sg82
g423
sg75
(lp439
g68
(g69
g70
NtRp440
(dp441
g73
(dp442
g81
I3
ssg82
g436
sg75
(lp443
S''
asbasbasbag68
(g84
g70
NtRp444
(dp445
g73
(dp446
sg82
g293
sg75
(lp447
g68
(g89
g70
NtRp448
(dp449
g73
(dp450
g93
g94
ssg82
g444
sg75
(lp451
S'version'
p452
asbag68
(g89
g70
NtRp453
(dp454
g73
(dp455
g100
g101
ssg82
g444
sg75
(lp456
S':'
asbag68
(g89
g70
NtRp457
(dp458
g73
(dp459
sg82
g444
sg75
(lp460
g68
(g69
g70
NtRp461
(dp462
g73
(dp463
g81
I3
ssg82
g457
sg75
(lp464
S''
asbasbasbasbasbasbasbag68
(g84
g70
NtRp465
(dp466
g73
(dp467
sg82
g267
sg75
(lp468
g68
(g89
g70
NtRp469
(dp470
g73
(dp471
g93
g94
ssg82
g465
sg75
(lp472
S'session_id_projeto'
p473
asbag68
(g89
g70
NtRp474
(dp475
g73
(dp476
g100
g101
ssg82
g465
sg75
(lp477
S':'
asbag68
(g89
g70
NtRp478
(dp479
g73
(dp480
sg82
g465
sg75
(lp481
g68
(g69
g70
NtRp482
(dp483
g73
(dp484
g81
I4
ssg82
g478
sg75
(lp485
S'127.0.0.1-b62d7e8b-74ab-4f83-89b2-ac56f3d74e01'
p486
ag68
(g77
g70
NtRp487
(dp488
g73
(dp489
g81
I3
ssg82
Nsg75
(lp490
g68
(g84
g70
NtRp491
(dp492
g73
(dp493
sg82
g487
sg75
(lp494
g68
(g89
g70
NtRp495
(dp496
g73
(dp497
g93
g94
ssg82
g491
sg75
(lp498
g305
asbag68
(g89
g70
NtRp499
(dp500
g73
(dp501
g100
g101
ssg82
g491
sg75
(lp502
S':'
asbag68
(g89
g70
NtRp503
(dp504
g73
(dp505
sg82
g491
sg75
(lp506
g68
(g69
g70
NtRp507
(dp508
g73
(dp509
g81
I3
ssg82
g503
sg75
(lp510
S''
asbasbasbag68
(g84
g70
NtRp511
(dp512
g73
(dp513
sg82
g487
sg75
(lp514
g68
(g89
g70
NtRp515
(dp516
g73
(dp517
g93
g94
ssg82
g511
sg75
(lp518
g326
asbag68
(g89
g70
NtRp519
(dp520
g73
(dp521
g100
g101
ssg82
g511
sg75
(lp522
S':'
asbag68
(g89
g70
NtRp523
(dp524
g73
(dp525
sg82
g511
sg75
(lp526
g68
(g69
g70
NtRp527
(dp528
g73
(dp529
g81
I3
ssg82
g523
sg75
(lp530
S''
asbasbasbag68
(g84
g70
NtRp531
(dp532
g73
(dp533
sg82
g487
sg75
(lp534
g68
(g89
g70
NtRp535
(dp536
g73
(dp537
g93
g94
ssg82
g531
sg75
(lp538
g347
asbag68
(g89
g70
NtRp539
(dp540
g73
(dp541
g100
g101
ssg82
g531
sg75
(lp542
S':'
asbag68
(g89
g70
NtRp543
(dp544
g73
(dp545
sg82
g531
sg75
(lp546
g68
(g69
g70
NtRp547
(dp548
g73
(dp549
g81
I3
ssg82
g543
sg75
(lp550
S''
asbasbasbag68
(g84
g70
NtRp551
(dp552
g73
(dp553
sg82
g487
sg75
(lp554
g68
(g89
g70
NtRp555
(dp556
g73
(dp557
g93
g94
ssg82
g551
sg75
(lp558
g368
asbag68
(g89
g70
NtRp559
(dp560
g73
(dp561
g100
g101
ssg82
g551
sg75
(lp562
S':'
asbag68
(g89
g70
NtRp563
(dp564
g73
(dp565
sg82
g551
sg75
(lp566
g68
(g69
g70
NtRp567
(dp568
g73
(dp569
g81
I3
ssg82
g563
sg75
(lp570
S''
asbasbasbag68
(g84
g70
NtRp571
(dp572
g73
(dp573
sg82
g487
sg75
(lp574
g68
(g89
g70
NtRp575
(dp576
g73
(dp577
g93
g94
ssg82
g571
sg75
(lp578
g389
asbag68
(g89
g70
NtRp579
(dp580
g73
(dp581
g100
g101
ssg82
g571
sg75
(lp582
S':'
asbag68
(g89
g70
NtRp583
(dp584
g73
(dp585
sg82
g571
sg75
(lp586
g68
(g69
g70
NtRp587
(dp588
g73
(dp589
g81
I3
ssg82
g583
sg75
(lp590
S''
asbasbasbag68
(g84
g70
NtRp591
(dp592
g73
(dp593
sg82
g487
sg75
(lp594
g68
(g89
g70
NtRp595
(dp596
g73
(dp597
g93
g94
ssg82
g591
sg75
(lp598
g410
asbag68
(g89
g70
NtRp599
(dp600
g73
(dp601
g100
g101
ssg82
g591
sg75
(lp602
S':'
asbag68
(g89
g70
NtRp603
(dp604
g73
(dp605
sg82
g591
sg75
(lp606
g68
(g69
g70
NtRp607
(dp608
g73
(dp609
g81
I3
ssg82
g603
sg75
(lp610
S''
asbasbasbag68
(g84
g70
NtRp611
(dp612
g73
(dp613
sg82
g487
sg75
(lp614
g68
(g89
g70
NtRp615
(dp616
g73
(dp617
g93
g94
ssg82
g611
sg75
(lp618
g431
asbag68
(g89
g70
NtRp619
(dp620
g73
(dp621
g100
g101
ssg82
g611
sg75
(lp622
S':'
asbag68
(g89
g70
NtRp623
(dp624
g73
(dp625
sg82
g611
sg75
(lp626
g68
(g69
g70
NtRp627
(dp628
g73
(dp629
g81
I3
ssg82
g623
sg75
(lp630
S''
asbasbasbag68
(g84
g70
NtRp631
(dp632
g73
(dp633
sg82
g487
sg75
(lp634
g68
(g89
g70
NtRp635
(dp636
g73
(dp637
g93
g94
ssg82
g631
sg75
(lp638
g452
asbag68
(g89
g70
NtRp639
(dp640
g73
(dp641
g100
g101
ssg82
g631
sg75
(lp642
S':'
asbag68
(g89
g70
NtRp643
(dp644
g73
(dp645
sg82
g631
sg75
(lp646
g68
(g69
g70
NtRp647
(dp648
g73
(dp649
g81
I3
ssg82
g643
sg75
(lp650
S''
asbasbasbasbasbasbasbasbasbasbasbag68
(g84
g70
NtRp651
(dp652
g73
(dp653
sg82
g78
sg75
(lp654
g68
(g89
g70
NtRp655
(dp656
g73
(dp657
g93
g94
ssg82
g651
sg75
(lp658
S'env'
p659
asbag68
(g89
g70
NtRp660
(dp661
g73
(dp662
g100
g101
ssg82
g651
sg75
(lp663
S':'
asbag68
(g89
g70
NtRp664
(dp665
g73
(dp666
sg82
g651
sg75
(lp667
g68
(g69
g70
NtRp668
(dp669
g73
(dp670
g81
I5
ssg82
g664
sg75
(lp671
g68
(g77
g70
NtRp672
(dp673
g73
(dp674
g81
I4
ssg82
Nsg75
(lp675
g68
(g84
g70
NtRp676
(dp677
g73
(dp678
sg82
g672
sg75
(lp679
g68
(g89
g70
NtRp680
(dp681
g73
(dp682
g93
g94
ssg82
g676
sg75
(lp683
S'app_folders'
p684
asbag68
(g89
g70
NtRp685
(dp686
g73
(dp687
g100
g101
ssg82
g676
sg75
(lp688
S':'
asbag68
(g89
g70
NtRp689
(dp690
g73
(dp691
sg82
g676
sg75
(lp692
g68
(g69
g70
NtRp693
(dp694
g73
(dp695
g81
I4
ssg82
g689
sg75
(lp696
S"set(['/var/www/hosts3/applications/admin/', '/var/www/hosts3/applications/projeto/'])"
p697
asbasbasbag68
(g84
g70
NtRp698
(dp699
g73
(dp700
sg82
g672
sg75
(lp701
g68
(g89
g70
NtRp702
(dp703
g73
(dp704
g93
g94
ssg82
g698
sg75
(lp705
S'applications_parent'
p706
asbag68
(g89
g70
NtRp707
(dp708
g73
(dp709
g100
g101
ssg82
g698
sg75
(lp710
S':'
asbag68
(g89
g70
NtRp711
(dp712
g73
(dp713
sg82
g698
sg75
(lp714
g68
(g69
g70
NtRp715
(dp716
g73
(dp717
g81
I4
ssg82
g711
sg75
(lp718
S'/var/www/hosts3'
p719
asbasbasbag68
(g84
g70
NtRp720
(dp721
g73
(dp722
sg82
g672
sg75
(lp723
g68
(g89
g70
NtRp724
(dp725
g73
(dp726
g93
g94
ssg82
g720
sg75
(lp727
S'cmd_args'
p728
asbag68
(g89
g70
NtRp729
(dp730
g73
(dp731
g100
g101
ssg82
g720
sg75
(lp732
S':'
asbag68
(g89
g70
NtRp733
(dp734
g73
(dp735
sg82
g720
sg75
(lp736
g68
(g69
g70
NtRp737
(dp738
g73
(dp739
g81
I4
ssg82
g733
sg75
(lp740
g68
(g77
g70
NtRp741
(dp742
g73
(dp743
g81
I3
ssg82
Nsg75
(lp744
sbasbasbasbag68
(g84
g70
NtRp745
(dp746
g73
(dp747
sg82
g672
sg75
(lp748
g68
(g89
g70
NtRp749
(dp750
g73
(dp751
g93
g94
ssg82
g745
sg75
(lp752
S'cmd_options'
p753
asbag68
(g89
g70
NtRp754
(dp755
g73
(dp756
g100
g101
ssg82
g745
sg75
(lp757
S':'
asbag68
(g89
g70
NtRp758
(dp759
g73
(dp760
sg82
g745
sg75
(lp761
g68
(g69
g70
NtRp762
(dp763
g73
(dp764
g81
I4
ssg82
g758
sg75
(lp765
S"<Values at 0x1965170: {'verbose': False, 'ip': '127.0.0.1', 'with_scheduler': False, 'ips': [], 'shutdown_timeout': 5, 'taskbar': False, 'port': 8000, 'maxthreads': None, 'softcron': False, 'server_name': 'fernando-workstation', 'bpython': False, 'nogui': False, 'pid_filename': 'httpserver.pid', 'extcron': False, 'runcron': False, 'run_system_tests': False, 'test': None, 'folder': '/var/www/hosts3', 'config': '', 'minthreads': None, 'winservice': '', 'shell': None, 'run': '', 'log_filename': 'httpserver.log', 'debuglevel': 30, 'args': [''], 'socket_timeout': 5, 'ssl_ca_certificate': None, 'scheduler': None, 'profiler_filename': None, 'ssl_private_key': '', 'scheduler_groups': None, 'password': '123456', 'request_queue_size': 5, 'ssl_certificate': '', 'cronjob': False, 'numthreads': None, 'quiet': False, 'interfaces': None, 'import_models': False, 'timeout': 10, 'plain': False, 'nobanner': False}>"
p766
asbasbasbag68
(g84
g70
NtRp767
(dp768
g73
(dp769
sg82
g672
sg75
(lp770
g68
(g89
g70
NtRp771
(dp772
g73
(dp773
g93
g94
ssg82
g767
sg75
(lp774
S'db_sessions'
p775
asbag68
(g89
g70
NtRp776
(dp777
g73
(dp778
g100
g101
ssg82
g767
sg75
(lp779
S':'
asbag68
(g89
g70
NtRp780
(dp781
g73
(dp782
sg82
g767
sg75
(lp783
g68
(g69
g70
NtRp784
(dp785
g73
(dp786
g81
I4
ssg82
g780
sg75
(lp787
S'set([])'
p788
asbasbasbag68
(g84
g70
NtRp789
(dp790
g73
(dp791
sg82
g672
sg75
(lp792
g68
(g89
g70
NtRp793
(dp794
g73
(dp795
g93
g94
ssg82
g789
sg75
(lp796
S'debugging'
p797
asbag68
(g89
g70
NtRp798
(dp799
g73
(dp800
g100
g101
ssg82
g789
sg75
(lp801
S':'
asbag68
(g89
g70
NtRp802
(dp803
g73
(dp804
sg82
g789
sg75
(lp805
g68
(g69
g70
NtRp806
(dp807
g73
(dp808
g81
I4
ssg82
g802
sg75
(lp809
g111
asbasbasbag68
(g84
g70
NtRp810
(dp811
g73
(dp812
sg82
g672
sg75
(lp813
g68
(g89
g70
NtRp814
(dp815
g73
(dp816
g93
g94
ssg82
g810
sg75
(lp817
S'gluon_parent'
p818
asbag68
(g89
g70
NtRp819
(dp820
g73
(dp821
g100
g101
ssg82
g810
sg75
(lp822
S':'
asbag68
(g89
g70
NtRp823
(dp824
g73
(dp825
sg82
g810
sg75
(lp826
g68
(g69
g70
NtRp827
(dp828
g73
(dp829
g81
I4
ssg82
g823
sg75
(lp830
S'/var/www/hosts3'
p831
asbasbasbag68
(g84
g70
NtRp832
(dp833
g73
(dp834
sg82
g672
sg75
(lp835
g68
(g89
g70
NtRp836
(dp837
g73
(dp838
g93
g94
ssg82
g832
sg75
(lp839
S'http_accept'
p840
asbag68
(g89
g70
NtRp841
(dp842
g73
(dp843
g100
g101
ssg82
g832
sg75
(lp844
S':'
asbag68
(g89
g70
NtRp845
(dp846
g73
(dp847
sg82
g832
sg75
(lp848
g68
(g69
g70
NtRp849
(dp850
g73
(dp851
g81
I4
ssg82
g845
sg75
(lp852
S'text/html,application/xhtml+xml,application/xml;q=0.9,image/webp,*/*;q=0.8'
p853
asbasbasbag68
(g84
g70
NtRp854
(dp855
g73
(dp856
sg82
g672
sg75
(lp857
g68
(g89
g70
NtRp858
(dp859
g73
(dp860
g93
g94
ssg82
g854
sg75
(lp861
S'http_accept_encoding'
p862
asbag68
(g89
g70
NtRp863
(dp864
g73
(dp865
g100
g101
ssg82
g854
sg75
(lp866
S':'
asbag68
(g89
g70
NtRp867
(dp868
g73
(dp869
sg82
g854
sg75
(lp870
g68
(g69
g70
NtRp871
(dp872
g73
(dp873
g81
I4
ssg82
g867
sg75
(lp874
S'gzip,deflate,sdch'
p875
asbasbasbag68
(g84
g70
NtRp876
(dp877
g73
(dp878
sg82
g672
sg75
(lp879
g68
(g89
g70
NtRp880
(dp881
g73
(dp882
g93
g94
ssg82
g876
sg75
(lp883
S'http_accept_language'
p884
asbag68
(g89
g70
NtRp885
(dp886
g73
(dp887
g100
g101
ssg82
g876
sg75
(lp888
S':'
asbag68
(g89
g70
NtRp889
(dp890
g73
(dp891
sg82
g876
sg75
(lp892
g68
(g69
g70
NtRp893
(dp894
g73
(dp895
g81
I4
ssg82
g889
sg75
(lp896
S'pt-BR,pt;q=0.8,en-US;q=0.6,en;q=0.4'
p897
asbasbasbag68
(g84
g70
NtRp898
(dp899
g73
(dp900
sg82
g672
sg75
(lp901
g68
(g89
g70
NtRp902
(dp903
g73
(dp904
g93
g94
ssg82
g898
sg75
(lp905
S'http_cache_control'
p906
asbag68
(g89
g70
NtRp907
(dp908
g73
(dp909
g100
g101
ssg82
g898
sg75
(lp910
S':'
asbag68
(g89
g70
NtRp911
(dp912
g73
(dp913
sg82
g898
sg75
(lp914
g68
(g69
g70
NtRp915
(dp916
g73
(dp917
g81
I4
ssg82
g911
sg75
(lp918
S'max-age=0'
p919
asbasbasbag68
(g84
g70
NtRp920
(dp921
g73
(dp922
sg82
g672
sg75
(lp923
g68
(g89
g70
NtRp924
(dp925
g73
(dp926
g93
g94
ssg82
g920
sg75
(lp927
S'http_connection'
p928
asbag68
(g89
g70
NtRp929
(dp930
g73
(dp931
g100
g101
ssg82
g920
sg75
(lp932
S':'
asbag68
(g89
g70
NtRp933
(dp934
g73
(dp935
sg82
g920
sg75
(lp936
g68
(g69
g70
NtRp937
(dp938
g73
(dp939
g81
I4
ssg82
g933
sg75
(lp940
S'keep-alive'
p941
asbasbasbag68
(g84
g70
NtRp942
(dp943
g73
(dp944
sg82
g672
sg75
(lp945
g68
(g89
g70
NtRp946
(dp947
g73
(dp948
g93
g94
ssg82
g942
sg75
(lp949
S'http_cookie'
p950
asbag68
(g89
g70
NtRp951
(dp952
g73
(dp953
g100
g101
ssg82
g942
sg75
(lp954
S':'
asbag68
(g89
g70
NtRp955
(dp956
g73
(dp957
sg82
g942
sg75
(lp958
g68
(g69
g70
NtRp959
(dp960
g73
(dp961
g81
I4
ssg82
g955
sg75
(lp962
S'session_id_projeto=127.0.0.1-b62d7e8b-74ab-4f83-89b2-ac56f3d74e01; session_id_admin=127.0.0.1-9ac93a28-57cb-4a57-8f13-2d9258b0177a'
p963
asbasbasbag68
(g84
g70
NtRp964
(dp965
g73
(dp966
sg82
g672
sg75
(lp967
g68
(g89
g70
NtRp968
(dp969
g73
(dp970
g93
g94
ssg82
g964
sg75
(lp971
S'http_host'
p972
asbag68
(g89
g70
NtRp973
(dp974
g73
(dp975
g100
g101
ssg82
g964
sg75
(lp976
S':'
asbag68
(g89
g70
NtRp977
(dp978
g73
(dp979
sg82
g964
sg75
(lp980
g68
(g69
g70
NtRp981
(dp982
g73
(dp983
g81
I4
ssg82
g977
sg75
(lp984
S'127.0.0.1:8000'
p985
asbasbasbag68
(g84
g70
NtRp986
(dp987
g73
(dp988
sg82
g672
sg75
(lp989
g68
(g89
g70
NtRp990
(dp991
g73
(dp992
g93
g94
ssg82
g986
sg75
(lp993
S'http_user_agent'
p994
asbag68
(g89
g70
NtRp995
(dp996
g73
(dp997
g100
g101
ssg82
g986
sg75
(lp998
S':'
asbag68
(g89
g70
NtRp999
(dp1000
g73
(dp1001
sg82
g986
sg75
(lp1002
g68
(g69
g70
NtRp1003
(dp1004
g73
(dp1005
g81
I4
ssg82
g999
sg75
(lp1006
S'Mozilla/5.0 (X11; Linux x86_64) AppleWebKit/537.36 (KHTML, like Gecko) Chrome/30.0.1599.114 Safari/537.36'
p1007
asbasbasbag68
(g84
g70
NtRp1008
(dp1009
g73
(dp1010
sg82
g672
sg75
(lp1011
g68
(g89
g70
NtRp1012
(dp1013
g73
(dp1014
g93
g94
ssg82
g1008
sg75
(lp1015
S'is_jython'
p1016
asbag68
(g89
g70
NtRp1017
(dp1018
g73
(dp1019
g100
g101
ssg82
g1008
sg75
(lp1020
S':'
asbag68
(g89
g70
NtRp1021
(dp1022
g73
(dp1023
sg82
g1008
sg75
(lp1024
g68
(g69
g70
NtRp1025
(dp1026
g73
(dp1027
g81
I4
ssg82
g1021
sg75
(lp1028
g111
asbasbasbag68
(g84
g70
NtRp1029
(dp1030
g73
(dp1031
sg82
g672
sg75
(lp1032
g68
(g89
g70
NtRp1033
(dp1034
g73
(dp1035
g93
g94
ssg82
g1029
sg75
(lp1036
S'is_pypy'
p1037
asbag68
(g89
g70
NtRp1038
(dp1039
g73
(dp1040
g100
g101
ssg82
g1029
sg75
(lp1041
S':'
asbag68
(g89
g70
NtRp1042
(dp1043
g73
(dp1044
sg82
g1029
sg75
(lp1045
g68
(g69
g70
NtRp1046
(dp1047
g73
(dp1048
g81
I4
ssg82
g1042
sg75
(lp1049
g111
asbasbasbag68
(g84
g70
NtRp1050
(dp1051
g73
(dp1052
sg82
g672
sg75
(lp1053
g68
(g89
g70
NtRp1054
(dp1055
g73
(dp1056
g93
g94
ssg82
g1050
sg75
(lp1057
S'local_hosts'
p1058
asbag68
(g89
g70
NtRp1059
(dp1060
g73
(dp1061
g100
g101
ssg82
g1050
sg75
(lp1062
S':'
asbag68
(g89
g70
NtRp1063
(dp1064
g73
(dp1065
sg82
g1050
sg75
(lp1066
g68
(g69
g70
NtRp1067
(dp1068
g73
(dp1069
g81
I4
ssg82
g1063
sg75
(lp1070
g68
(g77
g70
NtRp1071
(dp1072
g73
(dp1073
g81
I3
ssg82
Nsg75
(lp1074
g68
(g84
g70
NtRp1075
(dp1076
g73
(dp1077
sg82
g1071
sg75
(lp1078
g68
(g89
g70
NtRp1079
(dp1080
g73
(dp1081
sg82
g1075
sg75
(lp1082
g68
(g69
g70
NtRp1083
(dp1084
g73
(dp1085
g81
I3
ssg82
g1079
sg75
(lp1086
S'::1'
p1087
asbasbasbag68
(g84
g70
NtRp1088
(dp1089
g73
(dp1090
sg82
g1071
sg75
(lp1091
g68
(g89
g70
NtRp1092
(dp1093
g73
(dp1094
sg82
g1088
sg75
(lp1095
g68
(g69
g70
NtRp1096
(dp1097
g73
(dp1098
g81
I3
ssg82
g1092
sg75
(lp1099
S'::ffff:127.0.0.1'
p1100
asbasbasbag68
(g84
g70
NtRp1101
(dp1102
g73
(dp1103
sg82
g1071
sg75
(lp1104
g68
(g89
g70
NtRp1105
(dp1106
g73
(dp1107
sg82
g1101
sg75
(lp1108
g68
(g69
g70
NtRp1109
(dp1110
g73
(dp1111
g81
I3
ssg82
g1105
sg75
(lp1112
S'127.0.0.1'
p1113
asbasbasbag68
(g84
g70
NtRp1114
(dp1115
g73
(dp1116
sg82
g1071
sg75
(lp1117
g68
(g89
g70
NtRp1118
(dp1119
g73
(dp1120
sg82
g1114
sg75
(lp1121
g68
(g69
g70
NtRp1122
(dp1123
g73
(dp1124
g81
I3
ssg82
g1118
sg75
(lp1125
S'fernando-workstation'
p1126
asbasbasbasbasbasbasbag68
(g84
g70
NtRp1127
(dp1128
g73
(dp1129
sg82
g672
sg75
(lp1130
g68
(g89
g70
NtRp1131
(dp1132
g73
(dp1133
g93
g94
ssg82
g1127
sg75
(lp1134
S'path_info'
p1135
asbag68
(g89
g70
NtRp1136
(dp1137
g73
(dp1138
g100
g101
ssg82
g1127
sg75
(lp1139
S':'
asbag68
(g89
g70
NtRp1140
(dp1141
g73
(dp1142
sg82
g1127
sg75
(lp1143
g68
(g69
g70
NtRp1144
(dp1145
g73
(dp1146
g81
I4
ssg82
g1140
sg75
(lp1147
S'/detalhes_nav'
p1148
asbasbasbag68
(g84
g70
NtRp1149
(dp1150
g73
(dp1151
sg82
g672
sg75
(lp1152
g68
(g89
g70
NtRp1153
(dp1154
g73
(dp1155
g93
g94
ssg82
g1149
sg75
(lp1156
S'query_string'
p1157
asbag68
(g89
g70
NtRp1158
(dp1159
g73
(dp1160
g100
g101
ssg82
g1149
sg75
(lp1161
S':'
asbag68
(g89
g70
NtRp1162
(dp1163
g73
(dp1164
sg82
g1149
sg75
(lp1165
g68
(g69
g70
NtRp1166
(dp1167
g73
(dp1168
g81
I4
ssg82
g1162
sg75
(lp1169
S'c=10&f=7&n=VOIP&n1=Servidores&p=servidor_host&p1=show_servidor'
p1170
asbasbasbag68
(g84
g70
NtRp1171
(dp1172
g73
(dp1173
sg82
g672
sg75
(lp1174
g68
(g89
g70
NtRp1175
(dp1176
g73
(dp1177
g93
g94
ssg82
g1171
sg75
(lp1178
S'remote_addr'
p1179
asbag68
(g89
g70
NtRp1180
(dp1181
g73
(dp1182
g100
g101
ssg82
g1171
sg75
(lp1183
S':'
asbag68
(g89
g70
NtRp1184
(dp1185
g73
(dp1186
sg82
g1171
sg75
(lp1187
g68
(g69
g70
NtRp1188
(dp1189
g73
(dp1190
g81
I4
ssg82
g1184
sg75
(lp1191
g223
asbasbasbag68
(g84
g70
NtRp1192
(dp1193
g73
(dp1194
sg82
g672
sg75
(lp1195
g68
(g89
g70
NtRp1196
(dp1197
g73
(dp1198
g93
g94
ssg82
g1192
sg75
(lp1199
S'remote_port'
p1200
asbag68
(g89
g70
NtRp1201
(dp1202
g73
(dp1203
g100
g101
ssg82
g1192
sg75
(lp1204
S':'
asbag68
(g89
g70
NtRp1205
(dp1206
g73
(dp1207
sg82
g1192
sg75
(lp1208
g68
(g69
g70
NtRp1209
(dp1210
g73
(dp1211
g81
I4
ssg82
g1205
sg75
(lp1212
S'50162'
p1213
asbasbasbag68
(g84
g70
NtRp1214
(dp1215
g73
(dp1216
sg82
g672
sg75
(lp1217
g68
(g89
g70
NtRp1218
(dp1219
g73
(dp1220
g93
g94
ssg82
g1214
sg75
(lp1221
S'request_method'
p1222
asbag68
(g89
g70
NtRp1223
(dp1224
g73
(dp1225
g100
g101
ssg82
g1214
sg75
(lp1226
S':'
asbag68
(g89
g70
NtRp1227
(dp1228
g73
(dp1229
sg82
g1214
sg75
(lp1230
g68
(g69
g70
NtRp1231
(dp1232
g73
(dp1233
g81
I4
ssg82
g1227
sg75
(lp1234
S'GET'
p1235
asbasbasbag68
(g84
g70
NtRp1236
(dp1237
g73
(dp1238
sg82
g672
sg75
(lp1239
g68
(g89
g70
NtRp1240
(dp1241
g73
(dp1242
g93
g94
ssg82
g1236
sg75
(lp1243
S'request_uri'
p1244
asbag68
(g89
g70
NtRp1245
(dp1246
g73
(dp1247
g100
g101
ssg82
g1236
sg75
(lp1248
S':'
asbag68
(g89
g70
NtRp1249
(dp1250
g73
(dp1251
sg82
g1236
sg75
(lp1252
g68
(g69
g70
NtRp1253
(dp1254
g73
(dp1255
g81
I4
ssg82
g1249
sg75
(lp1256
S'/projeto/initial/detalhes_nav?c=10&f=7&n=VOIP&n1=Servidores&p=servidor_host&p1=show_servidor'
p1257
asbasbasbag68
(g84
g70
NtRp1258
(dp1259
g73
(dp1260
sg82
g672
sg75
(lp1261
g68
(g89
g70
NtRp1262
(dp1263
g73
(dp1264
g93
g94
ssg82
g1258
sg75
(lp1265
S'script_name'
p1266
asbag68
(g89
g70
NtRp1267
(dp1268
g73
(dp1269
g100
g101
ssg82
g1258
sg75
(lp1270
S':'
asbag68
(g89
g70
NtRp1271
(dp1272
g73
(dp1273
sg82
g1258
sg75
(lp1274
g68
(g69
g70
NtRp1275
(dp1276
g73
(dp1277
g81
I4
ssg82
g1271
sg75
(lp1278
S''
asbasbasbag68
(g84
g70
NtRp1279
(dp1280
g73
(dp1281
sg82
g672
sg75
(lp1282
g68
(g89
g70
NtRp1283
(dp1284
g73
(dp1285
g93
g94
ssg82
g1279
sg75
(lp1286
S'server_name'
p1287
asbag68
(g89
g70
NtRp1288
(dp1289
g73
(dp1290
g100
g101
ssg82
g1279
sg75
(lp1291
S':'
asbag68
(g89
g70
NtRp1292
(dp1293
g73
(dp1294
sg82
g1279
sg75
(lp1295
g68
(g69
g70
NtRp1296
(dp1297
g73
(dp1298
g81
I4
ssg82
g1292
sg75
(lp1299
S'fernando-workstation'
p1300
asbasbasbag68
(g84
g70
NtRp1301
(dp1302
g73
(dp1303
sg82
g672
sg75
(lp1304
g68
(g89
g70
NtRp1305
(dp1306
g73
(dp1307
g93
g94
ssg82
g1301
sg75
(lp1308
S'server_port'
p1309
asbag68
(g89
g70
NtRp1310
(dp1311
g73
(dp1312
g100
g101
ssg82
g1301
sg75
(lp1313
S':'
asbag68
(g89
g70
NtRp1314
(dp1315
g73
(dp1316
sg82
g1301
sg75
(lp1317
g68
(g69
g70
NtRp1318
(dp1319
g73
(dp1320
g81
I4
ssg82
g1314
sg75
(lp1321
S'8000'
p1322
asbasbasbag68
(g84
g70
NtRp1323
(dp1324
g73
(dp1325
sg82
g672
sg75
(lp1326
g68
(g89
g70
NtRp1327
(dp1328
g73
(dp1329
g93
g94
ssg82
g1323
sg75
(lp1330
S'server_protocol'
p1331
asbag68
(g89
g70
NtRp1332
(dp1333
g73
(dp1334
g100
g101
ssg82
g1323
sg75
(lp1335
S':'
asbag68
(g89
g70
NtRp1336
(dp1337
g73
(dp1338
sg82
g1323
sg75
(lp1339
g68
(g69
g70
NtRp1340
(dp1341
g73
(dp1342
g81
I4
ssg82
g1336
sg75
(lp1343
S'HTTP/1.1'
p1344
asbasbasbag68
(g84
g70
NtRp1345
(dp1346
g73
(dp1347
sg82
g672
sg75
(lp1348
g68
(g89
g70
NtRp1349
(dp1350
g73
(dp1351
g93
g94
ssg82
g1345
sg75
(lp1352
S'server_software'
p1353
asbag68
(g89
g70
NtRp1354
(dp1355
g73
(dp1356
g100
g101
ssg82
g1345
sg75
(lp1357
S':'
asbag68
(g89
g70
NtRp1358
(dp1359
g73
(dp1360
sg82
g1345
sg75
(lp1361
g68
(g69
g70
NtRp1362
(dp1363
g73
(dp1364
g81
I4
ssg82
g1358
sg75
(lp1365
S'Rocket 1.2.6'
p1366
asbasbasbag68
(g84
g70
NtRp1367
(dp1368
g73
(dp1369
sg82
g672
sg75
(lp1370
g68
(g89
g70
NtRp1371
(dp1372
g73
(dp1373
g93
g94
ssg82
g1367
sg75
(lp1374
S'web2py_original_uri'
p1375
asbag68
(g89
g70
NtRp1376
(dp1377
g73
(dp1378
g100
g101
ssg82
g1367
sg75
(lp1379
S':'
asbag68
(g89
g70
NtRp1380
(dp1381
g73
(dp1382
sg82
g1367
sg75
(lp1383
g68
(g69
g70
NtRp1384
(dp1385
g73
(dp1386
g81
I4
ssg82
g1380
sg75
(lp1387
S'/detalhes_nav?c=10&f=7&n=VOIP&n1=Servidores&p=servidor_host&p1=show_servidor'
p1388
asbasbasbag68
(g84
g70
NtRp1389
(dp1390
g73
(dp1391
sg82
g672
sg75
(lp1392
g68
(g89
g70
NtRp1393
(dp1394
g73
(dp1395
g93
g94
ssg82
g1389
sg75
(lp1396
S'web2py_path'
p1397
asbag68
(g89
g70
NtRp1398
(dp1399
g73
(dp1400
g100
g101
ssg82
g1389
sg75
(lp1401
S':'
asbag68
(g89
g70
NtRp1402
(dp1403
g73
(dp1404
sg82
g1389
sg75
(lp1405
g68
(g69
g70
NtRp1406
(dp1407
g73
(dp1408
g81
I4
ssg82
g1402
sg75
(lp1409
g719
asbasbasbag68
(g84
g70
NtRp1410
(dp1411
g73
(dp1412
sg82
g672
sg75
(lp1413
g68
(g89
g70
NtRp1414
(dp1415
g73
(dp1416
g93
g94
ssg82
g1410
sg75
(lp1417
S'web2py_version'
p1418
asbag68
(g89
g70
NtRp1419
(dp1420
g73
(dp1421
g100
g101
ssg82
g1410
sg75
(lp1422
S':'
asbag68
(g89
g70
NtRp1423
(dp1424
g73
(dp1425
sg82
g1410
sg75
(lp1426
g68
(g69
g70
NtRp1427
(dp1428
g73
(dp1429
g81
I4
ssg82
g1423
sg75
(lp1430
g68
(g77
g70
NtRp1431
(dp1432
g73
(dp1433
g81
I3
ssg82
Nsg75
(lp1434
g68
(g84
g70
NtRp1435
(dp1436
g73
(dp1437
sg82
g1431
sg75
(lp1438
g68
(g89
g70
NtRp1439
(dp1440
g73
(dp1441
sg82
g1435
sg75
(lp1442
g68
(g69
g70
NtRp1443
(dp1444
g73
(dp1445
g81
I3
ssg82
g1439
sg75
(lp1446
S'2'
asbasbasbag68
(g84
g70
NtRp1447
(dp1448
g73
(dp1449
sg82
g1431
sg75
(lp1450
g68
(g89
g70
NtRp1451
(dp1452
g73
(dp1453
sg82
g1447
sg75
(lp1454
g68
(g69
g70
NtRp1455
(dp1456
g73
(dp1457
g81
I3
ssg82
g1451
sg75
(lp1458
S'3'
asbasbasbag68
(g84
g70
NtRp1459
(dp1460
g73
(dp1461
sg82
g1431
sg75
(lp1462
g68
(g89
g70
NtRp1463
(dp1464
g73
(dp1465
sg82
g1459
sg75
(lp1466
g68
(g69
g70
NtRp1467
(dp1468
g73
(dp1469
g81
I3
ssg82
g1463
sg75
(lp1470
S'2'
asbasbasbag68
(g84
g70
NtRp1471
(dp1472
g73
(dp1473
sg82
g1431
sg75
(lp1474
g68
(g89
g70
NtRp1475
(dp1476
g73
(dp1477
sg82
g1471
sg75
(lp1478
g68
(g69
g70
NtRp1479
(dp1480
g73
(dp1481
g81
I3
ssg82
g1475
sg75
(lp1482
S'datetime.datetime(2012, 12, 17, 15, 3, 30)'
p1483
asbasbasbag68
(g84
g70
NtRp1484
(dp1485
g73
(dp1486
sg82
g1431
sg75
(lp1487
g68
(g89
g70
NtRp1488
(dp1489
g73
(dp1490
sg82
g1484
sg75
(lp1491
g68
(g69
g70
NtRp1492
(dp1493
g73
(dp1494
g81
I3
ssg82
g1488
sg75
(lp1495
S'stable'
p1496
asbasbasbasbasbasbasbag68
(g84
g70
NtRp1497
(dp1498
g73
(dp1499
sg82
g672
sg75
(lp1500
g68
(g89
g70
NtRp1501
(dp1502
g73
(dp1503
g93
g94
ssg82
g1497
sg75
(lp1504
S'wsgi_errors'
p1505
asbag68
(g89
g70
NtRp1506
(dp1507
g73
(dp1508
g100
g101
ssg82
g1497
sg75
(lp1509
S':'
asbag68
(g89
g70
NtRp1510
(dp1511
g73
(dp1512
sg82
g1497
sg75
(lp1513
g68
(g69
g70
NtRp1514
(dp1515
g73
(dp1516
g81
I4
ssg82
g1510
sg75
(lp1517
S"<open file '<stderr>', mode 'w' at 0x7f4ea2f90270>"
p1518
asbasbasbag68
(g84
g70
NtRp1519
(dp1520
g73
(dp1521
sg82
g672
sg75
(lp1522
g68
(g89
g70
NtRp1523
(dp1524
g73
(dp1525
g93
g94
ssg82
g1519
sg75
(lp1526
S'wsgi_file_wrapper'
p1527
asbag68
(g89
g70
NtRp1528
(dp1529
g73
(dp1530
g100
g101
ssg82
g1519
sg75
(lp1531
S':'
asbag68
(g89
g70
NtRp1532
(dp1533
g73
(dp1534
sg82
g1519
sg75
(lp1535
g68
(g69
g70
NtRp1536
(dp1537
g73
(dp1538
g81
I4
ssg82
g1532
sg75
(lp1539
S'<class wsgiref.util.FileWrapper at 0x18ec4c8>'
p1540
asbasbasbag68
(g84
g70
NtRp1541
(dp1542
g73
(dp1543
sg82
g672
sg75
(lp1544
g68
(g89
g70
NtRp1545
(dp1546
g73
(dp1547
g93
g94
ssg82
g1541
sg75
(lp1548
S'wsgi_input'
p1549
asbag68
(g89
g70
NtRp1550
(dp1551
g73
(dp1552
g100
g101
ssg82
g1541
sg75
(lp1553
S':'
asbag68
(g89
g70
NtRp1554
(dp1555
g73
(dp1556
sg82
g1541
sg75
(lp1557
g68
(g69
g70
NtRp1558
(dp1559
g73
(dp1560
g81
I4
ssg82
g1554
sg75
(lp1561
S'<socket._fileobject object at 0x1a08350>'
p1562
asbasbasbag68
(g84
g70
NtRp1563
(dp1564
g73
(dp1565
sg82
g672
sg75
(lp1566
g68
(g89
g70
NtRp1567
(dp1568
g73
(dp1569
g93
g94
ssg82
g1563
sg75
(lp1570
S'wsgi_multiprocess'
p1571
asbag68
(g89
g70
NtRp1572
(dp1573
g73
(dp1574
g100
g101
ssg82
g1563
sg75
(lp1575
S':'
asbag68
(g89
g70
NtRp1576
(dp1577
g73
(dp1578
sg82
g1563
sg75
(lp1579
g68
(g69
g70
NtRp1580
(dp1581
g73
(dp1582
g81
I4
ssg82
g1576
sg75
(lp1583
g111
asbasbasbag68
(g84
g70
NtRp1584
(dp1585
g73
(dp1586
sg82
g672
sg75
(lp1587
g68
(g89
g70
NtRp1588
(dp1589
g73
(dp1590
g93
g94
ssg82
g1584
sg75
(lp1591
S'wsgi_multithread'
p1592
asbag68
(g89
g70
NtRp1593
(dp1594
g73
(dp1595
g100
g101
ssg82
g1584
sg75
(lp1596
S':'
asbag68
(g89
g70
NtRp1597
(dp1598
g73
(dp1599
sg82
g1584
sg75
(lp1600
g68
(g69
g70
NtRp1601
(dp1602
g73
(dp1603
g81
I4
ssg82
g1597
sg75
(lp1604
S'True'
p1605
asbasbasbag68
(g84
g70
NtRp1606
(dp1607
g73
(dp1608
sg82
g672
sg75
(lp1609
g68
(g89
g70
NtRp1610
(dp1611
g73
(dp1612
g93
g94
ssg82
g1606
sg75
(lp1613
S'wsgi_run_once'
p1614
asbag68
(g89
g70
NtRp1615
(dp1616
g73
(dp1617
g100
g101
ssg82
g1606
sg75
(lp1618
S':'
asbag68
(g89
g70
NtRp1619
(dp1620
g73
(dp1621
sg82
g1606
sg75
(lp1622
g68
(g69
g70
NtRp1623
(dp1624
g73
(dp1625
g81
I4
ssg82
g1619
sg75
(lp1626
g111
asbasbasbag68
(g84
g70
NtRp1627
(dp1628
g73
(dp1629
sg82
g672
sg75
(lp1630
g68
(g89
g70
NtRp1631
(dp1632
g73
(dp1633
g93
g94
ssg82
g1627
sg75
(lp1634
S'wsgi_url_scheme'
p1635
asbag68
(g89
g70
NtRp1636
(dp1637
g73
(dp1638
g100
g101
ssg82
g1627
sg75
(lp1639
S':'
asbag68
(g89
g70
NtRp1640
(dp1641
g73
(dp1642
sg82
g1627
sg75
(lp1643
g68
(g69
g70
NtRp1644
(dp1645
g73
(dp1646
g81
I4
ssg82
g1640
sg75
(lp1647
S'http'
p1648
asbasbasbag68
(g84
g70
NtRp1649
(dp1650
g73
(dp1651
sg82
g672
sg75
(lp1652
g68
(g89
g70
NtRp1653
(dp1654
g73
(dp1655
g93
g94
ssg82
g1649
sg75
(lp1656
S'wsgi_version'
p1657
asbag68
(g89
g70
NtRp1658
(dp1659
g73
(dp1660
g100
g101
ssg82
g1649
sg75
(lp1661
S':'
asbag68
(g89
g70
NtRp1662
(dp1663
g73
(dp1664
sg82
g1649
sg75
(lp1665
g68
(g69
g70
NtRp1666
(dp1667
g73
(dp1668
g81
I4
ssg82
g1662
sg75
(lp1669
g68
(g77
g70
NtRp1670
(dp1671
g73
(dp1672
g81
I3
ssg82
Nsg75
(lp1673
g68
(g84
g70
NtRp1674
(dp1675
g73
(dp1676
sg82
g1670
sg75
(lp1677
g68
(g89
g70
NtRp1678
(dp1679
g73
(dp1680
sg82
g1674
sg75
(lp1681
g68
(g69
g70
NtRp1682
(dp1683
g73
(dp1684
g81
I3
ssg82
g1678
sg75
(lp1685
S'1'
asbasbasbag68
(g84
g70
NtRp1686
(dp1687
g73
(dp1688
sg82
g1670
sg75
(lp1689
g68
(g89
g70
NtRp1690
(dp1691
g73
(dp1692
sg82
g1686
sg75
(lp1693
g68
(g69
g70
NtRp1694
(dp1695
g73
(dp1696
g81
I3
ssg82
g1690
sg75
(lp1697
S'0'
asbasbasbasbasbasbasbasbasbasbasbag68
(g84
g70
NtRp1698
(dp1699
g73
(dp1700
sg82
g78
sg75
(lp1701
g68
(g89
g70
NtRp1702
(dp1703
g73
(dp1704
g93
g94
ssg82
g1698
sg75
(lp1705
S'extension'
p1706
asbag68
(g89
g70
NtRp1707
(dp1708
g73
(dp1709
g100
g101
ssg82
g1698
sg75
(lp1710
S':'
asbag68
(g89
g70
NtRp1711
(dp1712
g73
(dp1713
sg82
g1698
sg75
(lp1714
g68
(g69
g70
NtRp1715
(dp1716
g73
(dp1717
g81
I5
ssg82
g1711
sg75
(lp1718
S'html'
p1719
asbasbasbag68
(g84
g70
NtRp1720
(dp1721
g73
(dp1722
sg82
g78
sg75
(lp1723
g68
(g89
g70
NtRp1724
(dp1725
g73
(dp1726
g93
g94
ssg82
g1720
sg75
(lp1727
S'folder'
p1728
asbag68
(g89
g70
NtRp1729
(dp1730
g73
(dp1731
g100
g101
ssg82
g1720
sg75
(lp1732
S':'
asbag68
(g89
g70
NtRp1733
(dp1734
g73
(dp1735
sg82
g1720
sg75
(lp1736
g68
(g69
g70
NtRp1737
(dp1738
g73
(dp1739
g81
I5
ssg82
g1733
sg75
(lp1740
S'/var/www/hosts3/applications/projeto/'
p1741
asbasbasbag68
(g84
g70
NtRp1742
(dp1743
g73
(dp1744
sg82
g78
sg75
(lp1745
g68
(g89
g70
NtRp1746
(dp1747
g73
(dp1748
g93
g94
ssg82
g1742
sg75
(lp1749
S'function'
p1750
asbag68
(g89
g70
NtRp1751
(dp1752
g73
(dp1753
g100
g101
ssg82
g1742
sg75
(lp1754
S':'
asbag68
(g89
g70
NtRp1755
(dp1756
g73
(dp1757
sg82
g1742
sg75
(lp1758
g68
(g69
g70
NtRp1759
(dp1760
g73
(dp1761
g81
I5
ssg82
g1755
sg75
(lp1762
S'detalhes_nav'
p1763
asbasbasbag68
(g84
g70
NtRp1764
(dp1765
g73
(dp1766
sg82
g78
sg75
(lp1767
g68
(g89
g70
NtRp1768
(dp1769
g73
(dp1770
g93
g94
ssg82
g1764
sg75
(lp1771
S'get_vars'
p1772
asbag68
(g89
g70
NtRp1773
(dp1774
g73
(dp1775
g100
g101
ssg82
g1764
sg75
(lp1776
S':'
asbag68
(g89
g70
NtRp1777
(dp1778
g73
(dp1779
sg82
g1764
sg75
(lp1780
g68
(g69
g70
NtRp1781
(dp1782
g73
(dp1783
g81
I5
ssg82
g1777
sg75
(lp1784
g68
(g77
g70
NtRp1785
(dp1786
g73
(dp1787
g81
I4
ssg82
Nsg75
(lp1788
g68
(g84
g70
NtRp1789
(dp1790
g73
(dp1791
sg82
g1785
sg75
(lp1792
g68
(g89
g70
NtRp1793
(dp1794
g73
(dp1795
g93
g94
ssg82
g1789
sg75
(lp1796
S'c'
asbag68
(g89
g70
NtRp1797
(dp1798
g73
(dp1799
g100
g101
ssg82
g1789
sg75
(lp1800
S':'
asbag68
(g89
g70
NtRp1801
(dp1802
g73
(dp1803
sg82
g1789
sg75
(lp1804
g68
(g69
g70
NtRp1805
(dp1806
g73
(dp1807
g81
I4
ssg82
g1801
sg75
(lp1808
S'10'
p1809
asbasbasbag68
(g84
g70
NtRp1810
(dp1811
g73
(dp1812
sg82
g1785
sg75
(lp1813
g68
(g89
g70
NtRp1814
(dp1815
g73
(dp1816
g93
g94
ssg82
g1810
sg75
(lp1817
S'f'
asbag68
(g89
g70
NtRp1818
(dp1819
g73
(dp1820
g100
g101
ssg82
g1810
sg75
(lp1821
S':'
asbag68
(g89
g70
NtRp1822
(dp1823
g73
(dp1824
sg82
g1810
sg75
(lp1825
g68
(g69
g70
NtRp1826
(dp1827
g73
(dp1828
g81
I4
ssg82
g1822
sg75
(lp1829
S'7'
asbasbasbag68
(g84
g70
NtRp1830
(dp1831
g73
(dp1832
sg82
g1785
sg75
(lp1833
g68
(g89
g70
NtRp1834
(dp1835
g73
(dp1836
g93
g94
ssg82
g1830
sg75
(lp1837
S'n'
asbag68
(g89
g70
NtRp1838
(dp1839
g73
(dp1840
g100
g101
ssg82
g1830
sg75
(lp1841
S':'
asbag68
(g89
g70
NtRp1842
(dp1843
g73
(dp1844
sg82
g1830
sg75
(lp1845
g68
(g69
g70
NtRp1846
(dp1847
g73
(dp1848
g81
I4
ssg82
g1842
sg75
(lp1849
S'VOIP'
p1850
asbasbasbag68
(g84
g70
NtRp1851
(dp1852
g73
(dp1853
sg82
g1785
sg75
(lp1854
g68
(g89
g70
NtRp1855
(dp1856
g73
(dp1857
g93
g94
ssg82
g1851
sg75
(lp1858
S'n1'
p1859
asbag68
(g89
g70
NtRp1860
(dp1861
g73
(dp1862
g100
g101
ssg82
g1851
sg75
(lp1863
S':'
asbag68
(g89
g70
NtRp1864
(dp1865
g73
(dp1866
sg82
g1851
sg75
(lp1867
g68
(g69
g70
NtRp1868
(dp1869
g73
(dp1870
g81
I4
ssg82
g1864
sg75
(lp1871
S'Servidores'
p1872
asbasbasbag68
(g84
g70
NtRp1873
(dp1874
g73
(dp1875
sg82
g1785
sg75
(lp1876
g68
(g89
g70
NtRp1877
(dp1878
g73
(dp1879
g93
g94
ssg82
g1873
sg75
(lp1880
S'p'
asbag68
(g89
g70
NtRp1881
(dp1882
g73
(dp1883
g100
g101
ssg82
g1873
sg75
(lp1884
S':'
asbag68
(g89
g70
NtRp1885
(dp1886
g73
(dp1887
sg82
g1873
sg75
(lp1888
g68
(g69
g70
NtRp1889
(dp1890
g73
(dp1891
g81
I4
ssg82
g1885
sg75
(lp1892
S'servidor_host'
p1893
asbasbasbag68
(g84
g70
NtRp1894
(dp1895
g73
(dp1896
sg82
g1785
sg75
(lp1897
g68
(g89
g70
NtRp1898
(dp1899
g73
(dp1900
g93
g94
ssg82
g1894
sg75
(lp1901
S'p1'
p1902
asbag68
(g89
g70
NtRp1903
(dp1904
g73
(dp1905
g100
g101
ssg82
g1894
sg75
(lp1906
S':'
asbag68
(g89
g70
NtRp1907
(dp1908
g73
(dp1909
sg82
g1894
sg75
(lp1910
g68
(g69
g70
NtRp1911
(dp1912
g73
(dp1913
g81
I4
ssg82
g1907
sg75
(lp1914
S'show_servidor'
p1915
asbasbasbasbasbasbasbag68
(g84
g70
NtRp1916
(dp1917
g73
(dp1918
sg82
g78
sg75
(lp1919
g68
(g89
g70
NtRp1920
(dp1921
g73
(dp1922
g93
g94
ssg82
g1916
sg75
(lp1923
S'global_settings'
p1924
asbag68
(g89
g70
NtRp1925
(dp1926
g73
(dp1927
g100
g101
ssg82
g1916
sg75
(lp1928
S':'
asbag68
(g89
g70
NtRp1929
(dp1930
g73
(dp1931
sg82
g1916
sg75
(lp1932
g68
(g69
g70
NtRp1933
(dp1934
g73
(dp1935
g81
I5
ssg82
g1929
sg75
(lp1936
g68
(g77
g70
NtRp1937
(dp1938
g73
(dp1939
g81
I4
ssg82
Nsg75
(lp1940
g68
(g84
g70
NtRp1941
(dp1942
g73
(dp1943
sg82
g1937
sg75
(lp1944
g68
(g89
g70
NtRp1945
(dp1946
g73
(dp1947
g93
g94
ssg82
g1941
sg75
(lp1948
g684
asbag68
(g89
g70
NtRp1949
(dp1950
g73
(dp1951
g100
g101
ssg82
g1941
sg75
(lp1952
S':'
asbag68
(g89
g70
NtRp1953
(dp1954
g73
(dp1955
sg82
g1941
sg75
(lp1956
g68
(g69
g70
NtRp1957
(dp1958
g73
(dp1959
g81
I4
ssg82
g1953
sg75
(lp1960
S"set(['/var/www/hosts3/applications/admin/', '/var/www/hosts3/applications/projeto/'])"
p1961
asbasbasbag68
(g84
g70
NtRp1962
(dp1963
g73
(dp1964
sg82
g1937
sg75
(lp1965
g68
(g89
g70
NtRp1966
(dp1967
g73
(dp1968
g93
g94
ssg82
g1962
sg75
(lp1969
g706
asbag68
(g89
g70
NtRp1970
(dp1971
g73
(dp1972
g100
g101
ssg82
g1962
sg75
(lp1973
S':'
asbag68
(g89
g70
NtRp1974
(dp1975
g73
(dp1976
sg82
g1962
sg75
(lp1977
g68
(g69
g70
NtRp1978
(dp1979
g73
(dp1980
g81
I4
ssg82
g1974
sg75
(lp1981
g719
asbasbasbag68
(g84
g70
NtRp1982
(dp1983
g73
(dp1984
sg82
g1937
sg75
(lp1985
g68
(g89
g70
NtRp1986
(dp1987
g73
(dp1988
g93
g94
ssg82
g1982
sg75
(lp1989
g728
asbag68
(g89
g70
NtRp1990
(dp1991
g73
(dp1992
g100
g101
ssg82
g1982
sg75
(lp1993
S':'
asbag68
(g89
g70
NtRp1994
(dp1995
g73
(dp1996
sg82
g1982
sg75
(lp1997
g68
(g69
g70
NtRp1998
(dp1999
g73
(dp2000
g81
I4
ssg82
g1994
sg75
(lp2001
g68
(g77
g70
NtRp2002
(dp2003
g73
(dp2004
g81
I3
ssg82
Nsg75
(lp2005
sbasbasbasbag68
(g84
g70
NtRp2006
(dp2007
g73
(dp2008
sg82
g1937
sg75
(lp2009
g68
(g89
g70
NtRp2010
(dp2011
g73
(dp2012
g93
g94
ssg82
g2006
sg75
(lp2013
g753
asbag68
(g89
g70
NtRp2014
(dp2015
g73
(dp2016
g100
g101
ssg82
g2006
sg75
(lp2017
S':'
asbag68
(g89
g70
NtRp2018
(dp2019
g73
(dp2020
sg82
g2006
sg75
(lp2021
g68
(g69
g70
NtRp2022
(dp2023
g73
(dp2024
g81
I4
ssg82
g2018
sg75
(lp2025
S"<Values at 0x1965170: {'verbose': False, 'ip': '127.0.0.1', 'with_scheduler': False, 'ips': [], 'shutdown_timeout': 5, 'taskbar': False, 'port': 8000, 'maxthreads': None, 'softcron': False, 'server_name': 'fernando-workstation', 'bpython': False, 'nogui': False, 'pid_filename': 'httpserver.pid', 'extcron': False, 'runcron': False, 'run_system_tests': False, 'test': None, 'folder': '/var/www/hosts3', 'config': '', 'minthreads': None, 'winservice': '', 'shell': None, 'run': '', 'log_filename': 'httpserver.log', 'debuglevel': 30, 'args': [''], 'socket_timeout': 5, 'ssl_ca_certificate': None, 'scheduler': None, 'profiler_filename': None, 'ssl_private_key': '', 'scheduler_groups': None, 'password': '123456', 'request_queue_size': 5, 'ssl_certificate': '', 'cronjob': False, 'numthreads': None, 'quiet': False, 'interfaces': None, 'import_models': False, 'timeout': 10, 'plain': False, 'nobanner': False}>"
p2026
asbasbasbag68
(g84
g70
NtRp2027
(dp2028
g73
(dp2029
sg82
g1937
sg75
(lp2030
g68
(g89
g70
NtRp2031
(dp2032
g73
(dp2033
g93
g94
ssg82
g2027
sg75
(lp2034
g775
asbag68
(g89
g70
NtRp2035
(dp2036
g73
(dp2037
g100
g101
ssg82
g2027
sg75
(lp2038
S':'
asbag68
(g89
g70
NtRp2039
(dp2040
g73
(dp2041
sg82
g2027
sg75
(lp2042
g68
(g69
g70
NtRp2043
(dp2044
g73
(dp2045
g81
I4
ssg82
g2039
sg75
(lp2046
S'set([])'
p2047
asbasbasbag68
(g84
g70
NtRp2048
(dp2049
g73
(dp2050
sg82
g1937
sg75
(lp2051
g68
(g89
g70
NtRp2052
(dp2053
g73
(dp2054
g93
g94
ssg82
g2048
sg75
(lp2055
g797
asbag68
(g89
g70
NtRp2056
(dp2057
g73
(dp2058
g100
g101
ssg82
g2048
sg75
(lp2059
S':'
asbag68
(g89
g70
NtRp2060
(dp2061
g73
(dp2062
sg82
g2048
sg75
(lp2063
g68
(g69
g70
NtRp2064
(dp2065
g73
(dp2066
g81
I4
ssg82
g2060
sg75
(lp2067
g111
asbasbasbag68
(g84
g70
NtRp2068
(dp2069
g73
(dp2070
sg82
g1937
sg75
(lp2071
g68
(g89
g70
NtRp2072
(dp2073
g73
(dp2074
g93
g94
ssg82
g2068
sg75
(lp2075
g818
asbag68
(g89
g70
NtRp2076
(dp2077
g73
(dp2078
g100
g101
ssg82
g2068
sg75
(lp2079
S':'
asbag68
(g89
g70
NtRp2080
(dp2081
g73
(dp2082
sg82
g2068
sg75
(lp2083
g68
(g69
g70
NtRp2084
(dp2085
g73
(dp2086
g81
I4
ssg82
g2080
sg75
(lp2087
g831
asbasbasbag68
(g84
g70
NtRp2088
(dp2089
g73
(dp2090
sg82
g1937
sg75
(lp2091
g68
(g89
g70
NtRp2092
(dp2093
g73
(dp2094
g93
g94
ssg82
g2088
sg75
(lp2095
g1016
asbag68
(g89
g70
NtRp2096
(dp2097
g73
(dp2098
g100
g101
ssg82
g2088
sg75
(lp2099
S':'
asbag68
(g89
g70
NtRp2100
(dp2101
g73
(dp2102
sg82
g2088
sg75
(lp2103
g68
(g69
g70
NtRp2104
(dp2105
g73
(dp2106
g81
I4
ssg82
g2100
sg75
(lp2107
g111
asbasbasbag68
(g84
g70
NtRp2108
(dp2109
g73
(dp2110
sg82
g1937
sg75
(lp2111
g68
(g89
g70
NtRp2112
(dp2113
g73
(dp2114
g93
g94
ssg82
g2108
sg75
(lp2115
g1037
asbag68
(g89
g70
NtRp2116
(dp2117
g73
(dp2118
g100
g101
ssg82
g2108
sg75
(lp2119
S':'
asbag68
(g89
g70
NtRp2120
(dp2121
g73
(dp2122
sg82
g2108
sg75
(lp2123
g68
(g69
g70
NtRp2124
(dp2125
g73
(dp2126
g81
I4
ssg82
g2120
sg75
(lp2127
g111
asbasbasbag68
(g84
g70
NtRp2128
(dp2129
g73
(dp2130
sg82
g1937
sg75
(lp2131
g68
(g89
g70
NtRp2132
(dp2133
g73
(dp2134
g93
g94
ssg82
g2128
sg75
(lp2135
g1058
asbag68
(g89
g70
NtRp2136
(dp2137
g73
(dp2138
g100
g101
ssg82
g2128
sg75
(lp2139
S':'
asbag68
(g89
g70
NtRp2140
(dp2141
g73
(dp2142
sg82
g2128
sg75
(lp2143
g68
(g69
g70
NtRp2144
(dp2145
g73
(dp2146
g81
I4
ssg82
g2140
sg75
(lp2147
g68
(g77
g70
NtRp2148
(dp2149
g73
(dp2150
g81
I3
ssg82
Nsg75
(lp2151
g68
(g84
g70
NtRp2152
(dp2153
g73
(dp2154
sg82
g2148
sg75
(lp2155
g68
(g89
g70
NtRp2156
(dp2157
g73
(dp2158
sg82
g2152
sg75
(lp2159
g68
(g69
g70
NtRp2160
(dp2161
g73
(dp2162
g81
I3
ssg82
g2156
sg75
(lp2163
g1087
asbasbasbag68
(g84
g70
NtRp2164
(dp2165
g73
(dp2166
sg82
g2148
sg75
(lp2167
g68
(g89
g70
NtRp2168
(dp2169
g73
(dp2170
sg82
g2164
sg75
(lp2171
g68
(g69
g70
NtRp2172
(dp2173
g73
(dp2174
g81
I3
ssg82
g2168
sg75
(lp2175
g1100
asbasbasbag68
(g84
g70
NtRp2176
(dp2177
g73
(dp2178
sg82
g2148
sg75
(lp2179
g68
(g89
g70
NtRp2180
(dp2181
g73
(dp2182
sg82
g2176
sg75
(lp2183
g68
(g69
g70
NtRp2184
(dp2185
g73
(dp2186
g81
I3
ssg82
g2180
sg75
(lp2187
g1113
asbasbasbag68
(g84
g70
NtRp2188
(dp2189
g73
(dp2190
sg82
g2148
sg75
(lp2191
g68
(g89
g70
NtRp2192
(dp2193
g73
(dp2194
sg82
g2188
sg75
(lp2195
g68
(g69
g70
NtRp2196
(dp2197
g73
(dp2198
g81
I3
ssg82
g2192
sg75
(lp2199
g1126
asbasbasbasbasbasbasbag68
(g84
g70
NtRp2200
(dp2201
g73
(dp2202
sg82
g1937
sg75
(lp2203
g68
(g89
g70
NtRp2204
(dp2205
g73
(dp2206
g93
g94
ssg82
g2200
sg75
(lp2207
g1418
asbag68
(g89
g70
NtRp2208
(dp2209
g73
(dp2210
g100
g101
ssg82
g2200
sg75
(lp2211
S':'
asbag68
(g89
g70
NtRp2212
(dp2213
g73
(dp2214
sg82
g2200
sg75
(lp2215
g68
(g69
g70
NtRp2216
(dp2217
g73
(dp2218
g81
I4
ssg82
g2212
sg75
(lp2219
g68
(g77
g70
NtRp2220
(dp2221
g73
(dp2222
g81
I3
ssg82
Nsg75
(lp2223
g68
(g84
g70
NtRp2224
(dp2225
g73
(dp2226
sg82
g2220
sg75
(lp2227
g68
(g89
g70
NtRp2228
(dp2229
g73
(dp2230
sg82
g2224
sg75
(lp2231
g68
(g69
g70
NtRp2232
(dp2233
g73
(dp2234
g81
I3
ssg82
g2228
sg75
(lp2235
S'2'
asbasbasbag68
(g84
g70
NtRp2236
(dp2237
g73
(dp2238
sg82
g2220
sg75
(lp2239
g68
(g89
g70
NtRp2240
(dp2241
g73
(dp2242
sg82
g2236
sg75
(lp2243
g68
(g69
g70
NtRp2244
(dp2245
g73
(dp2246
g81
I3
ssg82
g2240
sg75
(lp2247
S'3'
asbasbasbag68
(g84
g70
NtRp2248
(dp2249
g73
(dp2250
sg82
g2220
sg75
(lp2251
g68
(g89
g70
NtRp2252
(dp2253
g73
(dp2254
sg82
g2248
sg75
(lp2255
g68
(g69
g70
NtRp2256
(dp2257
g73
(dp2258
g81
I3
ssg82
g2252
sg75
(lp2259
S'2'
asbasbasbag68
(g84
g70
NtRp2260
(dp2261
g73
(dp2262
sg82
g2220
sg75
(lp2263
g68
(g89
g70
NtRp2264
(dp2265
g73
(dp2266
sg82
g2260
sg75
(lp2267
g68
(g69
g70
NtRp2268
(dp2269
g73
(dp2270
g81
I3
ssg82
g2264
sg75
(lp2271
S'datetime.datetime(2012, 12, 17, 15, 3, 30)'
p2272
asbasbasbag68
(g84
g70
NtRp2273
(dp2274
g73
(dp2275
sg82
g2220
sg75
(lp2276
g68
(g89
g70
NtRp2277
(dp2278
g73
(dp2279
sg82
g2273
sg75
(lp2280
g68
(g69
g70
NtRp2281
(dp2282
g73
(dp2283
g81
I3
ssg82
g2277
sg75
(lp2284
g1496
asbasbasbasbasbasbasbasbasbasbasbag68
(g84
g70
NtRp2285
(dp2286
g73
(dp2287
sg82
g78
sg75
(lp2288
g68
(g89
g70
NtRp2289
(dp2290
g73
(dp2291
g93
g94
ssg82
g2285
sg75
(lp2292
S'is_https'
p2293
asbag68
(g89
g70
NtRp2294
(dp2295
g73
(dp2296
g100
g101
ssg82
g2285
sg75
(lp2297
S':'
asbag68
(g89
g70
NtRp2298
(dp2299
g73
(dp2300
sg82
g2285
sg75
(lp2301
g68
(g69
g70
NtRp2302
(dp2303
g73
(dp2304
g81
I5
ssg82
g2298
sg75
(lp2305
g111
asbasbasbag68
(g84
g70
NtRp2306
(dp2307
g73
(dp2308
sg82
g78
sg75
(lp2309
g68
(g89
g70
NtRp2310
(dp2311
g73
(dp2312
g93
g94
ssg82
g2306
sg75
(lp2313
S'is_local'
p2314
asbag68
(g89
g70
NtRp2315
(dp2316
g73
(dp2317
g100
g101
ssg82
g2306
sg75
(lp2318
S':'
asbag68
(g89
g70
NtRp2319
(dp2320
g73
(dp2321
sg82
g2306
sg75
(lp2322
g68
(g69
g70
NtRp2323
(dp2324
g73
(dp2325
g81
I5
ssg82
g2319
sg75
(lp2326
g1605
asbasbasbag68
(g84
g70
NtRp2327
(dp2328
g73
(dp2329
sg82
g78
sg75
(lp2330
g68
(g89
g70
NtRp2331
(dp2332
g73
(dp2333
g93
g94
ssg82
g2327
sg75
(lp2334
S'is_restful'
p2335
asbag68
(g89
g70
NtRp2336
(dp2337
g73
(dp2338
g100
g101
ssg82
g2327
sg75
(lp2339
S':'
asbag68
(g89
g70
NtRp2340
(dp2341
g73
(dp2342
sg82
g2327
sg75
(lp2343
g68
(g69
g70
NtRp2344
(dp2345
g73
(dp2346
g81
I5
ssg82
g2340
sg75
(lp2347
g111
asbasbasbag68
(g84
g70
NtRp2348
(dp2349
g73
(dp2350
sg82
g78
sg75
(lp2351
g68
(g89
g70
NtRp2352
(dp2353
g73
(dp2354
g93
g94
ssg82
g2348
sg75
(lp2355
S'now'
p2356
asbag68
(g89
g70
NtRp2357
(dp2358
g73
(dp2359
g100
g101
ssg82
g2348
sg75
(lp2360
S':'
asbag68
(g89
g70
NtRp2361
(dp2362
g73
(dp2363
sg82
g2348
sg75
(lp2364
g68
(g69
g70
NtRp2365
(dp2366
g73
(dp2367
g81
I5
ssg82
g2361
sg75
(lp2368
S'datetime.datetime(2014, 2, 6, 11, 4, 34, 329808)'
p2369
asbasbasbag68
(g84
g70
NtRp2370
(dp2371
g73
(dp2372
sg82
g78
sg75
(lp2373
g68
(g89
g70
NtRp2374
(dp2375
g73
(dp2376
g93
g94
ssg82
g2370
sg75
(lp2377
S'post_vars'
p2378
asbag68
(g89
g70
NtRp2379
(dp2380
g73
(dp2381
g100
g101
ssg82
g2370
sg75
(lp2382
S':'
asbag68
(g89
g70
NtRp2383
(dp2384
g73
(dp2385
sg82
g2370
sg75
(lp2386
g68
(g69
g70
NtRp2387
(dp2388
g73
(dp2389
g81
I5
ssg82
g2383
sg75
(lp2390
g68
(g77
g70
NtRp2391
(dp2392
g73
(dp2393
g81
I4
ssg82
Nsg75
(lp2394
sbasbasbasbag68
(g84
g70
NtRp2395
(dp2396
g73
(dp2397
sg82
g78
sg75
(lp2398
g68
(g89
g70
NtRp2399
(dp2400
g73
(dp2401
g93
g94
ssg82
g2395
sg75
(lp2402
S'url'
p2403
asbag68
(g89
g70
NtRp2404
(dp2405
g73
(dp2406
g100
g101
ssg82
g2395
sg75
(lp2407
S':'
asbag68
(g89
g70
NtRp2408
(dp2409
g73
(dp2410
sg82
g2395
sg75
(lp2411
g68
(g69
g70
NtRp2412
(dp2413
g73
(dp2414
g81
I5
ssg82
g2408
sg75
(lp2415
g1148
asbasbasbag68
(g84
g70
NtRp2416
(dp2417
g73
(dp2418
sg82
g78
sg75
(lp2419
g68
(g89
g70
NtRp2420
(dp2421
g73
(dp2422
g93
g94
ssg82
g2416
sg75
(lp2423
S'utcnow'
p2424
asbag68
(g89
g70
NtRp2425
(dp2426
g73
(dp2427
g100
g101
ssg82
g2416
sg75
(lp2428
S':'
asbag68
(g89
g70
NtRp2429
(dp2430
g73
(dp2431
sg82
g2416
sg75
(lp2432
g68
(g69
g70
NtRp2433
(dp2434
g73
(dp2435
g81
I5
ssg82
g2429
sg75
(lp2436
S'datetime.datetime(2014, 2, 6, 13, 4, 34, 329875)'
p2437
asbasbasbag68
(g84
g70
NtRp2438
(dp2439
g73
(dp2440
sg82
g78
sg75
(lp2441
g68
(g89
g70
NtRp2442
(dp2443
g73
(dp2444
g93
g94
ssg82
g2438
sg75
(lp2445
S'uuid'
p2446
asbag68
(g89
g70
NtRp2447
(dp2448
g73
(dp2449
g100
g101
ssg82
g2438
sg75
(lp2450
S':'
asbag68
(g89
g70
NtRp2451
(dp2452
g73
(dp2453
sg82
g2438
sg75
(lp2454
g68
(g69
g70
NtRp2455
(dp2456
g73
(dp2457
g81
I5
ssg82
g2451
sg75
(lp2458
S'projeto/127.0.0.1.2014-02-06.11-04-34.49882cb5-0e63-4c30-853f-e5317d7fb69d'
p2459
asbasbasbag68
(g84
g70
NtRp2460
(dp2461
g73
(dp2462
sg82
g78
sg75
(lp2463
g68
(g89
g70
NtRp2464
(dp2465
g73
(dp2466
g93
g94
ssg82
g2460
sg75
(lp2467
S'vars'
p2468
asbag68
(g89
g70
NtRp2469
(dp2470
g73
(dp2471
g100
g101
ssg82
g2460
sg75
(lp2472
S':'
asbag68
(g89
g70
NtRp2473
(dp2474
g73
(dp2475
sg82
g2460
sg75
(lp2476
g68
(g69
g70
NtRp2477
(dp2478
g73
(dp2479
g81
I5
ssg82
g2473
sg75
(lp2480
g68
(g77
g70
NtRp2481
(dp2482
g73
(dp2483
g81
I4
ssg82
Nsg75
(lp2484
g68
(g84
g70
NtRp2485
(dp2486
g73
(dp2487
sg82
g2481
sg75
(lp2488
g68
(g89
g70
NtRp2489
(dp2490
g73
(dp2491
g93
g94
ssg82
g2485
sg75
(lp2492
S'c'
asbag68
(g89
g70
NtRp2493
(dp2494
g73
(dp2495
g100
g101
ssg82
g2485
sg75
(lp2496
S':'
asbag68
(g89
g70
NtRp2497
(dp2498
g73
(dp2499
sg82
g2485
sg75
(lp2500
g68
(g69
g70
NtRp2501
(dp2502
g73
(dp2503
g81
I4
ssg82
g2497
sg75
(lp2504
g1809
asbasbasbag68
(g84
g70
NtRp2505
(dp2506
g73
(dp2507
sg82
g2481
sg75
(lp2508
g68
(g89
g70
NtRp2509
(dp2510
g73
(dp2511
g93
g94
ssg82
g2505
sg75
(lp2512
S'f'
asbag68
(g89
g70
NtRp2513
(dp2514
g73
(dp2515
g100
g101
ssg82
g2505
sg75
(lp2516
S':'
asbag68
(g89
g70
NtRp2517
(dp2518
g73
(dp2519
sg82
g2505
sg75
(lp2520
g68
(g69
g70
NtRp2521
(dp2522
g73
(dp2523
g81
I4
ssg82
g2517
sg75
(lp2524
S'7'
asbasbasbag68
(g84
g70
NtRp2525
(dp2526
g73
(dp2527
sg82
g2481
sg75
(lp2528
g68
(g89
g70
NtRp2529
(dp2530
g73
(dp2531
g93
g94
ssg82
g2525
sg75
(lp2532
S'n'
asbag68
(g89
g70
NtRp2533
(dp2534
g73
(dp2535
g100
g101
ssg82
g2525
sg75
(lp2536
S':'
asbag68
(g89
g70
NtRp2537
(dp2538
g73
(dp2539
sg82
g2525
sg75
(lp2540
g68
(g69
g70
NtRp2541
(dp2542
g73
(dp2543
g81
I4
ssg82
g2537
sg75
(lp2544
g1850
asbasbasbag68
(g84
g70
NtRp2545
(dp2546
g73
(dp2547
sg82
g2481
sg75
(lp2548
g68
(g89
g70
NtRp2549
(dp2550
g73
(dp2551
g93
g94
ssg82
g2545
sg75
(lp2552
g1859
asbag68
(g89
g70
NtRp2553
(dp2554
g73
(dp2555
g100
g101
ssg82
g2545
sg75
(lp2556
S':'
asbag68
(g89
g70
NtRp2557
(dp2558
g73
(dp2559
sg82
g2545
sg75
(lp2560
g68
(g69
g70
NtRp2561
(dp2562
g73
(dp2563
g81
I4
ssg82
g2557
sg75
(lp2564
g1872
asbasbasbag68
(g84
g70
NtRp2565
(dp2566
g73
(dp2567
sg82
g2481
sg75
(lp2568
g68
(g89
g70
NtRp2569
(dp2570
g73
(dp2571
g93
g94
ssg82
g2565
sg75
(lp2572
S'p'
asbag68
(g89
g70
NtRp2573
(dp2574
g73
(dp2575
g100
g101
ssg82
g2565
sg75
(lp2576
S':'
asbag68
(g89
g70
NtRp2577
(dp2578
g73
(dp2579
sg82
g2565
sg75
(lp2580
g68
(g69
g70
NtRp2581
(dp2582
g73
(dp2583
g81
I4
ssg82
g2577
sg75
(lp2584
g1893
asbasbasbag68
(g84
g70
NtRp2585
(dp2586
g73
(dp2587
sg82
g2481
sg75
(lp2588
g68
(g89
g70
NtRp2589
(dp2590
g73
(dp2591
g93
g94
ssg82
g2585
sg75
(lp2592
g1902
asbag68
(g89
g70
NtRp2593
(dp2594
g73
(dp2595
g100
g101
ssg82
g2585
sg75
(lp2596
S':'
asbag68
(g89
g70
NtRp2597
(dp2598
g73
(dp2599
sg82
g2585
sg75
(lp2600
g68
(g69
g70
NtRp2601
(dp2602
g73
(dp2603
g81
I4
ssg82
g2597
sg75
(lp2604
g1915
asbasbasbasbasbasbasbag68
(g84
g70
NtRp2605
(dp2606
g73
(dp2607
sg82
g78
sg75
(lp2608
g68
(g89
g70
NtRp2609
(dp2610
g73
(dp2611
g93
g94
ssg82
g2605
sg75
(lp2612
S'wsgi'
p2613
asbag68
(g89
g70
NtRp2614
(dp2615
g73
(dp2616
g100
g101
ssg82
g2605
sg75
(lp2617
S':'
asbag68
(g89
g70
NtRp2618
(dp2619
g73
(dp2620
sg82
g2605
sg75
(lp2621
g68
(g69
g70
NtRp2622
(dp2623
g73
(dp2624
g81
I5
ssg82
g2618
sg75
(lp2625
g68
(g77
g70
NtRp2626
(dp2627
g73
(dp2628
g81
I4
ssg82
Nsg75
(lp2629
g68
(g84
g70
NtRp2630
(dp2631
g73
(dp2632
sg82
g2626
sg75
(lp2633
g68
(g89
g70
NtRp2634
(dp2635
g73
(dp2636
g93
g94
ssg82
g2630
sg75
(lp2637
S'environ'
p2638
asbag68
(g89
g70
NtRp2639
(dp2640
g73
(dp2641
g100
g101
ssg82
g2630
sg75
(lp2642
S':'
asbag68
(g89
g70
NtRp2643
(dp2644
g73
(dp2645
sg82
g2630
sg75
(lp2646
g68
(g69
g70
NtRp2647
(dp2648
g73
(dp2649
g81
I4
ssg82
g2643
sg75
(lp2650
g68
(g77
g70
NtRp2651
(dp2652
g73
(dp2653
g81
I3
ssg82
Nsg75
(lp2654
g68
(g84
g70
NtRp2655
(dp2656
g73
(dp2657
sg82
g2651
sg75
(lp2658
g68
(g89
g70
NtRp2659
(dp2660
g73
(dp2661
g93
g94
ssg82
g2655
sg75
(lp2662
S'HTTP_ACCEPT'
p2663
asbag68
(g89
g70
NtRp2664
(dp2665
g73
(dp2666
g100
g101
ssg82
g2655
sg75
(lp2667
S':'
asbag68
(g89
g70
NtRp2668
(dp2669
g73
(dp2670
sg82
g2655
sg75
(lp2671
g68
(g69
g70
NtRp2672
(dp2673
g73
(dp2674
g81
I3
ssg82
g2668
sg75
(lp2675
g853
asbasbasbag68
(g84
g70
NtRp2676
(dp2677
g73
(dp2678
sg82
g2651
sg75
(lp2679
g68
(g89
g70
NtRp2680
(dp2681
g73
(dp2682
g93
g94
ssg82
g2676
sg75
(lp2683
S'HTTP_ACCEPT_ENCODING'
p2684
asbag68
(g89
g70
NtRp2685
(dp2686
g73
(dp2687
g100
g101
ssg82
g2676
sg75
(lp2688
S':'
asbag68
(g89
g70
NtRp2689
(dp2690
g73
(dp2691
sg82
g2676
sg75
(lp2692
g68
(g69
g70
NtRp2693
(dp2694
g73
(dp2695
g81
I3
ssg82
g2689
sg75
(lp2696
g875
asbasbasbag68
(g84
g70
NtRp2697
(dp2698
g73
(dp2699
sg82
g2651
sg75
(lp2700
g68
(g89
g70
NtRp2701
(dp2702
g73
(dp2703
g93
g94
ssg82
g2697
sg75
(lp2704
S'HTTP_ACCEPT_LANGUAGE'
p2705
asbag68
(g89
g70
NtRp2706
(dp2707
g73
(dp2708
g100
g101
ssg82
g2697
sg75
(lp2709
S':'
asbag68
(g89
g70
NtRp2710
(dp2711
g73
(dp2712
sg82
g2697
sg75
(lp2713
g68
(g69
g70
NtRp2714
(dp2715
g73
(dp2716
g81
I3
ssg82
g2710
sg75
(lp2717
g897
asbasbasbag68
(g84
g70
NtRp2718
(dp2719
g73
(dp2720
sg82
g2651
sg75
(lp2721
g68
(g89
g70
NtRp2722
(dp2723
g73
(dp2724
g93
g94
ssg82
g2718
sg75
(lp2725
S'HTTP_CACHE_CONTROL'
p2726
asbag68
(g89
g70
NtRp2727
(dp2728
g73
(dp2729
g100
g101
ssg82
g2718
sg75
(lp2730
S':'
asbag68
(g89
g70
NtRp2731
(dp2732
g73
(dp2733
sg82
g2718
sg75
(lp2734
g68
(g69
g70
NtRp2735
(dp2736
g73
(dp2737
g81
I3
ssg82
g2731
sg75
(lp2738
g919
asbasbasbag68
(g84
g70
NtRp2739
(dp2740
g73
(dp2741
sg82
g2651
sg75
(lp2742
g68
(g89
g70
NtRp2743
(dp2744
g73
(dp2745
g93
g94
ssg82
g2739
sg75
(lp2746
S'HTTP_CONNECTION'
p2747
asbag68
(g89
g70
NtRp2748
(dp2749
g73
(dp2750
g100
g101
ssg82
g2739
sg75
(lp2751
S':'
asbag68
(g89
g70
NtRp2752
(dp2753
g73
(dp2754
sg82
g2739
sg75
(lp2755
g68
(g69
g70
NtRp2756
(dp2757
g73
(dp2758
g81
I3
ssg82
g2752
sg75
(lp2759
g941
asbasbasbag68
(g84
g70
NtRp2760
(dp2761
g73
(dp2762
sg82
g2651
sg75
(lp2763
g68
(g89
g70
NtRp2764
(dp2765
g73
(dp2766
g93
g94
ssg82
g2760
sg75
(lp2767
S'HTTP_COOKIE'
p2768
asbag68
(g89
g70
NtRp2769
(dp2770
g73
(dp2771
g100
g101
ssg82
g2760
sg75
(lp2772
S':'
asbag68
(g89
g70
NtRp2773
(dp2774
g73
(dp2775
sg82
g2760
sg75
(lp2776
g68
(g69
g70
NtRp2777
(dp2778
g73
(dp2779
g81
I3
ssg82
g2773
sg75
(lp2780
g963
asbasbasbag68
(g84
g70
NtRp2781
(dp2782
g73
(dp2783
sg82
g2651
sg75
(lp2784
g68
(g89
g70
NtRp2785
(dp2786
g73
(dp2787
g93
g94
ssg82
g2781
sg75
(lp2788
S'HTTP_HOST'
p2789
asbag68
(g89
g70
NtRp2790
(dp2791
g73
(dp2792
g100
g101
ssg82
g2781
sg75
(lp2793
S':'
asbag68
(g89
g70
NtRp2794
(dp2795
g73
(dp2796
sg82
g2781
sg75
(lp2797
g68
(g69
g70
NtRp2798
(dp2799
g73
(dp2800
g81
I3
ssg82
g2794
sg75
(lp2801
g985
asbasbasbag68
(g84
g70
NtRp2802
(dp2803
g73
(dp2804
sg82
g2651
sg75
(lp2805
g68
(g89
g70
NtRp2806
(dp2807
g73
(dp2808
g93
g94
ssg82
g2802
sg75
(lp2809
S'HTTP_USER_AGENT'
p2810
asbag68
(g89
g70
NtRp2811
(dp2812
g73
(dp2813
g100
g101
ssg82
g2802
sg75
(lp2814
S':'
asbag68
(g89
g70
NtRp2815
(dp2816
g73
(dp2817
sg82
g2802
sg75
(lp2818
g68
(g69
g70
NtRp2819
(dp2820
g73
(dp2821
g81
I3
ssg82
g2815
sg75
(lp2822
g1007
asbasbasbag68
(g84
g70
NtRp2823
(dp2824
g73
(dp2825
sg82
g2651
sg75
(lp2826
g68
(g89
g70
NtRp2827
(dp2828
g73
(dp2829
g93
g94
ssg82
g2823
sg75
(lp2830
S'PATH_INFO'
p2831
asbag68
(g89
g70
NtRp2832
(dp2833
g73
(dp2834
g100
g101
ssg82
g2823
sg75
(lp2835
S':'
asbag68
(g89
g70
NtRp2836
(dp2837
g73
(dp2838
sg82
g2823
sg75
(lp2839
g68
(g69
g70
NtRp2840
(dp2841
g73
(dp2842
g81
I3
ssg82
g2836
sg75
(lp2843
g1148
asbasbasbag68
(g84
g70
NtRp2844
(dp2845
g73
(dp2846
sg82
g2651
sg75
(lp2847
g68
(g89
g70
NtRp2848
(dp2849
g73
(dp2850
g93
g94
ssg82
g2844
sg75
(lp2851
S'QUERY_STRING'
p2852
asbag68
(g89
g70
NtRp2853
(dp2854
g73
(dp2855
g100
g101
ssg82
g2844
sg75
(lp2856
S':'
asbag68
(g89
g70
NtRp2857
(dp2858
g73
(dp2859
sg82
g2844
sg75
(lp2860
g68
(g69
g70
NtRp2861
(dp2862
g73
(dp2863
g81
I3
ssg82
g2857
sg75
(lp2864
g1170
asbasbasbag68
(g84
g70
NtRp2865
(dp2866
g73
(dp2867
sg82
g2651
sg75
(lp2868
g68
(g89
g70
NtRp2869
(dp2870
g73
(dp2871
g93
g94
ssg82
g2865
sg75
(lp2872
S'REMOTE_ADDR'
p2873
asbag68
(g89
g70
NtRp2874
(dp2875
g73
(dp2876
g100
g101
ssg82
g2865
sg75
(lp2877
S':'
asbag68
(g89
g70
NtRp2878
(dp2879
g73
(dp2880
sg82
g2865
sg75
(lp2881
g68
(g69
g70
NtRp2882
(dp2883
g73
(dp2884
g81
I3
ssg82
g2878
sg75
(lp2885
g223
asbasbasbag68
(g84
g70
NtRp2886
(dp2887
g73
(dp2888
sg82
g2651
sg75
(lp2889
g68
(g89
g70
NtRp2890
(dp2891
g73
(dp2892
g93
g94
ssg82
g2886
sg75
(lp2893
S'REMOTE_PORT'
p2894
asbag68
(g89
g70
NtRp2895
(dp2896
g73
(dp2897
g100
g101
ssg82
g2886
sg75
(lp2898
S':'
asbag68
(g89
g70
NtRp2899
(dp2900
g73
(dp2901
sg82
g2886
sg75
(lp2902
g68
(g69
g70
NtRp2903
(dp2904
g73
(dp2905
g81
I3
ssg82
g2899
sg75
(lp2906
g1213
asbasbasbag68
(g84
g70
NtRp2907
(dp2908
g73
(dp2909
sg82
g2651
sg75
(lp2910
g68
(g89
g70
NtRp2911
(dp2912
g73
(dp2913
g93
g94
ssg82
g2907
sg75
(lp2914
S'REQUEST_METHOD'
p2915
asbag68
(g89
g70
NtRp2916
(dp2917
g73
(dp2918
g100
g101
ssg82
g2907
sg75
(lp2919
S':'
asbag68
(g89
g70
NtRp2920
(dp2921
g73
(dp2922
sg82
g2907
sg75
(lp2923
g68
(g69
g70
NtRp2924
(dp2925
g73
(dp2926
g81
I3
ssg82
g2920
sg75
(lp2927
g1235
asbasbasbag68
(g84
g70
NtRp2928
(dp2929
g73
(dp2930
sg82
g2651
sg75
(lp2931
g68
(g89
g70
NtRp2932
(dp2933
g73
(dp2934
g93
g94
ssg82
g2928
sg75
(lp2935
S'REQUEST_URI'
p2936
asbag68
(g89
g70
NtRp2937
(dp2938
g73
(dp2939
g100
g101
ssg82
g2928
sg75
(lp2940
S':'
asbag68
(g89
g70
NtRp2941
(dp2942
g73
(dp2943
sg82
g2928
sg75
(lp2944
g68
(g69
g70
NtRp2945
(dp2946
g73
(dp2947
g81
I3
ssg82
g2941
sg75
(lp2948
g1257
asbasbasbag68
(g84
g70
NtRp2949
(dp2950
g73
(dp2951
sg82
g2651
sg75
(lp2952
g68
(g89
g70
NtRp2953
(dp2954
g73
(dp2955
g93
g94
ssg82
g2949
sg75
(lp2956
S'SCRIPT_NAME'
p2957
asbag68
(g89
g70
NtRp2958
(dp2959
g73
(dp2960
g100
g101
ssg82
g2949
sg75
(lp2961
S':'
asbag68
(g89
g70
NtRp2962
(dp2963
g73
(dp2964
sg82
g2949
sg75
(lp2965
g68
(g69
g70
NtRp2966
(dp2967
g73
(dp2968
g81
I3
ssg82
g2962
sg75
(lp2969
S''
asbasbasbag68
(g84
g70
NtRp2970
(dp2971
g73
(dp2972
sg82
g2651
sg75
(lp2973
g68
(g89
g70
NtRp2974
(dp2975
g73
(dp2976
g93
g94
ssg82
g2970
sg75
(lp2977
S'SERVER_NAME'
p2978
asbag68
(g89
g70
NtRp2979
(dp2980
g73
(dp2981
g100
g101
ssg82
g2970
sg75
(lp2982
S':'
asbag68
(g89
g70
NtRp2983
(dp2984
g73
(dp2985
sg82
g2970
sg75
(lp2986
g68
(g69
g70
NtRp2987
(dp2988
g73
(dp2989
g81
I3
ssg82
g2983
sg75
(lp2990
g1300
asbasbasbag68
(g84
g70
NtRp2991
(dp2992
g73
(dp2993
sg82
g2651
sg75
(lp2994
g68
(g89
g70
NtRp2995
(dp2996
g73
(dp2997
g93
g94
ssg82
g2991
sg75
(lp2998
S'SERVER_PORT'
p2999
asbag68
(g89
g70
NtRp3000
(dp3001
g73
(dp3002
g100
g101
ssg82
g2991
sg75
(lp3003
S':'
asbag68
(g89
g70
NtRp3004
(dp3005
g73
(dp3006
sg82
g2991
sg75
(lp3007
g68
(g69
g70
NtRp3008
(dp3009
g73
(dp3010
g81
I3
ssg82
g3004
sg75
(lp3011
g1322
asbasbasbag68
(g84
g70
NtRp3012
(dp3013
g73
(dp3014
sg82
g2651
sg75
(lp3015
g68
(g89
g70
NtRp3016
(dp3017
g73
(dp3018
g93
g94
ssg82
g3012
sg75
(lp3019
S'SERVER_PROTOCOL'
p3020
asbag68
(g89
g70
NtRp3021
(dp3022
g73
(dp3023
g100
g101
ssg82
g3012
sg75
(lp3024
S':'
asbag68
(g89
g70
NtRp3025
(dp3026
g73
(dp3027
sg82
g3012
sg75
(lp3028
g68
(g69
g70
NtRp3029
(dp3030
g73
(dp3031
g81
I3
ssg82
g3025
sg75
(lp3032
g1344
asbasbasbag68
(g84
g70
NtRp3033
(dp3034
g73
(dp3035
sg82
g2651
sg75
(lp3036
g68
(g89
g70
NtRp3037
(dp3038
g73
(dp3039
g93
g94
ssg82
g3033
sg75
(lp3040
S'SERVER_SOFTWARE'
p3041
asbag68
(g89
g70
NtRp3042
(dp3043
g73
(dp3044
g100
g101
ssg82
g3033
sg75
(lp3045
S':'
asbag68
(g89
g70
NtRp3046
(dp3047
g73
(dp3048
sg82
g3033
sg75
(lp3049
g68
(g69
g70
NtRp3050
(dp3051
g73
(dp3052
g81
I3
ssg82
g3046
sg75
(lp3053
g1366
asbasbasbag68
(g84
g70
NtRp3054
(dp3055
g73
(dp3056
sg82
g2651
sg75
(lp3057
g68
(g89
g70
NtRp3058
(dp3059
g73
(dp3060
g93
g94
ssg82
g3054
sg75
(lp3061
S'WEB2PY_ORIGINAL_URI'
p3062
asbag68
(g89
g70
NtRp3063
(dp3064
g73
(dp3065
g100
g101
ssg82
g3054
sg75
(lp3066
S':'
asbag68
(g89
g70
NtRp3067
(dp3068
g73
(dp3069
sg82
g3054
sg75
(lp3070
g68
(g69
g70
NtRp3071
(dp3072
g73
(dp3073
g81
I3
ssg82
g3067
sg75
(lp3074
g1388
asbasbasbag68
(g84
g70
NtRp3075
(dp3076
g73
(dp3077
sg82
g2651
sg75
(lp3078
g68
(g89
g70
NtRp3079
(dp3080
g73
(dp3081
g93
g94
ssg82
g3075
sg75
(lp3082
S'wsgi.errors'
p3083
asbag68
(g89
g70
NtRp3084
(dp3085
g73
(dp3086
g100
g101
ssg82
g3075
sg75
(lp3087
S':'
asbag68
(g89
g70
NtRp3088
(dp3089
g73
(dp3090
sg82
g3075
sg75
(lp3091
g68
(g69
g70
NtRp3092
(dp3093
g73
(dp3094
g81
I3
ssg82
g3088
sg75
(lp3095
S"<open file '<stderr>', mode 'w' at 0x7f4ea2f90270>"
p3096
asbasbasbag68
(g84
g70
NtRp3097
(dp3098
g73
(dp3099
sg82
g2651
sg75
(lp3100
g68
(g89
g70
NtRp3101
(dp3102
g73
(dp3103
g93
g94
ssg82
g3097
sg75
(lp3104
S'wsgi.file_wrapper'
p3105
asbag68
(g89
g70
NtRp3106
(dp3107
g73
(dp3108
g100
g101
ssg82
g3097
sg75
(lp3109
S':'
asbag68
(g89
g70
NtRp3110
(dp3111
g73
(dp3112
sg82
g3097
sg75
(lp3113
g68
(g69
g70
NtRp3114
(dp3115
g73
(dp3116
g81
I3
ssg82
g3110
sg75
(lp3117
S'<class wsgiref.util.FileWrapper at 0x18ec4c8>'
p3118
asbasbasbag68
(g84
g70
NtRp3119
(dp3120
g73
(dp3121
sg82
g2651
sg75
(lp3122
g68
(g89
g70
NtRp3123
(dp3124
g73
(dp3125
g93
g94
ssg82
g3119
sg75
(lp3126
S'wsgi.input'
p3127
asbag68
(g89
g70
NtRp3128
(dp3129
g73
(dp3130
g100
g101
ssg82
g3119
sg75
(lp3131
S':'
asbag68
(g89
g70
NtRp3132
(dp3133
g73
(dp3134
sg82
g3119
sg75
(lp3135
g68
(g69
g70
NtRp3136
(dp3137
g73
(dp3138
g81
I3
ssg82
g3132
sg75
(lp3139
S'<cStringIO.StringO object at 0x7f4e902817a0>'
p3140
asbasbasbag68
(g84
g70
NtRp3141
(dp3142
g73
(dp3143
sg82
g2651
sg75
(lp3144
g68
(g89
g70
NtRp3145
(dp3146
g73
(dp3147
g93
g94
ssg82
g3141
sg75
(lp3148
S'wsgi.multiprocess'
p3149
asbag68
(g89
g70
NtRp3150
(dp3151
g73
(dp3152
g100
g101
ssg82
g3141
sg75
(lp3153
S':'
asbag68
(g89
g70
NtRp3154
(dp3155
g73
(dp3156
sg82
g3141
sg75
(lp3157
g68
(g69
g70
NtRp3158
(dp3159
g73
(dp3160
g81
I3
ssg82
g3154
sg75
(lp3161
g111
asbasbasbag68
(g84
g70
NtRp3162
(dp3163
g73
(dp3164
sg82
g2651
sg75
(lp3165
g68
(g89
g70
NtRp3166
(dp3167
g73
(dp3168
g93
g94
ssg82
g3162
sg75
(lp3169
S'wsgi.multithread'
p3170
asbag68
(g89
g70
NtRp3171
(dp3172
g73
(dp3173
g100
g101
ssg82
g3162
sg75
(lp3174
S':'
asbag68
(g89
g70
NtRp3175
(dp3176
g73
(dp3177
sg82
g3162
sg75
(lp3178
g68
(g69
g70
NtRp3179
(dp3180
g73
(dp3181
g81
I3
ssg82
g3175
sg75
(lp3182
g1605
asbasbasbag68
(g84
g70
NtRp3183
(dp3184
g73
(dp3185
sg82
g2651
sg75
(lp3186
g68
(g89
g70
NtRp3187
(dp3188
g73
(dp3189
g93
g94
ssg82
g3183
sg75
(lp3190
S'wsgi.run_once'
p3191
asbag68
(g89
g70
NtRp3192
(dp3193
g73
(dp3194
g100
g101
ssg82
g3183
sg75
(lp3195
S':'
asbag68
(g89
g70
NtRp3196
(dp3197
g73
(dp3198
sg82
g3183
sg75
(lp3199
g68
(g69
g70
NtRp3200
(dp3201
g73
(dp3202
g81
I3
ssg82
g3196
sg75
(lp3203
g111
asbasbasbag68
(g84
g70
NtRp3204
(dp3205
g73
(dp3206
sg82
g2651
sg75
(lp3207
g68
(g89
g70
NtRp3208
(dp3209
g73
(dp3210
g93
g94
ssg82
g3204
sg75
(lp3211
S'wsgi.url_scheme'
p3212
asbag68
(g89
g70
NtRp3213
(dp3214
g73
(dp3215
g100
g101
ssg82
g3204
sg75
(lp3216
S':'
asbag68
(g89
g70
NtRp3217
(dp3218
g73
(dp3219
sg82
g3204
sg75
(lp3220
g68
(g69
g70
NtRp3221
(dp3222
g73
(dp3223
g81
I3
ssg82
g3217
sg75
(lp3224
g1648
asbasbasbag68
(g84
g70
NtRp3225
(dp3226
g73
(dp3227
sg82
g2651
sg75
(lp3228
g68
(g89
g70
NtRp3229
(dp3230
g73
(dp3231
g93
g94
ssg82
g3225
sg75
(lp3232
S'wsgi.version'
p3233
asbag68
(g89
g70
NtRp3234
(dp3235
g73
(dp3236
g100
g101
ssg82
g3225
sg75
(lp3237
S':'
asbag68
(g89
g70
NtRp3238
(dp3239
g73
(dp3240
sg82
g3225
sg75
(lp3241
g68
(g69
g70
NtRp3242
(dp3243
g73
(dp3244
g81
I3
ssg82
g3238
sg75
(lp3245
S'1'
asbasbasbasbasbasbasbasbasbasbasbasbasbsS'frames'
p3246
(lp3247
(dp3248
S'file'
p3249
S'/var/www/hosts3/gluon/restricted.py'
p3250
sS'dump'
p3251
(dp3252
S'code'
p3253
S'r"response.write(\'<!DOCTYPE html>\\n<!-- paulirish....></script>-->\\n</body>\\n</html>\\n\', escape=False)"'
p3254
sS'layer'
p3255
S"'/var/www/hosts3/applications/projeto/views/initial/detalhes_host.html'"
p3256
sS'global compile2'
p3257
S'<function compile2>'
p3258
sS'ccode'
p3259
S'undefined'
p3260
ssS'lnum'
p3261
I211
sS'lines'
p3262
(dp3263
I206
S"    environment['__name__'] = '__restricted__'"
p3264
sI207
S'    try:'
p3265
sI208
S'        if isinstance(code, types.CodeType):'
p3266
sI209
S'            ccode = code'
p3267
sI210
S'        else:'
p3268
sI211
S'            ccode = compile2(code, layer)'
p3269
sI212
S'        exec ccode in environment'
p3270
sI213
S'    except HTTP:'
p3271
sI214
S'        raise'
p3272
sI215
S'    except RestrictedError:'
p3273
ssS'call'
p3274
S'(code=r"response.write(\'<!DOCTYPE html>\\n<!-- paulirish....></script>-->\\n</body>\\n</html>\\n\', escape=False)", environment={\'A\': <class \'gluon.html.A\'>, \'Auth\': <class \'gluon.tools.Auth\'>, \'B\': <class \'gluon.html.B\'>, \'BEAUTIFY\': <class \'gluon.html.BEAUTIFY\'>, \'BODY\': <class \'gluon.html.BODY\'>, \'BR\': <class \'gluon.html.BR\'>, \'BUTTON\': <class \'gluon.html.BUTTON\'>, \'CAT\': <class \'gluon.html.CAT\'>, \'CENTER\': <class \'gluon.html.CENTER\'>, \'CLEANUP\': <class \'gluon.validators.CLEANUP\'>, ...}, layer=\'/var/www/hosts3/applications/projeto/views/initial/detalhes_host.html\')'
p3275
sS'func'
p3276
S'restricted'
p3277
sa(dp3278
g3249
S'/var/www/hosts3/gluon/restricted.py'
p3279
sg3251
(dp3280
S'builtincompile'
p3281
S'<built-in function compile>'
p3282
sS'code'
p3283
S'r"response.write(\'<!DOCTYPE html>\\n<!-- paulirish....></script>-->\\n</body>\\n</html>\\n\', escape=False)"'
p3284
sS'code.rstrip'
p3285
S'<built-in method rstrip of str object>'
p3286
sS').replace'
p3287
g3260
sS'layer'
p3288
S"'/var/www/hosts3/applications/projeto/views/initial/detalhes_host.html'"
p3289
ssg3261
I194
sg3262
(dp3290
I192
S"    The +'\\n' is necessary else compile fails when code ends in a comment."
p3291
sI193
S'    """'
p3292
sI194
S"    return compile(code.rstrip().replace('\\r\\n', '\\n') + '\\n', layer, 'exec')"
p3293
sI195
S''
sI196
S''
sI197
S"def restricted(code, environment=None, layer='Unknown'):"
p3294
sI198
S'    """'
p3295
sI189
S''
sI190
S'def compile2(code, layer):'
p3296
sI191
S'    """'
p3297
ssg3274
S'(code=r"response.write(\'<!DOCTYPE html>\\n<!-- paulirish....></script>-->\\n</body>\\n</html>\\n\', escape=False)", layer=\'/var/www/hosts3/applications/projeto/views/initial/detalhes_host.html\')'
p3298
sg3276
S'compile2'
p3299
sasS'pyver'
p3300
S'Python 2.7.3: /usr/bin/python'
p3301
sS'session'
p3302
g68
(g69
g70
NtRp3303
(dp3304
g73
(dp3305
sg75
(lp3306
g68
(g77
g70
NtRp3307
(dp3308
g73
(dp3309
g81
I5
ssg82
Nsg75
(lp3310
g68
(g84
g70
NtRp3311
(dp3312
g73
(dp3313
sg82
g3307
sg75
(lp3314
g68
(g89
g70
NtRp3315
(dp3316
g73
(dp3317
g93
g94
ssg82
g3311
sg75
(lp3318
S'auth'
p3319
asbag68
(g89
g70
NtRp3320
(dp3321
g73
(dp3322
g100
g101
ssg82
g3311
sg75
(lp3323
S':'
asbag68
(g89
g70
NtRp3324
(dp3325
g73
(dp3326
sg82
g3311
sg75
(lp3327
g68
(g69
g70
NtRp3328
(dp3329
g73
(dp3330
g81
I5
ssg82
g3324
sg75
(lp3331
g68
(g77
g70
NtRp3332
(dp3333
g73
(dp3334
g81
I4
ssg82
Nsg75
(lp3335
g68
(g84
g70
NtRp3336
(dp3337
g73
(dp3338
sg82
g3332
sg75
(lp3339
g68
(g89
g70
NtRp3340
(dp3341
g73
(dp3342
g93
g94
ssg82
g3336
sg75
(lp3343
S'expiration'
p3344
asbag68
(g89
g70
NtRp3345
(dp3346
g73
(dp3347
g100
g101
ssg82
g3336
sg75
(lp3348
S':'
asbag68
(g89
g70
NtRp3349
(dp3350
g73
(dp3351
sg82
g3336
sg75
(lp3352
g68
(g69
g70
NtRp3353
(dp3354
g73
(dp3355
g81
I4
ssg82
g3349
sg75
(lp3356
S'3600'
p3357
asbasbasbag68
(g84
g70
NtRp3358
(dp3359
g73
(dp3360
sg82
g3332
sg75
(lp3361
g68
(g89
g70
NtRp3362
(dp3363
g73
(dp3364
g93
g94
ssg82
g3358
sg75
(lp3365
S'hmac_key'
p3366
asbag68
(g89
g70
NtRp3367
(dp3368
g73
(dp3369
g100
g101
ssg82
g3358
sg75
(lp3370
S':'
asbag68
(g89
g70
NtRp3371
(dp3372
g73
(dp3373
sg82
g3358
sg75
(lp3374
g68
(g69
g70
NtRp3375
(dp3376
g73
(dp3377
g81
I4
ssg82
g3371
sg75
(lp3378
S'3d2a4915-9a03-4647-b883-52927347191e'
p3379
asbasbasbag68
(g84
g70
NtRp3380
(dp3381
g73
(dp3382
sg82
g3332
sg75
(lp3383
g68
(g89
g70
NtRp3384
(dp3385
g73
(dp3386
g93
g94
ssg82
g3380
sg75
(lp3387
S'last_visit'
p3388
asbag68
(g89
g70
NtRp3389
(dp3390
g73
(dp3391
g100
g101
ssg82
g3380
sg75
(lp3392
S':'
asbag68
(g89
g70
NtRp3393
(dp3394
g73
(dp3395
sg82
g3380
sg75
(lp3396
g68
(g69
g70
NtRp3397
(dp3398
g73
(dp3399
g81
I4
ssg82
g3393
sg75
(lp3400
S'datetime.datetime(2014, 2, 6, 11, 1, 38, 269602)'
p3401
asbasbasbag68
(g84
g70
NtRp3402
(dp3403
g73
(dp3404
sg82
g3332
sg75
(lp3405
g68
(g89
g70
NtRp3406
(dp3407
g73
(dp3408
g93
g94
ssg82
g3402
sg75
(lp3409
S'remember'
p3410
asbag68
(g89
g70
NtRp3411
(dp3412
g73
(dp3413
g100
g101
ssg82
g3402
sg75
(lp3414
S':'
asbag68
(g89
g70
NtRp3415
(dp3416
g73
(dp3417
sg82
g3402
sg75
(lp3418
g68
(g69
g70
NtRp3419
(dp3420
g73
(dp3421
g81
I4
ssg82
g3415
sg75
(lp3422
g111
asbasbasbag68
(g84
g70
NtRp3423
(dp3424
g73
(dp3425
sg82
g3332
sg75
(lp3426
g68
(g89
g70
NtRp3427
(dp3428
g73
(dp3429
g93
g94
ssg82
g3423
sg75
(lp3430
S'user'
p3431
asbag68
(g89
g70
NtRp3432
(dp3433
g73
(dp3434
g100
g101
ssg82
g3423
sg75
(lp3435
S':'
asbag68
(g89
g70
NtRp3436
(dp3437
g73
(dp3438
sg82
g3423
sg75
(lp3439
g68
(g69
g70
NtRp3440
(dp3441
g73
(dp3442
g81
I4
ssg82
g3436
sg75
(lp3443
g68
(g77
g70
NtRp3444
(dp3445
g73
(dp3446
g81
I3
ssg82
Nsg75
(lp3447
g68
(g84
g70
NtRp3448
(dp3449
g73
(dp3450
sg82
g3444
sg75
(lp3451
g68
(g89
g70
NtRp3452
(dp3453
g73
(dp3454
g93
g94
ssg82
g3448
sg75
(lp3455
S'email'
p3456
asbag68
(g89
g70
NtRp3457
(dp3458
g73
(dp3459
g100
g101
ssg82
g3448
sg75
(lp3460
S':'
asbag68
(g89
g70
NtRp3461
(dp3462
g73
(dp3463
sg82
g3448
sg75
(lp3464
g68
(g69
g70
NtRp3465
(dp3466
g73
(dp3467
g81
I3
ssg82
g3461
sg75
(lp3468
S'andre@ad2.com.br'
p3469
asbasbasbag68
(g84
g70
NtRp3470
(dp3471
g73
(dp3472
sg82
g3444
sg75
(lp3473
g68
(g89
g70
NtRp3474
(dp3475
g73
(dp3476
g93
g94
ssg82
g3470
sg75
(lp3477
S'first_name'
p3478
asbag68
(g89
g70
NtRp3479
(dp3480
g73
(dp3481
g100
g101
ssg82
g3470
sg75
(lp3482
S':'
asbag68
(g89
g70
NtRp3483
(dp3484
g73
(dp3485
sg82
g3470
sg75
(lp3486
g68
(g69
g70
NtRp3487
(dp3488
g73
(dp3489
g81
I3
ssg82
g3483
sg75
(lp3490
S'Andre'
p3491
asbasbasbag68
(g84
g70
NtRp3492
(dp3493
g73
(dp3494
sg82
g3444
sg75
(lp3495
g68
(g89
g70
NtRp3496
(dp3497
g73
(dp3498
g93
g94
ssg82
g3492
sg75
(lp3499
S'id'
p3500
asbag68
(g89
g70
NtRp3501
(dp3502
g73
(dp3503
g100
g101
ssg82
g3492
sg75
(lp3504
S':'
asbag68
(g89
g70
NtRp3505
(dp3506
g73
(dp3507
sg82
g3492
sg75
(lp3508
g68
(g69
g70
NtRp3509
(dp3510
g73
(dp3511
g81
I3
ssg82
g3505
sg75
(lp3512
S'2'
asbasbasbag68
(g84
g70
NtRp3513
(dp3514
g73
(dp3515
sg82
g3444
sg75
(lp3516
g68
(g89
g70
NtRp3517
(dp3518
g73
(dp3519
g93
g94
ssg82
g3513
sg75
(lp3520
S'last_name'
p3521
asbag68
(g89
g70
NtRp3522
(dp3523
g73
(dp3524
g100
g101
ssg82
g3513
sg75
(lp3525
S':'
asbag68
(g89
g70
NtRp3526
(dp3527
g73
(dp3528
sg82
g3513
sg75
(lp3529
g68
(g69
g70
NtRp3530
(dp3531
g73
(dp3532
g81
I3
ssg82
g3526
sg75
(lp3533
S'Lu\xc3\xads'
p3534
asbasbasbag68
(g84
g70
NtRp3535
(dp3536
g73
(dp3537
sg82
g3444
sg75
(lp3538
g68
(g89
g70
NtRp3539
(dp3540
g73
(dp3541
g93
g94
ssg82
g3535
sg75
(lp3542
S'registration_id'
p3543
asbag68
(g89
g70
NtRp3544
(dp3545
g73
(dp3546
g100
g101
ssg82
g3535
sg75
(lp3547
S':'
asbag68
(g89
g70
NtRp3548
(dp3549
g73
(dp3550
sg82
g3535
sg75
(lp3551
g68
(g69
g70
NtRp3552
(dp3553
g73
(dp3554
g81
I3
ssg82
g3548
sg75
(lp3555
S''
asbasbasbag68
(g84
g70
NtRp3556
(dp3557
g73
(dp3558
sg82
g3444
sg75
(lp3559
g68
(g89
g70
NtRp3560
(dp3561
g73
(dp3562
g93
g94
ssg82
g3556
sg75
(lp3563
S'registration_key'
p3564
asbag68
(g89
g70
NtRp3565
(dp3566
g73
(dp3567
g100
g101
ssg82
g3556
sg75
(lp3568
S':'
asbag68
(g89
g70
NtRp3569
(dp3570
g73
(dp3571
sg82
g3556
sg75
(lp3572
g68
(g69
g70
NtRp3573
(dp3574
g73
(dp3575
g81
I3
ssg82
g3569
sg75
(lp3576
S''
asbasbasbag68
(g84
g70
NtRp3577
(dp3578
g73
(dp3579
sg82
g3444
sg75
(lp3580
g68
(g89
g70
NtRp3581
(dp3582
g73
(dp3583
g93
g94
ssg82
g3577
sg75
(lp3584
S'reset_password_key'
p3585
asbag68
(g89
g70
NtRp3586
(dp3587
g73
(dp3588
g100
g101
ssg82
g3577
sg75
(lp3589
S':'
asbag68
(g89
g70
NtRp3590
(dp3591
g73
(dp3592
sg82
g3577
sg75
(lp3593
g68
(g69
g70
NtRp3594
(dp3595
g73
(dp3596
g81
I3
ssg82
g3590
sg75
(lp3597
S''
asbasbasbasbasbasbasbag68
(g84
g70
NtRp3598
(dp3599
g73
(dp3600
sg82
g3332
sg75
(lp3601
g68
(g89
g70
NtRp3602
(dp3603
g73
(dp3604
g93
g94
ssg82
g3598
sg75
(lp3605
S'user_groups'
p3606
asbag68
(g89
g70
NtRp3607
(dp3608
g73
(dp3609
g100
g101
ssg82
g3598
sg75
(lp3610
S':'
asbag68
(g89
g70
NtRp3611
(dp3612
g73
(dp3613
sg82
g3598
sg75
(lp3614
g68
(g69
g70
NtRp3615
(dp3616
g73
(dp3617
g81
I4
ssg82
g3611
sg75
(lp3618
g68
(g77
g70
NtRp3619
(dp3620
g73
(dp3621
g81
I3
ssg82
Nsg75
(lp3622
g68
(g84
g70
NtRp3623
(dp3624
g73
(dp3625
sg82
g3619
sg75
(lp3626
g68
(g89
g70
NtRp3627
(dp3628
g73
(dp3629
g93
g94
ssg82
g3623
sg75
(lp3630
S'2'
asbag68
(g89
g70
NtRp3631
(dp3632
g73
(dp3633
g100
g101
ssg82
g3623
sg75
(lp3634
S':'
asbag68
(g89
g70
NtRp3635
(dp3636
g73
(dp3637
sg82
g3623
sg75
(lp3638
g68
(g69
g70
NtRp3639
(dp3640
g73
(dp3641
g81
I3
ssg82
g3635
sg75
(lp3642
S'group2'
p3643
asbasbasbag68
(g84
g70
NtRp3644
(dp3645
g73
(dp3646
sg82
g3619
sg75
(lp3647
g68
(g89
g70
NtRp3648
(dp3649
g73
(dp3650
g93
g94
ssg82
g3644
sg75
(lp3651
S'8'
asbag68
(g89
g70
NtRp3652
(dp3653
g73
(dp3654
g100
g101
ssg82
g3644
sg75
(lp3655
S':'
asbag68
(g89
g70
NtRp3656
(dp3657
g73
(dp3658
sg82
g3644
sg75
(lp3659
g68
(g69
g70
NtRp3660
(dp3661
g73
(dp3662
g81
I3
ssg82
g3656
sg75
(lp3663
S'internet'
p3664
asbasbasbasbasbasbasbasbasbasbasbag68
(g84
g70
NtRp3665
(dp3666
g73
(dp3667
sg82
g3307
sg75
(lp3668
g68
(g89
g70
NtRp3669
(dp3670
g73
(dp3671
g93
g94
ssg82
g3665
sg75
(lp3672
S'flash'
p3673
asbag68
(g89
g70
NtRp3674
(dp3675
g73
(dp3676
g100
g101
ssg82
g3665
sg75
(lp3677
S':'
asbag68
(g89
g70
NtRp3678
(dp3679
g73
(dp3680
sg82
g3665
sg75
(lp3681
g68
(g69
g70
NtRp3682
(dp3683
g73
(dp3684
g81
I5
ssg82
g3678
sg75
(lp3685
S'None'
p3686
asbasbasbasbasbsS'etype'
p3687
S"<type 'exceptions.SyntaxError'>"
p3688
sS'date'
p3689
S'Thu Feb  6 11:04:34 2014'
p3690
sS'response'
p3691
g68
(g69
g70
NtRp3692
(dp3693
g73
(dp3694
sg75
(lp3695
g68
(g77
g70
NtRp3696
(dp3697
g73
(dp3698
g81
I5
ssg82
Nsg75
(lp3699
g68
(g84
g70
NtRp3700
(dp3701
g73
(dp3702
sg82
g3696
sg75
(lp3703
g68
(g89
g70
NtRp3704
(dp3705
g73
(dp3706
g93
g94
ssg82
g3700
sg75
(lp3707
g166
asbag68
(g89
g70
NtRp3708
(dp3709
g73
(dp3710
g100
g101
ssg82
g3700
sg75
(lp3711
S':'
asbag68
(g89
g70
NtRp3712
(dp3713
g73
(dp3714
sg82
g3700
sg75
(lp3715
g68
(g69
g70
NtRp3716
(dp3717
g73
(dp3718
g81
I5
ssg82
g3712
sg75
(lp3719
S'<cStringIO.StringO object at 0x7f4e8425e148>'
p3720
asbasbasbag68
(g84
g70
NtRp3721
(dp3722
g73
(dp3723
sg82
g3696
sg75
(lp3724
g68
(g89
g70
NtRp3725
(dp3726
g73
(dp3727
g93
g94
ssg82
g3721
sg75
(lp3728
g254
asbag68
(g89
g70
NtRp3729
(dp3730
g73
(dp3731
g100
g101
ssg82
g3721
sg75
(lp3732
S':'
asbag68
(g89
g70
NtRp3733
(dp3734
g73
(dp3735
sg82
g3721
sg75
(lp3736
g68
(g69
g70
NtRp3737
(dp3738
g73
(dp3739
g81
I5
ssg82
g3733
sg75
(lp3740
g68
(g77
g70
NtRp3741
(dp3742
g73
(dp3743
g81
I4
ssg82
Nsg75
(lp3744
g68
(g84
g70
NtRp3745
(dp3746
g73
(dp3747
sg82
g3741
sg75
(lp3748
g68
(g89
g70
NtRp3749
(dp3750
g73
(dp3751
g93
g94
ssg82
g3745
sg75
(lp3752
S'session_id_projeto'
p3753
asbag68
(g89
g70
NtRp3754
(dp3755
g73
(dp3756
g100
g101
ssg82
g3745
sg75
(lp3757
S':'
asbag68
(g89
g70
NtRp3758
(dp3759
g73
(dp3760
sg82
g3745
sg75
(lp3761
g68
(g69
g70
NtRp3762
(dp3763
g73
(dp3764
g81
I4
ssg82
g3758
sg75
(lp3765
g486
ag68
(g77
g70
NtRp3766
(dp3767
g73
(dp3768
g81
I3
ssg82
Nsg75
(lp3769
g68
(g84
g70
NtRp3770
(dp3771
g73
(dp3772
sg82
g3766
sg75
(lp3773
g68
(g89
g70
NtRp3774
(dp3775
g73
(dp3776
g93
g94
ssg82
g3770
sg75
(lp3777
g305
asbag68
(g89
g70
NtRp3778
(dp3779
g73
(dp3780
g100
g101
ssg82
g3770
sg75
(lp3781
S':'
asbag68
(g89
g70
NtRp3782
(dp3783
g73
(dp3784
sg82
g3770
sg75
(lp3785
g68
(g69
g70
NtRp3786
(dp3787
g73
(dp3788
g81
I3
ssg82
g3782
sg75
(lp3789
S''
asbasbasbag68
(g84
g70
NtRp3790
(dp3791
g73
(dp3792
sg82
g3766
sg75
(lp3793
g68
(g89
g70
NtRp3794
(dp3795
g73
(dp3796
g93
g94
ssg82
g3790
sg75
(lp3797
g326
asbag68
(g89
g70
NtRp3798
(dp3799
g73
(dp3800
g100
g101
ssg82
g3790
sg75
(lp3801
S':'
asbag68
(g89
g70
NtRp3802
(dp3803
g73
(dp3804
sg82
g3790
sg75
(lp3805
g68
(g69
g70
NtRp3806
(dp3807
g73
(dp3808
g81
I3
ssg82
g3802
sg75
(lp3809
S''
asbasbasbag68
(g84
g70
NtRp3810
(dp3811
g73
(dp3812
sg82
g3766
sg75
(lp3813
g68
(g89
g70
NtRp3814
(dp3815
g73
(dp3816
g93
g94
ssg82
g3810
sg75
(lp3817
g347
asbag68
(g89
g70
NtRp3818
(dp3819
g73
(dp3820
g100
g101
ssg82
g3810
sg75
(lp3821
S':'
asbag68
(g89
g70
NtRp3822
(dp3823
g73
(dp3824
sg82
g3810
sg75
(lp3825
g68
(g69
g70
NtRp3826
(dp3827
g73
(dp3828
g81
I3
ssg82
g3822
sg75
(lp3829
S''
asbasbasbag68
(g84
g70
NtRp3830
(dp3831
g73
(dp3832
sg82
g3766
sg75
(lp3833
g68
(g89
g70
NtRp3834
(dp3835
g73
(dp3836
g93
g94
ssg82
g3830
sg75
(lp3837
g368
asbag68
(g89
g70
NtRp3838
(dp3839
g73
(dp3840
g100
g101
ssg82
g3830
sg75
(lp3841
S':'
asbag68
(g89
g70
NtRp3842
(dp3843
g73
(dp3844
sg82
g3830
sg75
(lp3845
g68
(g69
g70
NtRp3846
(dp3847
g73
(dp3848
g81
I3
ssg82
g3842
sg75
(lp3849
S''
asbasbasbag68
(g84
g70
NtRp3850
(dp3851
g73
(dp3852
sg82
g3766
sg75
(lp3853
g68
(g89
g70
NtRp3854
(dp3855
g73
(dp3856
g93
g94
ssg82
g3850
sg75
(lp3857
g389
asbag68
(g89
g70
NtRp3858
(dp3859
g73
(dp3860
g100
g101
ssg82
g3850
sg75
(lp3861
S':'
asbag68
(g89
g70
NtRp3862
(dp3863
g73
(dp3864
sg82
g3850
sg75
(lp3865
g68
(g69
g70
NtRp3866
(dp3867
g73
(dp3868
g81
I3
ssg82
g3862
sg75
(lp3869
S''
asbasbasbag68
(g84
g70
NtRp3870
(dp3871
g73
(dp3872
sg82
g3766
sg75
(lp3873
g68
(g89
g70
NtRp3874
(dp3875
g73
(dp3876
g93
g94
ssg82
g3870
sg75
(lp3877
g410
asbag68
(g89
g70
NtRp3878
(dp3879
g73
(dp3880
g100
g101
ssg82
g3870
sg75
(lp3881
S':'
asbag68
(g89
g70
NtRp3882
(dp3883
g73
(dp3884
sg82
g3870
sg75
(lp3885
g68
(g69
g70
NtRp3886
(dp3887
g73
(dp3888
g81
I3
ssg82
g3882
sg75
(lp3889
S'/'
asbasbasbag68
(g84
g70
NtRp3890
(dp3891
g73
(dp3892
sg82
g3766
sg75
(lp3893
g68
(g89
g70
NtRp3894
(dp3895
g73
(dp3896
g93
g94
ssg82
g3890
sg75
(lp3897
g431
asbag68
(g89
g70
NtRp3898
(dp3899
g73
(dp3900
g100
g101
ssg82
g3890
sg75
(lp3901
S':'
asbag68
(g89
g70
NtRp3902
(dp3903
g73
(dp3904
sg82
g3890
sg75
(lp3905
g68
(g69
g70
NtRp3906
(dp3907
g73
(dp3908
g81
I3
ssg82
g3902
sg75
(lp3909
S''
asbasbasbag68
(g84
g70
NtRp3910
(dp3911
g73
(dp3912
sg82
g3766
sg75
(lp3913
g68
(g89
g70
NtRp3914
(dp3915
g73
(dp3916
g93
g94
ssg82
g3910
sg75
(lp3917
g452
asbag68
(g89
g70
NtRp3918
(dp3919
g73
(dp3920
g100
g101
ssg82
g3910
sg75
(lp3921
S':'
asbag68
(g89
g70
NtRp3922
(dp3923
g73
(dp3924
sg82
g3910
sg75
(lp3925
g68
(g69
g70
NtRp3926
(dp3927
g73
(dp3928
g81
I3
ssg82
g3922
sg75
(lp3929
S''
asbasbasbasbasbasbasbasbasbasbasbag68
(g84
g70
NtRp3930
(dp3931
g73
(dp3932
sg82
g3696
sg75
(lp3933
g68
(g89
g70
NtRp3934
(dp3935
g73
(dp3936
g93
g94
ssg82
g3930
sg75
(lp3937
S'delimiters'
p3938
asbag68
(g89
g70
NtRp3939
(dp3940
g73
(dp3941
g100
g101
ssg82
g3930
sg75
(lp3942
S':'
asbag68
(g89
g70
NtRp3943
(dp3944
g73
(dp3945
sg82
g3930
sg75
(lp3946
g68
(g69
g70
NtRp3947
(dp3948
g73
(dp3949
g81
I5
ssg82
g3943
sg75
(lp3950
g68
(g77
g70
NtRp3951
(dp3952
g73
(dp3953
g81
I4
ssg82
Nsg75
(lp3954
g68
(g84
g70
NtRp3955
(dp3956
g73
(dp3957
sg82
g3951
sg75
(lp3958
g68
(g89
g70
NtRp3959
(dp3960
g73
(dp3961
sg82
g3955
sg75
(lp3962
g68
(g69
g70
NtRp3963
(dp3964
g73
(dp3965
g81
I4
ssg82
g3959
sg75
(lp3966
S'{{'
p3967
asbasbasbag68
(g84
g70
NtRp3968
(dp3969
g73
(dp3970
sg82
g3951
sg75
(lp3971
g68
(g89
g70
NtRp3972
(dp3973
g73
(dp3974
sg82
g3968
sg75
(lp3975
g68
(g69
g70
NtRp3976
(dp3977
g73
(dp3978
g81
I4
ssg82
g3972
sg75
(lp3979
S'}}'
p3980
asbasbasbasbasbasbasbag68
(g84
g70
NtRp3981
(dp3982
g73
(dp3983
sg82
g3696
sg75
(lp3984
g68
(g89
g70
NtRp3985
(dp3986
g73
(dp3987
g93
g94
ssg82
g3981
sg75
(lp3988
S'files'
p3989
asbag68
(g89
g70
NtRp3990
(dp3991
g73
(dp3992
g100
g101
ssg82
g3981
sg75
(lp3993
S':'
asbag68
(g89
g70
NtRp3994
(dp3995
g73
(dp3996
sg82
g3981
sg75
(lp3997
g68
(g69
g70
NtRp3998
(dp3999
g73
(dp4000
g81
I5
ssg82
g3994
sg75
(lp4001
g68
(g77
g70
NtRp4002
(dp4003
g73
(dp4004
g81
I4
ssg82
Nsg75
(lp4005
sbasbasbasbag68
(g84
g70
NtRp4006
(dp4007
g73
(dp4008
sg82
g3696
sg75
(lp4009
g68
(g89
g70
NtRp4010
(dp4011
g73
(dp4012
g93
g94
ssg82
g4006
sg75
(lp4013
S'flash'
p4014
asbag68
(g89
g70
NtRp4015
(dp4016
g73
(dp4017
g100
g101
ssg82
g4006
sg75
(lp4018
S':'
asbag68
(g89
g70
NtRp4019
(dp4020
g73
(dp4021
sg82
g4006
sg75
(lp4022
g68
(g69
g70
NtRp4023
(dp4024
g73
(dp4025
g81
I5
ssg82
g4019
sg75
(lp4026
S''
asbasbasbag68
(g84
g70
NtRp4027
(dp4028
g73
(dp4029
sg82
g3696
sg75
(lp4030
g68
(g89
g70
NtRp4031
(dp4032
g73
(dp4033
g93
g94
ssg82
g4027
sg75
(lp4034
S'generic_patterns'
p4035
asbag68
(g89
g70
NtRp4036
(dp4037
g73
(dp4038
g100
g101
ssg82
g4027
sg75
(lp4039
S':'
asbag68
(g89
g70
NtRp4040
(dp4041
g73
(dp4042
sg82
g4027
sg75
(lp4043
g68
(g69
g70
NtRp4044
(dp4045
g73
(dp4046
g81
I5
ssg82
g4040
sg75
(lp4047
g68
(g77
g70
NtRp4048
(dp4049
g73
(dp4050
g81
I4
ssg82
Nsg75
(lp4051
g68
(g84
g70
NtRp4052
(dp4053
g73
(dp4054
sg82
g4048
sg75
(lp4055
g68
(g89
g70
NtRp4056
(dp4057
g73
(dp4058
sg82
g4052
sg75
(lp4059
g68
(g69
g70
NtRp4060
(dp4061
g73
(dp4062
g81
I4
ssg82
g4056
sg75
(lp4063
S'*'
asbasbasbasbasbasbasbag68
(g84
g70
NtRp4064
(dp4065
g73
(dp4066
sg82
g3696
sg75
(lp4067
g68
(g89
g70
NtRp4068
(dp4069
g73
(dp4070
g93
g94
ssg82
g4064
sg75
(lp4071
S'google_analytics_id'
p4072
asbag68
(g89
g70
NtRp4073
(dp4074
g73
(dp4075
g100
g101
ssg82
g4064
sg75
(lp4076
S':'
asbag68
(g89
g70
NtRp4077
(dp4078
g73
(dp4079
sg82
g4064
sg75
(lp4080
g68
(g69
g70
NtRp4081
(dp4082
g73
(dp4083
g81
I5
ssg82
g4077
sg75
(lp4084
S'None'
p4085
asbasbasbag68
(g84
g70
NtRp4086
(dp4087
g73
(dp4088
sg82
g3696
sg75
(lp4089
g68
(g89
g70
NtRp4090
(dp4091
g73
(dp4092
g93
g94
ssg82
g4086
sg75
(lp4093
S'headers'
p4094
asbag68
(g89
g70
NtRp4095
(dp4096
g73
(dp4097
g100
g101
ssg82
g4086
sg75
(lp4098
S':'
asbag68
(g89
g70
NtRp4099
(dp4100
g73
(dp4101
sg82
g4086
sg75
(lp4102
g68
(g69
g70
NtRp4103
(dp4104
g73
(dp4105
g81
I5
ssg82
g4099
sg75
(lp4106
g68
(g77
g70
NtRp4107
(dp4108
g73
(dp4109
g81
I4
ssg82
Nsg75
(lp4110
g68
(g84
g70
NtRp4111
(dp4112
g73
(dp4113
sg82
g4107
sg75
(lp4114
g68
(g89
g70
NtRp4115
(dp4116
g73
(dp4117
g93
g94
ssg82
g4111
sg75
(lp4118
S'X-Powered-By'
p4119
asbag68
(g89
g70
NtRp4120
(dp4121
g73
(dp4122
g100
g101
ssg82
g4111
sg75
(lp4123
S':'
asbag68
(g89
g70
NtRp4124
(dp4125
g73
(dp4126
sg82
g4111
sg75
(lp4127
g68
(g69
g70
NtRp4128
(dp4129
g73
(dp4130
g81
I4
ssg82
g4124
sg75
(lp4131
S'web2py'
p4132
asbasbasbasbasbasbasbag68
(g84
g70
NtRp4133
(dp4134
g73
(dp4135
sg82
g3696
sg75
(lp4136
g68
(g89
g70
NtRp4137
(dp4138
g73
(dp4139
g93
g94
ssg82
g4133
sg75
(lp4140
S'logo'
p4141
asbag68
(g89
g70
NtRp4142
(dp4143
g73
(dp4144
g100
g101
ssg82
g4133
sg75
(lp4145
S':'
asbag68
(g89
g70
NtRp4146
(dp4147
g73
(dp4148
sg82
g4133
sg75
(lp4149
g68
(g69
g70
NtRp4150
(dp4151
g73
(dp4152
g81
I5
ssg82
g4146
sg75
(lp4153
g68
(cgluon.html
A
p4154
g70
NtRp4155
(dp4156
g73
(dp4157
S'_class'
p4158
S'brand'
p4159
sS'_href'
p4160
S'principal'
p4161
ssg82
Nsg75
(lp4162
g68
(cgluon.html
B
p4163
g70
NtRp4164
(dp4165
g73
(dp4166
sg82
g4155
sg75
(lp4167
S'hosts'
p4168
ag68
(cgluon.html
SPAN
p4169
g70
NtRp4170
(dp4171
g73
(dp4172
sg82
g4164
sg75
(lp4173
S'3'
asbaS''
asbacgluon.html
XML_unpickle
p4174
(S's\r\x00\x00\x00&trade;&nbsp;'
tRp4175
asbasbasbasbag68
(g84
g70
NtRp4176
(dp4177
g73
(dp4178
sg82
g3696
sg75
(lp4179
g68
(g89
g70
NtRp4180
(dp4181
g73
(dp4182
g93
g94
ssg82
g4176
sg75
(lp4183
S'menu'
p4184
asbag68
(g89
g70
NtRp4185
(dp4186
g73
(dp4187
g100
g101
ssg82
g4176
sg75
(lp4188
S':'
asbag68
(g89
g70
NtRp4189
(dp4190
g73
(dp4191
sg82
g4176
sg75
(lp4192
g68
(g69
g70
NtRp4193
(dp4194
g73
(dp4195
g81
I5
ssg82
g4189
sg75
(lp4196
g68
(g77
g70
NtRp4197
(dp4198
g73
(dp4199
g81
I4
ssg82
Nsg75
(lp4200
g68
(g84
g70
NtRp4201
(dp4202
g73
(dp4203
sg82
g4197
sg75
(lp4204
g68
(g89
g70
NtRp4205
(dp4206
g73
(dp4207
sg82
g4201
sg75
(lp4208
g68
(g69
g70
NtRp4209
(dp4210
g73
(dp4211
g81
I4
ssg82
g4205
sg75
(lp4212
g68
(g77
g70
NtRp4213
(dp4214
g73
(dp4215
g81
I3
ssg82
Nsg75
(lp4216
g68
(g84
g70
NtRp4217
(dp4218
g73
(dp4219
sg82
g4213
sg75
(lp4220
g68
(g89
g70
NtRp4221
(dp4222
g73
(dp4223
sg82
g4217
sg75
(lp4224
g68
(g69
g70
NtRp4225
(dp4226
g73
(dp4227
g81
I3
ssg82
g4221
sg75
(lp4228
cgluon.languages
lazyT_unpickle
p4229
(S't\x08\x00\x00\x00Clientes'
tRp4230
asbasbasbag68
(g84
g70
NtRp4231
(dp4232
g73
(dp4233
sg82
g4213
sg75
(lp4234
g68
(g89
g70
NtRp4235
(dp4236
g73
(dp4237
sg82
g4231
sg75
(lp4238
g68
(g69
g70
NtRp4239
(dp4240
g73
(dp4241
g81
I3
ssg82
g4235
sg75
(lp4242
g111
asbasbasbag68
(g84
g70
NtRp4243
(dp4244
g73
(dp4245
sg82
g4213
sg75
(lp4246
g68
(g89
g70
NtRp4247
(dp4248
g73
(dp4249
sg82
g4243
sg75
(lp4250
g68
(g69
g70
NtRp4251
(dp4252
g73
(dp4253
g81
I3
ssg82
g4247
sg75
(lp4254
S'/show_cliente'
p4255
asbasbasbag68
(g84
g70
NtRp4256
(dp4257
g73
(dp4258
sg82
g4213
sg75
(lp4259
g68
(g89
g70
NtRp4260
(dp4261
g73
(dp4262
sg82
g4256
sg75
(lp4263
g68
(g69
g70
NtRp4264
(dp4265
g73
(dp4266
g81
I3
ssg82
g4260
sg75
(lp4267
g68
(g77
g70
NtRp4268
(dp4269
g73
(dp4270
g81
I2
ssg82
Nsg75
(lp4271
sbasbasbasbasbasbasbasbag68
(g84
g70
NtRp4272
(dp4273
g73
(dp4274
sg82
g4197
sg75
(lp4275
g68
(g89
g70
NtRp4276
(dp4277
g73
(dp4278
sg82
g4272
sg75
(lp4279
g68
(g69
g70
NtRp4280
(dp4281
g73
(dp4282
g81
I4
ssg82
g4276
sg75
(lp4283
g68
(g77
g70
NtRp4284
(dp4285
g73
(dp4286
g81
I3
ssg82
Nsg75
(lp4287
g68
(g84
g70
NtRp4288
(dp4289
g73
(dp4290
sg82
g4284
sg75
(lp4291
g68
(g89
g70
NtRp4292
(dp4293
g73
(dp4294
sg82
g4288
sg75
(lp4295
g68
(g69
g70
NtRp4296
(dp4297
g73
(dp4298
g81
I3
ssg82
g4292
sg75
(lp4299
g4229
(S't\n\x00\x00\x00Servidores'
tRp4300
asbasbasbag68
(g84
g70
NtRp4301
(dp4302
g73
(dp4303
sg82
g4284
sg75
(lp4304
g68
(g89
g70
NtRp4305
(dp4306
g73
(dp4307
sg82
g4301
sg75
(lp4308
g68
(g69
g70
NtRp4309
(dp4310
g73
(dp4311
g81
I3
ssg82
g4305
sg75
(lp4312
g111
asbasbasbag68
(g84
g70
NtRp4313
(dp4314
g73
(dp4315
sg82
g4284
sg75
(lp4316
g68
(g89
g70
NtRp4317
(dp4318
g73
(dp4319
sg82
g4313
sg75
(lp4320
g68
(g69
g70
NtRp4321
(dp4322
g73
(dp4323
g81
I3
ssg82
g4317
sg75
(lp4324
S'/show_servidor'
p4325
asbasbasbag68
(g84
g70
NtRp4326
(dp4327
g73
(dp4328
sg82
g4284
sg75
(lp4329
g68
(g89
g70
NtRp4330
(dp4331
g73
(dp4332
sg82
g4326
sg75
(lp4333
g68
(g69
g70
NtRp4334
(dp4335
g73
(dp4336
g81
I3
ssg82
g4330
sg75
(lp4337
g68
(g77
g70
NtRp4338
(dp4339
g73
(dp4340
g81
I2
ssg82
Nsg75
(lp4341
sbasbasbasbasbasbasbasbag68
(g84
g70
NtRp4342
(dp4343
g73
(dp4344
sg82
g4197
sg75
(lp4345
g68
(g89
g70
NtRp4346
(dp4347
g73
(dp4348
sg82
g4342
sg75
(lp4349
g68
(g69
g70
NtRp4350
(dp4351
g73
(dp4352
g81
I4
ssg82
g4346
sg75
(lp4353
g68
(g77
g70
NtRp4354
(dp4355
g73
(dp4356
g81
I3
ssg82
Nsg75
(lp4357
g68
(g84
g70
NtRp4358
(dp4359
g73
(dp4360
sg82
g4354
sg75
(lp4361
g68
(g89
g70
NtRp4362
(dp4363
g73
(dp4364
sg82
g4358
sg75
(lp4365
g68
(g69
g70
NtRp4366
(dp4367
g73
(dp4368
g81
I3
ssg82
g4362
sg75
(lp4369
g4229
(S't\x07\x00\x00\x00Distros'
tRp4370
asbasbasbag68
(g84
g70
NtRp4371
(dp4372
g73
(dp4373
sg82
g4354
sg75
(lp4374
g68
(g89
g70
NtRp4375
(dp4376
g73
(dp4377
sg82
g4371
sg75
(lp4378
g68
(g69
g70
NtRp4379
(dp4380
g73
(dp4381
g81
I3
ssg82
g4375
sg75
(lp4382
g111
asbasbasbag68
(g84
g70
NtRp4383
(dp4384
g73
(dp4385
sg82
g4354
sg75
(lp4386
g68
(g89
g70
NtRp4387
(dp4388
g73
(dp4389
sg82
g4383
sg75
(lp4390
g68
(g69
g70
NtRp4391
(dp4392
g73
(dp4393
g81
I3
ssg82
g4387
sg75
(lp4394
S'/show_distro'
p4395
asbasbasbag68
(g84
g70
NtRp4396
(dp4397
g73
(dp4398
sg82
g4354
sg75
(lp4399
g68
(g89
g70
NtRp4400
(dp4401
g73
(dp4402
sg82
g4396
sg75
(lp4403
g68
(g69
g70
NtRp4404
(dp4405
g73
(dp4406
g81
I3
ssg82
g4400
sg75
(lp4407
g68
(g77
g70
NtRp4408
(dp4409
g73
(dp4410
g81
I2
ssg82
Nsg75
(lp4411
sbasbasbasbasbasbasbasbag68
(g84
g70
NtRp4412
(dp4413
g73
(dp4414
sg82
g4197
sg75
(lp4415
g68
(g89
g70
NtRp4416
(dp4417
g73
(dp4418
sg82
g4412
sg75
(lp4419
g68
(g69
g70
NtRp4420
(dp4421
g73
(dp4422
g81
I4
ssg82
g4416
sg75
(lp4423
g68
(g77
g70
NtRp4424
(dp4425
g73
(dp4426
g81
I3
ssg82
Nsg75
(lp4427
g68
(g84
g70
NtRp4428
(dp4429
g73
(dp4430
sg82
g4424
sg75
(lp4431
g68
(g89
g70
NtRp4432
(dp4433
g73
(dp4434
sg82
g4428
sg75
(lp4435
g68
(g69
g70
NtRp4436
(dp4437
g73
(dp4438
g81
I3
ssg82
g4432
sg75
(lp4439
g4229
(S's\x05\x00\x00\x00+host'
tRp4440
asbasbasbag68
(g84
g70
NtRp4441
(dp4442
g73
(dp4443
sg82
g4424
sg75
(lp4444
g68
(g89
g70
NtRp4445
(dp4446
g73
(dp4447
sg82
g4441
sg75
(lp4448
g68
(g69
g70
NtRp4449
(dp4450
g73
(dp4451
g81
I3
ssg82
g4445
sg75
(lp4452
g111
asbasbasbag68
(g84
g70
NtRp4453
(dp4454
g73
(dp4455
sg82
g4424
sg75
(lp4456
g68
(g89
g70
NtRp4457
(dp4458
g73
(dp4459
sg82
g4453
sg75
(lp4460
g68
(g69
g70
NtRp4461
(dp4462
g73
(dp4463
g81
I3
ssg82
g4457
sg75
(lp4464
S'/interface'
p4465
asbasbasbag68
(g84
g70
NtRp4466
(dp4467
g73
(dp4468
sg82
g4424
sg75
(lp4469
g68
(g89
g70
NtRp4470
(dp4471
g73
(dp4472
sg82
g4466
sg75
(lp4473
g68
(g69
g70
NtRp4474
(dp4475
g73
(dp4476
g81
I3
ssg82
g4470
sg75
(lp4477
g68
(g77
g70
NtRp4478
(dp4479
g73
(dp4480
g81
I2
ssg82
Nsg75
(lp4481
sbasbasbasbasbasbasbasbasbasbasbasbag68
(g84
g70
NtRp4482
(dp4483
g73
(dp4484
sg82
g3696
sg75
(lp4485
g68
(g89
g70
NtRp4486
(dp4487
g73
(dp4488
g93
g94
ssg82
g4482
sg75
(lp4489
S'menu2'
p4490
asbag68
(g89
g70
NtRp4491
(dp4492
g73
(dp4493
g100
g101
ssg82
g4482
sg75
(lp4494
S':'
asbag68
(g89
g70
NtRp4495
(dp4496
g73
(dp4497
sg82
g4482
sg75
(lp4498
g68
(g69
g70
NtRp4499
(dp4500
g73
(dp4501
g81
I5
ssg82
g4495
sg75
(lp4502
g68
(g77
g70
NtRp4503
(dp4504
g73
(dp4505
g81
I4
ssg82
Nsg75
(lp4506
g68
(g84
g70
NtRp4507
(dp4508
g73
(dp4509
sg82
g4503
sg75
(lp4510
g68
(g89
g70
NtRp4511
(dp4512
g73
(dp4513
sg82
g4507
sg75
(lp4514
g68
(g69
g70
NtRp4515
(dp4516
g73
(dp4517
g81
I4
ssg82
g4511
sg75
(lp4518
g68
(g77
g70
NtRp4519
(dp4520
g73
(dp4521
g81
I3
ssg82
Nsg75
(lp4522
g68
(g84
g70
NtRp4523
(dp4524
g73
(dp4525
sg82
g4519
sg75
(lp4526
g68
(g89
g70
NtRp4527
(dp4528
g73
(dp4529
sg82
g4523
sg75
(lp4530
g68
(g69
g70
NtRp4531
(dp4532
g73
(dp4533
g81
I3
ssg82
g4527
sg75
(lp4534
g68
(g4169
g70
NtRp4535
(dp4536
g73
(dp4537
g4158
S'dropdown-toggle'
p4538
ssg82
Nsg75
(lp4539
S'Admin'
p4540
asbasbasbasbag68
(g84
g70
NtRp4541
(dp4542
g73
(dp4543
sg82
g4519
sg75
(lp4544
g68
(g89
g70
NtRp4545
(dp4546
g73
(dp4547
sg82
g4541
sg75
(lp4548
g68
(g69
g70
NtRp4549
(dp4550
g73
(dp4551
g81
I3
ssg82
g4545
sg75
(lp4552
g111
asbasbasbag68
(g84
g70
NtRp4553
(dp4554
g73
(dp4555
sg82
g4519
sg75
(lp4556
g68
(g89
g70
NtRp4557
(dp4558
g73
(dp4559
sg82
g4553
sg75
(lp4560
g68
(g69
g70
NtRp4561
(dp4562
g73
(dp4563
g81
I3
ssg82
g4557
sg75
(lp4564
S'#'
asbasbasbag68
(g84
g70
NtRp4565
(dp4566
g73
(dp4567
sg82
g4519
sg75
(lp4568
g68
(g89
g70
NtRp4569
(dp4570
g73
(dp4571
sg82
g4565
sg75
(lp4572
g68
(g69
g70
NtRp4573
(dp4574
g73
(dp4575
g81
I3
ssg82
g4569
sg75
(lp4576
g68
(g77
g70
NtRp4577
(dp4578
g73
(dp4579
g81
I2
ssg82
Nsg75
(lp4580
g68
(g84
g70
NtRp4581
(dp4582
g73
(dp4583
sg82
g4577
sg75
(lp4584
g68
(g89
g70
NtRp4585
(dp4586
g73
(dp4587
sg82
g4581
sg75
(lp4588
g68
(g69
g70
NtRp4589
(dp4590
g73
(dp4591
g81
I2
ssg82
g4585
sg75
(lp4592
g68
(g77
g70
NtRp4593
(dp4594
g73
(dp4595
g81
I1
ssg82
Nsg75
(lp4596
g68
(g84
g70
NtRp4597
(dp4598
g73
(dp4599
sg82
g4593
sg75
(lp4600
g68
(g89
g70
NtRp4601
(dp4602
g73
(dp4603
sg82
g4597
sg75
(lp4604
g68
(g69
g70
NtRp4605
(dp4606
g73
(dp4607
g81
I1
ssg82
g4601
sg75
(lp4608
g4229
(S's\t\x00\x00\x00Usu\xc3\xa1rios'
tRp4609
asbasbasbag68
(g84
g70
NtRp4610
(dp4611
g73
(dp4612
sg82
g4593
sg75
(lp4613
g68
(g89
g70
NtRp4614
(dp4615
g73
(dp4616
sg82
g4610
sg75
(lp4617
g68
(g69
g70
NtRp4618
(dp4619
g73
(dp4620
g81
I1
ssg82
g4614
sg75
(lp4621
I00
asbasbasbag68
(g84
g70
NtRp4622
(dp4623
g73
(dp4624
sg82
g4593
sg75
(lp4625
g68
(g89
g70
NtRp4626
(dp4627
g73
(dp4628
sg82
g4622
sg75
(lp4629
g68
(g69
g70
NtRp4630
(dp4631
g73
(dp4632
g81
I1
ssg82
g4626
sg75
(lp4633
S'/manager/users'
p4634
asbasbasbasbasbasbasbag68
(g84
g70
NtRp4635
(dp4636
g73
(dp4637
sg82
g4577
sg75
(lp4638
g68
(g89
g70
NtRp4639
(dp4640
g73
(dp4641
sg82
g4635
sg75
(lp4642
g68
(g69
g70
NtRp4643
(dp4644
g73
(dp4645
g81
I2
ssg82
g4639
sg75
(lp4646
g68
(g77
g70
NtRp4647
(dp4648
g73
(dp4649
g81
I1
ssg82
Nsg75
(lp4650
g68
(g84
g70
NtRp4651
(dp4652
g73
(dp4653
sg82
g4647
sg75
(lp4654
g68
(g89
g70
NtRp4655
(dp4656
g73
(dp4657
sg82
g4651
sg75
(lp4658
g68
(g69
g70
NtRp4659
(dp4660
g73
(dp4661
g81
I1
ssg82
g4655
sg75
(lp4662
g4229
(S't\x06\x00\x00\x00Grupos'
tRp4663
asbasbasbag68
(g84
g70
NtRp4664
(dp4665
g73
(dp4666
sg82
g4647
sg75
(lp4667
g68
(g89
g70
NtRp4668
(dp4669
g73
(dp4670
sg82
g4664
sg75
(lp4671
g68
(g69
g70
NtRp4672
(dp4673
g73
(dp4674
g81
I1
ssg82
g4668
sg75
(lp4675
I00
asbasbasbag68
(g84
g70
NtRp4676
(dp4677
g73
(dp4678
sg82
g4647
sg75
(lp4679
g68
(g89
g70
NtRp4680
(dp4681
g73
(dp4682
sg82
g4676
sg75
(lp4683
g68
(g69
g70
NtRp4684
(dp4685
g73
(dp4686
g81
I1
ssg82
g4680
sg75
(lp4687
S'/manager/groups'
p4688
asbasbasbasbasbasbasbag68
(g84
g70
NtRp4689
(dp4690
g73
(dp4691
sg82
g4577
sg75
(lp4692
g68
(g89
g70
NtRp4693
(dp4694
g73
(dp4695
sg82
g4689
sg75
(lp4696
g68
(g69
g70
NtRp4697
(dp4698
g73
(dp4699
g81
I2
ssg82
g4693
sg75
(lp4700
g68
(g77
g70
NtRp4701
(dp4702
g73
(dp4703
g81
I1
ssg82
Nsg75
(lp4704
g68
(g84
g70
NtRp4705
(dp4706
g73
(dp4707
sg82
g4701
sg75
(lp4708
g68
(g89
g70
NtRp4709
(dp4710
g73
(dp4711
sg82
g4705
sg75
(lp4712
g68
(g69
g70
NtRp4713
(dp4714
g73
(dp4715
g81
I1
ssg82
g4709
sg75
(lp4716
g4229
(S't\x07\x00\x00\x00Membros'
tRp4717
asbasbasbag68
(g84
g70
NtRp4718
(dp4719
g73
(dp4720
sg82
g4701
sg75
(lp4721
g68
(g89
g70
NtRp4722
(dp4723
g73
(dp4724
sg82
g4718
sg75
(lp4725
g68
(g69
g70
NtRp4726
(dp4727
g73
(dp4728
g81
I1
ssg82
g4722
sg75
(lp4729
I00
asbasbasbag68
(g84
g70
NtRp4730
(dp4731
g73
(dp4732
sg82
g4701
sg75
(lp4733
g68
(g89
g70
NtRp4734
(dp4735
g73
(dp4736
sg82
g4730
sg75
(lp4737
g68
(g69
g70
NtRp4738
(dp4739
g73
(dp4740
g81
I1
ssg82
g4734
sg75
(lp4741
S'/manager/membership'
p4742
asbasbasbasbasbasbasbasbasbasbasbasbasbasbasbag68
(g84
g70
NtRp4743
(dp4744
g73
(dp4745
sg82
g4503
sg75
(lp4746
g68
(g89
g70
NtRp4747
(dp4748
g73
(dp4749
sg82
g4743
sg75
(lp4750
g68
(g69
g70
NtRp4751
(dp4752
g73
(dp4753
g81
I4
ssg82
g4747
sg75
(lp4754
g68
(g77
g70
NtRp4755
(dp4756
g73
(dp4757
g81
I3
ssg82
Nsg75
(lp4758
g68
(g84
g70
NtRp4759
(dp4760
g73
(dp4761
sg82
g4755
sg75
(lp4762
g68
(g89
g70
NtRp4763
(dp4764
g73
(dp4765
sg82
g4759
sg75
(lp4766
g68
(g69
g70
NtRp4767
(dp4768
g73
(dp4769
g81
I3
ssg82
g4763
sg75
(lp4770
g68
(g4169
g70
NtRp4771
(dp4772
g73
(dp4773
g4158
g4538
ssg82
Nsg75
(lp4774
S'Login'
p4775
asbasbasbasbag68
(g84
g70
NtRp4776
(dp4777
g73
(dp4778
sg82
g4755
sg75
(lp4779
g68
(g89
g70
NtRp4780
(dp4781
g73
(dp4782
sg82
g4776
sg75
(lp4783
g68
(g69
g70
NtRp4784
(dp4785
g73
(dp4786
g81
I3
ssg82
g4780
sg75
(lp4787
g111
asbasbasbag68
(g84
g70
NtRp4788
(dp4789
g73
(dp4790
sg82
g4755
sg75
(lp4791
g68
(g89
g70
NtRp4792
(dp4793
g73
(dp4794
sg82
g4788
sg75
(lp4795
g68
(g69
g70
NtRp4796
(dp4797
g73
(dp4798
g81
I3
ssg82
g4792
sg75
(lp4799
S'#'
asbasbasbag68
(g84
g70
NtRp4800
(dp4801
g73
(dp4802
sg82
g4755
sg75
(lp4803
g68
(g89
g70
NtRp4804
(dp4805
g73
(dp4806
sg82
g4800
sg75
(lp4807
g68
(g69
g70
NtRp4808
(dp4809
g73
(dp4810
g81
I3
ssg82
g4804
sg75
(lp4811
g68
(g77
g70
NtRp4812
(dp4813
g73
(dp4814
g81
I2
ssg82
Nsg75
(lp4815
g68
(g84
g70
NtRp4816
(dp4817
g73
(dp4818
sg82
g4812
sg75
(lp4819
g68
(g89
g70
NtRp4820
(dp4821
g73
(dp4822
sg82
g4816
sg75
(lp4823
g68
(g69
g70
NtRp4824
(dp4825
g73
(dp4826
g81
I2
ssg82
g4820
sg75
(lp4827
g68
(g77
g70
NtRp4828
(dp4829
g73
(dp4830
g81
I1
ssg82
Nsg75
(lp4831
g68
(g84
g70
NtRp4832
(dp4833
g73
(dp4834
sg82
g4828
sg75
(lp4835
g68
(g89
g70
NtRp4836
(dp4837
g73
(dp4838
sg82
g4832
sg75
(lp4839
g68
(g69
g70
NtRp4840
(dp4841
g73
(dp4842
g81
I1
ssg82
g4836
sg75
(lp4843
g4229
(S't\x06\x00\x00\x00Logout'
tRp4844
asbasbasbag68
(g84
g70
NtRp4845
(dp4846
g73
(dp4847
sg82
g4828
sg75
(lp4848
g68
(g89
g70
NtRp4849
(dp4850
g73
(dp4851
sg82
g4845
sg75
(lp4852
g68
(g69
g70
NtRp4853
(dp4854
g73
(dp4855
g81
I1
ssg82
g4849
sg75
(lp4856
I00
asbasbasbag68
(g84
g70
NtRp4857
(dp4858
g73
(dp4859
sg82
g4828
sg75
(lp4860
g68
(g89
g70
NtRp4861
(dp4862
g73
(dp4863
sg82
g4857
sg75
(lp4864
g68
(g69
g70
NtRp4865
(dp4866
g73
(dp4867
g81
I1
ssg82
g4861
sg75
(lp4868
S'/initial/user/logout'
p4869
asbasbasbasbasbasbasbasbasbasbasbasbasbasbasbasbasbasbasbag68
(g84
g70
NtRp4870
(dp4871
g73
(dp4872
sg82
g3696
sg75
(lp4873
g68
(g89
g70
NtRp4874
(dp4875
g73
(dp4876
g93
g94
ssg82
g4870
sg75
(lp4877
S'meta'
p4878
asbag68
(g89
g70
NtRp4879
(dp4880
g73
(dp4881
g100
g101
ssg82
g4870
sg75
(lp4882
S':'
asbag68
(g89
g70
NtRp4883
(dp4884
g73
(dp4885
sg82
g4870
sg75
(lp4886
g68
(g69
g70
NtRp4887
(dp4888
g73
(dp4889
g81
I5
ssg82
g4883
sg75
(lp4890
g68
(g77
g70
NtRp4891
(dp4892
g73
(dp4893
g81
I4
ssg82
Nsg75
(lp4894
g68
(g84
g70
NtRp4895
(dp4896
g73
(dp4897
sg82
g4891
sg75
(lp4898
g68
(g89
g70
NtRp4899
(dp4900
g73
(dp4901
g93
g94
ssg82
g4895
sg75
(lp4902
S'author'
p4903
asbag68
(g89
g70
NtRp4904
(dp4905
g73
(dp4906
g100
g101
ssg82
g4895
sg75
(lp4907
S':'
asbag68
(g89
g70
NtRp4908
(dp4909
g73
(dp4910
sg82
g4895
sg75
(lp4911
g68
(g69
g70
NtRp4912
(dp4913
g73
(dp4914
g81
I4
ssg82
g4908
sg75
(lp4915
S'Your Name <you@example.com>'
p4916
asbasbasbag68
(g84
g70
NtRp4917
(dp4918
g73
(dp4919
sg82
g4891
sg75
(lp4920
g68
(g89
g70
NtRp4921
(dp4922
g73
(dp4923
g93
g94
ssg82
g4917
sg75
(lp4924
S'description'
p4925
asbag68
(g89
g70
NtRp4926
(dp4927
g73
(dp4928
g100
g101
ssg82
g4917
sg75
(lp4929
S':'
asbag68
(g89
g70
NtRp4930
(dp4931
g73
(dp4932
sg82
g4917
sg75
(lp4933
g68
(g69
g70
NtRp4934
(dp4935
g73
(dp4936
g81
I4
ssg82
g4930
sg75
(lp4937
S'a cool new app'
p4938
asbasbasbag68
(g84
g70
NtRp4939
(dp4940
g73
(dp4941
sg82
g4891
sg75
(lp4942
g68
(g89
g70
NtRp4943
(dp4944
g73
(dp4945
g93
g94
ssg82
g4939
sg75
(lp4946
S'generator'
p4947
asbag68
(g89
g70
NtRp4948
(dp4949
g73
(dp4950
g100
g101
ssg82
g4939
sg75
(lp4951
S':'
asbag68
(g89
g70
NtRp4952
(dp4953
g73
(dp4954
sg82
g4939
sg75
(lp4955
g68
(g69
g70
NtRp4956
(dp4957
g73
(dp4958
g81
I4
ssg82
g4952
sg75
(lp4959
S'Web2py Web Framework'
p4960
asbasbasbag68
(g84
g70
NtRp4961
(dp4962
g73
(dp4963
sg82
g4891
sg75
(lp4964
g68
(g89
g70
NtRp4965
(dp4966
g73
(dp4967
g93
g94
ssg82
g4961
sg75
(lp4968
S'keywords'
p4969
asbag68
(g89
g70
NtRp4970
(dp4971
g73
(dp4972
g100
g101
ssg82
g4961
sg75
(lp4973
S':'
asbag68
(g89
g70
NtRp4974
(dp4975
g73
(dp4976
sg82
g4961
sg75
(lp4977
g68
(g69
g70
NtRp4978
(dp4979
g73
(dp4980
g81
I4
ssg82
g4974
sg75
(lp4981
S'web2py, python, framework'
p4982
asbasbasbasbasbasbasbag68
(g84
g70
NtRp4983
(dp4984
g73
(dp4985
sg82
g3696
sg75
(lp4986
g68
(g89
g70
NtRp4987
(dp4988
g73
(dp4989
g93
g94
ssg82
g4983
sg75
(lp4990
S'models_to_run'
p4991
asbag68
(g89
g70
NtRp4992
(dp4993
g73
(dp4994
g100
g101
ssg82
g4983
sg75
(lp4995
S':'
asbag68
(g89
g70
NtRp4996
(dp4997
g73
(dp4998
sg82
g4983
sg75
(lp4999
g68
(g69
g70
NtRp5000
(dp5001
g73
(dp5002
g81
I5
ssg82
g4996
sg75
(lp5003
g68
(g77
g70
NtRp5004
(dp5005
g73
(dp5006
g81
I4
ssg82
Nsg75
(lp5007
g68
(g84
g70
NtRp5008
(dp5009
g73
(dp5010
sg82
g5004
sg75
(lp5011
g68
(g89
g70
NtRp5012
(dp5013
g73
(dp5014
sg82
g5008
sg75
(lp5015
g68
(g69
g70
NtRp5016
(dp5017
g73
(dp5018
g81
I4
ssg82
g5012
sg75
(lp5019
S'^\\w+\\.py$'
p5020
asbasbasbag68
(g84
g70
NtRp5021
(dp5022
g73
(dp5023
sg82
g5004
sg75
(lp5024
g68
(g89
g70
NtRp5025
(dp5026
g73
(dp5027
sg82
g5021
sg75
(lp5028
g68
(g69
g70
NtRp5029
(dp5030
g73
(dp5031
g81
I4
ssg82
g5025
sg75
(lp5032
S'^initial/\\w+\\.py$'
p5033
asbasbasbag68
(g84
g70
NtRp5034
(dp5035
g73
(dp5036
sg82
g5004
sg75
(lp5037
g68
(g89
g70
NtRp5038
(dp5039
g73
(dp5040
sg82
g5034
sg75
(lp5041
g68
(g69
g70
NtRp5042
(dp5043
g73
(dp5044
g81
I4
ssg82
g5038
sg75
(lp5045
S'^initial/detalhes_nav/\\w+\\.py$'
p5046
asbasbasbasbasbasbasbag68
(g84
g70
NtRp5047
(dp5048
g73
(dp5049
sg82
g3696
sg75
(lp5050
g68
(g89
g70
NtRp5051
(dp5052
g73
(dp5053
g93
g94
ssg82
g5047
sg75
(lp5054
S'postprocessing'
p5055
asbag68
(g89
g70
NtRp5056
(dp5057
g73
(dp5058
g100
g101
ssg82
g5047
sg75
(lp5059
S':'
asbag68
(g89
g70
NtRp5060
(dp5061
g73
(dp5062
sg82
g5047
sg75
(lp5063
g68
(g69
g70
NtRp5064
(dp5065
g73
(dp5066
g81
I5
ssg82
g5060
sg75
(lp5067
g68
(g77
g70
NtRp5068
(dp5069
g73
(dp5070
g81
I4
ssg82
Nsg75
(lp5071
sbasbasbasbag68
(g84
g70
NtRp5072
(dp5073
g73
(dp5074
sg82
g3696
sg75
(lp5075
g68
(g89
g70
NtRp5076
(dp5077
g73
(dp5078
g93
g94
ssg82
g5072
sg75
(lp5079
S'session_cookie_expires'
p5080
asbag68
(g89
g70
NtRp5081
(dp5082
g73
(dp5083
g100
g101
ssg82
g5072
sg75
(lp5084
S':'
asbag68
(g89
g70
NtRp5085
(dp5086
g73
(dp5087
sg82
g5072
sg75
(lp5088
g68
(g69
g70
NtRp5089
(dp5090
g73
(dp5091
g81
I5
ssg82
g5085
sg75
(lp5092
S'None'
p5093
asbasbasbag68
(g84
g70
NtRp5094
(dp5095
g73
(dp5096
sg82
g3696
sg75
(lp5097
g68
(g89
g70
NtRp5098
(dp5099
g73
(dp5100
g93
g94
ssg82
g5094
sg75
(lp5101
S'session_data_name'
p5102
asbag68
(g89
g70
NtRp5103
(dp5104
g73
(dp5105
g100
g101
ssg82
g5094
sg75
(lp5106
S':'
asbag68
(g89
g70
NtRp5107
(dp5108
g73
(dp5109
sg82
g5094
sg75
(lp5110
g68
(g69
g70
NtRp5111
(dp5112
g73
(dp5113
g81
I5
ssg82
g5107
sg75
(lp5114
S'session_data_projeto'
p5115
asbasbasbag68
(g84
g70
NtRp5116
(dp5117
g73
(dp5118
sg82
g3696
sg75
(lp5119
g68
(g89
g70
NtRp5120
(dp5121
g73
(dp5122
g93
g94
ssg82
g5116
sg75
(lp5123
S'session_file'
p5124
asbag68
(g89
g70
NtRp5125
(dp5126
g73
(dp5127
g100
g101
ssg82
g5116
sg75
(lp5128
S':'
asbag68
(g89
g70
NtRp5129
(dp5130
g73
(dp5131
sg82
g5116
sg75
(lp5132
g68
(g69
g70
NtRp5133
(dp5134
g73
(dp5135
g81
I5
ssg82
g5129
sg75
(lp5136
S"<open file '/var/www/hosts3/applications/projeto/sessions/127.0.0.1-b62d7e8b-74ab-4f83-89b2-ac56f3d74e01', mode 'rb+' at 0x7f4e680be9c0>"
p5137
asbasbasbag68
(g84
g70
NtRp5138
(dp5139
g73
(dp5140
sg82
g3696
sg75
(lp5141
g68
(g89
g70
NtRp5142
(dp5143
g73
(dp5144
g93
g94
ssg82
g5138
sg75
(lp5145
S'session_filename'
p5146
asbag68
(g89
g70
NtRp5147
(dp5148
g73
(dp5149
g100
g101
ssg82
g5138
sg75
(lp5150
S':'
asbag68
(g89
g70
NtRp5151
(dp5152
g73
(dp5153
sg82
g5138
sg75
(lp5154
g68
(g69
g70
NtRp5155
(dp5156
g73
(dp5157
g81
I5
ssg82
g5151
sg75
(lp5158
S'/var/www/hosts3/applications/projeto/sessions/127.0.0.1-b62d7e8b-74ab-4f83-89b2-ac56f3d74e01'
p5159
asbasbasbag68
(g84
g70
NtRp5160
(dp5161
g73
(dp5162
sg82
g3696
sg75
(lp5163
g68
(g89
g70
NtRp5164
(dp5165
g73
(dp5166
g93
g94
ssg82
g5160
sg75
(lp5167
S'session_id'
p5168
asbag68
(g89
g70
NtRp5169
(dp5170
g73
(dp5171
g100
g101
ssg82
g5160
sg75
(lp5172
S':'
asbag68
(g89
g70
NtRp5173
(dp5174
g73
(dp5175
sg82
g5160
sg75
(lp5176
g68
(g69
g70
NtRp5177
(dp5178
g73
(dp5179
g81
I5
ssg82
g5173
sg75
(lp5180
g486
asbasbasbag68
(g84
g70
NtRp5181
(dp5182
g73
(dp5183
sg82
g3696
sg75
(lp5184
g68
(g89
g70
NtRp5185
(dp5186
g73
(dp5187
g93
g94
ssg82
g5181
sg75
(lp5188
S'session_id_name'
p5189
asbag68
(g89
g70
NtRp5190
(dp5191
g73
(dp5192
g100
g101
ssg82
g5181
sg75
(lp5193
S':'
asbag68
(g89
g70
NtRp5194
(dp5195
g73
(dp5196
sg82
g5181
sg75
(lp5197
g68
(g69
g70
NtRp5198
(dp5199
g73
(dp5200
g81
I5
ssg82
g5194
sg75
(lp5201
g3753
asbasbasbag68
(g84
g70
NtRp5202
(dp5203
g73
(dp5204
sg82
g3696
sg75
(lp5205
g68
(g89
g70
NtRp5206
(dp5207
g73
(dp5208
g93
g94
ssg82
g5202
sg75
(lp5209
S'session_locked'
p5210
asbag68
(g89
g70
NtRp5211
(dp5212
g73
(dp5213
g100
g101
ssg82
g5202
sg75
(lp5214
S':'
asbag68
(g89
g70
NtRp5215
(dp5216
g73
(dp5217
sg82
g5202
sg75
(lp5218
g68
(g69
g70
NtRp5219
(dp5220
g73
(dp5221
g81
I5
ssg82
g5215
sg75
(lp5222
g1605
asbasbasbag68
(g84
g70
NtRp5223
(dp5224
g73
(dp5225
sg82
g3696
sg75
(lp5226
g68
(g89
g70
NtRp5227
(dp5228
g73
(dp5229
g93
g94
ssg82
g5223
sg75
(lp5230
S'session_new'
p5231
asbag68
(g89
g70
NtRp5232
(dp5233
g73
(dp5234
g100
g101
ssg82
g5223
sg75
(lp5235
S':'
asbag68
(g89
g70
NtRp5236
(dp5237
g73
(dp5238
sg82
g5223
sg75
(lp5239
g68
(g69
g70
NtRp5240
(dp5241
g73
(dp5242
g81
I5
ssg82
g5236
sg75
(lp5243
g111
asbasbasbag68
(g84
g70
NtRp5244
(dp5245
g73
(dp5246
sg82
g3696
sg75
(lp5247
g68
(g89
g70
NtRp5248
(dp5249
g73
(dp5250
g93
g94
ssg82
g5244
sg75
(lp5251
S'session_storage_type'
p5252
asbag68
(g89
g70
NtRp5253
(dp5254
g73
(dp5255
g100
g101
ssg82
g5244
sg75
(lp5256
S':'
asbag68
(g89
g70
NtRp5257
(dp5258
g73
(dp5259
sg82
g5244
sg75
(lp5260
g68
(g69
g70
NtRp5261
(dp5262
g73
(dp5263
g81
I5
ssg82
g5257
sg75
(lp5264
g3249
asbasbasbag68
(g84
g70
NtRp5265
(dp5266
g73
(dp5267
sg82
g3696
sg75
(lp5268
g68
(g89
g70
NtRp5269
(dp5270
g73
(dp5271
g93
g94
ssg82
g5265
sg75
(lp5272
S'status'
p5273
asbag68
(g89
g70
NtRp5274
(dp5275
g73
(dp5276
g100
g101
ssg82
g5265
sg75
(lp5277
S':'
asbag68
(g89
g70
NtRp5278
(dp5279
g73
(dp5280
sg82
g5265
sg75
(lp5281
g68
(g69
g70
NtRp5282
(dp5283
g73
(dp5284
g81
I5
ssg82
g5278
sg75
(lp5285
S'200'
p5286
asbasbasbag68
(g84
g70
NtRp5287
(dp5288
g73
(dp5289
sg82
g3696
sg75
(lp5290
g68
(g89
g70
NtRp5291
(dp5292
g73
(dp5293
g93
g94
ssg82
g5287
sg75
(lp5294
S'subtitle'
p5295
asbag68
(g89
g70
NtRp5296
(dp5297
g73
(dp5298
g100
g101
ssg82
g5287
sg75
(lp5299
S':'
asbag68
(g89
g70
NtRp5300
(dp5301
g73
(dp5302
sg82
g5287
sg75
(lp5303
g68
(g69
g70
NtRp5304
(dp5305
g73
(dp5306
g81
I5
ssg82
g5300
sg75
(lp5307
g4229
(S's\r\x00\x00\x00customize me!'
tRp5308
asbasbasbag68
(g84
g70
NtRp5309
(dp5310
g73
(dp5311
sg82
g3696
sg75
(lp5312
g68
(g89
g70
NtRp5313
(dp5314
g73
(dp5315
g93
g94
ssg82
g5309
sg75
(lp5316
S'title'
p5317
asbag68
(g89
g70
NtRp5318
(dp5319
g73
(dp5320
g100
g101
ssg82
g5309
sg75
(lp5321
S':'
asbag68
(g89
g70
NtRp5322
(dp5323
g73
(dp5324
sg82
g5309
sg75
(lp5325
g68
(g69
g70
NtRp5326
(dp5327
g73
(dp5328
g81
I5
ssg82
g5322
sg75
(lp5329
S'Projeto'
p5330
asbasbasbag68
(g84
g70
NtRp5331
(dp5332
g73
(dp5333
sg82
g3696
sg75
(lp5334
g68
(g89
g70
NtRp5335
(dp5336
g73
(dp5337
g93
g94
ssg82
g5331
sg75
(lp5338
S'view'
p5339
asbag68
(g89
g70
NtRp5340
(dp5341
g73
(dp5342
g100
g101
ssg82
g5331
sg75
(lp5343
S':'
asbag68
(g89
g70
NtRp5344
(dp5345
g73
(dp5346
sg82
g5331
sg75
(lp5347
g68
(g69
g70
NtRp5348
(dp5349
g73
(dp5350
g81
I5
ssg82
g5344
sg75
(lp5351
S'initial/detalhes_host.html'
p5352
asbasbasbasbasbsS'locals'
p5353
(dp5354
g4
S"'/var/www/hosts3/applications/projeto/views/initial/detalhes_host.html'"
p5355
sg6
S'r"response.write(\'<!DOCTYPE html>\\n<!-- paulirish....></script>-->\\n</body>\\n</html>\\n\', escape=False)"'
p5356
sssS'traceback'
p5357
S'Traceback (most recent call last):\n  File "/var/www/hosts3/gluon/restricted.py", line 211, in restricted\n    ccode = compile2(code, layer)\n  File "/var/www/hosts3/gluon/restricted.py", line 194, in compile2\n    return compile(code.rstrip().replace(\'\\r\\n\', \'\\n\') + \'\\n\', layer, \'exec\')\n  File "/var/www/hosts3/applications/projeto/views/initial/detalhes_host.html", line 193\n    /div>\n    ^\nSyntaxError: invalid syntax\n'
p5358
s.